

Microchip MPLAB XC8 Assembler V2.36 build 20220127204148 
                                                                                               Sun May 15 11:22:57 2022

Microchip MPLAB XC8 C Compiler v2.36 (Free license) build 20220127204148 Og1 
     1                           	processor	16F1509
     2                           	pagewidth 120
     3                           	opt	flic
     4                           	psect	stringtext1,global,class=STRCODE,delta=2,noexec
     5                           	psect	stringtext2,global,class=STRCODE,delta=2,noexec
     6                           	psect	stringtext3,global,class=STRCODE,delta=2,noexec
     7                           	psect	stringtext4,global,class=STRCODE,delta=2,noexec
     8                           	psect	stringtext5,global,class=STRCODE,delta=2,noexec
     9                           	psect	stringtext6,global,class=STRCODE,delta=2,noexec
    10                           	psect	stringtext7,global,class=STRCODE,delta=2,noexec
    11                           	psect	stringtext8,global,class=STRCODE,delta=2,noexec
    12                           	psect	stringtext9,global,class=STRCODE,delta=2,noexec
    13                           	psect	stringtext10,global,class=STRCODE,delta=2,noexec
    14                           	psect	stringtext11,global,class=STRCODE,delta=2,noexec
    15                           	psect	cinit,global,class=CODE,merge=1,delta=2
    16                           	psect	bssBANK1,global,class=BANK1,space=1,delta=1,noexec
    17                           	psect	bssBANK2,global,class=BANK2,space=1,delta=1,noexec
    18                           	psect	clrtext,global,class=CODE,delta=2
    19                           	psect	cstackBANK1,global,class=BANK1,space=1,delta=1,noexec
    20                           	psect	cstackCOMMON,global,class=COMMON,space=1,delta=1,noexec
    21                           	psect	cstackBANK0,global,class=BANK0,space=1,delta=1,noexec
    22                           	psect	maintext,global,class=CODE,merge=1,split=1,delta=2
    23                           	psect	text1,local,class=CODE,merge=1,delta=2,group=3
    24                           	psect	text2,local,class=CODE,merge=1,delta=2,group=1
    25                           	psect	text3,local,class=CODE,merge=1,delta=2,group=1
    26                           	psect	text4,local,class=CODE,merge=1,delta=2,group=1
    27                           	psect	text5,local,class=CODE,merge=1,delta=2,group=1
    28                           	psect	text6,local,class=CODE,merge=1,delta=2,group=3
    29                           	psect	text7,local,class=CODE,merge=1,delta=2,group=3
    30                           	psect	text8,local,class=CODE,merge=1,delta=2,group=3
    31                           	psect	text9,local,class=CODE,merge=1,delta=2,group=3
    32                           	psect	text10,local,class=CODE,merge=1,delta=2,group=2
    33                           	psect	text11,local,class=CODE,merge=1,delta=2,group=2
    34                           	psect	text12,local,class=CODE,merge=1,delta=2
    35                           	psect	text13,local,class=CODE,merge=1,delta=2
    36                           	psect	text14,local,class=CODE,merge=1,delta=2,group=2
    37                           	psect	text15,local,class=CODE,merge=1,delta=2,group=2
    38                           	psect	text16,local,class=CODE,merge=1,delta=2,group=2
    39                           	psect	text17,local,class=CODE,merge=1,delta=2,group=2
    40                           	psect	text18,local,class=CODE,merge=1,delta=2,group=2
    41                           	psect	text19,local,class=CODE,merge=1,delta=2
    42                           	psect	text20,local,class=CODE,merge=1,delta=2
    43                           	psect	text21,local,class=CODE,merge=1,delta=2
    44                           	psect	text22,local,class=CODE,merge=1,delta=2
    45                           	psect	text23,local,class=CODE,merge=1,delta=2
    46                           	psect	text24,local,class=CODE,merge=1,delta=2
    47                           	psect	text25,local,class=CODE,merge=1,delta=2
    48                           	psect	text26,local,class=CODE,merge=1,delta=2
    49                           	psect	text27,local,class=CODE,merge=1,delta=2
    50                           	psect	text28,local,class=CODE,merge=1,delta=2
    51                           	psect	text29,local,class=CODE,merge=1,delta=2
    52                           	psect	text30,local,class=CODE,merge=1,delta=2
    53                           	psect	text31,local,class=CODE,merge=1,delta=2
    54                           	psect	text32,local,class=CODE,merge=1,delta=2
    55                           	psect	text33,local,class=CODE,merge=1,delta=2
    56                           	psect	idloc,global,abs,ovrld,class=IDLOC,space=5,delta=2,noexec
    57                           	psect	config,global,abs,ovrld,class=CONFIG,space=4,delta=2,noexec
    58                           	dabs	1,0x7E,2
    59  0000                     
    60                           ; Version 2.40
    61                           ; Generated 17/11/2021 GMT
    62                           ; 
    63                           ; Copyright © 2021, Microchip Technology Inc. and its subsidiaries ("Microchip")
    64                           ; All rights reserved.
    65                           ; 
    66                           ; This software is developed by Microchip Technology Inc. and its subsidiaries ("Microch
      +                          ip").
    67                           ; 
    68                           ; Redistribution and use in source and binary forms, with or without modification, are
    69                           ; permitted provided that the following conditions are met:
    70                           ; 
    71                           ;     1. Redistributions of source code must retain the above copyright notice, this lis
      +                          t of
    72                           ;        conditions and the following disclaimer.
    73                           ; 
    74                           ;     2. Redistributions in binary form must reproduce the above copyright notice, this 
      +                          list
    75                           ;        of conditions and the following disclaimer in the documentation and/or other
    76                           ;        materials provided with the distribution. Publication is not required when
    77                           ;        this file is used in an embedded application.
    78                           ; 
    79                           ;     3. Microchip's name may not be used to endorse or promote products derived from th
      +                          is
    80                           ;        software without specific prior written permission.
    81                           ; 
    82                           ; THIS SOFTWARE IS PROVIDED BY MICROCHIP "AS IS" AND ANY EXPRESS OR IMPLIED WARRANTIES,
    83                           ; INCLUDING, BUT NOT LIMITED TO, THE IMPLIED WARRANTIES OF MERCHANTABILITY AND FITNESS F
      +                          OR
    84                           ; PURPOSE ARE DISCLAIMED.  IN NO EVENT SHALL MICROCHIP BE LIABLE FOR ANY DIRECT, INDIREC
      +                          T,
    85                           ; INCIDENTAL, SPECIAL, EXEMPLARY, OR CONSEQUENTIAL DAMAGES (INCLUDING BUT NOT LIMITED TO
    86                           ; PROCUREMENT OF SUBSTITUTE GOODS OR SERVICES; LOSS OF USE, DATA OR PROFITS; OR BUSINESS
    87                           ; INTERRUPTION) HOWSOEVER CAUSED AND ON ANY THEORY OF LIABILITY, WHETHER IN CONTRACT, ST
      +                          RICT
    88                           ; LIABILITY, OR TORT (INCLUDING NEGLIGENCE OR OTHERWISE) ARISING IN ANY WAY OUT OF THE U
      +                          SE OF
    89                           ; THIS SOFTWARE, EVEN IF ADVISED OF THE POSSIBILITY OF SUCH DAMAGE.
    90                           ; 
    91                           ; 
    92                           ; Code-generator required, PIC16F1509 Definitions
    93                           ; 
    94                           ; SFR Addresses
    95  0000                     	;# 
    96  0001                     	;# 
    97  0002                     	;# 
    98  0003                     	;# 
    99  0004                     	;# 
   100  0005                     	;# 
   101  0006                     	;# 
   102  0007                     	;# 
   103  0008                     	;# 
   104  0009                     	;# 
   105  000A                     	;# 
   106  000B                     	;# 
   107  000C                     	;# 
   108  000D                     	;# 
   109  000E                     	;# 
   110  0011                     	;# 
   111  0012                     	;# 
   112  0013                     	;# 
   113  0015                     	;# 
   114  0016                     	;# 
   115  0016                     	;# 
   116  0017                     	;# 
   117  0018                     	;# 
   118  0019                     	;# 
   119  001A                     	;# 
   120  001B                     	;# 
   121  001C                     	;# 
   122  008C                     	;# 
   123  008D                     	;# 
   124  008E                     	;# 
   125  0091                     	;# 
   126  0092                     	;# 
   127  0093                     	;# 
   128  0095                     	;# 
   129  0096                     	;# 
   130  0097                     	;# 
   131  0099                     	;# 
   132  009A                     	;# 
   133  009B                     	;# 
   134  009B                     	;# 
   135  009C                     	;# 
   136  009D                     	;# 
   137  009E                     	;# 
   138  009F                     	;# 
   139  010C                     	;# 
   140  010D                     	;# 
   141  010E                     	;# 
   142  0111                     	;# 
   143  0112                     	;# 
   144  0113                     	;# 
   145  0114                     	;# 
   146  0115                     	;# 
   147  0116                     	;# 
   148  0117                     	;# 
   149  0118                     	;# 
   150  0119                     	;# 
   151  011D                     	;# 
   152  018C                     	;# 
   153  018D                     	;# 
   154  018E                     	;# 
   155  0191                     	;# 
   156  0191                     	;# 
   157  0192                     	;# 
   158  0193                     	;# 
   159  0193                     	;# 
   160  0194                     	;# 
   161  0195                     	;# 
   162  0196                     	;# 
   163  0197                     	;# 
   164  0199                     	;# 
   165  019A                     	;# 
   166  019B                     	;# 
   167  019B                     	;# 
   168  019C                     	;# 
   169  019D                     	;# 
   170  019E                     	;# 
   171  019F                     	;# 
   172  020C                     	;# 
   173  020D                     	;# 
   174  0211                     	;# 
   175  0211                     	;# 
   176  0212                     	;# 
   177  0212                     	;# 
   178  0213                     	;# 
   179  0213                     	;# 
   180  0214                     	;# 
   181  0214                     	;# 
   182  0215                     	;# 
   183  0215                     	;# 
   184  0215                     	;# 
   185  0216                     	;# 
   186  0216                     	;# 
   187  0217                     	;# 
   188  0217                     	;# 
   189  0391                     	;# 
   190  0392                     	;# 
   191  0393                     	;# 
   192  0394                     	;# 
   193  0395                     	;# 
   194  0396                     	;# 
   195  0498                     	;# 
   196  0498                     	;# 
   197  0499                     	;# 
   198  049A                     	;# 
   199  049B                     	;# 
   200  049B                     	;# 
   201  049C                     	;# 
   202  049D                     	;# 
   203  049E                     	;# 
   204  049F                     	;# 
   205  0611                     	;# 
   206  0612                     	;# 
   207  0613                     	;# 
   208  0613                     	;# 
   209  0614                     	;# 
   210  0615                     	;# 
   211  0616                     	;# 
   212  0616                     	;# 
   213  0617                     	;# 
   214  0618                     	;# 
   215  0619                     	;# 
   216  0619                     	;# 
   217  061A                     	;# 
   218  061B                     	;# 
   219  061C                     	;# 
   220  061C                     	;# 
   221  0691                     	;# 
   222  0692                     	;# 
   223  0693                     	;# 
   224  0694                     	;# 
   225  0695                     	;# 
   226  0F0F                     	;# 
   227  0F10                     	;# 
   228  0F11                     	;# 
   229  0F12                     	;# 
   230  0F13                     	;# 
   231  0F14                     	;# 
   232  0F15                     	;# 
   233  0F16                     	;# 
   234  0F17                     	;# 
   235  0F18                     	;# 
   236  0F19                     	;# 
   237  0F1A                     	;# 
   238  0F1B                     	;# 
   239  0F1C                     	;# 
   240  0F1D                     	;# 
   241  0F1E                     	;# 
   242  0F1F                     	;# 
   243  0F20                     	;# 
   244  0F21                     	;# 
   245  0F22                     	;# 
   246  0F23                     	;# 
   247  0F24                     	;# 
   248  0F25                     	;# 
   249  0F26                     	;# 
   250  0F27                     	;# 
   251  0F28                     	;# 
   252  0F29                     	;# 
   253  0F2A                     	;# 
   254  0F2B                     	;# 
   255  0F2C                     	;# 
   256  0F2D                     	;# 
   257  0F2E                     	;# 
   258  0F2F                     	;# 
   259  0F8C                     	;# 
   260  0F8D                     	;# 
   261  0F91                     	;# 
   262  0F95                     	;# 
   263  0F96                     	;# 
   264  0F97                     	;# 
   265  0F9C                     	;# 
   266  0F9D                     	;# 
   267  0F9E                     	;# 
   268  0FE3                     	;# 
   269  0FE4                     	;# 
   270  0FE5                     	;# 
   271  0FE6                     	;# 
   272  0FE7                     	;# 
   273  0FE8                     	;# 
   274  0FE9                     	;# 
   275  0FEA                     	;# 
   276  0FEB                     	;# 
   277  0FED                     	;# 
   278  0FEE                     	;# 
   279  0FEF                     	;# 
   280  0000                     	;# 
   281  0001                     	;# 
   282  0002                     	;# 
   283  0003                     	;# 
   284  0004                     	;# 
   285  0005                     	;# 
   286  0006                     	;# 
   287  0007                     	;# 
   288  0008                     	;# 
   289  0009                     	;# 
   290  000A                     	;# 
   291  000B                     	;# 
   292  000C                     	;# 
   293  000D                     	;# 
   294  000E                     	;# 
   295  0011                     	;# 
   296  0012                     	;# 
   297  0013                     	;# 
   298  0015                     	;# 
   299  0016                     	;# 
   300  0016                     	;# 
   301  0017                     	;# 
   302  0018                     	;# 
   303  0019                     	;# 
   304  001A                     	;# 
   305  001B                     	;# 
   306  001C                     	;# 
   307  008C                     	;# 
   308  008D                     	;# 
   309  008E                     	;# 
   310  0091                     	;# 
   311  0092                     	;# 
   312  0093                     	;# 
   313  0095                     	;# 
   314  0096                     	;# 
   315  0097                     	;# 
   316  0099                     	;# 
   317  009A                     	;# 
   318  009B                     	;# 
   319  009B                     	;# 
   320  009C                     	;# 
   321  009D                     	;# 
   322  009E                     	;# 
   323  009F                     	;# 
   324  010C                     	;# 
   325  010D                     	;# 
   326  010E                     	;# 
   327  0111                     	;# 
   328  0112                     	;# 
   329  0113                     	;# 
   330  0114                     	;# 
   331  0115                     	;# 
   332  0116                     	;# 
   333  0117                     	;# 
   334  0118                     	;# 
   335  0119                     	;# 
   336  011D                     	;# 
   337  018C                     	;# 
   338  018D                     	;# 
   339  018E                     	;# 
   340  0191                     	;# 
   341  0191                     	;# 
   342  0192                     	;# 
   343  0193                     	;# 
   344  0193                     	;# 
   345  0194                     	;# 
   346  0195                     	;# 
   347  0196                     	;# 
   348  0197                     	;# 
   349  0199                     	;# 
   350  019A                     	;# 
   351  019B                     	;# 
   352  019B                     	;# 
   353  019C                     	;# 
   354  019D                     	;# 
   355  019E                     	;# 
   356  019F                     	;# 
   357  020C                     	;# 
   358  020D                     	;# 
   359  0211                     	;# 
   360  0211                     	;# 
   361  0212                     	;# 
   362  0212                     	;# 
   363  0213                     	;# 
   364  0213                     	;# 
   365  0214                     	;# 
   366  0214                     	;# 
   367  0215                     	;# 
   368  0215                     	;# 
   369  0215                     	;# 
   370  0216                     	;# 
   371  0216                     	;# 
   372  0217                     	;# 
   373  0217                     	;# 
   374  0391                     	;# 
   375  0392                     	;# 
   376  0393                     	;# 
   377  0394                     	;# 
   378  0395                     	;# 
   379  0396                     	;# 
   380  0498                     	;# 
   381  0498                     	;# 
   382  0499                     	;# 
   383  049A                     	;# 
   384  049B                     	;# 
   385  049B                     	;# 
   386  049C                     	;# 
   387  049D                     	;# 
   388  049E                     	;# 
   389  049F                     	;# 
   390  0611                     	;# 
   391  0612                     	;# 
   392  0613                     	;# 
   393  0613                     	;# 
   394  0614                     	;# 
   395  0615                     	;# 
   396  0616                     	;# 
   397  0616                     	;# 
   398  0617                     	;# 
   399  0618                     	;# 
   400  0619                     	;# 
   401  0619                     	;# 
   402  061A                     	;# 
   403  061B                     	;# 
   404  061C                     	;# 
   405  061C                     	;# 
   406  0691                     	;# 
   407  0692                     	;# 
   408  0693                     	;# 
   409  0694                     	;# 
   410  0695                     	;# 
   411  0F0F                     	;# 
   412  0F10                     	;# 
   413  0F11                     	;# 
   414  0F12                     	;# 
   415  0F13                     	;# 
   416  0F14                     	;# 
   417  0F15                     	;# 
   418  0F16                     	;# 
   419  0F17                     	;# 
   420  0F18                     	;# 
   421  0F19                     	;# 
   422  0F1A                     	;# 
   423  0F1B                     	;# 
   424  0F1C                     	;# 
   425  0F1D                     	;# 
   426  0F1E                     	;# 
   427  0F1F                     	;# 
   428  0F20                     	;# 
   429  0F21                     	;# 
   430  0F22                     	;# 
   431  0F23                     	;# 
   432  0F24                     	;# 
   433  0F25                     	;# 
   434  0F26                     	;# 
   435  0F27                     	;# 
   436  0F28                     	;# 
   437  0F29                     	;# 
   438  0F2A                     	;# 
   439  0F2B                     	;# 
   440  0F2C                     	;# 
   441  0F2D                     	;# 
   442  0F2E                     	;# 
   443  0F2F                     	;# 
   444  0F8C                     	;# 
   445  0F8D                     	;# 
   446  0F91                     	;# 
   447  0F95                     	;# 
   448  0F96                     	;# 
   449  0F97                     	;# 
   450  0F9C                     	;# 
   451  0F9D                     	;# 
   452  0F9E                     	;# 
   453  0FE3                     	;# 
   454  0FE4                     	;# 
   455  0FE5                     	;# 
   456  0FE6                     	;# 
   457  0FE7                     	;# 
   458  0FE8                     	;# 
   459  0FE9                     	;# 
   460  0FEA                     	;# 
   461  0FEB                     	;# 
   462  0FED                     	;# 
   463  0FEE                     	;# 
   464  0FEF                     	;# 
   465  0000                     	;# 
   466  0001                     	;# 
   467  0002                     	;# 
   468  0003                     	;# 
   469  0004                     	;# 
   470  0005                     	;# 
   471  0006                     	;# 
   472  0007                     	;# 
   473  0008                     	;# 
   474  0009                     	;# 
   475  000A                     	;# 
   476  000B                     	;# 
   477  000C                     	;# 
   478  000D                     	;# 
   479  000E                     	;# 
   480  0011                     	;# 
   481  0012                     	;# 
   482  0013                     	;# 
   483  0015                     	;# 
   484  0016                     	;# 
   485  0016                     	;# 
   486  0017                     	;# 
   487  0018                     	;# 
   488  0019                     	;# 
   489  001A                     	;# 
   490  001B                     	;# 
   491  001C                     	;# 
   492  008C                     	;# 
   493  008D                     	;# 
   494  008E                     	;# 
   495  0091                     	;# 
   496  0092                     	;# 
   497  0093                     	;# 
   498  0095                     	;# 
   499  0096                     	;# 
   500  0097                     	;# 
   501  0099                     	;# 
   502  009A                     	;# 
   503  009B                     	;# 
   504  009B                     	;# 
   505  009C                     	;# 
   506  009D                     	;# 
   507  009E                     	;# 
   508  009F                     	;# 
   509  010C                     	;# 
   510  010D                     	;# 
   511  010E                     	;# 
   512  0111                     	;# 
   513  0112                     	;# 
   514  0113                     	;# 
   515  0114                     	;# 
   516  0115                     	;# 
   517  0116                     	;# 
   518  0117                     	;# 
   519  0118                     	;# 
   520  0119                     	;# 
   521  011D                     	;# 
   522  018C                     	;# 
   523  018D                     	;# 
   524  018E                     	;# 
   525  0191                     	;# 
   526  0191                     	;# 
   527  0192                     	;# 
   528  0193                     	;# 
   529  0193                     	;# 
   530  0194                     	;# 
   531  0195                     	;# 
   532  0196                     	;# 
   533  0197                     	;# 
   534  0199                     	;# 
   535  019A                     	;# 
   536  019B                     	;# 
   537  019B                     	;# 
   538  019C                     	;# 
   539  019D                     	;# 
   540  019E                     	;# 
   541  019F                     	;# 
   542  020C                     	;# 
   543  020D                     	;# 
   544  0211                     	;# 
   545  0211                     	;# 
   546  0212                     	;# 
   547  0212                     	;# 
   548  0213                     	;# 
   549  0213                     	;# 
   550  0214                     	;# 
   551  0214                     	;# 
   552  0215                     	;# 
   553  0215                     	;# 
   554  0215                     	;# 
   555  0216                     	;# 
   556  0216                     	;# 
   557  0217                     	;# 
   558  0217                     	;# 
   559  0391                     	;# 
   560  0392                     	;# 
   561  0393                     	;# 
   562  0394                     	;# 
   563  0395                     	;# 
   564  0396                     	;# 
   565  0498                     	;# 
   566  0498                     	;# 
   567  0499                     	;# 
   568  049A                     	;# 
   569  049B                     	;# 
   570  049B                     	;# 
   571  049C                     	;# 
   572  049D                     	;# 
   573  049E                     	;# 
   574  049F                     	;# 
   575  0611                     	;# 
   576  0612                     	;# 
   577  0613                     	;# 
   578  0613                     	;# 
   579  0614                     	;# 
   580  0615                     	;# 
   581  0616                     	;# 
   582  0616                     	;# 
   583  0617                     	;# 
   584  0618                     	;# 
   585  0619                     	;# 
   586  0619                     	;# 
   587  061A                     	;# 
   588  061B                     	;# 
   589  061C                     	;# 
   590  061C                     	;# 
   591  0691                     	;# 
   592  0692                     	;# 
   593  0693                     	;# 
   594  0694                     	;# 
   595  0695                     	;# 
   596  0F0F                     	;# 
   597  0F10                     	;# 
   598  0F11                     	;# 
   599  0F12                     	;# 
   600  0F13                     	;# 
   601  0F14                     	;# 
   602  0F15                     	;# 
   603  0F16                     	;# 
   604  0F17                     	;# 
   605  0F18                     	;# 
   606  0F19                     	;# 
   607  0F1A                     	;# 
   608  0F1B                     	;# 
   609  0F1C                     	;# 
   610  0F1D                     	;# 
   611  0F1E                     	;# 
   612  0F1F                     	;# 
   613  0F20                     	;# 
   614  0F21                     	;# 
   615  0F22                     	;# 
   616  0F23                     	;# 
   617  0F24                     	;# 
   618  0F25                     	;# 
   619  0F26                     	;# 
   620  0F27                     	;# 
   621  0F28                     	;# 
   622  0F29                     	;# 
   623  0F2A                     	;# 
   624  0F2B                     	;# 
   625  0F2C                     	;# 
   626  0F2D                     	;# 
   627  0F2E                     	;# 
   628  0F2F                     	;# 
   629  0F8C                     	;# 
   630  0F8D                     	;# 
   631  0F91                     	;# 
   632  0F95                     	;# 
   633  0F96                     	;# 
   634  0F97                     	;# 
   635  0F9C                     	;# 
   636  0F9D                     	;# 
   637  0F9E                     	;# 
   638  0FE3                     	;# 
   639  0FE4                     	;# 
   640  0FE5                     	;# 
   641  0FE6                     	;# 
   642  0FE7                     	;# 
   643  0FE8                     	;# 
   644  0FE9                     	;# 
   645  0FEA                     	;# 
   646  0FEB                     	;# 
   647  0FED                     	;# 
   648  0FEE                     	;# 
   649  0FEF                     	;# 
   650  0000                     	;# 
   651  0001                     	;# 
   652  0002                     	;# 
   653  0003                     	;# 
   654  0004                     	;# 
   655  0005                     	;# 
   656  0006                     	;# 
   657  0007                     	;# 
   658  0008                     	;# 
   659  0009                     	;# 
   660  000A                     	;# 
   661  000B                     	;# 
   662  000C                     	;# 
   663  000D                     	;# 
   664  000E                     	;# 
   665  0011                     	;# 
   666  0012                     	;# 
   667  0013                     	;# 
   668  0015                     	;# 
   669  0016                     	;# 
   670  0016                     	;# 
   671  0017                     	;# 
   672  0018                     	;# 
   673  0019                     	;# 
   674  001A                     	;# 
   675  001B                     	;# 
   676  001C                     	;# 
   677  008C                     	;# 
   678  008D                     	;# 
   679  008E                     	;# 
   680  0091                     	;# 
   681  0092                     	;# 
   682  0093                     	;# 
   683  0095                     	;# 
   684  0096                     	;# 
   685  0097                     	;# 
   686  0099                     	;# 
   687  009A                     	;# 
   688  009B                     	;# 
   689  009B                     	;# 
   690  009C                     	;# 
   691  009D                     	;# 
   692  009E                     	;# 
   693  009F                     	;# 
   694  010C                     	;# 
   695  010D                     	;# 
   696  010E                     	;# 
   697  0111                     	;# 
   698  0112                     	;# 
   699  0113                     	;# 
   700  0114                     	;# 
   701  0115                     	;# 
   702  0116                     	;# 
   703  0117                     	;# 
   704  0118                     	;# 
   705  0119                     	;# 
   706  011D                     	;# 
   707  018C                     	;# 
   708  018D                     	;# 
   709  018E                     	;# 
   710  0191                     	;# 
   711  0191                     	;# 
   712  0192                     	;# 
   713  0193                     	;# 
   714  0193                     	;# 
   715  0194                     	;# 
   716  0195                     	;# 
   717  0196                     	;# 
   718  0197                     	;# 
   719  0199                     	;# 
   720  019A                     	;# 
   721  019B                     	;# 
   722  019B                     	;# 
   723  019C                     	;# 
   724  019D                     	;# 
   725  019E                     	;# 
   726  019F                     	;# 
   727  020C                     	;# 
   728  020D                     	;# 
   729  0211                     	;# 
   730  0211                     	;# 
   731  0212                     	;# 
   732  0212                     	;# 
   733  0213                     	;# 
   734  0213                     	;# 
   735  0214                     	;# 
   736  0214                     	;# 
   737  0215                     	;# 
   738  0215                     	;# 
   739  0215                     	;# 
   740  0216                     	;# 
   741  0216                     	;# 
   742  0217                     	;# 
   743  0217                     	;# 
   744  0391                     	;# 
   745  0392                     	;# 
   746  0393                     	;# 
   747  0394                     	;# 
   748  0395                     	;# 
   749  0396                     	;# 
   750  0498                     	;# 
   751  0498                     	;# 
   752  0499                     	;# 
   753  049A                     	;# 
   754  049B                     	;# 
   755  049B                     	;# 
   756  049C                     	;# 
   757  049D                     	;# 
   758  049E                     	;# 
   759  049F                     	;# 
   760  0611                     	;# 
   761  0612                     	;# 
   762  0613                     	;# 
   763  0613                     	;# 
   764  0614                     	;# 
   765  0615                     	;# 
   766  0616                     	;# 
   767  0616                     	;# 
   768  0617                     	;# 
   769  0618                     	;# 
   770  0619                     	;# 
   771  0619                     	;# 
   772  061A                     	;# 
   773  061B                     	;# 
   774  061C                     	;# 
   775  061C                     	;# 
   776  0691                     	;# 
   777  0692                     	;# 
   778  0693                     	;# 
   779  0694                     	;# 
   780  0695                     	;# 
   781  0F0F                     	;# 
   782  0F10                     	;# 
   783  0F11                     	;# 
   784  0F12                     	;# 
   785  0F13                     	;# 
   786  0F14                     	;# 
   787  0F15                     	;# 
   788  0F16                     	;# 
   789  0F17                     	;# 
   790  0F18                     	;# 
   791  0F19                     	;# 
   792  0F1A                     	;# 
   793  0F1B                     	;# 
   794  0F1C                     	;# 
   795  0F1D                     	;# 
   796  0F1E                     	;# 
   797  0F1F                     	;# 
   798  0F20                     	;# 
   799  0F21                     	;# 
   800  0F22                     	;# 
   801  0F23                     	;# 
   802  0F24                     	;# 
   803  0F25                     	;# 
   804  0F26                     	;# 
   805  0F27                     	;# 
   806  0F28                     	;# 
   807  0F29                     	;# 
   808  0F2A                     	;# 
   809  0F2B                     	;# 
   810  0F2C                     	;# 
   811  0F2D                     	;# 
   812  0F2E                     	;# 
   813  0F2F                     	;# 
   814  0F8C                     	;# 
   815  0F8D                     	;# 
   816  0F91                     	;# 
   817  0F95                     	;# 
   818  0F96                     	;# 
   819  0F97                     	;# 
   820  0F9C                     	;# 
   821  0F9D                     	;# 
   822  0F9E                     	;# 
   823  0FE3                     	;# 
   824  0FE4                     	;# 
   825  0FE5                     	;# 
   826  0FE6                     	;# 
   827  0FE7                     	;# 
   828  0FE8                     	;# 
   829  0FE9                     	;# 
   830  0FEA                     	;# 
   831  0FEB                     	;# 
   832  0FED                     	;# 
   833  0FEE                     	;# 
   834  0FEF                     	;# 
   835  0000                     	;# 
   836  0001                     	;# 
   837  0002                     	;# 
   838  0003                     	;# 
   839  0004                     	;# 
   840  0005                     	;# 
   841  0006                     	;# 
   842  0007                     	;# 
   843  0008                     	;# 
   844  0009                     	;# 
   845  000A                     	;# 
   846  000B                     	;# 
   847  000C                     	;# 
   848  000D                     	;# 
   849  000E                     	;# 
   850  0011                     	;# 
   851  0012                     	;# 
   852  0013                     	;# 
   853  0015                     	;# 
   854  0016                     	;# 
   855  0016                     	;# 
   856  0017                     	;# 
   857  0018                     	;# 
   858  0019                     	;# 
   859  001A                     	;# 
   860  001B                     	;# 
   861  001C                     	;# 
   862  008C                     	;# 
   863  008D                     	;# 
   864  008E                     	;# 
   865  0091                     	;# 
   866  0092                     	;# 
   867  0093                     	;# 
   868  0095                     	;# 
   869  0096                     	;# 
   870  0097                     	;# 
   871  0099                     	;# 
   872  009A                     	;# 
   873  009B                     	;# 
   874  009B                     	;# 
   875  009C                     	;# 
   876  009D                     	;# 
   877  009E                     	;# 
   878  009F                     	;# 
   879  010C                     	;# 
   880  010D                     	;# 
   881  010E                     	;# 
   882  0111                     	;# 
   883  0112                     	;# 
   884  0113                     	;# 
   885  0114                     	;# 
   886  0115                     	;# 
   887  0116                     	;# 
   888  0117                     	;# 
   889  0118                     	;# 
   890  0119                     	;# 
   891  011D                     	;# 
   892  018C                     	;# 
   893  018D                     	;# 
   894  018E                     	;# 
   895  0191                     	;# 
   896  0191                     	;# 
   897  0192                     	;# 
   898  0193                     	;# 
   899  0193                     	;# 
   900  0194                     	;# 
   901  0195                     	;# 
   902  0196                     	;# 
   903  0197                     	;# 
   904  0199                     	;# 
   905  019A                     	;# 
   906  019B                     	;# 
   907  019B                     	;# 
   908  019C                     	;# 
   909  019D                     	;# 
   910  019E                     	;# 
   911  019F                     	;# 
   912  020C                     	;# 
   913  020D                     	;# 
   914  0211                     	;# 
   915  0211                     	;# 
   916  0212                     	;# 
   917  0212                     	;# 
   918  0213                     	;# 
   919  0213                     	;# 
   920  0214                     	;# 
   921  0214                     	;# 
   922  0215                     	;# 
   923  0215                     	;# 
   924  0215                     	;# 
   925  0216                     	;# 
   926  0216                     	;# 
   927  0217                     	;# 
   928  0217                     	;# 
   929  0391                     	;# 
   930  0392                     	;# 
   931  0393                     	;# 
   932  0394                     	;# 
   933  0395                     	;# 
   934  0396                     	;# 
   935  0498                     	;# 
   936  0498                     	;# 
   937  0499                     	;# 
   938  049A                     	;# 
   939  049B                     	;# 
   940  049B                     	;# 
   941  049C                     	;# 
   942  049D                     	;# 
   943  049E                     	;# 
   944  049F                     	;# 
   945  0611                     	;# 
   946  0612                     	;# 
   947  0613                     	;# 
   948  0613                     	;# 
   949  0614                     	;# 
   950  0615                     	;# 
   951  0616                     	;# 
   952  0616                     	;# 
   953  0617                     	;# 
   954  0618                     	;# 
   955  0619                     	;# 
   956  0619                     	;# 
   957  061A                     	;# 
   958  061B                     	;# 
   959  061C                     	;# 
   960  061C                     	;# 
   961  0691                     	;# 
   962  0692                     	;# 
   963  0693                     	;# 
   964  0694                     	;# 
   965  0695                     	;# 
   966  0F0F                     	;# 
   967  0F10                     	;# 
   968  0F11                     	;# 
   969  0F12                     	;# 
   970  0F13                     	;# 
   971  0F14                     	;# 
   972  0F15                     	;# 
   973  0F16                     	;# 
   974  0F17                     	;# 
   975  0F18                     	;# 
   976  0F19                     	;# 
   977  0F1A                     	;# 
   978  0F1B                     	;# 
   979  0F1C                     	;# 
   980  0F1D                     	;# 
   981  0F1E                     	;# 
   982  0F1F                     	;# 
   983  0F20                     	;# 
   984  0F21                     	;# 
   985  0F22                     	;# 
   986  0F23                     	;# 
   987  0F24                     	;# 
   988  0F25                     	;# 
   989  0F26                     	;# 
   990  0F27                     	;# 
   991  0F28                     	;# 
   992  0F29                     	;# 
   993  0F2A                     	;# 
   994  0F2B                     	;# 
   995  0F2C                     	;# 
   996  0F2D                     	;# 
   997  0F2E                     	;# 
   998  0F2F                     	;# 
   999  0F8C                     	;# 
  1000  0F8D                     	;# 
  1001  0F91                     	;# 
  1002  0F95                     	;# 
  1003  0F96                     	;# 
  1004  0F97                     	;# 
  1005  0F9C                     	;# 
  1006  0F9D                     	;# 
  1007  0F9E                     	;# 
  1008  0FE3                     	;# 
  1009  0FE4                     	;# 
  1010  0FE5                     	;# 
  1011  0FE6                     	;# 
  1012  0FE7                     	;# 
  1013  0FE8                     	;# 
  1014  0FE9                     	;# 
  1015  0FEA                     	;# 
  1016  0FEB                     	;# 
  1017  0FED                     	;# 
  1018  0FEE                     	;# 
  1019  0FEF                     	;# 
  1020  0000                     	;# 
  1021  0001                     	;# 
  1022  0002                     	;# 
  1023  0003                     	;# 
  1024  0004                     	;# 
  1025  0005                     	;# 
  1026  0006                     	;# 
  1027  0007                     	;# 
  1028  0008                     	;# 
  1029  0009                     	;# 
  1030  000A                     	;# 
  1031  000B                     	;# 
  1032  000C                     	;# 
  1033  000D                     	;# 
  1034  000E                     	;# 
  1035  0011                     	;# 
  1036  0012                     	;# 
  1037  0013                     	;# 
  1038  0015                     	;# 
  1039  0016                     	;# 
  1040  0016                     	;# 
  1041  0017                     	;# 
  1042  0018                     	;# 
  1043  0019                     	;# 
  1044  001A                     	;# 
  1045  001B                     	;# 
  1046  001C                     	;# 
  1047  008C                     	;# 
  1048  008D                     	;# 
  1049  008E                     	;# 
  1050  0091                     	;# 
  1051  0092                     	;# 
  1052  0093                     	;# 
  1053  0095                     	;# 
  1054  0096                     	;# 
  1055  0097                     	;# 
  1056  0099                     	;# 
  1057  009A                     	;# 
  1058  009B                     	;# 
  1059  009B                     	;# 
  1060  009C                     	;# 
  1061  009D                     	;# 
  1062  009E                     	;# 
  1063  009F                     	;# 
  1064  010C                     	;# 
  1065  010D                     	;# 
  1066  010E                     	;# 
  1067  0111                     	;# 
  1068  0112                     	;# 
  1069  0113                     	;# 
  1070  0114                     	;# 
  1071  0115                     	;# 
  1072  0116                     	;# 
  1073  0117                     	;# 
  1074  0118                     	;# 
  1075  0119                     	;# 
  1076  011D                     	;# 
  1077  018C                     	;# 
  1078  018D                     	;# 
  1079  018E                     	;# 
  1080  0191                     	;# 
  1081  0191                     	;# 
  1082  0192                     	;# 
  1083  0193                     	;# 
  1084  0193                     	;# 
  1085  0194                     	;# 
  1086  0195                     	;# 
  1087  0196                     	;# 
  1088  0197                     	;# 
  1089  0199                     	;# 
  1090  019A                     	;# 
  1091  019B                     	;# 
  1092  019B                     	;# 
  1093  019C                     	;# 
  1094  019D                     	;# 
  1095  019E                     	;# 
  1096  019F                     	;# 
  1097  020C                     	;# 
  1098  020D                     	;# 
  1099  0211                     	;# 
  1100  0211                     	;# 
  1101  0212                     	;# 
  1102  0212                     	;# 
  1103  0213                     	;# 
  1104  0213                     	;# 
  1105  0214                     	;# 
  1106  0214                     	;# 
  1107  0215                     	;# 
  1108  0215                     	;# 
  1109  0215                     	;# 
  1110  0216                     	;# 
  1111  0216                     	;# 
  1112  0217                     	;# 
  1113  0217                     	;# 
  1114  0391                     	;# 
  1115  0392                     	;# 
  1116  0393                     	;# 
  1117  0394                     	;# 
  1118  0395                     	;# 
  1119  0396                     	;# 
  1120  0498                     	;# 
  1121  0498                     	;# 
  1122  0499                     	;# 
  1123  049A                     	;# 
  1124  049B                     	;# 
  1125  049B                     	;# 
  1126  049C                     	;# 
  1127  049D                     	;# 
  1128  049E                     	;# 
  1129  049F                     	;# 
  1130  0611                     	;# 
  1131  0612                     	;# 
  1132  0613                     	;# 
  1133  0613                     	;# 
  1134  0614                     	;# 
  1135  0615                     	;# 
  1136  0616                     	;# 
  1137  0616                     	;# 
  1138  0617                     	;# 
  1139  0618                     	;# 
  1140  0619                     	;# 
  1141  0619                     	;# 
  1142  061A                     	;# 
  1143  061B                     	;# 
  1144  061C                     	;# 
  1145  061C                     	;# 
  1146  0691                     	;# 
  1147  0692                     	;# 
  1148  0693                     	;# 
  1149  0694                     	;# 
  1150  0695                     	;# 
  1151  0F0F                     	;# 
  1152  0F10                     	;# 
  1153  0F11                     	;# 
  1154  0F12                     	;# 
  1155  0F13                     	;# 
  1156  0F14                     	;# 
  1157  0F15                     	;# 
  1158  0F16                     	;# 
  1159  0F17                     	;# 
  1160  0F18                     	;# 
  1161  0F19                     	;# 
  1162  0F1A                     	;# 
  1163  0F1B                     	;# 
  1164  0F1C                     	;# 
  1165  0F1D                     	;# 
  1166  0F1E                     	;# 
  1167  0F1F                     	;# 
  1168  0F20                     	;# 
  1169  0F21                     	;# 
  1170  0F22                     	;# 
  1171  0F23                     	;# 
  1172  0F24                     	;# 
  1173  0F25                     	;# 
  1174  0F26                     	;# 
  1175  0F27                     	;# 
  1176  0F28                     	;# 
  1177  0F29                     	;# 
  1178  0F2A                     	;# 
  1179  0F2B                     	;# 
  1180  0F2C                     	;# 
  1181  0F2D                     	;# 
  1182  0F2E                     	;# 
  1183  0F2F                     	;# 
  1184  0F8C                     	;# 
  1185  0F8D                     	;# 
  1186  0F91                     	;# 
  1187  0F95                     	;# 
  1188  0F96                     	;# 
  1189  0F97                     	;# 
  1190  0F9C                     	;# 
  1191  0F9D                     	;# 
  1192  0F9E                     	;# 
  1193  0FE3                     	;# 
  1194  0FE4                     	;# 
  1195  0FE5                     	;# 
  1196  0FE6                     	;# 
  1197  0FE7                     	;# 
  1198  0FE8                     	;# 
  1199  0FE9                     	;# 
  1200  0FEA                     	;# 
  1201  0FEB                     	;# 
  1202  0FED                     	;# 
  1203  0FEE                     	;# 
  1204  0FEF                     	;# 
  1205  0000                     	;# 
  1206  0001                     	;# 
  1207  0002                     	;# 
  1208  0003                     	;# 
  1209  0004                     	;# 
  1210  0005                     	;# 
  1211  0006                     	;# 
  1212  0007                     	;# 
  1213  0008                     	;# 
  1214  0009                     	;# 
  1215  000A                     	;# 
  1216  000B                     	;# 
  1217  000C                     	;# 
  1218  000D                     	;# 
  1219  000E                     	;# 
  1220  0011                     	;# 
  1221  0012                     	;# 
  1222  0013                     	;# 
  1223  0015                     	;# 
  1224  0016                     	;# 
  1225  0016                     	;# 
  1226  0017                     	;# 
  1227  0018                     	;# 
  1228  0019                     	;# 
  1229  001A                     	;# 
  1230  001B                     	;# 
  1231  001C                     	;# 
  1232  008C                     	;# 
  1233  008D                     	;# 
  1234  008E                     	;# 
  1235  0091                     	;# 
  1236  0092                     	;# 
  1237  0093                     	;# 
  1238  0095                     	;# 
  1239  0096                     	;# 
  1240  0097                     	;# 
  1241  0099                     	;# 
  1242  009A                     	;# 
  1243  009B                     	;# 
  1244  009B                     	;# 
  1245  009C                     	;# 
  1246  009D                     	;# 
  1247  009E                     	;# 
  1248  009F                     	;# 
  1249  010C                     	;# 
  1250  010D                     	;# 
  1251  010E                     	;# 
  1252  0111                     	;# 
  1253  0112                     	;# 
  1254  0113                     	;# 
  1255  0114                     	;# 
  1256  0115                     	;# 
  1257  0116                     	;# 
  1258  0117                     	;# 
  1259  0118                     	;# 
  1260  0119                     	;# 
  1261  011D                     	;# 
  1262  018C                     	;# 
  1263  018D                     	;# 
  1264  018E                     	;# 
  1265  0191                     	;# 
  1266  0191                     	;# 
  1267  0192                     	;# 
  1268  0193                     	;# 
  1269  0193                     	;# 
  1270  0194                     	;# 
  1271  0195                     	;# 
  1272  0196                     	;# 
  1273  0197                     	;# 
  1274  0199                     	;# 
  1275  019A                     	;# 
  1276  019B                     	;# 
  1277  019B                     	;# 
  1278  019C                     	;# 
  1279  019D                     	;# 
  1280  019E                     	;# 
  1281  019F                     	;# 
  1282  020C                     	;# 
  1283  020D                     	;# 
  1284  0211                     	;# 
  1285  0211                     	;# 
  1286  0212                     	;# 
  1287  0212                     	;# 
  1288  0213                     	;# 
  1289  0213                     	;# 
  1290  0214                     	;# 
  1291  0214                     	;# 
  1292  0215                     	;# 
  1293  0215                     	;# 
  1294  0215                     	;# 
  1295  0216                     	;# 
  1296  0216                     	;# 
  1297  0217                     	;# 
  1298  0217                     	;# 
  1299  0391                     	;# 
  1300  0392                     	;# 
  1301  0393                     	;# 
  1302  0394                     	;# 
  1303  0395                     	;# 
  1304  0396                     	;# 
  1305  0498                     	;# 
  1306  0498                     	;# 
  1307  0499                     	;# 
  1308  049A                     	;# 
  1309  049B                     	;# 
  1310  049B                     	;# 
  1311  049C                     	;# 
  1312  049D                     	;# 
  1313  049E                     	;# 
  1314  049F                     	;# 
  1315  0611                     	;# 
  1316  0612                     	;# 
  1317  0613                     	;# 
  1318  0613                     	;# 
  1319  0614                     	;# 
  1320  0615                     	;# 
  1321  0616                     	;# 
  1322  0616                     	;# 
  1323  0617                     	;# 
  1324  0618                     	;# 
  1325  0619                     	;# 
  1326  0619                     	;# 
  1327  061A                     	;# 
  1328  061B                     	;# 
  1329  061C                     	;# 
  1330  061C                     	;# 
  1331  0691                     	;# 
  1332  0692                     	;# 
  1333  0693                     	;# 
  1334  0694                     	;# 
  1335  0695                     	;# 
  1336  0F0F                     	;# 
  1337  0F10                     	;# 
  1338  0F11                     	;# 
  1339  0F12                     	;# 
  1340  0F13                     	;# 
  1341  0F14                     	;# 
  1342  0F15                     	;# 
  1343  0F16                     	;# 
  1344  0F17                     	;# 
  1345  0F18                     	;# 
  1346  0F19                     	;# 
  1347  0F1A                     	;# 
  1348  0F1B                     	;# 
  1349  0F1C                     	;# 
  1350  0F1D                     	;# 
  1351  0F1E                     	;# 
  1352  0F1F                     	;# 
  1353  0F20                     	;# 
  1354  0F21                     	;# 
  1355  0F22                     	;# 
  1356  0F23                     	;# 
  1357  0F24                     	;# 
  1358  0F25                     	;# 
  1359  0F26                     	;# 
  1360  0F27                     	;# 
  1361  0F28                     	;# 
  1362  0F29                     	;# 
  1363  0F2A                     	;# 
  1364  0F2B                     	;# 
  1365  0F2C                     	;# 
  1366  0F2D                     	;# 
  1367  0F2E                     	;# 
  1368  0F2F                     	;# 
  1369  0F8C                     	;# 
  1370  0F8D                     	;# 
  1371  0F91                     	;# 
  1372  0F95                     	;# 
  1373  0F96                     	;# 
  1374  0F97                     	;# 
  1375  0F9C                     	;# 
  1376  0F9D                     	;# 
  1377  0F9E                     	;# 
  1378  0FE3                     	;# 
  1379  0FE4                     	;# 
  1380  0FE5                     	;# 
  1381  0FE6                     	;# 
  1382  0FE7                     	;# 
  1383  0FE8                     	;# 
  1384  0FE9                     	;# 
  1385  0FEA                     	;# 
  1386  0FEB                     	;# 
  1387  0FED                     	;# 
  1388  0FEE                     	;# 
  1389  0FEF                     	;# 
  1390  000E                     _PORTCbits	set	14
  1391  001C                     _T2CONbits	set	28
  1392  001C                     _T2CON	set	28
  1393  0011                     _PIR1bits	set	17
  1394  001A                     _TMR2	set	26
  1395  001B                     _PR2	set	27
  1396  0095                     _OPTION_REGbits	set	149
  1397  008E                     _TRISC	set	142
  1398  008D                     _TRISB	set	141
  1399  008C                     _TRISA	set	140
  1400  009D                     _ADCON0bits	set	157
  1401  009D                     _ADCON0	set	157
  1402  009C                     _ADRESH	set	156
  1403  009B                     _ADRESL	set	155
  1404  009F                     _ADCON2	set	159
  1405  009E                     _ADCON1	set	158
  1406  0097                     _WDTCON	set	151
  1407  0099                     _OSCCON	set	153
  1408  010D                     _LATBbits	set	269
  1409  010E                     _LATCbits	set	270
  1410  011D                     _APFCON	set	285
  1411  010E                     _LATC	set	270
  1412  010D                     _LATB	set	269
  1413  010C                     _LATA	set	268
  1414  0116                     _BORCON	set	278
  1415  018C                     _ANSELA	set	396
  1416  018D                     _ANSELB	set	397
  1417  018E                     _ANSELC	set	398
  1418  020C                     _WPUA	set	524
  1419  020D                     _WPUB	set	525
  1420  0617                     _PWM3DCL	set	1559
  1421  0618                     _PWM3DCH	set	1560
  1422  0619                     _PWM3CON	set	1561
  1423                           
  1424                           	psect	stringtext1
  1425  1000                     __pstringtext1:
  1426  1000                     STR_10:
  1427  1000  3444               	retlw	68	;'D'
  1428  1001  3475               	retlw	117	;'u'
  1429  1002  3474               	retlw	116	;'t'
  1430  1003  3479               	retlw	121	;'y'
  1431  1004  3420               	retlw	32	;' '
  1432  1005  3443               	retlw	67	;'C'
  1433  1006  3479               	retlw	121	;'y'
  1434  1007  3463               	retlw	99	;'c'
  1435  1008  346C               	retlw	108	;'l'
  1436  1009  3465               	retlw	101	;'e'
  1437  100A  343A               	retlw	58	;':'
  1438  100B  3420               	retlw	32	;' '
  1439  100C  3420               	retlw	32	;' '
  1440  100D  3420               	retlw	32	;' '
  1441  100E  3400               	retlw	0
  1442                           
  1443                           	psect	stringtext2
  1444  100F                     __pstringtext2:
  1445  100F                     STR_1:
  1446  100F  3444               	retlw	68	;'D'
  1447  1010  3475               	retlw	117	;'u'
  1448  1011  3474               	retlw	116	;'t'
  1449  1012  3479               	retlw	121	;'y'
  1450  1013  3420               	retlw	32	;' '
  1451  1014  3443               	retlw	67	;'C'
  1452  1015  3479               	retlw	121	;'y'
  1453  1016  3463               	retlw	99	;'c'
  1454  1017  346C               	retlw	108	;'l'
  1455  1018  3465               	retlw	101	;'e'
  1456  1019  343A               	retlw	58	;':'
  1457  101A  3420               	retlw	32	;' '
  1458  101B  3400               	retlw	0
  1459                           
  1460                           	psect	stringtext3
  1461  101C                     __pstringtext3:
  1462  101C                     STR_11:
  1463  101C  3450               	retlw	80	;'P'
  1464  101D  3457               	retlw	87	;'W'
  1465  101E  344D               	retlw	77	;'M'
  1466  101F  343A               	retlw	58	;':'
  1467  1020  3420               	retlw	32	;' '
  1468  1021  3420               	retlw	32	;' '
  1469  1022  3420               	retlw	32	;' '
  1470  1023  3420               	retlw	32	;' '
  1471  1024  3400               	retlw	0
  1472                           
  1473                           	psect	stringtext4
  1474  1025                     __pstringtext4:
  1475  1025                     STR_12:
  1476  1025  3444               	retlw	68	;'D'
  1477  1026  3452               	retlw	82	;'R'
  1478  1027  343A               	retlw	58	;':'
  1479  1028  3420               	retlw	32	;' '
  1480  1029  3420               	retlw	32	;' '
  1481  102A  3420               	retlw	32	;' '
  1482  102B  3420               	retlw	32	;' '
  1483  102C  3400               	retlw	0
  1484                           
  1485                           	psect	stringtext5
  1486  102D                     __pstringtext5:
  1487  102D                     STR_2:
  1488  102D  3450               	retlw	80	;'P'
  1489  102E  3457               	retlw	87	;'W'
  1490  102F  344D               	retlw	77	;'M'
  1491  1030  343A               	retlw	58	;':'
  1492  1031  3420               	retlw	32	;' '
  1493  1032  3400               	retlw	0
  1494                           
  1495                           	psect	stringtext6
  1496  1033                     __pstringtext6:
  1497  1033                     STR_5:
  1498  1033  3425               	retlw	37	;'%'
  1499  1034  3475               	retlw	117	;'u'
  1500  1035  3420               	retlw	32	;' '
  1501  1036  3425               	retlw	37	;'%'
  1502  1037  3425               	retlw	37	;'%'
  1503  1038  3400               	retlw	0
  1504                           
  1505                           	psect	stringtext7
  1506  1039                     __pstringtext7:
  1507  1039                     STR_3:
  1508  1039  3444               	retlw	68	;'D'
  1509  103A  3452               	retlw	82	;'R'
  1510  103B  343A               	retlw	58	;':'
  1511  103C  3420               	retlw	32	;' '
  1512  103D  3400               	retlw	0
  1513                           
  1514                           	psect	stringtext8
  1515  103E                     __pstringtext8:
  1516  103E                     STR_9:
  1517  103E  3420               	retlw	32	;' '
  1518  103F  3443               	retlw	67	;'C'
  1519  1040  3443               	retlw	67	;'C'
  1520  1041  3457               	retlw	87	;'W'
  1521  1042  3400               	retlw	0
  1522                           
  1523                           	psect	stringtext9
  1524  1043                     __pstringtext9:
  1525  1043                     STR_7:
  1526  1043  3420               	retlw	32	;' '
  1527  1044  3443               	retlw	67	;'C'
  1528  1045  3457               	retlw	87	;'W'
  1529  1046  3400               	retlw	0
  1530                           
  1531                           	psect	stringtext10
  1532  1047                     __pstringtext10:
  1533  1047                     STR_4:
  1534  1047  3425               	retlw	37	;'%'
  1535  1048  3475               	retlw	117	;'u'
  1536  1049  3400               	retlw	0
  1537                           
  1538                           	psect	stringtext11
  1539  0000                     __pstringtext11:
  1540  1020                     
  1541                           	psect	cinit
  1542  07ED                     start_initialization:	
  1543                           ; #config settings
  1544                           
  1545  07ED                     __initialization:
  1546                           
  1547                           ; Clear objects allocated to BANK1
  1548  07ED  30D7               	movlw	low __pbssBANK1
  1549  07EE  0084               	movwf	4
  1550  07EF  3000               	movlw	high __pbssBANK1
  1551  07F0  0085               	movwf	5
  1552  07F1  300A               	movlw	10
  1553  07F2  318A  223F  3187   	fcall	clear_ram0
  1554                           
  1555                           ; Clear objects allocated to BANK2
  1556  07F5  3020               	movlw	low __pbssBANK2
  1557  07F6  0084               	movwf	4
  1558  07F7  3001               	movlw	high __pbssBANK2
  1559  07F8  0085               	movwf	5
  1560  07F9  3020               	movlw	32
  1561  07FA  318A  223F  3187   	fcall	clear_ram0
  1562  07FD                     end_of_initialization:	
  1563                           ;End of C runtime variable initialization code
  1564                           
  1565  07FD                     __end_of__initialization:
  1566  07FD  0020               	movlb	0
  1567  07FE  3185  2D8B         	ljmp	_main	;jump to C main() function
  1568                           
  1569                           	psect	bssBANK1
  1570  00D7                     __pbssBANK1:
  1571  00D7                     _nout:
  1572  00D7                     	ds	2
  1573  00D9                     _width:
  1574  00D9                     	ds	2
  1575  00DB                     _prec:
  1576  00DB                     	ds	2
  1577  00DD                     _flags:
  1578  00DD                     	ds	2
  1579  00DF                     _ADC_InterruptHandler:
  1580  00DF                     	ds	2
  1581                           
  1582                           	psect	bssBANK2
  1583  0120                     __pbssBANK2:
  1584  0120                     _dbuf:
  1585  0120                     	ds	32
  1586                           
  1587                           	psect	clrtext
  1588  0A3F                     clear_ram0:	
  1589                           ;	Called with FSR0 containing the base address, and
  1590                           ;	WREG with the size to clear
  1591                           
  1592  0A3F  0064               	clrwdt	;clear the watchdog before getting into this loop
  1593  0A40                     clrloop0:
  1594  0A40  0180               	clrf	0	;clear RAM location pointed to by FSR
  1595  0A41  3101               	addfsr 0,1
  1596  0A42  0B89               	decfsz	9,f	;Have we reached the end of clearing yet?
  1597  0A43  2A40               	goto	clrloop0	;have we reached the end yet?
  1598  0A44  3400               	retlw	0	;all done for this memory range, return
  1599                           
  1600                           	psect	cstackBANK1
  1601  00A0                     __pcstackBANK1:
  1602  00A0                     ??_main:
  1603                           
  1604                           ; 1 bytes @ 0x0
  1605  00A0                     	ds	1
  1606  00A1                     main@pwm_string:
  1607                           
  1608                           ; 20 bytes @ 0x1
  1609  00A1                     	ds	20
  1610  00B5                     main@duty_string:
  1611                           
  1612                           ; 20 bytes @ 0x15
  1613  00B5                     	ds	20
  1614  00C9                     main@direc_temp:
  1615                           
  1616                           ; 2 bytes @ 0x29
  1617  00C9                     	ds	2
  1618  00CB                     main@adc_read:
  1619                           
  1620                           ; 2 bytes @ 0x2B
  1621  00CB                     	ds	2
  1622  00CD                     main@pwm_temp:
  1623                           
  1624                           ; 2 bytes @ 0x2D
  1625  00CD                     	ds	2
  1626  00CF                     main@duty_cycle:
  1627                           
  1628                           ; 2 bytes @ 0x2F
  1629  00CF                     	ds	2
  1630  00D1                     main@state_temp:
  1631                           
  1632                           ; 1 bytes @ 0x31
  1633  00D1                     	ds	1
  1634  00D2                     main@motor_direc:
  1635                           
  1636                           ; 2 bytes @ 0x32
  1637  00D2                     	ds	2
  1638  00D4                     main@motor_state:
  1639                           
  1640                           ; 1 bytes @ 0x34
  1641  00D4                     	ds	1
  1642  00D5                     main@pwm_value:
  1643                           
  1644                           ; 2 bytes @ 0x35
  1645  00D5                     	ds	2
  1646                           
  1647                           	psect	cstackCOMMON
  1648  0070                     __pcstackCOMMON:
  1649  0070                     ?_PIN_MANAGER_Initialize:
  1650  0070                     ??_PIN_MANAGER_Initialize:	
  1651                           ; 1 bytes @ 0x0
  1652                           
  1653  0070                     ?_OSCILLATOR_Initialize:	
  1654                           ; 1 bytes @ 0x0
  1655                           
  1656  0070                     ??_OSCILLATOR_Initialize:	
  1657                           ; 1 bytes @ 0x0
  1658                           
  1659  0070                     ?_WDT_Initialize:	
  1660                           ; 1 bytes @ 0x0
  1661                           
  1662  0070                     ??_WDT_Initialize:	
  1663                           ; 1 bytes @ 0x0
  1664                           
  1665  0070                     ?_PWM3_Initialize:	
  1666                           ; 1 bytes @ 0x0
  1667                           
  1668  0070                     ??_PWM3_Initialize:	
  1669                           ; 1 bytes @ 0x0
  1670                           
  1671  0070                     ?_ADC_Initialize:	
  1672                           ; 1 bytes @ 0x0
  1673                           
  1674  0070                     ??_ADC_Initialize:	
  1675                           ; 1 bytes @ 0x0
  1676                           
  1677  0070                     ?_LCD_Initialize:	
  1678                           ; 1 bytes @ 0x0
  1679                           
  1680  0070                     ?_LCDPutCmd:	
  1681                           ; 1 bytes @ 0x0
  1682                           
  1683  0070                     ?_putch:	
  1684                           ; 1 bytes @ 0x0
  1685                           
  1686  0070                     ??_putch:	
  1687                           ; 1 bytes @ 0x0
  1688                           
  1689  0070                     ?_TMR2_Initialize:	
  1690                           ; 1 bytes @ 0x0
  1691                           
  1692  0070                     ??_TMR2_Initialize:	
  1693                           ; 1 bytes @ 0x0
  1694                           
  1695  0070                     ?_SYSTEM_Initialize:	
  1696                           ; 1 bytes @ 0x0
  1697                           
  1698  0070                     ??_SYSTEM_Initialize:	
  1699                           ; 1 bytes @ 0x0
  1700                           
  1701  0070                     ?_ADC_StartConversion:	
  1702                           ; 1 bytes @ 0x0
  1703                           
  1704  0070                     ??_ADC_StartConversion:	
  1705                           ; 1 bytes @ 0x0
  1706                           
  1707  0070                     ?_PWM3_LoadDutyValue:	
  1708                           ; 1 bytes @ 0x0
  1709                           
  1710  0070                     ?_motor_dir:	
  1711                           ; 1 bytes @ 0x0
  1712                           
  1713  0070                     ?_main:	
  1714                           ; 1 bytes @ 0x0
  1715                           
  1716  0070                     ?_LCDWriteNibble:	
  1717                           ; 1 bytes @ 0x0
  1718                           
  1719  0070                     ?_LCDPutChar:	
  1720                           ; 1 bytes @ 0x0
  1721                           
  1722  0070                     ??___lodiv:	
  1723                           ; 1 bytes @ 0x0
  1724                           
  1725  0070                     ??___lomod:	
  1726                           ; 1 bytes @ 0x0
  1727                           
  1728  0070                     ?__Umul8_16:	
  1729                           ; 1 bytes @ 0x0
  1730                           
  1731  0070                     ?_fputc:	
  1732                           ; 2 bytes @ 0x0
  1733                           
  1734  0070                     ?_strlen:	
  1735                           ; 2 bytes @ 0x0
  1736                           
  1737  0070                     ?_ADC_GetConversionResult:	
  1738                           ; 2 bytes @ 0x0
  1739                           
  1740  0070                     ?___xxtofl:	
  1741                           ; 2 bytes @ 0x0
  1742                           
  1743  0070                     LCDWriteNibble@rs:	
  1744                           ; 4 bytes @ 0x0
  1745                           
  1746  0070                     __Umul8_16@multiplicand:	
  1747                           ; 1 bytes @ 0x0
  1748                           
  1749  0070                     putch@c:	
  1750                           ; 1 bytes @ 0x0
  1751                           
  1752  0070                     PWM3_LoadDutyValue@dutyValue:	
  1753                           ; 1 bytes @ 0x0
  1754                           
  1755  0070                     fputc@c:	
  1756                           ; 2 bytes @ 0x0
  1757                           
  1758  0070                     ___xxtofl@val:	
  1759                           ; 2 bytes @ 0x0
  1760                           
  1761                           
  1762                           ; 4 bytes @ 0x0
  1763  0070                     	ds	1
  1764  0071                     ??_LCDWriteNibble:
  1765  0071                     ___lomod@counter:	
  1766                           ; 1 bytes @ 0x1
  1767                           
  1768  0071                     ___lodiv@quotient:	
  1769                           ; 1 bytes @ 0x1
  1770                           
  1771                           
  1772                           ; 8 bytes @ 0x1
  1773  0071                     	ds	1
  1774  0072                     ??__Umul8_16:
  1775  0072                     ??_strlen:	
  1776                           ; 1 bytes @ 0x2
  1777                           
  1778  0072                     ??_ADC_GetConversionResult:	
  1779                           ; 1 bytes @ 0x2
  1780                           
  1781  0072                     ??_PWM3_LoadDutyValue:	
  1782                           ; 1 bytes @ 0x2
  1783                           
  1784  0072                     LCDWriteNibble@ch:	
  1785                           ; 1 bytes @ 0x2
  1786                           
  1787  0072                     fputc@fp:	
  1788                           ; 1 bytes @ 0x2
  1789                           
  1790                           
  1791                           ; 1 bytes @ 0x2
  1792  0072                     	ds	1
  1793  0073                     ??_LCDPutCmd:
  1794  0073                     ??_fputc:	
  1795                           ; 1 bytes @ 0x3
  1796                           
  1797  0073                     ??_LCDPutChar:	
  1798                           ; 1 bytes @ 0x3
  1799                           
  1800  0073                     strlen@a:	
  1801                           ; 1 bytes @ 0x3
  1802                           
  1803                           
  1804                           ; 1 bytes @ 0x3
  1805  0073                     	ds	1
  1806  0074                     ??_motor_dir:
  1807  0074                     ??___xxtofl:	
  1808                           ; 1 bytes @ 0x4
  1809                           
  1810  0074                     motor_dir@dir:	
  1811                           ; 1 bytes @ 0x4
  1812                           
  1813  0074                     strlen@s:	
  1814                           ; 1 bytes @ 0x4
  1815                           
  1816  0074                     __Umul8_16@product:	
  1817                           ; 1 bytes @ 0x4
  1818                           
  1819                           
  1820                           ; 2 bytes @ 0x4
  1821  0074                     	ds	1
  1822  0075                     LCDPutChar@ch:
  1823  0075                     LCDPutCmd@ch:	
  1824                           ; 1 bytes @ 0x5
  1825                           
  1826                           
  1827                           ; 1 bytes @ 0x5
  1828  0075                     	ds	1
  1829  0076                     ??_LCD_Initialize:
  1830  0076                     ?_LCDGoto:	
  1831                           ; 1 bytes @ 0x6
  1832                           
  1833  0076                     LCDGoto@ln:	
  1834                           ; 1 bytes @ 0x6
  1835                           
  1836  0076                     __Umul8_16@word_mpld:	
  1837                           ; 1 bytes @ 0x6
  1838                           
  1839                           
  1840                           ; 2 bytes @ 0x6
  1841  0076                     	ds	1
  1842  0077                     ??_LCDGoto:
  1843  0077                     _LCDGoto$419:	
  1844                           ; 1 bytes @ 0x7
  1845                           
  1846                           
  1847                           ; 2 bytes @ 0x7
  1848  0077                     	ds	1
  1849  0078                     ?_fputs:
  1850  0078                     __Umul8_16@multiplier:	
  1851                           ; 2 bytes @ 0x8
  1852                           
  1853  0078                     ___xxtofl@sign:	
  1854                           ; 1 bytes @ 0x8
  1855                           
  1856  0078                     fputs@fp:	
  1857                           ; 1 bytes @ 0x8
  1858                           
  1859                           
  1860                           ; 1 bytes @ 0x8
  1861  0078                     	ds	1
  1862  0079                     ??_fputs:
  1863  0079                     LCDGoto@pos:	
  1864                           ; 1 bytes @ 0x9
  1865                           
  1866  0079                     ___lodiv@counter:	
  1867                           ; 1 bytes @ 0x9
  1868                           
  1869  0079                     ___xxtofl@exp:	
  1870                           ; 1 bytes @ 0x9
  1871                           
  1872                           
  1873                           ; 1 bytes @ 0x9
  1874  0079                     	ds	1
  1875  007A                     ?_LCDPutStr2:
  1876  007A                     LCDPutStr2@str:	
  1877                           ; 1 bytes @ 0xA
  1878                           
  1879  007A                     ___xxtofl@arg:	
  1880                           ; 2 bytes @ 0xA
  1881                           
  1882                           
  1883                           ; 4 bytes @ 0xA
  1884  007A                     	ds	2
  1885  007C                     ??_pad:
  1886  007C                     LCDPutStr2@_pos:	
  1887                           ; 1 bytes @ 0xC
  1888                           
  1889                           
  1890                           ; 1 bytes @ 0xC
  1891  007C                     	ds	1
  1892  007D                     ??_utoa:
  1893  007D                     LCDPutStr2@_line:	
  1894                           ; 1 bytes @ 0xD
  1895                           
  1896                           
  1897                           ; 1 bytes @ 0xD
  1898  007D                     	ds	1
  1899                           
  1900                           	psect	cstackBANK0
  1901  0020                     __pcstackBANK0:
  1902  0020                     ??_LCDPutStr2:
  1903  0020                     ?___flmul:	
  1904                           ; 1 bytes @ 0x0
  1905                           
  1906  0020                     ?___lodiv:	
  1907                           ; 4 bytes @ 0x0
  1908                           
  1909  0020                     ?___lomod:	
  1910                           ; 8 bytes @ 0x0
  1911                           
  1912  0020                     fputs@c:	
  1913                           ; 8 bytes @ 0x0
  1914                           
  1915  0020                     ___flmul@b:	
  1916                           ; 1 bytes @ 0x0
  1917                           
  1918  0020                     ___lodiv@divisor:	
  1919                           ; 4 bytes @ 0x0
  1920                           
  1921  0020                     ___lomod@divisor:	
  1922                           ; 8 bytes @ 0x0
  1923                           
  1924                           
  1925                           ; 8 bytes @ 0x0
  1926  0020                     	ds	1
  1927  0021                     fputs@i:
  1928                           
  1929                           ; 2 bytes @ 0x1
  1930  0021                     	ds	2
  1931  0023                     LCDPutStr2@i:
  1932  0023                     fputs@s:	
  1933                           ; 1 bytes @ 0x3
  1934                           
  1935                           
  1936                           ; 1 bytes @ 0x3
  1937  0023                     	ds	1
  1938  0024                     ?_pad:
  1939  0024                     pad@buf:	
  1940                           ; 2 bytes @ 0x4
  1941                           
  1942  0024                     ___flmul@a:	
  1943                           ; 1 bytes @ 0x4
  1944                           
  1945                           
  1946                           ; 4 bytes @ 0x4
  1947  0024                     	ds	1
  1948  0025                     pad@p:
  1949                           
  1950                           ; 2 bytes @ 0x5
  1951  0025                     	ds	2
  1952  0027                     pad@i:
  1953                           
  1954                           ; 2 bytes @ 0x7
  1955  0027                     	ds	1
  1956  0028                     ??___flmul:
  1957  0028                     ___lodiv@dividend:	
  1958                           ; 1 bytes @ 0x8
  1959                           
  1960  0028                     ___lomod@dividend:	
  1961                           ; 8 bytes @ 0x8
  1962                           
  1963                           
  1964                           ; 8 bytes @ 0x8
  1965  0028                     	ds	1
  1966  0029                     pad@w:
  1967                           
  1968                           ; 2 bytes @ 0x9
  1969  0029                     	ds	2
  1970  002B                     pad@fp:
  1971                           
  1972                           ; 1 bytes @ 0xB
  1973  002B                     	ds	2
  1974  002D                     ___flmul@sign:
  1975                           
  1976                           ; 1 bytes @ 0xD
  1977  002D                     	ds	1
  1978  002E                     ___flmul@grs:
  1979                           
  1980                           ; 4 bytes @ 0xE
  1981  002E                     	ds	2
  1982  0030                     ?_utoa:
  1983  0030                     utoa@d:	
  1984                           ; 2 bytes @ 0x10
  1985                           
  1986                           
  1987                           ; 8 bytes @ 0x10
  1988  0030                     	ds	2
  1989  0032                     ___flmul@aexp:
  1990                           
  1991                           ; 1 bytes @ 0x12
  1992  0032                     	ds	1
  1993  0033                     ___flmul@bexp:
  1994                           
  1995                           ; 1 bytes @ 0x13
  1996  0033                     	ds	1
  1997  0034                     ___flmul@prod:
  1998                           
  1999                           ; 4 bytes @ 0x14
  2000  0034                     	ds	4
  2001  0038                     utoa@fp:
  2002  0038                     ___flmul@temp:	
  2003                           ; 1 bytes @ 0x18
  2004                           
  2005                           
  2006                           ; 2 bytes @ 0x18
  2007  0038                     	ds	1
  2008  0039                     utoa@p:
  2009                           
  2010                           ; 2 bytes @ 0x19
  2011  0039                     	ds	1
  2012  003A                     ?___fladd:
  2013  003A                     ___fladd@b:	
  2014                           ; 4 bytes @ 0x1A
  2015                           
  2016                           
  2017                           ; 4 bytes @ 0x1A
  2018  003A                     	ds	1
  2019  003B                     utoa@w:
  2020                           
  2021                           ; 2 bytes @ 0x1B
  2022  003B                     	ds	2
  2023  003D                     utoa@n:
  2024                           
  2025                           ; 8 bytes @ 0x1D
  2026  003D                     	ds	1
  2027  003E                     ___fladd@a:
  2028                           
  2029                           ; 4 bytes @ 0x1E
  2030  003E                     	ds	4
  2031  0042                     ??___fladd:
  2032                           
  2033                           ; 1 bytes @ 0x22
  2034  0042                     	ds	3
  2035  0045                     utoa@i:
  2036                           
  2037                           ; 2 bytes @ 0x25
  2038  0045                     	ds	2
  2039  0047                     ?_vfpfcnvrt:
  2040  0047                     vfpfcnvrt@fmt:	
  2041                           ; 2 bytes @ 0x27
  2042                           
  2043                           
  2044                           ; 1 bytes @ 0x27
  2045  0047                     	ds	1
  2046  0048                     vfpfcnvrt@ap:
  2047                           
  2048                           ; 1 bytes @ 0x28
  2049  0048                     	ds	1
  2050  0049                     ??_vfpfcnvrt:
  2051                           
  2052                           ; 1 bytes @ 0x29
  2053  0049                     	ds	1
  2054  004A                     ___fladd@signs:
  2055                           
  2056                           ; 1 bytes @ 0x2A
  2057  004A                     	ds	1
  2058  004B                     ___fladd@aexp:
  2059                           
  2060                           ; 1 bytes @ 0x2B
  2061  004B                     	ds	1
  2062  004C                     ___fladd@bexp:
  2063                           
  2064                           ; 1 bytes @ 0x2C
  2065  004C                     	ds	1
  2066  004D                     ___fladd@grs:
  2067                           
  2068                           ; 1 bytes @ 0x2D
  2069  004D                     	ds	1
  2070  004E                     ?___fltol:
  2071  004E                     ___fltol@f1:	
  2072                           ; 4 bytes @ 0x2E
  2073                           
  2074  004E                     vfpfcnvrt@llu:	
  2075                           ; 4 bytes @ 0x2E
  2076                           
  2077                           
  2078                           ; 8 bytes @ 0x2E
  2079  004E                     	ds	4
  2080  0052                     ??___fltol:
  2081                           
  2082                           ; 1 bytes @ 0x32
  2083  0052                     	ds	4
  2084  0056                     vfpfcnvrt@fp:
  2085                           
  2086                           ; 1 bytes @ 0x36
  2087  0056                     	ds	1
  2088  0057                     ?_vfprintf:
  2089  0057                     ___fltol@sign1:	
  2090                           ; 2 bytes @ 0x37
  2091                           
  2092  0057                     vfprintf@fmt:	
  2093                           ; 1 bytes @ 0x37
  2094                           
  2095                           
  2096                           ; 2 bytes @ 0x37
  2097  0057                     	ds	1
  2098  0058                     ___fltol@exp1:
  2099                           
  2100                           ; 1 bytes @ 0x38
  2101  0058                     	ds	1
  2102  0059                     vfprintf@ap:
  2103                           
  2104                           ; 1 bytes @ 0x39
  2105  0059                     	ds	1
  2106  005A                     ??_vfprintf:
  2107                           
  2108                           ; 1 bytes @ 0x3A
  2109  005A                     	ds	2
  2110  005C                     vfprintf@fp:
  2111                           
  2112                           ; 1 bytes @ 0x3C
  2113  005C                     	ds	1
  2114  005D                     vfprintf@cfmt:
  2115                           
  2116                           ; 2 bytes @ 0x3D
  2117  005D                     	ds	2
  2118  005F                     ?_sprintf:
  2119  005F                     sprintf@fmt:	
  2120                           ; 2 bytes @ 0x3F
  2121                           
  2122                           
  2123                           ; 2 bytes @ 0x3F
  2124  005F                     	ds	4
  2125  0063                     ??_sprintf:
  2126                           
  2127                           ; 1 bytes @ 0x43
  2128  0063                     	ds	1
  2129  0064                     sprintf@ap:
  2130                           
  2131                           ; 1 bytes @ 0x44
  2132  0064                     	ds	1
  2133  0065                     sprintf@s:
  2134                           
  2135                           ; 1 bytes @ 0x45
  2136  0065                     	ds	1
  2137  0066                     sprintf@f:
  2138                           
  2139                           ; 10 bytes @ 0x46
  2140  0066                     	ds	10
  2141                           
  2142                           	psect	maintext
  2143  058B                     __pmaintext:	
  2144 ;;
  2145 ;;Main: autosize = 0, tempsize = 1, incstack = 0, save=0
  2146 ;;
  2147 ;; *************** function _main *****************
  2148 ;; Defined at:
  2149 ;;		line 109 in file "main.c"
  2150 ;; Parameters:    Size  Location     Type
  2151 ;;		None
  2152 ;; Auto vars:     Size  Location     Type
  2153 ;;  duty_string    20   21[BANK1 ] unsigned char [20]
  2154 ;;  pwm_string     20    1[BANK1 ] unsigned char [20]
  2155 ;;  pwm_value       2   53[BANK1 ] int 
  2156 ;;  motor_direc     2   50[BANK1 ] int 
  2157 ;;  duty_cycle      2   47[BANK1 ] int 
  2158 ;;  pwm_temp        2   45[BANK1 ] int 
  2159 ;;  adc_read        2   43[BANK1 ] int 
  2160 ;;  direc_temp      2   41[BANK1 ] int 
  2161 ;;  motor_state     1   52[BANK1 ] unsigned char 
  2162 ;;  state_temp      1   49[BANK1 ] unsigned char 
  2163 ;; Return value:  Size  Location     Type
  2164 ;;                  1    wreg      void 
  2165 ;; Registers used:
  2166 ;;		wreg, fsr0l, fsr0h, fsr1l, fsr1h, status,2, status,0, pclath, cstack
  2167 ;; Tracked objects:
  2168 ;;		On entry : B1F/0
  2169 ;;		On exit  : 0/0
  2170 ;;		Unchanged: 0/0
  2171 ;; Data sizes:     COMMON   BANK0   BANK1   BANK2   BANK3   BANK4   BANK5   BANK6
  2172 ;;      Params:         0       0       0       0       0       0       0       0
  2173 ;;      Locals:         0       0      54       0       0       0       0       0
  2174 ;;      Temps:          0       0       1       0       0       0       0       0
  2175 ;;      Totals:         0       0      55       0       0       0       0       0
  2176 ;;Total ram usage:       55 bytes
  2177 ;; Hardware stack levels required when called: 8
  2178 ;; This function calls:
  2179 ;;		_ADC_GetConversionResult
  2180 ;;		_ADC_StartConversion
  2181 ;;		_LCDPutStr2
  2182 ;;		_LCD_Initialize
  2183 ;;		_PWM3_LoadDutyValue
  2184 ;;		_SYSTEM_Initialize
  2185 ;;		___fladd
  2186 ;;		___flmul
  2187 ;;		___fltol
  2188 ;;		___xxtofl
  2189 ;;		_motor_dir
  2190 ;;		_sprintf
  2191 ;; This function is called by:
  2192 ;;		Startup code after reset
  2193 ;; This function uses a non-reentrant model
  2194 ;;
  2195                           
  2196  058B                     _main:	
  2197                           ;psect for function _main
  2198                           
  2199  058B                     l2640:	
  2200                           ;incstack = 0
  2201                           ; Regs used in _main: [wreg-fsr1h+status,2+status,0+pclath+cstack]
  2202                           
  2203                           
  2204                           ;main.c: 112:     SYSTEM_Initialize();
  2205  058B  318A  2255  3185   	fcall	_SYSTEM_Initialize
  2206                           
  2207                           ;main.c: 113:     LCD_Initialize() ;
  2208  058E  318A  22ED  3185   	fcall	_LCD_Initialize
  2209  0591                     l2642:
  2210                           
  2211                           ;main.c: 116:     unsigned char motor_state = 0;
  2212  0591  0021               	movlb	1	; select bank1
  2213  0592  01D4               	clrf	main@motor_state^(0+128)
  2214  0593                     l2644:
  2215                           
  2216                           ;main.c: 117:     unsigned char state_temp = 1;
  2217  0593  01D1               	clrf	main@state_temp^(0+128)
  2218  0594  0AD1               	incf	main@state_temp^(0+128),f
  2219  0595                     l2646:
  2220                           
  2221                           ;main.c: 119:     int motor_direc = 1;
  2222  0595  3001               	movlw	1
  2223  0596  00D2               	movwf	main@motor_direc^(0+128)
  2224  0597  3000               	movlw	0
  2225  0598  00D3               	movwf	(main@motor_direc^(0+128)+1)
  2226  0599                     l2648:
  2227                           
  2228                           ;main.c: 120:     int direc_temp = 0;
  2229  0599  01C9               	clrf	main@direc_temp^(0+128)
  2230  059A  01CA               	clrf	(main@direc_temp+1)^(0+128)
  2231  059B                     l2650:
  2232  059B                     l2652:
  2233  059B                     l2654:
  2234                           
  2235                           ;main.c: 125:     int pwm_temp = 0;
  2236  059B  01CD               	clrf	main@pwm_temp^(0+128)
  2237  059C  01CE               	clrf	(main@pwm_temp+1)^(0+128)
  2238  059D                     l2656:
  2239  059D                     l2658:
  2240                           
  2241                           ;main.c: 129:     char duty_string[20];;main.c: 132:     PWM3_LoadDutyValue(0);
  2242  059D  3000               	movlw	0
  2243  059E  00F0               	movwf	PWM3_LoadDutyValue@dutyValue
  2244  059F  00F1               	movwf	PWM3_LoadDutyValue@dutyValue+1
  2245  05A0  318A  2268  3185   	fcall	_PWM3_LoadDutyValue
  2246  05A3                     l2660:
  2247                           
  2248                           ;main.c: 135:     LCDPutStr2("Duty Cycle: ", 1, 0);
  2249  05A3  300F               	movlw	low (STR_1| (0+32768))
  2250  05A4  00FA               	movwf	LCDPutStr2@str
  2251  05A5  3090               	movlw	high (STR_1| (0+32768))
  2252  05A6  00FB               	movwf	LCDPutStr2@str+1
  2253  05A7  01FC               	clrf	LCDPutStr2@_pos
  2254  05A8  0AFC               	incf	LCDPutStr2@_pos,f
  2255  05A9  01FD               	clrf	LCDPutStr2@_line
  2256  05AA  318B  23F4  3185   	fcall	_LCDPutStr2
  2257  05AD                     l2662:
  2258                           
  2259                           ;main.c: 138:     LCDPutStr2("PWM: ", 0, 1);
  2260  05AD  302D               	movlw	low (STR_2| (0+32768))
  2261  05AE  00FA               	movwf	LCDPutStr2@str
  2262  05AF  3090               	movlw	high (STR_2| (0+32768))
  2263  05B0  00FB               	movwf	LCDPutStr2@str+1
  2264  05B1  01FC               	clrf	LCDPutStr2@_pos
  2265  05B2  01FD               	clrf	LCDPutStr2@_line
  2266  05B3  0AFD               	incf	LCDPutStr2@_line,f
  2267  05B4  318B  23F4  3185   	fcall	_LCDPutStr2
  2268  05B7                     l2664:
  2269                           
  2270                           ;main.c: 139:     LCDPutStr2("DR: ", 9, 1);
  2271  05B7  3039               	movlw	low (STR_3| (0+32768))
  2272  05B8  00FA               	movwf	LCDPutStr2@str
  2273  05B9  3090               	movlw	high (STR_3| (0+32768))
  2274  05BA  00FB               	movwf	LCDPutStr2@str+1
  2275  05BB  3009               	movlw	9
  2276  05BC  0021               	movlb	1	; select bank1
  2277  05BD  00A0               	movwf	??_main^(0+128)
  2278  05BE  0820               	movf	??_main^(0+128),w
  2279  05BF  00FC               	movwf	LCDPutStr2@_pos
  2280  05C0  01FD               	clrf	LCDPutStr2@_line
  2281  05C1  0AFD               	incf	LCDPutStr2@_line,f
  2282  05C2  318B  23F4  3185   	fcall	_LCDPutStr2
  2283  05C5                     l2666:
  2284                           
  2285                           ;main.c: 146:         if((motor_state == 0)&&(PORTCbits.RC5 == 1)){
  2286  05C5  0021               	movlb	1	; select bank1
  2287  05C6  0854               	movf	main@motor_state^(0+128),w
  2288  05C7  1D03               	btfss	3,2
  2289  05C8  2DCA               	goto	u3201
  2290  05C9  2DCB               	goto	u3200
  2291  05CA                     u3201:
  2292  05CA  2DE6               	goto	l2678
  2293  05CB                     u3200:
  2294  05CB                     l2668:
  2295  05CB  0020               	movlb	0	; select bank0
  2296  05CC  1E8E               	btfss	14,5	;volatile
  2297  05CD  2DCF               	goto	u3211
  2298  05CE  2DD0               	goto	u3210
  2299  05CF                     u3211:
  2300  05CF  2DE6               	goto	l2678
  2301  05D0                     u3210:
  2302  05D0                     l2670:
  2303                           
  2304                           ;main.c: 148:             _delay((unsigned long)((90)*(1000000/4000.0)));
  2305  05D0  301E               	movlw	30
  2306  05D1  0021               	movlb	1	; select bank1
  2307  05D2  00A0               	movwf	??_main^(0+128)
  2308  05D3  3037               	movlw	55
  2309  05D4                     u3457:
  2310  05D4  0B89               	decfsz	9,f
  2311  05D5  2DD4               	goto	u3457
  2312  05D6  0BA0               	decfsz	??_main^(0+128),f
  2313  05D7  2DD4               	goto	u3457
  2314  05D8                     l2672:
  2315                           
  2316                           ;main.c: 150:             if((motor_state == 0)&&(PORTCbits.RC5 == 1)){
  2317  05D8  0021               	movlb	1	; select bank1
  2318  05D9  0854               	movf	main@motor_state^(0+128),w
  2319  05DA  1D03               	btfss	3,2
  2320  05DB  2DDD               	goto	u3221
  2321  05DC  2DDE               	goto	u3220
  2322  05DD                     u3221:
  2323  05DD  2DE6               	goto	l2678
  2324  05DE                     u3220:
  2325  05DE                     l2674:
  2326  05DE  0020               	movlb	0	; select bank0
  2327  05DF  1E8E               	btfss	14,5	;volatile
  2328  05E0  2DE2               	goto	u3231
  2329  05E1  2DE3               	goto	u3230
  2330  05E2                     u3231:
  2331  05E2  2DE6               	goto	l2678
  2332  05E3                     u3230:
  2333  05E3                     l2676:
  2334                           
  2335                           ;main.c: 153:                 motor_state = 1;
  2336  05E3  0021               	movlb	1	; select bank1
  2337  05E4  01D4               	clrf	main@motor_state^(0+128)
  2338  05E5  0AD4               	incf	main@motor_state^(0+128),f
  2339  05E6                     l2678:
  2340                           
  2341                           ;main.c: 162:         if(motor_state == 1){
  2342  05E6  0021               	movlb	1	; select bank1
  2343  05E7  0354               	decf	main@motor_state^(0+128),w
  2344  05E8  1D03               	btfss	3,2
  2345  05E9  2DEB               	goto	u3241
  2346  05EA  2DEC               	goto	u3240
  2347  05EB                     u3241:
  2348  05EB  2F8F               	goto	l2758
  2349  05EC                     u3240:
  2350  05EC                     l2680:
  2351                           
  2352                           ;main.c: 165:               state_temp = 1;
  2353  05EC  01D1               	clrf	main@state_temp^(0+128)
  2354  05ED  0AD1               	incf	main@state_temp^(0+128),f
  2355  05EE                     l2682:
  2356                           
  2357                           ;main.c: 169:               ADC_StartConversion();
  2358  05EE  318A  222C  3185   	fcall	_ADC_StartConversion
  2359  05F1                     l2684:
  2360                           
  2361                           ;main.c: 172:               adc_read = ADC_GetConversionResult();
  2362  05F1  318A  2233  3185   	fcall	_ADC_GetConversionResult
  2363  05F4  0871               	movf	?_ADC_GetConversionResult+1,w
  2364  05F5  0021               	movlb	1	; select bank1
  2365  05F6  00CC               	movwf	(main@adc_read+1)^(0+128)
  2366  05F7  0870               	movf	?_ADC_GetConversionResult,w
  2367  05F8  00CB               	movwf	main@adc_read^(0+128)
  2368  05F9                     l2686:
  2369                           
  2370                           ;main.c: 175:                   pwm_value = adc_read * 0.976563;
  2371  05F9  084B               	movf	main@adc_read^(0+128),w
  2372  05FA  00F0               	movwf	___xxtofl@val
  2373  05FB  084C               	movf	(main@adc_read+1)^(0+128),w
  2374  05FC  00F1               	movwf	___xxtofl@val+1
  2375  05FD  0D89               	rlf	9,f
  2376  05FE  3B89               	subwfb	9,f
  2377  05FF  0989               	comf	9,f
  2378  0600  00F2               	movwf	___xxtofl@val+2
  2379  0601  00F3               	movwf	___xxtofl@val+3
  2380  0602  3001               	movlw	1
  2381  0603  318E  2691  3185   	fcall	___xxtofl
  2382  0606  0873               	movf	?___xxtofl+3,w
  2383  0607  0020               	movlb	0	; select bank0
  2384  0608  00A7               	movwf	___flmul@a+3
  2385  0609  0872               	movf	?___xxtofl+2,w
  2386  060A  00A6               	movwf	___flmul@a+2
  2387  060B  0871               	movf	?___xxtofl+1,w
  2388  060C  00A5               	movwf	___flmul@a+1
  2389  060D  0870               	movf	?___xxtofl,w
  2390  060E  00A4               	movwf	___flmul@a
  2391  060F  303F               	movlw	63
  2392  0610  00A3               	movwf	___flmul@b+3
  2393  0611  307A               	movlw	122
  2394  0612  00A2               	movwf	___flmul@b+2
  2395  0613  3000               	movlw	0
  2396  0614  00A1               	movwf	___flmul@b+1
  2397  0615  3008               	movlw	8
  2398  0616  00A0               	movwf	___flmul@b
  2399  0617  3183  2334  3185   	fcall	___flmul
  2400  061A  0020               	movlb	0	; select bank0
  2401  061B  0823               	movf	?___flmul+3,w
  2402  061C  00D1               	movwf	___fltol@f1+3
  2403  061D  0822               	movf	?___flmul+2,w
  2404  061E  00D0               	movwf	___fltol@f1+2
  2405  061F  0821               	movf	?___flmul+1,w
  2406  0620  00CF               	movwf	___fltol@f1+1
  2407  0621  0820               	movf	?___flmul,w
  2408  0622  00CE               	movwf	___fltol@f1
  2409  0623  318D  2598  3185   	fcall	___fltol
  2410  0626  0020               	movlb	0	; select bank0
  2411  0627  084F               	movf	?___fltol+1,w
  2412  0628  0021               	movlb	1	; select bank1
  2413  0629  00D6               	movwf	(main@pwm_value+1)^(0+128)
  2414  062A  0020               	movlb	0	; select bank0
  2415  062B  084E               	movf	?___fltol,w
  2416  062C  0021               	movlb	1	; select bank1
  2417  062D  00D5               	movwf	main@pwm_value^(0+128)
  2418  062E                     l2688:
  2419                           
  2420                           ;main.c: 177:                   duty_cycle = pwm_value * 0.1 + 1;
  2421  062E  0855               	movf	main@pwm_value^(0+128),w
  2422  062F  00F0               	movwf	___xxtofl@val
  2423  0630  0856               	movf	(main@pwm_value+1)^(0+128),w
  2424  0631  00F1               	movwf	___xxtofl@val+1
  2425  0632  0D89               	rlf	9,f
  2426  0633  3B89               	subwfb	9,f
  2427  0634  0989               	comf	9,f
  2428  0635  00F2               	movwf	___xxtofl@val+2
  2429  0636  00F3               	movwf	___xxtofl@val+3
  2430  0637  3001               	movlw	1
  2431  0638  318E  2691  3185   	fcall	___xxtofl
  2432  063B  0873               	movf	?___xxtofl+3,w
  2433  063C  0020               	movlb	0	; select bank0
  2434  063D  00A7               	movwf	___flmul@a+3
  2435  063E  0872               	movf	?___xxtofl+2,w
  2436  063F  00A6               	movwf	___flmul@a+2
  2437  0640  0871               	movf	?___xxtofl+1,w
  2438  0641  00A5               	movwf	___flmul@a+1
  2439  0642  0870               	movf	?___xxtofl,w
  2440  0643  00A4               	movwf	___flmul@a
  2441  0644  303D               	movlw	61
  2442  0645  00A3               	movwf	___flmul@b+3
  2443  0646  30CC               	movlw	204
  2444  0647  00A2               	movwf	___flmul@b+2
  2445  0648  30CC               	movlw	204
  2446  0649  00A1               	movwf	___flmul@b+1
  2447  064A  30CD               	movlw	205
  2448  064B  00A0               	movwf	___flmul@b
  2449  064C  3183  2334  3185   	fcall	___flmul
  2450  064F  0020               	movlb	0	; select bank0
  2451  0650  0823               	movf	?___flmul+3,w
  2452  0651  00C1               	movwf	___fladd@a+3
  2453  0652  0822               	movf	?___flmul+2,w
  2454  0653  00C0               	movwf	___fladd@a+2
  2455  0654  0821               	movf	?___flmul+1,w
  2456  0655  00BF               	movwf	___fladd@a+1
  2457  0656  0820               	movf	?___flmul,w
  2458  0657  00BE               	movwf	___fladd@a
  2459  0658  303F               	movlw	63
  2460  0659  00BD               	movwf	___fladd@b+3
  2461  065A  3080               	movlw	128
  2462  065B  00BC               	movwf	___fladd@b+2
  2463  065C  3000               	movlw	0
  2464  065D  00BB               	movwf	___fladd@b+1
  2465  065E  3000               	movlw	0
  2466  065F  00BA               	movwf	___fladd@b
  2467  0660  3180  20FC  3185   	fcall	___fladd
  2468  0663  0020               	movlb	0	; select bank0
  2469  0664  083D               	movf	?___fladd+3,w
  2470  0665  00D1               	movwf	___fltol@f1+3
  2471  0666  083C               	movf	?___fladd+2,w
  2472  0667  00D0               	movwf	___fltol@f1+2
  2473  0668  083B               	movf	?___fladd+1,w
  2474  0669  00CF               	movwf	___fltol@f1+1
  2475  066A  083A               	movf	?___fladd,w
  2476  066B  00CE               	movwf	___fltol@f1
  2477  066C  318D  2598  3185   	fcall	___fltol
  2478  066F  0020               	movlb	0	; select bank0
  2479  0670  084F               	movf	?___fltol+1,w
  2480  0671  0021               	movlb	1	; select bank1
  2481  0672  00D0               	movwf	(main@duty_cycle+1)^(0+128)
  2482  0673  0020               	movlb	0	; select bank0
  2483  0674  084E               	movf	?___fltol,w
  2484  0675  0021               	movlb	1	; select bank1
  2485  0676  00CF               	movwf	main@duty_cycle^(0+128)
  2486  0677                     l2690:
  2487                           
  2488                           ;main.c: 180:               if(pwm_value < 199){
  2489  0677  0856               	movf	(main@pwm_value+1)^(0+128),w
  2490  0678  3A80               	xorlw	128
  2491  0679  00A0               	movwf	??_main^(0+128)
  2492  067A  3080               	movlw	128
  2493  067B  0220               	subwf	??_main^(0+128),w
  2494  067C  1D03               	skipz
  2495  067D  2E80               	goto	u3255
  2496  067E  30C7               	movlw	199
  2497  067F  0255               	subwf	main@pwm_value^(0+128),w
  2498  0680                     u3255:
  2499  0680  1803               	skipnc
  2500  0681  2E83               	goto	u3251
  2501  0682  2E84               	goto	u3250
  2502  0683                     u3251:
  2503  0683  2E87               	goto	l2694
  2504  0684                     u3250:
  2505  0684                     l2692:
  2506                           
  2507                           ;main.c: 183:                   pwm_value = 0;
  2508  0684  0021               	movlb	1	; select bank1
  2509  0685  01D5               	clrf	main@pwm_value^(0+128)
  2510  0686  01D6               	clrf	(main@pwm_value+1)^(0+128)
  2511  0687                     l2694:
  2512                           
  2513                           ;main.c: 188:               if(pwm_temp != pwm_value){
  2514  0687  0021               	movlb	1	; select bank1
  2515  0688  0856               	movf	(main@pwm_value+1)^(0+128),w
  2516  0689  064E               	xorwf	(main@pwm_temp+1)^(0+128),w
  2517  068A  1D03               	skipz
  2518  068B  2E8E               	goto	u3265
  2519  068C  0855               	movf	main@pwm_value^(0+128),w
  2520  068D  064D               	xorwf	main@pwm_temp^(0+128),w
  2521  068E                     u3265:
  2522  068E  1903               	skipnz
  2523  068F  2E91               	goto	u3261
  2524  0690  2E92               	goto	u3260
  2525  0691                     u3261:
  2526  0691  2EDB               	goto	l2708
  2527  0692                     u3260:
  2528  0692                     l2696:
  2529                           
  2530                           ;main.c: 191:                    pwm_temp = pwm_value;
  2531  0692  0856               	movf	(main@pwm_value+1)^(0+128),w
  2532  0693  00CE               	movwf	(main@pwm_temp+1)^(0+128)
  2533  0694  0855               	movf	main@pwm_value^(0+128),w
  2534  0695  00CD               	movwf	main@pwm_temp^(0+128)
  2535  0696                     l2698:
  2536                           
  2537                           ;main.c: 192:                    sprintf(pwm_string, "%u", pwm_value);
  2538  0696  3047               	movlw	low (STR_4| (0+32768))
  2539  0697  0020               	movlb	0	; select bank0
  2540  0698  00DF               	movwf	sprintf@fmt
  2541  0699  3090               	movlw	high (STR_4| (0+32768))
  2542  069A  00E0               	movwf	sprintf@fmt+1
  2543  069B  0021               	movlb	1	; select bank1
  2544  069C  0856               	movf	(main@pwm_value+1)^(0+128),w
  2545  069D  0020               	movlb	0	; select bank0
  2546  069E  00E2               	movwf	?_sprintf+3
  2547  069F  0021               	movlb	1	; select bank1
  2548  06A0  0855               	movf	main@pwm_value^(0+128),w
  2549  06A1  0020               	movlb	0	; select bank0
  2550  06A2  00E1               	movwf	?_sprintf+2
  2551  06A3  30A1               	movlw	(low (main@pwm_string| 0))& (0+255)
  2552  06A4  318B  2350  3185   	fcall	_sprintf
  2553  06A7                     l2700:
  2554                           
  2555                           ;main.c: 194:                    sprintf(duty_string, "%u %%", duty_cycle);
  2556  06A7  3033               	movlw	low (STR_5| (0+32768))
  2557  06A8  0020               	movlb	0	; select bank0
  2558  06A9  00DF               	movwf	sprintf@fmt
  2559  06AA  3090               	movlw	high (STR_5| (0+32768))
  2560  06AB  00E0               	movwf	sprintf@fmt+1
  2561  06AC  0021               	movlb	1	; select bank1
  2562  06AD  0850               	movf	(main@duty_cycle+1)^(0+128),w
  2563  06AE  0020               	movlb	0	; select bank0
  2564  06AF  00E2               	movwf	?_sprintf+3
  2565  06B0  0021               	movlb	1	; select bank1
  2566  06B1  084F               	movf	main@duty_cycle^(0+128),w
  2567  06B2  0020               	movlb	0	; select bank0
  2568  06B3  00E1               	movwf	?_sprintf+2
  2569  06B4  30B5               	movlw	(low (main@duty_string| 0))& (0+255)
  2570  06B5  318B  2350  3185   	fcall	_sprintf
  2571  06B8                     l2702:
  2572                           
  2573                           ;main.c: 197:                    LCDPutStr2(pwm_string, 5, 1);
  2574  06B8  30A1               	movlw	low main@pwm_string
  2575  06B9  00FA               	movwf	LCDPutStr2@str
  2576  06BA  3000               	movlw	high main@pwm_string
  2577  06BB  00FB               	movwf	LCDPutStr2@str+1
  2578  06BC  3005               	movlw	5
  2579  06BD  0021               	movlb	1	; select bank1
  2580  06BE  00A0               	movwf	??_main^(0+128)
  2581  06BF  0820               	movf	??_main^(0+128),w
  2582  06C0  00FC               	movwf	LCDPutStr2@_pos
  2583  06C1  01FD               	clrf	LCDPutStr2@_line
  2584  06C2  0AFD               	incf	LCDPutStr2@_line,f
  2585  06C3  318B  23F4  3185   	fcall	_LCDPutStr2
  2586  06C6                     l2704:
  2587                           
  2588                           ;main.c: 199:                    LCDPutStr2(duty_string, 13, 0);
  2589  06C6  30B5               	movlw	low main@duty_string
  2590  06C7  00FA               	movwf	LCDPutStr2@str
  2591  06C8  3000               	movlw	high main@duty_string
  2592  06C9  00FB               	movwf	LCDPutStr2@str+1
  2593  06CA  300D               	movlw	13
  2594  06CB  0021               	movlb	1	; select bank1
  2595  06CC  00A0               	movwf	??_main^(0+128)
  2596  06CD  0820               	movf	??_main^(0+128),w
  2597  06CE  00FC               	movwf	LCDPutStr2@_pos
  2598  06CF  01FD               	clrf	LCDPutStr2@_line
  2599  06D0  318B  23F4  3185   	fcall	_LCDPutStr2
  2600  06D3                     l2706:
  2601                           
  2602                           ;main.c: 203:                    PWM3_LoadDutyValue(pwm_value);
  2603  06D3  0021               	movlb	1	; select bank1
  2604  06D4  0856               	movf	(main@pwm_value+1)^(0+128),w
  2605  06D5  00F1               	movwf	PWM3_LoadDutyValue@dutyValue+1
  2606  06D6  0855               	movf	main@pwm_value^(0+128),w
  2607  06D7  00F0               	movwf	PWM3_LoadDutyValue@dutyValue
  2608  06D8  318A  2268  3185   	fcall	_PWM3_LoadDutyValue
  2609  06DB                     l2708:
  2610                           
  2611                           ;main.c: 211:                 if((motor_direc == 1)&&(PORTCbits.RC6 == 1)){
  2612  06DB  0021               	movlb	1	; select bank1
  2613  06DC  0352               	decf	main@motor_direc^(0+128),w
  2614  06DD  0453               	iorwf	(main@motor_direc+1)^(0+128),w
  2615  06DE  1D03               	btfss	3,2
  2616  06DF  2EE1               	goto	u3271
  2617  06E0  2EE2               	goto	u3270
  2618  06E1                     u3271:
  2619  06E1  2EFE               	goto	l2720
  2620  06E2                     u3270:
  2621  06E2                     l2710:
  2622  06E2  0020               	movlb	0	; select bank0
  2623  06E3  1F0E               	btfss	14,6	;volatile
  2624  06E4  2EE6               	goto	u3281
  2625  06E5  2EE7               	goto	u3280
  2626  06E6                     u3281:
  2627  06E6  2EFE               	goto	l2720
  2628  06E7                     u3280:
  2629  06E7                     l2712:
  2630                           
  2631                           ;main.c: 213:                     _delay((unsigned long)((90)*(1000000/4000.0)));
  2632  06E7  301E               	movlw	30
  2633  06E8  0021               	movlb	1	; select bank1
  2634  06E9  00A0               	movwf	??_main^(0+128)
  2635  06EA  3037               	movlw	55
  2636  06EB                     u3467:
  2637  06EB  0B89               	decfsz	9,f
  2638  06EC  2EEB               	goto	u3467
  2639  06ED  0BA0               	decfsz	??_main^(0+128),f
  2640  06EE  2EEB               	goto	u3467
  2641  06EF                     l2714:
  2642                           
  2643                           ;main.c: 215:                     if((motor_direc == 1)&&(PORTCbits.RC6 == 1)){
  2644  06EF  0021               	movlb	1	; select bank1
  2645  06F0  0352               	decf	main@motor_direc^(0+128),w
  2646  06F1  0453               	iorwf	(main@motor_direc+1)^(0+128),w
  2647  06F2  1D03               	btfss	3,2
  2648  06F3  2EF5               	goto	u3291
  2649  06F4  2EF6               	goto	u3290
  2650  06F5                     u3291:
  2651  06F5  2EFE               	goto	l2720
  2652  06F6                     u3290:
  2653  06F6                     l2716:
  2654  06F6  0020               	movlb	0	; select bank0
  2655  06F7  1F0E               	btfss	14,6	;volatile
  2656  06F8  2EFA               	goto	u3301
  2657  06F9  2EFB               	goto	u3300
  2658  06FA                     u3301:
  2659  06FA  2EFE               	goto	l2720
  2660  06FB                     u3300:
  2661  06FB                     l2718:
  2662                           
  2663                           ;main.c: 218:                         motor_direc = 0;
  2664  06FB  0021               	movlb	1	; select bank1
  2665  06FC  01D2               	clrf	main@motor_direc^(0+128)
  2666  06FD  01D3               	clrf	(main@motor_direc+1)^(0+128)
  2667  06FE                     l2720:
  2668                           
  2669                           ;main.c: 225:                 if(motor_direc != direc_temp){
  2670  06FE  0021               	movlb	1	; select bank1
  2671  06FF  084A               	movf	(main@direc_temp+1)^(0+128),w
  2672  0700  0653               	xorwf	(main@motor_direc+1)^(0+128),w
  2673  0701  1D03               	skipz
  2674  0702  2F05               	goto	u3315
  2675  0703  0849               	movf	main@direc_temp^(0+128),w
  2676  0704  0652               	xorwf	main@motor_direc^(0+128),w
  2677  0705                     u3315:
  2678  0705  1903               	skipnz
  2679  0706  2F08               	goto	u3311
  2680  0707  2F09               	goto	u3310
  2681  0708                     u3311:
  2682  0708  2F6A               	goto	l2746
  2683  0709                     u3310:
  2684  0709                     l2722:
  2685                           
  2686                           ;main.c: 228:                     if(motor_direc == 1){
  2687  0709  0352               	decf	main@motor_direc^(0+128),w
  2688  070A  0453               	iorwf	(main@motor_direc+1)^(0+128),w
  2689  070B  1D03               	btfss	3,2
  2690  070C  2F0E               	goto	u3321
  2691  070D  2F0F               	goto	u3320
  2692  070E                     u3321:
  2693  070E  2F3A               	goto	l2734
  2694  070F                     u3320:
  2695  070F                     l2724:
  2696                           
  2697                           ;main.c: 231:                         direc_temp = 1;
  2698  070F  3001               	movlw	1
  2699  0710  00C9               	movwf	main@direc_temp^(0+128)
  2700  0711  3000               	movlw	0
  2701  0712  00CA               	movwf	(main@direc_temp^(0+128)+1)
  2702  0713                     l2726:
  2703                           
  2704                           ;main.c: 234:                         LCDPutStr2("    ", 12, 1);
  2705  0713  3020               	movlw	low ((STR_11+4)| (0+32768))
  2706  0714  00FA               	movwf	LCDPutStr2@str
  2707  0715  3090               	movlw	high ((STR_11+4)| (0+32768))
  2708  0716  00FB               	movwf	LCDPutStr2@str+1
  2709  0717  300C               	movlw	12
  2710  0718  00A0               	movwf	??_main^(0+128)
  2711  0719  0820               	movf	??_main^(0+128),w
  2712  071A  00FC               	movwf	LCDPutStr2@_pos
  2713  071B  01FD               	clrf	LCDPutStr2@_line
  2714  071C  0AFD               	incf	LCDPutStr2@_line,f
  2715  071D  318B  23F4  3185   	fcall	_LCDPutStr2
  2716  0720                     l2728:
  2717                           
  2718                           ;main.c: 235:                         LCDPutStr2(" CW", 12, 1);
  2719  0720  3043               	movlw	low (STR_7| (0+32768))
  2720  0721  00FA               	movwf	LCDPutStr2@str
  2721  0722  3090               	movlw	high (STR_7| (0+32768))
  2722  0723  00FB               	movwf	LCDPutStr2@str+1
  2723  0724  300C               	movlw	12
  2724  0725  0021               	movlb	1	; select bank1
  2725  0726  00A0               	movwf	??_main^(0+128)
  2726  0727  0820               	movf	??_main^(0+128),w
  2727  0728  00FC               	movwf	LCDPutStr2@_pos
  2728  0729  01FD               	clrf	LCDPutStr2@_line
  2729  072A  0AFD               	incf	LCDPutStr2@_line,f
  2730  072B  318B  23F4  3185   	fcall	_LCDPutStr2
  2731  072E                     l2730:
  2732                           
  2733                           ;main.c: 238:                         PWM3_LoadDutyValue(pwm_value);
  2734  072E  0021               	movlb	1	; select bank1
  2735  072F  0856               	movf	(main@pwm_value+1)^(0+128),w
  2736  0730  00F1               	movwf	PWM3_LoadDutyValue@dutyValue+1
  2737  0731  0855               	movf	main@pwm_value^(0+128),w
  2738  0732  00F0               	movwf	PWM3_LoadDutyValue@dutyValue
  2739  0733  318A  2268  3185   	fcall	_PWM3_LoadDutyValue
  2740  0736                     l2732:
  2741                           
  2742                           ;main.c: 240:                         motor_dir(1);
  2743  0736  3001               	movlw	1
  2744  0737  318B  230C  3185   	fcall	_motor_dir
  2745  073A                     l2734:
  2746                           
  2747                           ;main.c: 245:                     if(motor_direc == 0){
  2748  073A  0021               	movlb	1	; select bank1
  2749  073B  0852               	movf	main@motor_direc^(0+128),w
  2750  073C  0453               	iorwf	(main@motor_direc+1)^(0+128),w
  2751  073D  1D03               	btfss	3,2
  2752  073E  2F40               	goto	u3331
  2753  073F  2F41               	goto	u3330
  2754  0740                     u3331:
  2755  0740  2F6A               	goto	l2746
  2756  0741                     u3330:
  2757  0741                     l2736:
  2758                           
  2759                           ;main.c: 248:                         direc_temp = 0;
  2760  0741  01C9               	clrf	main@direc_temp^(0+128)
  2761  0742  01CA               	clrf	(main@direc_temp+1)^(0+128)
  2762  0743                     l2738:
  2763                           
  2764                           ;main.c: 251:                         LCDPutStr2("    ", 12, 1);
  2765  0743  3020               	movlw	low ((STR_11+4)| (0+32768))
  2766  0744  00FA               	movwf	LCDPutStr2@str
  2767  0745  3090               	movlw	high ((STR_11+4)| (0+32768))
  2768  0746  00FB               	movwf	LCDPutStr2@str+1
  2769  0747  300C               	movlw	12
  2770  0748  00A0               	movwf	??_main^(0+128)
  2771  0749  0820               	movf	??_main^(0+128),w
  2772  074A  00FC               	movwf	LCDPutStr2@_pos
  2773  074B  01FD               	clrf	LCDPutStr2@_line
  2774  074C  0AFD               	incf	LCDPutStr2@_line,f
  2775  074D  318B  23F4  3185   	fcall	_LCDPutStr2
  2776  0750                     l2740:
  2777                           
  2778                           ;main.c: 252:                         LCDPutStr2(" CCW", 12, 1);
  2779  0750  303E               	movlw	low (STR_9| (0+32768))
  2780  0751  00FA               	movwf	LCDPutStr2@str
  2781  0752  3090               	movlw	high (STR_9| (0+32768))
  2782  0753  00FB               	movwf	LCDPutStr2@str+1
  2783  0754  300C               	movlw	12
  2784  0755  0021               	movlb	1	; select bank1
  2785  0756  00A0               	movwf	??_main^(0+128)
  2786  0757  0820               	movf	??_main^(0+128),w
  2787  0758  00FC               	movwf	LCDPutStr2@_pos
  2788  0759  01FD               	clrf	LCDPutStr2@_line
  2789  075A  0AFD               	incf	LCDPutStr2@_line,f
  2790  075B  318B  23F4  3185   	fcall	_LCDPutStr2
  2791  075E                     l2742:
  2792                           
  2793                           ;main.c: 255:                         motor_dir(2);
  2794  075E  3002               	movlw	2
  2795  075F  318B  230C  3185   	fcall	_motor_dir
  2796  0762                     l2744:
  2797                           
  2798                           ;main.c: 256:                         PWM3_LoadDutyValue(pwm_value);
  2799  0762  0021               	movlb	1	; select bank1
  2800  0763  0856               	movf	(main@pwm_value+1)^(0+128),w
  2801  0764  00F1               	movwf	PWM3_LoadDutyValue@dutyValue+1
  2802  0765  0855               	movf	main@pwm_value^(0+128),w
  2803  0766  00F0               	movwf	PWM3_LoadDutyValue@dutyValue
  2804  0767  318A  2268  3185   	fcall	_PWM3_LoadDutyValue
  2805  076A                     l2746:
  2806                           
  2807                           ;main.c: 262:                 if((motor_direc == 0)&&(PORTCbits.RC6 == 1)){
  2808  076A  0021               	movlb	1	; select bank1
  2809  076B  0852               	movf	main@motor_direc^(0+128),w
  2810  076C  0453               	iorwf	(main@motor_direc+1)^(0+128),w
  2811  076D  1D03               	btfss	3,2
  2812  076E  2F70               	goto	u3341
  2813  076F  2F71               	goto	u3340
  2814  0770                     u3341:
  2815  0770  2F8F               	goto	l2758
  2816  0771                     u3340:
  2817  0771                     l2748:
  2818  0771  0020               	movlb	0	; select bank0
  2819  0772  1F0E               	btfss	14,6	;volatile
  2820  0773  2F75               	goto	u3351
  2821  0774  2F76               	goto	u3350
  2822  0775                     u3351:
  2823  0775  2F8F               	goto	l2758
  2824  0776                     u3350:
  2825  0776                     l2750:
  2826                           
  2827                           ;main.c: 264:                     _delay((unsigned long)((90)*(1000000/4000.0)));
  2828  0776  301E               	movlw	30
  2829  0777  0021               	movlb	1	; select bank1
  2830  0778  00A0               	movwf	??_main^(0+128)
  2831  0779  3037               	movlw	55
  2832  077A                     u3477:
  2833  077A  0B89               	decfsz	9,f
  2834  077B  2F7A               	goto	u3477
  2835  077C  0BA0               	decfsz	??_main^(0+128),f
  2836  077D  2F7A               	goto	u3477
  2837  077E                     l2752:
  2838                           
  2839                           ;main.c: 266:                     if((motor_direc == 0)&&(PORTCbits.RC6 == 1)){
  2840  077E  0021               	movlb	1	; select bank1
  2841  077F  0852               	movf	main@motor_direc^(0+128),w
  2842  0780  0453               	iorwf	(main@motor_direc+1)^(0+128),w
  2843  0781  1D03               	btfss	3,2
  2844  0782  2F84               	goto	u3361
  2845  0783  2F85               	goto	u3360
  2846  0784                     u3361:
  2847  0784  2F8F               	goto	l2758
  2848  0785                     u3360:
  2849  0785                     l2754:
  2850  0785  0020               	movlb	0	; select bank0
  2851  0786  1F0E               	btfss	14,6	;volatile
  2852  0787  2F89               	goto	u3371
  2853  0788  2F8A               	goto	u3370
  2854  0789                     u3371:
  2855  0789  2F8F               	goto	l2758
  2856  078A                     u3370:
  2857  078A                     l2756:
  2858                           
  2859                           ;main.c: 269:                         motor_direc = 1;
  2860  078A  3001               	movlw	1
  2861  078B  0021               	movlb	1	; select bank1
  2862  078C  00D2               	movwf	main@motor_direc^(0+128)
  2863  078D  3000               	movlw	0
  2864  078E  00D3               	movwf	(main@motor_direc^(0+128)+1)
  2865  078F                     l2758:
  2866                           
  2867                           ;main.c: 277:             if((motor_state == 1)&&(PORTCbits.RC5 == 1)){
  2868  078F  0021               	movlb	1	; select bank1
  2869  0790  0354               	decf	main@motor_state^(0+128),w
  2870  0791  1D03               	btfss	3,2
  2871  0792  2F94               	goto	u3381
  2872  0793  2F95               	goto	u3380
  2873  0794                     u3381:
  2874  0794  2FAF               	goto	l2770
  2875  0795                     u3380:
  2876  0795                     l2760:
  2877  0795  0020               	movlb	0	; select bank0
  2878  0796  1E8E               	btfss	14,5	;volatile
  2879  0797  2F99               	goto	u3391
  2880  0798  2F9A               	goto	u3390
  2881  0799                     u3391:
  2882  0799  2FAF               	goto	l2770
  2883  079A                     u3390:
  2884  079A                     l2762:
  2885                           
  2886                           ;main.c: 279:                 _delay((unsigned long)((90)*(1000000/4000.0)));
  2887  079A  301E               	movlw	30
  2888  079B  0021               	movlb	1	; select bank1
  2889  079C  00A0               	movwf	??_main^(0+128)
  2890  079D  3037               	movlw	55
  2891  079E                     u3487:
  2892  079E  0B89               	decfsz	9,f
  2893  079F  2F9E               	goto	u3487
  2894  07A0  0BA0               	decfsz	??_main^(0+128),f
  2895  07A1  2F9E               	goto	u3487
  2896  07A2                     l2764:
  2897                           
  2898                           ;main.c: 281:                 if((motor_state == 1)&&(PORTCbits.RC5 == 1)){
  2899  07A2  0021               	movlb	1	; select bank1
  2900  07A3  0354               	decf	main@motor_state^(0+128),w
  2901  07A4  1D03               	btfss	3,2
  2902  07A5  2FA7               	goto	u3401
  2903  07A6  2FA8               	goto	u3400
  2904  07A7                     u3401:
  2905  07A7  2FAF               	goto	l2770
  2906  07A8                     u3400:
  2907  07A8                     l2766:
  2908  07A8  0020               	movlb	0	; select bank0
  2909  07A9  1E8E               	btfss	14,5	;volatile
  2910  07AA  2FAC               	goto	u3411
  2911  07AB  2FAD               	goto	u3410
  2912  07AC                     u3411:
  2913  07AC  2FAF               	goto	l2770
  2914  07AD                     u3410:
  2915  07AD                     l2768:
  2916                           
  2917                           ;main.c: 284:                     motor_state = 0;
  2918  07AD  0021               	movlb	1	; select bank1
  2919  07AE  01D4               	clrf	main@motor_state^(0+128)
  2920  07AF                     l2770:
  2921                           
  2922                           ;main.c: 291:         if(motor_state != state_temp){
  2923  07AF  0021               	movlb	1	; select bank1
  2924  07B0  0854               	movf	main@motor_state^(0+128),w
  2925  07B1  0651               	xorwf	main@state_temp^(0+128),w
  2926  07B2  1903               	skipnz
  2927  07B3  2FB5               	goto	u3421
  2928  07B4  2FB6               	goto	u3420
  2929  07B5                     u3421:
  2930  07B5  2DC5               	goto	l2666
  2931  07B6                     u3420:
  2932  07B6                     l2772:
  2933                           
  2934                           ;main.c: 294:             if(motor_state == 0){
  2935  07B6  0854               	movf	main@motor_state^(0+128),w
  2936  07B7  1D03               	btfss	3,2
  2937  07B8  2FBA               	goto	u3431
  2938  07B9  2FBB               	goto	u3430
  2939  07BA                     u3431:
  2940  07BA  2DC5               	goto	l2666
  2941  07BB                     u3430:
  2942  07BB                     l2774:
  2943                           
  2944                           ;main.c: 297:                 state_temp = 0;
  2945  07BB  01D1               	clrf	main@state_temp^(0+128)
  2946  07BC                     l2776:
  2947                           
  2948                           ;main.c: 299:                 motor_dir(0);
  2949  07BC  3000               	movlw	0
  2950  07BD  318B  230C  3185   	fcall	_motor_dir
  2951  07C0                     l2778:
  2952                           
  2953                           ;main.c: 303:                 motor_state = 0;
  2954  07C0  0021               	movlb	1	; select bank1
  2955  07C1  01D4               	clrf	main@motor_state^(0+128)
  2956  07C2                     l2780:
  2957                           
  2958                           ;main.c: 304:                 motor_direc = 1;
  2959  07C2  3001               	movlw	1
  2960  07C3  00D2               	movwf	main@motor_direc^(0+128)
  2961  07C4  3000               	movlw	0
  2962  07C5  00D3               	movwf	(main@motor_direc^(0+128)+1)
  2963  07C6                     l2782:
  2964  07C6                     l2784:
  2965  07C6                     l2786:
  2966                           
  2967                           ;main.c: 309:                 pwm_temp = 0;
  2968  07C6  01CD               	clrf	main@pwm_temp^(0+128)
  2969  07C7  01CE               	clrf	(main@pwm_temp+1)^(0+128)
  2970  07C8                     l2788:
  2971  07C8                     l2790:
  2972                           
  2973                           ;main.c: 314:                 LCDPutStr2("Duty Cycle:   ", 1, 0);
  2974  07C8  3000               	movlw	low (STR_10| (0+32768))
  2975  07C9  00FA               	movwf	LCDPutStr2@str
  2976  07CA  3090               	movlw	high (STR_10| (0+32768))
  2977  07CB  00FB               	movwf	LCDPutStr2@str+1
  2978  07CC  01FC               	clrf	LCDPutStr2@_pos
  2979  07CD  0AFC               	incf	LCDPutStr2@_pos,f
  2980  07CE  01FD               	clrf	LCDPutStr2@_line
  2981  07CF  318B  23F4  3185   	fcall	_LCDPutStr2
  2982  07D2                     l2792:
  2983                           
  2984                           ;main.c: 317:                 LCDPutStr2("PWM:    ", 0, 1);
  2985  07D2  301C               	movlw	low (STR_11| (0+32768))
  2986  07D3  00FA               	movwf	LCDPutStr2@str
  2987  07D4  3090               	movlw	high (STR_11| (0+32768))
  2988  07D5  00FB               	movwf	LCDPutStr2@str+1
  2989  07D6  01FC               	clrf	LCDPutStr2@_pos
  2990  07D7  01FD               	clrf	LCDPutStr2@_line
  2991  07D8  0AFD               	incf	LCDPutStr2@_line,f
  2992  07D9  318B  23F4  3185   	fcall	_LCDPutStr2
  2993  07DC                     l2794:
  2994                           
  2995                           ;main.c: 318:                 LCDPutStr2("DR:    ", 9, 1);
  2996  07DC  3025               	movlw	low (STR_12| (0+32768))
  2997  07DD  00FA               	movwf	LCDPutStr2@str
  2998  07DE  3090               	movlw	high (STR_12| (0+32768))
  2999  07DF  00FB               	movwf	LCDPutStr2@str+1
  3000  07E0  3009               	movlw	9
  3001  07E1  0021               	movlb	1	; select bank1
  3002  07E2  00A0               	movwf	??_main^(0+128)
  3003  07E3  0820               	movf	??_main^(0+128),w
  3004  07E4  00FC               	movwf	LCDPutStr2@_pos
  3005  07E5  01FD               	clrf	LCDPutStr2@_line
  3006  07E6  0AFD               	incf	LCDPutStr2@_line,f
  3007  07E7  318B  23F4  3185   	fcall	_LCDPutStr2
  3008  07EA  2DC5               	goto	l2666
  3009  07EB  3180  2802         	ljmp	start
  3010  07ED                     __end_of_main:
  3011                           
  3012                           	psect	text1
  3013  0B50                     __ptext1:	
  3014 ;; *************** function _sprintf *****************
  3015 ;; Defined at:
  3016 ;;		line 9 in file "C:\Program Files\Microchip\xc8\v2.36\pic\sources\c99\common\nf_sprintf.c"
  3017 ;; Parameters:    Size  Location     Type
  3018 ;;  s               1    wreg     PTR unsigned char 
  3019 ;;		 -> main@duty_string(20), main@pwm_string(20), 
  3020 ;;  fmt             2   63[BANK0 ] PTR const unsigned char 
  3021 ;;		 -> STR_5(6), STR_4(3), 
  3022 ;; Auto vars:     Size  Location     Type
  3023 ;;  s               1   69[BANK0 ] PTR unsigned char 
  3024 ;;		 -> main@duty_string(20), main@pwm_string(20), 
  3025 ;;  f              10   70[BANK0 ] struct _IO_FILE
  3026 ;;  ret             2    0        int 
  3027 ;;  ap              1   68[BANK0 ] PTR void [1]
  3028 ;;		 -> ?_sprintf(2), 
  3029 ;; Return value:  Size  Location     Type
  3030 ;;                  2   63[BANK0 ] int 
  3031 ;; Registers used:
  3032 ;;		wreg, fsr0l, fsr0h, fsr1l, fsr1h, status,2, status,0, pclath, cstack
  3033 ;; Tracked objects:
  3034 ;;		On entry : 0/0
  3035 ;;		On exit  : 0/0
  3036 ;;		Unchanged: 0/0
  3037 ;; Data sizes:     COMMON   BANK0   BANK1   BANK2   BANK3   BANK4   BANK5   BANK6
  3038 ;;      Params:         0       4       0       0       0       0       0       0
  3039 ;;      Locals:         0      12       0       0       0       0       0       0
  3040 ;;      Temps:          0       1       0       0       0       0       0       0
  3041 ;;      Totals:         0      17       0       0       0       0       0       0
  3042 ;;Total ram usage:       17 bytes
  3043 ;; Hardware stack levels used: 1
  3044 ;; Hardware stack levels required when called: 7
  3045 ;; This function calls:
  3046 ;;		_vfprintf
  3047 ;; This function is called by:
  3048 ;;		_main
  3049 ;; This function uses a non-reentrant model
  3050 ;;
  3051                           
  3052  0B50                     _sprintf:	
  3053                           ;psect for function _sprintf
  3054                           
  3055                           
  3056                           ;incstack = 0
  3057                           ; Regs used in _sprintf: [wreg-fsr1h+status,2+status,0+pclath+cstack]
  3058                           ;sprintf@s stored from wreg
  3059  0B50  0020               	movlb	0	; select bank0
  3060  0B51  00E5               	movwf	sprintf@s
  3061  0B52                     l2214:
  3062  0B52  3061               	movlw	(low ((?_sprintf| 0+2)))& (0+255)
  3063  0B53  00E3               	movwf	??_sprintf
  3064  0B54  0863               	movf	??_sprintf,w
  3065  0B55  00E4               	movwf	sprintf@ap
  3066  0B56  0865               	movf	sprintf@s,w
  3067  0B57  00E3               	movwf	??_sprintf
  3068  0B58  0863               	movf	??_sprintf,w
  3069  0B59  00E6               	movwf	sprintf@f
  3070  0B5A                     l2216:
  3071  0B5A  01E8               	clrf	sprintf@f+2
  3072  0B5B  01E9               	clrf	sprintf@f+3
  3073  0B5C                     l2218:
  3074  0B5C  01EE               	clrf	sprintf@f+8
  3075  0B5D  01EF               	clrf	sprintf@f+9
  3076  0B5E                     l2220:
  3077  0B5E  0860               	movf	sprintf@fmt+1,w
  3078  0B5F  00D8               	movwf	vfprintf@fmt+1
  3079  0B60  085F               	movf	sprintf@fmt,w
  3080  0B61  00D7               	movwf	vfprintf@fmt
  3081  0B62  3064               	movlw	(low (sprintf@ap| 0))& (0+255)
  3082  0B63  00E3               	movwf	??_sprintf
  3083  0B64  0863               	movf	??_sprintf,w
  3084  0B65  00D9               	movwf	vfprintf@ap
  3085  0B66  3066               	movlw	(low (sprintf@f| 0))& (0+255)
  3086  0B67  318B  23C3  318B   	fcall	_vfprintf
  3087  0B6A                     l2222:
  3088  0B6A  0020               	movlb	0	; select bank0
  3089  0B6B  0868               	movf	sprintf@f+2,w
  3090  0B6C  0765               	addwf	sprintf@s,w
  3091  0B6D  00E3               	movwf	??_sprintf
  3092  0B6E  0863               	movf	??_sprintf,w
  3093  0B6F  0086               	movwf	6
  3094  0B70  0187               	clrf	7
  3095  0B71  0181               	clrf	1
  3096  0B72                     l780:
  3097  0B72  0008               	return
  3098  0B73                     __end_of_sprintf:
  3099                           
  3100                           	psect	text2
  3101  0BC3                     __ptext2:	
  3102 ;; *************** function _vfprintf *****************
  3103 ;; Defined at:
  3104 ;;		line 1390 in file "C:\Program Files\Microchip\xc8\v2.36\pic\sources\c99\common\doprnt.c"
  3105 ;; Parameters:    Size  Location     Type
  3106 ;;  fp              1    wreg     PTR struct _IO_FILE
  3107 ;;		 -> sprintf@f(10), 
  3108 ;;  fmt             2   55[BANK0 ] PTR const unsigned char 
  3109 ;;		 -> STR_5(6), STR_4(3), 
  3110 ;;  ap              1   57[BANK0 ] PTR PTR void 
  3111 ;;		 -> sprintf@ap(1), 
  3112 ;; Auto vars:     Size  Location     Type
  3113 ;;  fp              1   60[BANK0 ] PTR struct _IO_FILE
  3114 ;;		 -> sprintf@f(10), 
  3115 ;;  cfmt            2   61[BANK0 ] PTR unsigned char 
  3116 ;;		 -> STR_5(6), STR_4(3), 
  3117 ;; Return value:  Size  Location     Type
  3118 ;;                  2   55[BANK0 ] int 
  3119 ;; Registers used:
  3120 ;;		wreg, fsr0l, fsr0h, fsr1l, fsr1h, status,2, status,0, pclath, cstack
  3121 ;; Tracked objects:
  3122 ;;		On entry : 0/0
  3123 ;;		On exit  : 0/0
  3124 ;;		Unchanged: 0/0
  3125 ;; Data sizes:     COMMON   BANK0   BANK1   BANK2   BANK3   BANK4   BANK5   BANK6
  3126 ;;      Params:         0       3       0       0       0       0       0       0
  3127 ;;      Locals:         0       3       0       0       0       0       0       0
  3128 ;;      Temps:          0       2       0       0       0       0       0       0
  3129 ;;      Totals:         0       8       0       0       0       0       0       0
  3130 ;;Total ram usage:        8 bytes
  3131 ;; Hardware stack levels used: 1
  3132 ;; Hardware stack levels required when called: 6
  3133 ;; This function calls:
  3134 ;;		_vfpfcnvrt
  3135 ;; This function is called by:
  3136 ;;		_sprintf
  3137 ;; This function uses a non-reentrant model
  3138 ;;
  3139                           
  3140  0BC3                     _vfprintf:	
  3141                           ;psect for function _vfprintf
  3142                           
  3143                           
  3144                           ;incstack = 0
  3145                           ; Regs used in _vfprintf: [wreg-fsr1h+status,2+status,0+pclath+cstack]
  3146                           ;vfprintf@fp stored from wreg
  3147  0BC3  0020               	movlb	0	; select bank0
  3148  0BC4  00DC               	movwf	vfprintf@fp
  3149  0BC5                     l2150:
  3150                           
  3151                           ;C:\Program Files\Microchip\xc8\v2.36\pic\sources\c99\common\doprnt.c: 1390: int vfprint
      +                          f(FILE *fp, const char *fmt, va_list ap);C:\Program Files\Microchip\xc8\v2.36\pic\source
      +                          s\c99\common\doprnt.c: 1391: {;C:\Program Files\Microchip\xc8\v2.36\pic\sources\c99\comm
      +                          on\doprnt.c: 1393:     char *cfmt;;C:\Program Files\Microchip\xc8\v2.36\pic\sources\c99\
      +                          common\doprnt.c: 1395:     cfmt = (char *)fmt;
  3152  0BC5  0858               	movf	vfprintf@fmt+1,w
  3153  0BC6  00DE               	movwf	vfprintf@cfmt+1
  3154  0BC7  0857               	movf	vfprintf@fmt,w
  3155  0BC8  00DD               	movwf	vfprintf@cfmt
  3156  0BC9                     l2152:
  3157                           
  3158                           ;C:\Program Files\Microchip\xc8\v2.36\pic\sources\c99\common\doprnt.c: 1396:     nout = 
      +                          0;
  3159  0BC9  0021               	movlb	1	; select bank1
  3160  0BCA  01D7               	clrf	_nout^(0+128)
  3161  0BCB  01D8               	clrf	(_nout+1)^(0+128)
  3162                           
  3163                           ;C:\Program Files\Microchip\xc8\v2.36\pic\sources\c99\common\doprnt.c: 1397:     while (
      +                          *cfmt) {
  3164  0BCC  2BE1               	goto	l2156
  3165  0BCD                     l2154:
  3166                           
  3167                           ;C:\Program Files\Microchip\xc8\v2.36\pic\sources\c99\common\doprnt.c: 1398:         nou
      +                          t += vfpfcnvrt(fp, &cfmt, ap);
  3168  0BCD  305D               	movlw	(low (vfprintf@cfmt| 0))& (0+255)
  3169  0BCE  00DA               	movwf	??_vfprintf
  3170  0BCF  085A               	movf	??_vfprintf,w
  3171  0BD0  00C7               	movwf	vfpfcnvrt@fmt
  3172  0BD1  0859               	movf	vfprintf@ap,w
  3173  0BD2  00DB               	movwf	??_vfprintf+1
  3174  0BD3  085B               	movf	??_vfprintf+1,w
  3175  0BD4  00C8               	movwf	vfpfcnvrt@ap
  3176  0BD5  085C               	movf	vfprintf@fp,w
  3177  0BD6  318F  273D  318B   	fcall	_vfpfcnvrt
  3178  0BD9  0020               	movlb	0	; select bank0
  3179  0BDA  0847               	movf	?_vfpfcnvrt,w
  3180  0BDB  0021               	movlb	1	; select bank1
  3181  0BDC  07D7               	addwf	_nout^(0+128),f
  3182  0BDD  0020               	movlb	0	; select bank0
  3183  0BDE  0848               	movf	?_vfpfcnvrt+1,w
  3184  0BDF  0021               	movlb	1	; select bank1
  3185  0BE0  3DD8               	addwfc	(_nout+1)^(0+128),f
  3186  0BE1                     l2156:
  3187                           
  3188                           ;C:\Program Files\Microchip\xc8\v2.36\pic\sources\c99\common\doprnt.c: 1397:     while (
      +                          *cfmt) {
  3189  0BE1  0020               	movlb	0	; select bank0
  3190  0BE2  085D               	movf	vfprintf@cfmt,w
  3191  0BE3  0084               	movwf	4
  3192  0BE4  085E               	movf	vfprintf@cfmt+1,w
  3193  0BE5  0085               	movwf	5
  3194  0BE6  0012               	moviw fsr0++
  3195  0BE7  1D03               	btfss	3,2
  3196  0BE8  2BEA               	goto	u2201
  3197  0BE9  2BEB               	goto	u2200
  3198  0BEA                     u2201:
  3199  0BEA  2BCD               	goto	l2154
  3200  0BEB                     u2200:
  3201  0BEB                     l2158:
  3202                           
  3203                           ;C:\Program Files\Microchip\xc8\v2.36\pic\sources\c99\common\doprnt.c: 1400:     return 
      +                          nout;
  3204  0BEB  0021               	movlb	1	; select bank1
  3205  0BEC  0858               	movf	(_nout+1)^(0+128),w
  3206  0BED  0020               	movlb	0	; select bank0
  3207  0BEE  00D8               	movwf	?_vfprintf+1
  3208  0BEF  0021               	movlb	1	; select bank1
  3209  0BF0  0857               	movf	_nout^(0+128),w
  3210  0BF1  0020               	movlb	0	; select bank0
  3211  0BF2  00D7               	movwf	?_vfprintf
  3212  0BF3                     l837:
  3213  0BF3  0008               	return
  3214  0BF4                     __end_of_vfprintf:
  3215                           
  3216                           	psect	text3
  3217  0F3D                     __ptext3:	
  3218 ;; *************** function _vfpfcnvrt *****************
  3219 ;; Defined at:
  3220 ;;		line 692 in file "C:\Program Files\Microchip\xc8\v2.36\pic\sources\c99\common\doprnt.c"
  3221 ;; Parameters:    Size  Location     Type
  3222 ;;  fp              1    wreg     PTR struct _IO_FILE
  3223 ;;		 -> sprintf@f(10), 
  3224 ;;  fmt             1   39[BANK0 ] PTR PTR unsigned char 
  3225 ;;		 -> vfprintf@cfmt(2), 
  3226 ;;  ap              1   40[BANK0 ] PTR PTR void 
  3227 ;;		 -> sprintf@ap(1), 
  3228 ;; Auto vars:     Size  Location     Type
  3229 ;;  fp              1   54[BANK0 ] PTR struct _IO_FILE
  3230 ;;		 -> sprintf@f(10), 
  3231 ;;  llu             8   46[BANK0 ] unsigned long long 
  3232 ;;  ll              8    0        long long 
  3233 ;;  f               4    0        long long 
  3234 ;;  ct              3    0        unsigned char [3]
  3235 ;;  vp              2    0        PTR void 
  3236 ;;  i               2    0        int 
  3237 ;;  done            2    0        int 
  3238 ;;  cp              2    0        PTR unsigned char 
  3239 ;;  c               1    0        unsigned char 
  3240 ;; Return value:  Size  Location     Type
  3241 ;;                  2   39[BANK0 ] int 
  3242 ;; Registers used:
  3243 ;;		wreg, fsr0l, fsr0h, fsr1l, fsr1h, status,2, status,0, pclath, cstack
  3244 ;; Tracked objects:
  3245 ;;		On entry : 0/0
  3246 ;;		On exit  : 0/0
  3247 ;;		Unchanged: 0/0
  3248 ;; Data sizes:     COMMON   BANK0   BANK1   BANK2   BANK3   BANK4   BANK5   BANK6
  3249 ;;      Params:         0       2       0       0       0       0       0       0
  3250 ;;      Locals:         0       9       0       0       0       0       0       0
  3251 ;;      Temps:          0       5       0       0       0       0       0       0
  3252 ;;      Totals:         0      16       0       0       0       0       0       0
  3253 ;;Total ram usage:       16 bytes
  3254 ;; Hardware stack levels used: 1
  3255 ;; Hardware stack levels required when called: 5
  3256 ;; This function calls:
  3257 ;;		_fputc
  3258 ;;		_utoa
  3259 ;; This function is called by:
  3260 ;;		_vfprintf
  3261 ;; This function uses a non-reentrant model
  3262 ;;
  3263                           
  3264  0F3D                     _vfpfcnvrt:	
  3265                           ;psect for function _vfpfcnvrt
  3266                           
  3267                           
  3268                           ;incstack = 0
  3269                           ; Regs used in _vfpfcnvrt: [wreg-fsr1h+status,2+status,0+pclath+cstack]
  3270                           ;vfpfcnvrt@fp stored from wreg
  3271  0F3D  0020               	movlb	0	; select bank0
  3272  0F3E  00D6               	movwf	vfpfcnvrt@fp
  3273  0F3F                     l2030:
  3274                           
  3275                           ;C:\Program Files\Microchip\xc8\v2.36\pic\sources\c99\common\doprnt.c: 692: static int v
      +                          fpfcnvrt(FILE *fp, char *fmt[], va_list ap);C:\Program Files\Microchip\xc8\v2.36\pic\sou
      +                          rces\c99\common\doprnt.c: 693: {;C:\Program Files\Microchip\xc8\v2.36\pic\sources\c99\co
      +                          mmon\doprnt.c: 694:     char c, *cp, ct[3];;C:\Program Files\Microchip\xc8\v2.36\pic\sou
      +                          rces\c99\common\doprnt.c: 695:     int done, i;;C:\Program Files\Microchip\xc8\v2.36\pic
      +                          \sources\c99\common\doprnt.c: 696:     long long ll;;C:\Program Files\Microchip\xc8\v2.3
      +                          6\pic\sources\c99\common\doprnt.c: 697:     unsigned long long llu;
  3276  0F3F  0847               	movf	vfpfcnvrt@fmt,w
  3277  0F40  0086               	movwf	6
  3278  0F41  0187               	clrf	7
  3279  0F42  3F40               	moviw [0]fsr1
  3280  0F43  00C9               	movwf	??_vfpfcnvrt
  3281  0F44  3F41               	moviw [1]fsr1
  3282  0F45  00CA               	movwf	??_vfpfcnvrt+1
  3283  0F46  0849               	movf	??_vfpfcnvrt,w
  3284  0F47  0084               	movwf	4
  3285  0F48  084A               	movf	??_vfpfcnvrt+1,w
  3286  0F49  0085               	movwf	5
  3287  0F4A  0012               	moviw fsr0++
  3288  0F4B  3A25               	xorlw	37
  3289  0F4C  1D03               	btfss	3,2
  3290  0F4D  2F4F               	goto	u2091
  3291  0F4E  2F50               	goto	u2090
  3292  0F4F                     u2091:
  3293  0F4F  2FDC               	goto	l2064
  3294  0F50                     u2090:
  3295  0F50                     l2032:
  3296                           
  3297                           ;C:\Program Files\Microchip\xc8\v2.36\pic\sources\c99\common\doprnt.c: 703:         ++*f
      +                          mt;
  3298  0F50  0847               	movf	vfpfcnvrt@fmt,w
  3299  0F51  0086               	movwf	6
  3300  0F52  0187               	clrf	7
  3301  0F53  3001               	movlw	1
  3302  0F54  0781               	addwf	1,f
  3303  0F55  3141               	addfsr 1,1
  3304  0F56  1803               	skipnc
  3305  0F57  0A81               	incf	1,f
  3306  0F58                     l2034:
  3307                           
  3308                           ;C:\Program Files\Microchip\xc8\v2.36\pic\sources\c99\common\doprnt.c: 705:         flag
      +                          s = width = 0;
  3309  0F58  0021               	movlb	1	; select bank1
  3310  0F59  01D9               	clrf	_width^(0+128)
  3311  0F5A  01DA               	clrf	(_width+1)^(0+128)
  3312  0F5B  01DD               	clrf	_flags^(0+128)
  3313  0F5C  01DE               	clrf	(_flags+1)^(0+128)
  3314  0F5D                     l2036:
  3315                           
  3316                           ;C:\Program Files\Microchip\xc8\v2.36\pic\sources\c99\common\doprnt.c: 706:         prec
      +                           = -1;
  3317  0F5D  30FF               	movlw	255
  3318  0F5E  00DB               	movwf	_prec^(0+128)
  3319  0F5F  30FF               	movlw	255
  3320  0F60  00DC               	movwf	(_prec^(0+128)+1)
  3321  0F61                     l2038:
  3322                           
  3323                           ;C:\Program Files\Microchip\xc8\v2.36\pic\sources\c99\common\doprnt.c: 1204:         if 
      +                          (*fmt[0] == 'u') {
  3324  0F61  0020               	movlb	0	; select bank0
  3325  0F62  0847               	movf	vfpfcnvrt@fmt,w
  3326  0F63  0086               	movwf	6
  3327  0F64  0187               	clrf	7
  3328  0F65  3F40               	moviw [0]fsr1
  3329  0F66  00C9               	movwf	??_vfpfcnvrt
  3330  0F67  3F41               	moviw [1]fsr1
  3331  0F68  00CA               	movwf	??_vfpfcnvrt+1
  3332  0F69  0849               	movf	??_vfpfcnvrt,w
  3333  0F6A  0084               	movwf	4
  3334  0F6B  084A               	movf	??_vfpfcnvrt+1,w
  3335  0F6C  0085               	movwf	5
  3336  0F6D  0012               	moviw fsr0++
  3337  0F6E  3A75               	xorlw	117
  3338  0F6F  1D03               	btfss	3,2
  3339  0F70  2F72               	goto	u2101
  3340  0F71  2F73               	goto	u2100
  3341  0F72                     u2101:
  3342  0F72  2FA7               	goto	l2048
  3343  0F73                     u2100:
  3344  0F73                     l2040:
  3345                           
  3346                           ;C:\Program Files\Microchip\xc8\v2.36\pic\sources\c99\common\doprnt.c: 1206:            
      +                           ++*fmt;
  3347  0F73  0847               	movf	vfpfcnvrt@fmt,w
  3348  0F74  0086               	movwf	6
  3349  0F75  0187               	clrf	7
  3350  0F76  3001               	movlw	1
  3351  0F77  0781               	addwf	1,f
  3352  0F78  3141               	addfsr 1,1
  3353  0F79  1803               	skipnc
  3354  0F7A  0A81               	incf	1,f
  3355  0F7B                     l2042:
  3356                           
  3357                           ;C:\Program Files\Microchip\xc8\v2.36\pic\sources\c99\common\doprnt.c: 1207:            
      +                           llu = (unsigned long long)(*(unsigned int *)__va_arg(*(unsigned int **)ap, (unsigned in
      +                          t)0));
  3358  0F7B  0848               	movf	vfpfcnvrt@ap,w
  3359  0F7C  0086               	movwf	6
  3360  0F7D  0187               	clrf	7
  3361  0F7E  0801               	movf	1,w
  3362  0F7F  0084               	movwf	4
  3363  0F80  0185               	clrf	5
  3364  0F81  3002               	movlw	2
  3365  0F82  0781               	addwf	1,f
  3366  0F83  3F00               	moviw [0]fsr0
  3367  0F84  00CE               	movwf	vfpfcnvrt@llu
  3368  0F85  3F01               	moviw [1]fsr0
  3369  0F86  00CF               	movwf	vfpfcnvrt@llu+1
  3370  0F87  01D0               	clrf	vfpfcnvrt@llu+2
  3371  0F88  01D1               	clrf	vfpfcnvrt@llu+3
  3372  0F89  01D2               	clrf	vfpfcnvrt@llu+4
  3373  0F8A  01D3               	clrf	vfpfcnvrt@llu+5
  3374  0F8B  01D4               	clrf	vfpfcnvrt@llu+6
  3375  0F8C  01D5               	clrf	vfpfcnvrt@llu+7
  3376  0F8D                     l2044:
  3377                           
  3378                           ;C:\Program Files\Microchip\xc8\v2.36\pic\sources\c99\common\doprnt.c: 1209:            
      +                           return utoa(fp, llu);
  3379  0F8D  084E               	movf	vfpfcnvrt@llu,w
  3380  0F8E  00B0               	movwf	utoa@d
  3381  0F8F  084F               	movf	vfpfcnvrt@llu+1,w
  3382  0F90  00B1               	movwf	utoa@d+1
  3383  0F91  0850               	movf	vfpfcnvrt@llu+2,w
  3384  0F92  00B2               	movwf	utoa@d+2
  3385  0F93  0851               	movf	vfpfcnvrt@llu+3,w
  3386  0F94  00B3               	movwf	utoa@d+3
  3387  0F95  0852               	movf	vfpfcnvrt@llu+4,w
  3388  0F96  00B4               	movwf	utoa@d+4
  3389  0F97  0853               	movf	vfpfcnvrt@llu+5,w
  3390  0F98  00B5               	movwf	utoa@d+5
  3391  0F99  0854               	movf	vfpfcnvrt@llu+6,w
  3392  0F9A  00B6               	movwf	utoa@d+6
  3393  0F9B  0855               	movf	vfpfcnvrt@llu+7,w
  3394  0F9C  00B7               	movwf	utoa@d+7
  3395  0F9D  0856               	movf	vfpfcnvrt@fp,w
  3396  0F9E  3180  200F  318F   	fcall	_utoa
  3397  0FA1  0020               	movlb	0	; select bank0
  3398  0FA2  0831               	movf	?_utoa+1,w
  3399  0FA3  00C8               	movwf	?_vfpfcnvrt+1
  3400  0FA4  0830               	movf	?_utoa,w
  3401  0FA5  00C7               	movwf	?_vfpfcnvrt
  3402  0FA6  2FFF               	goto	l830
  3403  0FA7                     l2048:
  3404                           
  3405                           ;C:\Program Files\Microchip\xc8\v2.36\pic\sources\c99\common\doprnt.c: 1372:         if 
      +                          ((*fmt)[0] == '%') {
  3406  0FA7  0847               	movf	vfpfcnvrt@fmt,w
  3407  0FA8  0086               	movwf	6
  3408  0FA9  0187               	clrf	7
  3409  0FAA  3F40               	moviw [0]fsr1
  3410  0FAB  00C9               	movwf	??_vfpfcnvrt
  3411  0FAC  3F41               	moviw [1]fsr1
  3412  0FAD  00CA               	movwf	??_vfpfcnvrt+1
  3413  0FAE  0849               	movf	??_vfpfcnvrt,w
  3414  0FAF  0084               	movwf	4
  3415  0FB0  084A               	movf	??_vfpfcnvrt+1,w
  3416  0FB1  0085               	movwf	5
  3417  0FB2  0012               	moviw fsr0++
  3418  0FB3  3A25               	xorlw	37
  3419  0FB4  1D03               	btfss	3,2
  3420  0FB5  2FB7               	goto	u2111
  3421  0FB6  2FB8               	goto	u2110
  3422  0FB7                     u2111:
  3423  0FB7  2FD1               	goto	l2058
  3424  0FB8                     u2110:
  3425  0FB8                     l2050:
  3426                           
  3427                           ;C:\Program Files\Microchip\xc8\v2.36\pic\sources\c99\common\doprnt.c: 1373:            
      +                           ++*fmt;
  3428  0FB8  0847               	movf	vfpfcnvrt@fmt,w
  3429  0FB9  0086               	movwf	6
  3430  0FBA  0187               	clrf	7
  3431  0FBB  3001               	movlw	1
  3432  0FBC  0781               	addwf	1,f
  3433  0FBD  3141               	addfsr 1,1
  3434  0FBE  1803               	skipnc
  3435  0FBF  0A81               	incf	1,f
  3436  0FC0                     l2052:
  3437                           
  3438                           ;C:\Program Files\Microchip\xc8\v2.36\pic\sources\c99\common\doprnt.c: 1374:            
      +                           fputc((int)'%', fp);
  3439  0FC0  3025               	movlw	37
  3440  0FC1  00F0               	movwf	fputc@c
  3441  0FC2  3000               	movlw	0
  3442  0FC3  00F1               	movwf	fputc@c+1
  3443  0FC4  0856               	movf	vfpfcnvrt@fp,w
  3444  0FC5  00C9               	movwf	??_vfpfcnvrt
  3445  0FC6  0849               	movf	??_vfpfcnvrt,w
  3446  0FC7  00F2               	movwf	fputc@fp
  3447  0FC8  318C  247C  318F   	fcall	_fputc
  3448  0FCB                     l2054:
  3449                           
  3450                           ;C:\Program Files\Microchip\xc8\v2.36\pic\sources\c99\common\doprnt.c: 1375:            
      +                           return 1;
  3451  0FCB  3001               	movlw	1
  3452  0FCC  0020               	movlb	0	; select bank0
  3453  0FCD  00C7               	movwf	?_vfpfcnvrt
  3454  0FCE  3000               	movlw	0
  3455  0FCF  00C8               	movwf	?_vfpfcnvrt+1
  3456  0FD0  2FFF               	goto	l830
  3457  0FD1                     l2058:
  3458                           
  3459                           ;C:\Program Files\Microchip\xc8\v2.36\pic\sources\c99\common\doprnt.c: 1379:         ++*
      +                          fmt;
  3460  0FD1  0847               	movf	vfpfcnvrt@fmt,w
  3461  0FD2  0086               	movwf	6
  3462  0FD3  0187               	clrf	7
  3463  0FD4  3001               	movlw	1
  3464  0FD5  0781               	addwf	1,f
  3465  0FD6  3141               	addfsr 1,1
  3466  0FD7  1803               	skipnc
  3467  0FD8  0A81               	incf	1,f
  3468  0FD9                     l2060:
  3469                           
  3470                           ;C:\Program Files\Microchip\xc8\v2.36\pic\sources\c99\common\doprnt.c: 1380:         ret
      +                          urn 0;
  3471  0FD9  01C7               	clrf	?_vfpfcnvrt
  3472  0FDA  01C8               	clrf	?_vfpfcnvrt+1
  3473  0FDB  2FFF               	goto	l830
  3474  0FDC                     l2064:
  3475                           
  3476                           ;C:\Program Files\Microchip\xc8\v2.36\pic\sources\c99\common\doprnt.c: 1384:     fputc((
      +                          int)(*fmt)[0], fp);
  3477  0FDC  0847               	movf	vfpfcnvrt@fmt,w
  3478  0FDD  0086               	movwf	6
  3479  0FDE  0187               	clrf	7
  3480  0FDF  3F40               	moviw [0]fsr1
  3481  0FE0  00C9               	movwf	??_vfpfcnvrt
  3482  0FE1  3F41               	moviw [1]fsr1
  3483  0FE2  00CA               	movwf	??_vfpfcnvrt+1
  3484  0FE3  0849               	movf	??_vfpfcnvrt,w
  3485  0FE4  0084               	movwf	4
  3486  0FE5  084A               	movf	??_vfpfcnvrt+1,w
  3487  0FE6  0085               	movwf	5
  3488  0FE7  0800               	movf	0,w	;code access
  3489  0FE8  00CB               	movwf	??_vfpfcnvrt+2
  3490  0FE9  01CC               	clrf	??_vfpfcnvrt+3
  3491  0FEA  084B               	movf	??_vfpfcnvrt+2,w
  3492  0FEB  00F0               	movwf	fputc@c
  3493  0FEC  084C               	movf	??_vfpfcnvrt+3,w
  3494  0FED  00F1               	movwf	fputc@c+1
  3495  0FEE  0856               	movf	vfpfcnvrt@fp,w
  3496  0FEF  00CD               	movwf	??_vfpfcnvrt+4
  3497  0FF0  084D               	movf	??_vfpfcnvrt+4,w
  3498  0FF1  00F2               	movwf	fputc@fp
  3499  0FF2  318C  247C  318F   	fcall	_fputc
  3500  0FF5                     l2066:
  3501                           
  3502                           ;C:\Program Files\Microchip\xc8\v2.36\pic\sources\c99\common\doprnt.c: 1385:     ++*fmt;
  3503  0FF5  0020               	movlb	0	; select bank0
  3504  0FF6  0847               	movf	vfpfcnvrt@fmt,w
  3505  0FF7  0086               	movwf	6
  3506  0FF8  0187               	clrf	7
  3507  0FF9  3001               	movlw	1
  3508  0FFA  0781               	addwf	1,f
  3509  0FFB  3141               	addfsr 1,1
  3510  0FFC  1803               	skipnc
  3511  0FFD  0A81               	incf	1,f
  3512  0FFE  2FCB               	goto	l2054
  3513  0FFF                     l830:
  3514  0FFF  0008               	return
  3515  1000                     __end_of_vfpfcnvrt:
  3516                           
  3517                           	psect	text4
  3518  000F                     __ptext4:	
  3519 ;; *************** function _utoa *****************
  3520 ;; Defined at:
  3521 ;;		line 615 in file "C:\Program Files\Microchip\xc8\v2.36\pic\sources\c99\common\doprnt.c"
  3522 ;; Parameters:    Size  Location     Type
  3523 ;;  fp              1    wreg     PTR struct _IO_FILE
  3524 ;;		 -> sprintf@f(10), 
  3525 ;;  d               8   16[BANK0 ] unsigned long long 
  3526 ;; Auto vars:     Size  Location     Type
  3527 ;;  fp              1   24[BANK0 ] PTR struct _IO_FILE
  3528 ;;		 -> sprintf@f(10), 
  3529 ;;  n               8   29[BANK0 ] unsigned long long 
  3530 ;;  i               2   37[BANK0 ] int 
  3531 ;;  w               2   27[BANK0 ] int 
  3532 ;;  p               2   25[BANK0 ] int 
  3533 ;; Return value:  Size  Location     Type
  3534 ;;                  2   16[BANK0 ] int 
  3535 ;; Registers used:
  3536 ;;		wreg, fsr0l, fsr0h, fsr1l, fsr1h, status,2, status,0, pclath, cstack
  3537 ;; Tracked objects:
  3538 ;;		On entry : 0/0
  3539 ;;		On exit  : 0/0
  3540 ;;		Unchanged: 0/0
  3541 ;; Data sizes:     COMMON   BANK0   BANK1   BANK2   BANK3   BANK4   BANK5   BANK6
  3542 ;;      Params:         0       8       0       0       0       0       0       0
  3543 ;;      Locals:         0      15       0       0       0       0       0       0
  3544 ;;      Temps:          1       0       0       0       0       0       0       0
  3545 ;;      Totals:         1      23       0       0       0       0       0       0
  3546 ;;Total ram usage:       24 bytes
  3547 ;; Hardware stack levels used: 1
  3548 ;; Hardware stack levels required when called: 4
  3549 ;; This function calls:
  3550 ;;		___lodiv
  3551 ;;		___lomod
  3552 ;;		_pad
  3553 ;; This function is called by:
  3554 ;;		_vfpfcnvrt
  3555 ;; This function uses a non-reentrant model
  3556 ;;
  3557                           
  3558  000F                     _utoa:	
  3559                           ;psect for function _utoa
  3560                           
  3561                           
  3562                           ;incstack = 0
  3563                           ; Regs used in _utoa: [wreg-fsr1h+status,2+status,0+pclath+cstack]
  3564                           ;utoa@fp stored from wreg
  3565  000F  0020               	movlb	0	; select bank0
  3566  0010  00B8               	movwf	utoa@fp
  3567  0011                     l1984:
  3568                           
  3569                           ;C:\Program Files\Microchip\xc8\v2.36\pic\sources\c99\common\doprnt.c: 615: static int u
      +                          toa(FILE *fp, unsigned long long d);C:\Program Files\Microchip\xc8\v2.36\pic\sources\c99
      +                          \common\doprnt.c: 616: {;C:\Program Files\Microchip\xc8\v2.36\pic\sources\c99\common\dop
      +                          rnt.c: 617:     int i, p, w;;C:\Program Files\Microchip\xc8\v2.36\pic\sources\c99\common
      +                          \doprnt.c: 618:     unsigned long long n;;C:\Program Files\Microchip\xc8\v2.36\pic\sourc
      +                          es\c99\common\doprnt.c: 621:     if (!(prec < 0)) {
  3570  0011  0021               	movlb	1	; select bank1
  3571  0012  1BDC               	btfsc	(_prec+1)^(0+128),7
  3572  0013  2815               	goto	u2011
  3573  0014  2816               	goto	u2010
  3574  0015                     u2011:
  3575  0015  281A               	goto	l813
  3576  0016                     u2010:
  3577  0016                     l1986:
  3578                           
  3579                           ;C:\Program Files\Microchip\xc8\v2.36\pic\sources\c99\common\doprnt.c: 622:         flag
      +                          s &= ~(1 << 1);
  3580  0016  30FD               	movlw	253
  3581  0017  05DD               	andwf	_flags^(0+128),f
  3582  0018  30FF               	movlw	255
  3583  0019  05DE               	andwf	(_flags+1)^(0+128),f
  3584  001A                     l813:	
  3585                           ;C:\Program Files\Microchip\xc8\v2.36\pic\sources\c99\common\doprnt.c: 623:     }
  3586                           
  3587                           
  3588                           ;C:\Program Files\Microchip\xc8\v2.36\pic\sources\c99\common\doprnt.c: 624:     p = (0 <
      +                           prec) ? prec : 1;
  3589  001A  085C               	movf	(_prec+1)^(0+128),w
  3590  001B  3A80               	xorlw	128
  3591  001C  00FD               	movwf	??_utoa
  3592  001D  3080               	movlw	128
  3593  001E  027D               	subwf	??_utoa,w
  3594  001F  1D03               	skipz
  3595  0020  2823               	goto	u2025
  3596  0021  3001               	movlw	1
  3597  0022  025B               	subwf	_prec^(0+128),w
  3598  0023                     u2025:
  3599  0023  1803               	skipnc
  3600  0024  2826               	goto	u2021
  3601  0025  2827               	goto	u2020
  3602  0026                     u2021:
  3603  0026  282D               	goto	l1990
  3604  0027                     u2020:
  3605  0027                     l1988:
  3606  0027  3001               	movlw	1
  3607  0028  0020               	movlb	0	; select bank0
  3608  0029  00B9               	movwf	utoa@p
  3609  002A  3000               	movlw	0
  3610  002B  00BA               	movwf	utoa@p+1
  3611  002C  2835               	goto	l817
  3612  002D                     l1990:
  3613  002D  0021               	movlb	1	; select bank1
  3614  002E  085C               	movf	(_prec+1)^(0+128),w
  3615  002F  0020               	movlb	0	; select bank0
  3616  0030  00BA               	movwf	utoa@p+1
  3617  0031  0021               	movlb	1	; select bank1
  3618  0032  085B               	movf	_prec^(0+128),w
  3619  0033  0020               	movlb	0	; select bank0
  3620  0034  00B9               	movwf	utoa@p
  3621  0035                     l817:
  3622                           
  3623                           ;C:\Program Files\Microchip\xc8\v2.36\pic\sources\c99\common\doprnt.c: 625:     w = widt
      +                          h;
  3624  0035  0021               	movlb	1	; select bank1
  3625  0036  085A               	movf	(_width+1)^(0+128),w
  3626  0037  0020               	movlb	0	; select bank0
  3627  0038  00BC               	movwf	utoa@w+1
  3628  0039  0021               	movlb	1	; select bank1
  3629  003A  0859               	movf	_width^(0+128),w
  3630  003B  0020               	movlb	0	; select bank0
  3631  003C  00BB               	movwf	utoa@w
  3632  003D                     l1992:
  3633                           
  3634                           ;C:\Program Files\Microchip\xc8\v2.36\pic\sources\c99\common\doprnt.c: 628:     n = d;
  3635  003D  0830               	movf	utoa@d,w
  3636  003E  00BD               	movwf	utoa@n
  3637  003F  0831               	movf	utoa@d+1,w
  3638  0040  00BE               	movwf	utoa@n+1
  3639  0041  0832               	movf	utoa@d+2,w
  3640  0042  00BF               	movwf	utoa@n+2
  3641  0043  0833               	movf	utoa@d+3,w
  3642  0044  00C0               	movwf	utoa@n+3
  3643  0045  0834               	movf	utoa@d+4,w
  3644  0046  00C1               	movwf	utoa@n+4
  3645  0047  0835               	movf	utoa@d+5,w
  3646  0048  00C2               	movwf	utoa@n+5
  3647  0049  0836               	movf	utoa@d+6,w
  3648  004A  00C3               	movwf	utoa@n+6
  3649  004B  0837               	movf	utoa@d+7,w
  3650  004C  00C4               	movwf	utoa@n+7
  3651                           
  3652                           ;C:\Program Files\Microchip\xc8\v2.36\pic\sources\c99\common\doprnt.c: 629:     i = size
      +                          of(dbuf) - 1;
  3653  004D  301F               	movlw	31
  3654  004E  00C5               	movwf	utoa@i
  3655  004F  3000               	movlw	0
  3656  0050  00C6               	movwf	utoa@i+1
  3657  0051                     l1994:
  3658                           
  3659                           ;C:\Program Files\Microchip\xc8\v2.36\pic\sources\c99\common\doprnt.c: 630:     dbuf[i] 
      +                          = '\0';
  3660  0051  0022               	movlb	2	; select bank2
  3661  0052  01BF               	clrf	(_dbuf^(0+256)+31)
  3662                           
  3663                           ;C:\Program Files\Microchip\xc8\v2.36\pic\sources\c99\common\doprnt.c: 631:     while (i
      +                           && (n || (0 < p) || ((0 < w) && (flags & (1 << 1))))) {
  3664  0053  28B5               	goto	l2006
  3665  0054                     l1996:
  3666                           
  3667                           ;C:\Program Files\Microchip\xc8\v2.36\pic\sources\c99\common\doprnt.c: 632:         --i;
  3668  0054  30FF               	movlw	255
  3669  0055  0020               	movlb	0	; select bank0
  3670  0056  07C5               	addwf	utoa@i,f
  3671  0057  30FF               	movlw	255
  3672  0058  3DC6               	addwfc	utoa@i+1,f
  3673  0059                     l1998:
  3674                           
  3675                           ;C:\Program Files\Microchip\xc8\v2.36\pic\sources\c99\common\doprnt.c: 633:         dbuf
      +                          [i] = '0' + (n % 10);
  3676  0059  300A               	movlw	10
  3677  005A  00A0               	movwf	___lomod@divisor
  3678  005B  01A1               	clrf	___lomod@divisor+1
  3679  005C  01A2               	clrf	___lomod@divisor+2
  3680  005D  01A3               	clrf	___lomod@divisor+3
  3681  005E  01A4               	clrf	___lomod@divisor+4
  3682  005F  01A5               	clrf	___lomod@divisor+5
  3683  0060  01A6               	clrf	___lomod@divisor+6
  3684  0061  01A7               	clrf	___lomod@divisor+7
  3685  0062  083D               	movf	utoa@n,w
  3686  0063  00A8               	movwf	___lomod@dividend
  3687  0064  083E               	movf	utoa@n+1,w
  3688  0065  00A9               	movwf	___lomod@dividend+1
  3689  0066  083F               	movf	utoa@n+2,w
  3690  0067  00AA               	movwf	___lomod@dividend+2
  3691  0068  0840               	movf	utoa@n+3,w
  3692  0069  00AB               	movwf	___lomod@dividend+3
  3693  006A  0841               	movf	utoa@n+4,w
  3694  006B  00AC               	movwf	___lomod@dividend+4
  3695  006C  0842               	movf	utoa@n+5,w
  3696  006D  00AD               	movwf	___lomod@dividend+5
  3697  006E  0843               	movf	utoa@n+6,w
  3698  006F  00AE               	movwf	___lomod@dividend+6
  3699  0070  0844               	movf	utoa@n+7,w
  3700  0071  00AF               	movwf	___lomod@dividend+7
  3701  0072  318D  2527  3180   	fcall	___lomod
  3702  0075  0020               	movlb	0	; select bank0
  3703  0076  0820               	movf	?___lomod,w
  3704  0077  3E30               	addlw	48
  3705  0078  00FD               	movwf	??_utoa
  3706  0079  0845               	movf	utoa@i,w
  3707  007A  3E20               	addlw	(low (_dbuf| (0+256)))& (0+255)
  3708  007B  0086               	movwf	6
  3709  007C  3001               	movlw	1	; select bank2/3
  3710  007D  0087               	movwf	7
  3711  007E  087D               	movf	??_utoa,w
  3712  007F  0081               	movwf	1
  3713  0080                     l2000:
  3714                           
  3715                           ;C:\Program Files\Microchip\xc8\v2.36\pic\sources\c99\common\doprnt.c: 634:         --p;
  3716  0080  30FF               	movlw	255
  3717  0081  07B9               	addwf	utoa@p,f
  3718  0082  30FF               	movlw	255
  3719  0083  3DBA               	addwfc	utoa@p+1,f
  3720  0084                     l2002:
  3721                           
  3722                           ;C:\Program Files\Microchip\xc8\v2.36\pic\sources\c99\common\doprnt.c: 635:         --w;
  3723  0084  30FF               	movlw	255
  3724  0085  07BB               	addwf	utoa@w,f
  3725  0086  30FF               	movlw	255
  3726  0087  3DBC               	addwfc	utoa@w+1,f
  3727  0088                     l2004:
  3728                           
  3729                           ;C:\Program Files\Microchip\xc8\v2.36\pic\sources\c99\common\doprnt.c: 636:         n = 
      +                          n / 10;
  3730  0088  300A               	movlw	10
  3731  0089  00A0               	movwf	___lodiv@divisor
  3732  008A  01A1               	clrf	___lodiv@divisor+1
  3733  008B  01A2               	clrf	___lodiv@divisor+2
  3734  008C  01A3               	clrf	___lodiv@divisor+3
  3735  008D  01A4               	clrf	___lodiv@divisor+4
  3736  008E  01A5               	clrf	___lodiv@divisor+5
  3737  008F  01A6               	clrf	___lodiv@divisor+6
  3738  0090  01A7               	clrf	___lodiv@divisor+7
  3739  0091  083D               	movf	utoa@n,w
  3740  0092  00A8               	movwf	___lodiv@dividend
  3741  0093  083E               	movf	utoa@n+1,w
  3742  0094  00A9               	movwf	___lodiv@dividend+1
  3743  0095  083F               	movf	utoa@n+2,w
  3744  0096  00AA               	movwf	___lodiv@dividend+2
  3745  0097  0840               	movf	utoa@n+3,w
  3746  0098  00AB               	movwf	___lodiv@dividend+3
  3747  0099  0841               	movf	utoa@n+4,w
  3748  009A  00AC               	movwf	___lodiv@dividend+4
  3749  009B  0842               	movf	utoa@n+5,w
  3750  009C  00AD               	movwf	___lodiv@dividend+5
  3751  009D  0843               	movf	utoa@n+6,w
  3752  009E  00AE               	movwf	___lodiv@dividend+6
  3753  009F  0844               	movf	utoa@n+7,w
  3754  00A0  00AF               	movwf	___lodiv@dividend+7
  3755  00A1  318E  260D  3180   	fcall	___lodiv
  3756  00A4  0020               	movlb	0	; select bank0
  3757  00A5  0820               	movf	?___lodiv,w
  3758  00A6  00BD               	movwf	utoa@n
  3759  00A7  0821               	movf	?___lodiv+1,w
  3760  00A8  00BE               	movwf	utoa@n+1
  3761  00A9  0822               	movf	?___lodiv+2,w
  3762  00AA  00BF               	movwf	utoa@n+2
  3763  00AB  0823               	movf	?___lodiv+3,w
  3764  00AC  00C0               	movwf	utoa@n+3
  3765  00AD  0824               	movf	?___lodiv+4,w
  3766  00AE  00C1               	movwf	utoa@n+4
  3767  00AF  0825               	movf	?___lodiv+5,w
  3768  00B0  00C2               	movwf	utoa@n+5
  3769  00B1  0826               	movf	?___lodiv+6,w
  3770  00B2  00C3               	movwf	utoa@n+6
  3771  00B3  0827               	movf	?___lodiv+7,w
  3772  00B4  00C4               	movwf	utoa@n+7
  3773  00B5                     l2006:
  3774                           
  3775                           ;C:\Program Files\Microchip\xc8\v2.36\pic\sources\c99\common\doprnt.c: 631:     while (i
      +                           && (n || (0 < p) || ((0 < w) && (flags & (1 << 1))))) {
  3776  00B5  0020               	movlb	0	; select bank0
  3777  00B6  0845               	movf	utoa@i,w
  3778  00B7  0446               	iorwf	utoa@i+1,w
  3779  00B8  1903               	btfsc	3,2
  3780  00B9  28BB               	goto	u2031
  3781  00BA  28BC               	goto	u2030
  3782  00BB                     u2031:
  3783  00BB  28E8               	goto	l2016
  3784  00BC                     u2030:
  3785  00BC                     l2008:
  3786  00BC  083D               	movf	utoa@n,w
  3787  00BD  043E               	iorwf	utoa@n+1,w
  3788  00BE  043F               	iorwf	utoa@n+2,w
  3789  00BF  0440               	iorwf	utoa@n+3,w
  3790  00C0  0441               	iorwf	utoa@n+4,w
  3791  00C1  0442               	iorwf	utoa@n+5,w
  3792  00C2  0443               	iorwf	utoa@n+6,w
  3793  00C3  0444               	iorwf	utoa@n+7,w
  3794  00C4  1D03               	skipz
  3795  00C5  28C7               	goto	u2041
  3796  00C6  28C8               	goto	u2040
  3797  00C7                     u2041:
  3798  00C7  2854               	goto	l1996
  3799  00C8                     u2040:
  3800  00C8                     l2010:
  3801  00C8  083A               	movf	utoa@p+1,w
  3802  00C9  3A80               	xorlw	128
  3803  00CA  00FD               	movwf	??_utoa
  3804  00CB  3080               	movlw	128
  3805  00CC  027D               	subwf	??_utoa,w
  3806  00CD  1D03               	skipz
  3807  00CE  28D1               	goto	u2055
  3808  00CF  3001               	movlw	1
  3809  00D0  0239               	subwf	utoa@p,w
  3810  00D1                     u2055:
  3811  00D1  1803               	skipnc
  3812  00D2  28D4               	goto	u2051
  3813  00D3  28D5               	goto	u2050
  3814  00D4                     u2051:
  3815  00D4  2854               	goto	l1996
  3816  00D5                     u2050:
  3817  00D5                     l2012:
  3818  00D5  0020               	movlb	0	; select bank0
  3819  00D6  083C               	movf	utoa@w+1,w
  3820  00D7  3A80               	xorlw	128
  3821  00D8  00FD               	movwf	??_utoa
  3822  00D9  3080               	movlw	128
  3823  00DA  027D               	subwf	??_utoa,w
  3824  00DB  1D03               	skipz
  3825  00DC  28DF               	goto	u2065
  3826  00DD  3001               	movlw	1
  3827  00DE  023B               	subwf	utoa@w,w
  3828  00DF                     u2065:
  3829  00DF  1C03               	skipc
  3830  00E0  28E2               	goto	u2061
  3831  00E1  28E3               	goto	u2060
  3832  00E2                     u2061:
  3833  00E2  28E8               	goto	l2016
  3834  00E3                     u2060:
  3835  00E3                     l2014:
  3836  00E3  0021               	movlb	1	; select bank1
  3837  00E4  18DD               	btfsc	_flags^(0+128),1
  3838  00E5  28E7               	goto	u2071
  3839  00E6  28E8               	goto	u2070
  3840  00E7                     u2071:
  3841  00E7  2854               	goto	l1996
  3842  00E8                     u2070:
  3843  00E8                     l2016:
  3844                           
  3845                           ;C:\Program Files\Microchip\xc8\v2.36\pic\sources\c99\common\doprnt.c: 640:     return p
      +                          ad(fp, &dbuf[i], w);
  3846  00E8  0020               	movlb	0	; select bank0
  3847  00E9  0845               	movf	utoa@i,w
  3848  00EA  3E20               	addlw	(low (_dbuf| (0+256)))& (0+255)
  3849  00EB  00FD               	movwf	??_utoa
  3850  00EC  087D               	movf	??_utoa,w
  3851  00ED  00A4               	movwf	pad@buf
  3852  00EE  083C               	movf	utoa@w+1,w
  3853  00EF  00A6               	movwf	pad@p+1
  3854  00F0  083B               	movf	utoa@w,w
  3855  00F1  00A5               	movwf	pad@p
  3856  00F2  0838               	movf	utoa@fp,w
  3857  00F3  318C  24CE  3180   	fcall	_pad
  3858  00F6  0020               	movlb	0	; select bank0
  3859  00F7  0825               	movf	?_pad+1,w
  3860  00F8  00B1               	movwf	?_utoa+1
  3861  00F9  0824               	movf	?_pad,w
  3862  00FA  00B0               	movwf	?_utoa
  3863  00FB                     l825:
  3864  00FB  0008               	return
  3865  00FC                     __end_of_utoa:
  3866                           
  3867                           	psect	text5
  3868  0CCE                     __ptext5:	
  3869 ;; *************** function _pad *****************
  3870 ;; Defined at:
  3871 ;;		line 72 in file "C:\Program Files\Microchip\xc8\v2.36\pic\sources\c99\common\doprnt.c"
  3872 ;; Parameters:    Size  Location     Type
  3873 ;;  fp              1    wreg     PTR struct _IO_FILE
  3874 ;;		 -> sprintf@f(10), 
  3875 ;;  buf             1    4[BANK0 ] PTR unsigned char 
  3876 ;;		 -> dbuf(32), 
  3877 ;;  p               2    5[BANK0 ] int 
  3878 ;; Auto vars:     Size  Location     Type
  3879 ;;  fp              1   11[BANK0 ] PTR struct _IO_FILE
  3880 ;;		 -> sprintf@f(10), 
  3881 ;;  w               2    9[BANK0 ] int 
  3882 ;;  i               2    7[BANK0 ] int 
  3883 ;; Return value:  Size  Location     Type
  3884 ;;                  2    4[BANK0 ] int 
  3885 ;; Registers used:
  3886 ;;		wreg, fsr0l, fsr0h, fsr1l, fsr1h, status,2, status,0, pclath, cstack
  3887 ;; Tracked objects:
  3888 ;;		On entry : 0/0
  3889 ;;		On exit  : 0/0
  3890 ;;		Unchanged: 0/0
  3891 ;; Data sizes:     COMMON   BANK0   BANK1   BANK2   BANK3   BANK4   BANK5   BANK6
  3892 ;;      Params:         0       3       0       0       0       0       0       0
  3893 ;;      Locals:         0       5       0       0       0       0       0       0
  3894 ;;      Temps:          1       0       0       0       0       0       0       0
  3895 ;;      Totals:         1       8       0       0       0       0       0       0
  3896 ;;Total ram usage:        9 bytes
  3897 ;; Hardware stack levels used: 1
  3898 ;; Hardware stack levels required when called: 3
  3899 ;; This function calls:
  3900 ;;		_fputc
  3901 ;;		_fputs
  3902 ;;		_strlen
  3903 ;; This function is called by:
  3904 ;;		_utoa
  3905 ;; This function uses a non-reentrant model
  3906 ;;
  3907                           
  3908  0CCE                     _pad:	
  3909                           ;psect for function _pad
  3910                           
  3911                           
  3912                           ;incstack = 0
  3913                           ; Regs used in _pad: [wreg-fsr1h+status,2+status,0+pclath+cstack]
  3914                           ;pad@fp stored from wreg
  3915  0CCE  0020               	movlb	0	; select bank0
  3916  0CCF  00AB               	movwf	pad@fp
  3917  0CD0                     l1928:
  3918                           
  3919                           ;C:\Program Files\Microchip\xc8\v2.36\pic\sources\c99\common\doprnt.c: 72: static int pa
      +                          d(FILE *fp, char *buf, int p);C:\Program Files\Microchip\xc8\v2.36\pic\sources\c99\commo
      +                          n\doprnt.c: 73: {;C:\Program Files\Microchip\xc8\v2.36\pic\sources\c99\common\doprnt.c: 
      +                          74:     int i, w;;C:\Program Files\Microchip\xc8\v2.36\pic\sources\c99\common\doprnt.c: 
      +                          77:     if (flags & (1 << 0)) {
  3920  0CD0  0021               	movlb	1	; select bank1
  3921  0CD1  1C5D               	btfss	_flags^(0+128),0
  3922  0CD2  2CD4               	goto	u1891
  3923  0CD3  2CD5               	goto	u1890
  3924  0CD4                     u1891:
  3925  0CD4  2CDE               	goto	l1932
  3926  0CD5                     u1890:
  3927  0CD5                     l1930:
  3928                           
  3929                           ;C:\Program Files\Microchip\xc8\v2.36\pic\sources\c99\common\doprnt.c: 78:         fputs
      +                          ((const char *)buf, fp);
  3930  0CD5  0020               	movlb	0	; select bank0
  3931  0CD6  082B               	movf	pad@fp,w
  3932  0CD7  00FC               	movwf	??_pad
  3933  0CD8  087C               	movf	??_pad,w
  3934  0CD9  00F8               	movwf	fputs@fp
  3935  0CDA  0824               	movf	pad@buf,w
  3936  0CDB  318B  239A  318C   	fcall	_fputs
  3937  0CDE                     l1932:
  3938                           
  3939                           ;C:\Program Files\Microchip\xc8\v2.36\pic\sources\c99\common\doprnt.c: 82:     w = (p < 
      +                          0) ? 0 : p;
  3940  0CDE  0020               	movlb	0	; select bank0
  3941  0CDF  1BA6               	btfsc	pad@p+1,7
  3942  0CE0  2CE2               	goto	u1901
  3943  0CE1  2CE3               	goto	u1900
  3944  0CE2                     u1901:
  3945  0CE2  2CE8               	goto	l1936
  3946  0CE3                     u1900:
  3947  0CE3                     l1934:
  3948  0CE3  0826               	movf	pad@p+1,w
  3949  0CE4  00AA               	movwf	pad@w+1
  3950  0CE5  0825               	movf	pad@p,w
  3951  0CE6  00A9               	movwf	pad@w
  3952  0CE7  2CEA               	goto	l805
  3953  0CE8                     l1936:
  3954  0CE8  01A9               	clrf	pad@w
  3955  0CE9  01AA               	clrf	pad@w+1
  3956  0CEA                     l805:
  3957                           
  3958                           ;C:\Program Files\Microchip\xc8\v2.36\pic\sources\c99\common\doprnt.c: 83:     i = 0;
  3959  0CEA  01A7               	clrf	pad@i
  3960  0CEB  01A8               	clrf	pad@i+1
  3961                           
  3962                           ;C:\Program Files\Microchip\xc8\v2.36\pic\sources\c99\common\doprnt.c: 84:     while (i 
      +                          < w) {
  3963  0CEC  2CFE               	goto	l1942
  3964  0CED                     l1938:
  3965                           
  3966                           ;C:\Program Files\Microchip\xc8\v2.36\pic\sources\c99\common\doprnt.c: 85:         fputc
      +                          (' ', fp);
  3967  0CED  3020               	movlw	32
  3968  0CEE  00F0               	movwf	fputc@c
  3969  0CEF  3000               	movlw	0
  3970  0CF0  00F1               	movwf	fputc@c+1
  3971  0CF1  0020               	movlb	0	; select bank0
  3972  0CF2  082B               	movf	pad@fp,w
  3973  0CF3  00FC               	movwf	??_pad
  3974  0CF4  087C               	movf	??_pad,w
  3975  0CF5  00F2               	movwf	fputc@fp
  3976  0CF6  318C  247C  318C   	fcall	_fputc
  3977  0CF9                     l1940:
  3978                           
  3979                           ;C:\Program Files\Microchip\xc8\v2.36\pic\sources\c99\common\doprnt.c: 86:         ++i;
  3980  0CF9  3001               	movlw	1
  3981  0CFA  0020               	movlb	0	; select bank0
  3982  0CFB  07A7               	addwf	pad@i,f
  3983  0CFC  3000               	movlw	0
  3984  0CFD  3DA8               	addwfc	pad@i+1,f
  3985  0CFE                     l1942:
  3986                           
  3987                           ;C:\Program Files\Microchip\xc8\v2.36\pic\sources\c99\common\doprnt.c: 84:     while (i 
      +                          < w) {
  3988  0CFE  0828               	movf	pad@i+1,w
  3989  0CFF  3A80               	xorlw	128
  3990  0D00  00FC               	movwf	??_pad
  3991  0D01  082A               	movf	pad@w+1,w
  3992  0D02  3A80               	xorlw	128
  3993  0D03  027C               	subwf	??_pad,w
  3994  0D04  1D03               	skipz
  3995  0D05  2D08               	goto	u1915
  3996  0D06  0829               	movf	pad@w,w
  3997  0D07  0227               	subwf	pad@i,w
  3998  0D08                     u1915:
  3999  0D08  1C03               	skipc
  4000  0D09  2D0B               	goto	u1911
  4001  0D0A  2D0C               	goto	u1910
  4002  0D0B                     u1911:
  4003  0D0B  2CED               	goto	l1938
  4004  0D0C                     u1910:
  4005  0D0C                     l808:
  4006                           
  4007                           ;C:\Program Files\Microchip\xc8\v2.36\pic\sources\c99\common\doprnt.c: 90:     if (!(fla
      +                          gs & (1 << 0))) {
  4008  0D0C  0021               	movlb	1	; select bank1
  4009  0D0D  185D               	btfsc	_flags^(0+128),0
  4010  0D0E  2D10               	goto	u1921
  4011  0D0F  2D11               	goto	u1920
  4012  0D10                     u1921:
  4013  0D10  2D1A               	goto	l1946
  4014  0D11                     u1920:
  4015  0D11                     l1944:
  4016                           
  4017                           ;C:\Program Files\Microchip\xc8\v2.36\pic\sources\c99\common\doprnt.c: 91:         fputs
      +                          ((const char *)buf, fp);
  4018  0D11  0020               	movlb	0	; select bank0
  4019  0D12  082B               	movf	pad@fp,w
  4020  0D13  00FC               	movwf	??_pad
  4021  0D14  087C               	movf	??_pad,w
  4022  0D15  00F8               	movwf	fputs@fp
  4023  0D16  0824               	movf	pad@buf,w
  4024  0D17  318B  239A  318C   	fcall	_fputs
  4025  0D1A                     l1946:
  4026                           
  4027                           ;C:\Program Files\Microchip\xc8\v2.36\pic\sources\c99\common\doprnt.c: 94:     return (i
      +                          nt)(strlen(buf) + (size_t)w);
  4028  0D1A  0020               	movlb	0	; select bank0
  4029  0D1B  0824               	movf	pad@buf,w
  4030  0D1C  318A  2297  318C   	fcall	_strlen
  4031  0D1F  0020               	movlb	0	; select bank0
  4032  0D20  0829               	movf	pad@w,w
  4033  0D21  0770               	addwf	?_strlen,w
  4034  0D22  00A4               	movwf	?_pad
  4035  0D23  082A               	movf	pad@w+1,w
  4036  0D24  3D71               	addwfc	?_strlen+1,w
  4037  0D25  00A5               	movwf	?_pad+1
  4038  0D26                     l810:
  4039  0D26  0008               	return
  4040  0D27                     __end_of_pad:
  4041                           
  4042                           	psect	text6
  4043  0A97                     __ptext6:	
  4044 ;; *************** function _strlen *****************
  4045 ;; Defined at:
  4046 ;;		line 5 in file "C:\Program Files\Microchip\xc8\v2.36\pic\sources\c99\common\strlen.c"
  4047 ;; Parameters:    Size  Location     Type
  4048 ;;  s               1    wreg     PTR const unsigned char 
  4049 ;;		 -> dbuf(32), 
  4050 ;; Auto vars:     Size  Location     Type
  4051 ;;  s               1    4[COMMON] PTR const unsigned char 
  4052 ;;		 -> dbuf(32), 
  4053 ;;  a               1    3[COMMON] PTR const unsigned char 
  4054 ;;		 -> dbuf(32), 
  4055 ;; Return value:  Size  Location     Type
  4056 ;;                  2    0[COMMON] unsigned int 
  4057 ;; Registers used:
  4058 ;;		wreg, fsr1l, fsr1h, status,2, status,0
  4059 ;; Tracked objects:
  4060 ;;		On entry : 0/0
  4061 ;;		On exit  : 0/0
  4062 ;;		Unchanged: 0/0
  4063 ;; Data sizes:     COMMON   BANK0   BANK1   BANK2   BANK3   BANK4   BANK5   BANK6
  4064 ;;      Params:         2       0       0       0       0       0       0       0
  4065 ;;      Locals:         2       0       0       0       0       0       0       0
  4066 ;;      Temps:          1       0       0       0       0       0       0       0
  4067 ;;      Totals:         5       0       0       0       0       0       0       0
  4068 ;;Total ram usage:        5 bytes
  4069 ;; Hardware stack levels used: 1
  4070 ;; This function calls:
  4071 ;;		Nothing
  4072 ;; This function is called by:
  4073 ;;		_pad
  4074 ;; This function uses a non-reentrant model
  4075 ;;
  4076                           
  4077  0A97                     _strlen:	
  4078                           ;psect for function _strlen
  4079                           
  4080                           
  4081                           ;incstack = 0
  4082                           ; Regs used in _strlen: [wreg+fsr1l+fsr1h+status,2+status,0]
  4083                           ;strlen@s stored from wreg
  4084  0A97  00F4               	movwf	strlen@s
  4085  0A98                     l1880:
  4086  0A98  0874               	movf	strlen@s,w
  4087  0A99  00F2               	movwf	??_strlen
  4088  0A9A  0872               	movf	??_strlen,w
  4089  0A9B  00F3               	movwf	strlen@a
  4090  0A9C  2AA1               	goto	l1884
  4091  0A9D                     l1882:
  4092  0A9D  3001               	movlw	1
  4093  0A9E  00F2               	movwf	??_strlen
  4094  0A9F  0872               	movf	??_strlen,w
  4095  0AA0  07F4               	addwf	strlen@s,f
  4096  0AA1                     l1884:
  4097  0AA1  0874               	movf	strlen@s,w
  4098  0AA2  0086               	movwf	6
  4099  0AA3  3001               	movlw	1	; select bank2/3
  4100  0AA4  0087               	movwf	7
  4101  0AA5  0801               	movf	1,w
  4102  0AA6  1D03               	btfss	3,2
  4103  0AA7  2AA9               	goto	u1791
  4104  0AA8  2AAA               	goto	u1790
  4105  0AA9                     u1791:
  4106  0AA9  2A9D               	goto	l1882
  4107  0AAA                     u1790:
  4108  0AAA                     l1886:
  4109  0AAA  0873               	movf	strlen@a,w
  4110  0AAB  0274               	subwf	strlen@s,w
  4111  0AAC  00F0               	movwf	?_strlen
  4112  0AAD  01F1               	clrf	?_strlen+1
  4113  0AAE  1BF0               	btfsc	?_strlen,7
  4114  0AAF  03F1               	decf	?_strlen+1,f
  4115  0AB0                     l866:
  4116  0AB0  0008               	return
  4117  0AB1                     __end_of_strlen:
  4118                           
  4119                           	psect	text7
  4120  0B9A                     __ptext7:	
  4121 ;; *************** function _fputs *****************
  4122 ;; Defined at:
  4123 ;;		line 8 in file "C:\Program Files\Microchip\xc8\v2.36\pic\sources\c99\common\nf_fputs.c"
  4124 ;; Parameters:    Size  Location     Type
  4125 ;;  s               1    wreg     PTR const unsigned char 
  4126 ;;		 -> dbuf(32), 
  4127 ;;  fp              1    8[COMMON] PTR struct _IO_FILE
  4128 ;;		 -> sprintf@f(10), 
  4129 ;; Auto vars:     Size  Location     Type
  4130 ;;  s               1    3[BANK0 ] PTR const unsigned char 
  4131 ;;		 -> dbuf(32), 
  4132 ;;  i               2    1[BANK0 ] int 
  4133 ;;  c               1    0[BANK0 ] unsigned char 
  4134 ;; Return value:  Size  Location     Type
  4135 ;;                  2    8[COMMON] int 
  4136 ;; Registers used:
  4137 ;;		wreg, fsr0l, fsr0h, fsr1l, fsr1h, status,2, status,0, pclath, cstack
  4138 ;; Tracked objects:
  4139 ;;		On entry : 0/0
  4140 ;;		On exit  : 0/0
  4141 ;;		Unchanged: 0/0
  4142 ;; Data sizes:     COMMON   BANK0   BANK1   BANK2   BANK3   BANK4   BANK5   BANK6
  4143 ;;      Params:         1       0       0       0       0       0       0       0
  4144 ;;      Locals:         0       4       0       0       0       0       0       0
  4145 ;;      Temps:          3       0       0       0       0       0       0       0
  4146 ;;      Totals:         4       4       0       0       0       0       0       0
  4147 ;;Total ram usage:        8 bytes
  4148 ;; Hardware stack levels used: 1
  4149 ;; Hardware stack levels required when called: 2
  4150 ;; This function calls:
  4151 ;;		_fputc
  4152 ;; This function is called by:
  4153 ;;		_pad
  4154 ;; This function uses a non-reentrant model
  4155 ;;
  4156                           
  4157  0B9A                     _fputs:	
  4158                           ;psect for function _fputs
  4159                           
  4160                           
  4161                           ;incstack = 0
  4162                           ; Regs used in _fputs: [wreg-fsr1h+status,2+status,0+pclath+cstack]
  4163                           ;fputs@s stored from wreg
  4164  0B9A  0020               	movlb	0	; select bank0
  4165  0B9B  00A3               	movwf	fputs@s
  4166  0B9C                     l1872:
  4167  0B9C  01A1               	clrf	fputs@i
  4168  0B9D  01A2               	clrf	fputs@i+1
  4169  0B9E  2BB2               	goto	l1878
  4170  0B9F                     l1874:
  4171  0B9F  0820               	movf	fputs@c,w
  4172  0BA0  00F9               	movwf	??_fputs
  4173  0BA1  01FA               	clrf	??_fputs+1
  4174  0BA2  0879               	movf	??_fputs,w
  4175  0BA3  00F0               	movwf	fputc@c
  4176  0BA4  087A               	movf	??_fputs+1,w
  4177  0BA5  00F1               	movwf	fputc@c+1
  4178  0BA6  0878               	movf	fputs@fp,w
  4179  0BA7  00FB               	movwf	??_fputs+2
  4180  0BA8  087B               	movf	??_fputs+2,w
  4181  0BA9  00F2               	movwf	fputc@fp
  4182  0BAA  318C  247C  318B   	fcall	_fputc
  4183  0BAD                     l1876:
  4184  0BAD  3001               	movlw	1
  4185  0BAE  0020               	movlb	0	; select bank0
  4186  0BAF  07A1               	addwf	fputs@i,f
  4187  0BB0  3000               	movlw	0
  4188  0BB1  3DA2               	addwfc	fputs@i+1,f
  4189  0BB2                     l1878:
  4190  0BB2  0821               	movf	fputs@i,w
  4191  0BB3  0723               	addwf	fputs@s,w
  4192  0BB4  00F9               	movwf	??_fputs
  4193  0BB5  0879               	movf	??_fputs,w
  4194  0BB6  0086               	movwf	6
  4195  0BB7  3001               	movlw	1	; select bank2/3
  4196  0BB8  0087               	movwf	7
  4197  0BB9  0801               	movf	1,w
  4198  0BBA  00FA               	movwf	??_fputs+1
  4199  0BBB  087A               	movf	??_fputs+1,w
  4200  0BBC  00A0               	movwf	fputs@c
  4201  0BBD  0820               	movf	fputs@c,w
  4202  0BBE  1D03               	btfss	3,2
  4203  0BBF  2BC1               	goto	u1781
  4204  0BC0  2BC2               	goto	u1780
  4205  0BC1                     u1781:
  4206  0BC1  2B9F               	goto	l1874
  4207  0BC2                     u1780:
  4208  0BC2                     l857:
  4209  0BC2  0008               	return
  4210  0BC3                     __end_of_fputs:
  4211                           
  4212                           	psect	text8
  4213  0C7C                     __ptext8:	
  4214 ;; *************** function _fputc *****************
  4215 ;; Defined at:
  4216 ;;		line 8 in file "C:\Program Files\Microchip\xc8\v2.36\pic\sources\c99\common\nf_fputc.c"
  4217 ;; Parameters:    Size  Location     Type
  4218 ;;  c               2    0[COMMON] int 
  4219 ;;  fp              1    2[COMMON] PTR struct _IO_FILE
  4220 ;;		 -> sprintf@f(10), 
  4221 ;; Auto vars:     Size  Location     Type
  4222 ;;		None
  4223 ;; Return value:  Size  Location     Type
  4224 ;;                  2    0[COMMON] int 
  4225 ;; Registers used:
  4226 ;;		wreg, fsr0l, fsr0h, fsr1l, fsr1h, status,2, status,0, pclath, cstack
  4227 ;; Tracked objects:
  4228 ;;		On entry : 0/0
  4229 ;;		On exit  : 0/0
  4230 ;;		Unchanged: 0/0
  4231 ;; Data sizes:     COMMON   BANK0   BANK1   BANK2   BANK3   BANK4   BANK5   BANK6
  4232 ;;      Params:         3       0       0       0       0       0       0       0
  4233 ;;      Locals:         0       0       0       0       0       0       0       0
  4234 ;;      Temps:          5       0       0       0       0       0       0       0
  4235 ;;      Totals:         8       0       0       0       0       0       0       0
  4236 ;;Total ram usage:        8 bytes
  4237 ;; Hardware stack levels used: 1
  4238 ;; Hardware stack levels required when called: 1
  4239 ;; This function calls:
  4240 ;;		_putch
  4241 ;; This function is called by:
  4242 ;;		_pad
  4243 ;;		_vfpfcnvrt
  4244 ;;		_fputs
  4245 ;; This function uses a non-reentrant model
  4246 ;;
  4247                           
  4248  0C7C                     _fputc:	
  4249                           ;psect for function _fputc
  4250                           
  4251  0C7C                     l1856:	
  4252                           ;incstack = 0
  4253                           ; Regs used in _fputc: [wreg-fsr1h+status,2+status,0+pclath+cstack]
  4254                           
  4255  0C7C  0872               	movf	fputc@fp,w
  4256  0C7D  1903               	btfsc	3,2
  4257  0C7E  2C80               	goto	u1741
  4258  0C7F  2C81               	goto	u1740
  4259  0C80                     u1741:
  4260  0C80  2C86               	goto	l1860
  4261  0C81                     u1740:
  4262  0C81                     l1858:
  4263  0C81  0872               	movf	fputc@fp,w
  4264  0C82  1D03               	btfss	3,2
  4265  0C83  2C85               	goto	u1751
  4266  0C84  2C86               	goto	u1750
  4267  0C85                     u1751:
  4268  0C85  2C8B               	goto	l1862
  4269  0C86                     u1750:
  4270  0C86                     l1860:
  4271  0C86  0870               	movf	fputc@c,w
  4272  0C87  3180  2005  318C   	fcall	_putch
  4273  0C8A  2CCD               	goto	l849
  4274  0C8B                     l1862:
  4275  0C8B  0872               	movf	fputc@fp,w
  4276  0C8C  3E08               	addlw	8
  4277  0C8D  0086               	movwf	6
  4278  0C8E  0187               	clrf	7
  4279  0C8F  0016               	moviw fsr1++
  4280  0C90  0401               	iorwf	1,w
  4281  0C91  1903               	btfsc	3,2
  4282  0C92  2C94               	goto	u1761
  4283  0C93  2C95               	goto	u1760
  4284  0C94                     u1761:
  4285  0C94  2CB3               	goto	l1866
  4286  0C95                     u1760:
  4287  0C95                     l1864:
  4288  0C95  0872               	movf	fputc@fp,w
  4289  0C96  3E08               	addlw	8
  4290  0C97  0086               	movwf	6
  4291  0C98  0187               	clrf	7
  4292  0C99  3F40               	moviw [0]fsr1
  4293  0C9A  00F3               	movwf	??_fputc
  4294  0C9B  3F41               	moviw [1]fsr1
  4295  0C9C  00F4               	movwf	??_fputc+1
  4296  0C9D  0872               	movf	fputc@fp,w
  4297  0C9E  3E02               	addlw	2
  4298  0C9F  0086               	movwf	6
  4299  0CA0  0187               	clrf	7
  4300  0CA1  3F40               	moviw [0]fsr1
  4301  0CA2  00F5               	movwf	??_fputc+2
  4302  0CA3  3F41               	moviw [1]fsr1
  4303  0CA4  00F6               	movwf	??_fputc+3
  4304  0CA5  0876               	movf	??_fputc+3,w
  4305  0CA6  3A80               	xorlw	128
  4306  0CA7  00F7               	movwf	??_fputc+4
  4307  0CA8  0874               	movf	??_fputc+1,w
  4308  0CA9  3A80               	xorlw	128
  4309  0CAA  0277               	subwf	??_fputc+4,w
  4310  0CAB  1D03               	skipz
  4311  0CAC  2CAF               	goto	u1775
  4312  0CAD  0873               	movf	??_fputc,w
  4313  0CAE  0275               	subwf	??_fputc+2,w
  4314  0CAF                     u1775:
  4315  0CAF  1803               	skipnc
  4316  0CB0  2CB2               	goto	u1771
  4317  0CB1  2CB3               	goto	u1770
  4318  0CB2                     u1771:
  4319  0CB2  2CCD               	goto	l849
  4320  0CB3                     u1770:
  4321  0CB3                     l1866:
  4322  0CB3  0870               	movf	fputc@c,w
  4323  0CB4  00F3               	movwf	??_fputc
  4324  0CB5  0872               	movf	fputc@fp,w
  4325  0CB6  0086               	movwf	6
  4326  0CB7  0187               	clrf	7
  4327  0CB8  0872               	movf	fputc@fp,w
  4328  0CB9  3E02               	addlw	2
  4329  0CBA  0084               	movwf	4
  4330  0CBB  0185               	clrf	5
  4331  0CBC  0800               	movf	0,w
  4332  0CBD  0701               	addwf	1,w
  4333  0CBE  00F4               	movwf	??_fputc+1
  4334  0CBF  0874               	movf	??_fputc+1,w
  4335  0CC0  0086               	movwf	6
  4336  0CC1  0187               	clrf	7
  4337  0CC2  0873               	movf	??_fputc,w
  4338  0CC3  0081               	movwf	1
  4339  0CC4                     l1868:
  4340  0CC4  0872               	movf	fputc@fp,w
  4341  0CC5  3E02               	addlw	2
  4342  0CC6  0086               	movwf	6
  4343  0CC7  0187               	clrf	7
  4344  0CC8  3001               	movlw	1
  4345  0CC9  0781               	addwf	1,f
  4346  0CCA  3141               	addfsr 1,1
  4347  0CCB  1803               	skipnc
  4348  0CCC  0A81               	incf	1,f
  4349  0CCD                     l849:
  4350  0CCD  0008               	return
  4351  0CCE                     __end_of_fputc:
  4352                           
  4353                           	psect	text9
  4354  0005                     __ptext9:	
  4355 ;; *************** function _putch *****************
  4356 ;; Defined at:
  4357 ;;		line 7 in file "C:\Program Files\Microchip\xc8\v2.36\pic\sources\c99\common\putch.c"
  4358 ;; Parameters:    Size  Location     Type
  4359 ;;  c               1    wreg     unsigned char 
  4360 ;; Auto vars:     Size  Location     Type
  4361 ;;  c               1    0[COMMON] unsigned char 
  4362 ;; Return value:  Size  Location     Type
  4363 ;;                  1    wreg      void 
  4364 ;; Registers used:
  4365 ;;		wreg
  4366 ;; Tracked objects:
  4367 ;;		On entry : 0/0
  4368 ;;		On exit  : 0/0
  4369 ;;		Unchanged: 0/0
  4370 ;; Data sizes:     COMMON   BANK0   BANK1   BANK2   BANK3   BANK4   BANK5   BANK6
  4371 ;;      Params:         0       0       0       0       0       0       0       0
  4372 ;;      Locals:         0       0       0       0       0       0       0       0
  4373 ;;      Temps:          0       0       0       0       0       0       0       0
  4374 ;;      Totals:         0       0       0       0       0       0       0       0
  4375 ;;Total ram usage:        0 bytes
  4376 ;; Hardware stack levels used: 1
  4377 ;; This function calls:
  4378 ;;		Nothing
  4379 ;; This function is called by:
  4380 ;;		_fputc
  4381 ;; This function uses a non-reentrant model
  4382 ;;
  4383                           
  4384  0005                     _putch:	
  4385                           ;psect for function _putch
  4386                           
  4387  0005                     l860:	
  4388                           ;incstack = 0
  4389                           ; Regs used in _putch: [wreg]
  4390                           
  4391  0005  0008               	return
  4392  0006                     __end_of_putch:
  4393                           
  4394                           	psect	text10
  4395  0D27                     __ptext10:	
  4396 ;; *************** function ___lomod *****************
  4397 ;; Defined at:
  4398 ;;		line 7 in file "C:\Program Files\Microchip\xc8\v2.36\pic\sources\c99\common\lomod.c"
  4399 ;; Parameters:    Size  Location     Type
  4400 ;;  divisor         8    0[BANK0 ] unsigned long long 
  4401 ;;  dividend        8    8[BANK0 ] unsigned long long 
  4402 ;; Auto vars:     Size  Location     Type
  4403 ;;  counter         1    1[COMMON] unsigned char 
  4404 ;; Return value:  Size  Location     Type
  4405 ;;                  8    0[BANK0 ] unsigned long long 
  4406 ;; Registers used:
  4407 ;;		wreg, status,2, status,0
  4408 ;; Tracked objects:
  4409 ;;		On entry : 0/0
  4410 ;;		On exit  : 0/0
  4411 ;;		Unchanged: 0/0
  4412 ;; Data sizes:     COMMON   BANK0   BANK1   BANK2   BANK3   BANK4   BANK5   BANK6
  4413 ;;      Params:         0      16       0       0       0       0       0       0
  4414 ;;      Locals:         1       0       0       0       0       0       0       0
  4415 ;;      Temps:          1       0       0       0       0       0       0       0
  4416 ;;      Totals:         2      16       0       0       0       0       0       0
  4417 ;;Total ram usage:       18 bytes
  4418 ;; Hardware stack levels used: 1
  4419 ;; This function calls:
  4420 ;;		Nothing
  4421 ;; This function is called by:
  4422 ;;		_utoa
  4423 ;; This function uses a non-reentrant model
  4424 ;;
  4425                           
  4426  0D27                     ___lomod:	
  4427                           ;psect for function ___lomod
  4428                           
  4429  0D27                     l1912:	
  4430                           ;incstack = 0
  4431                           ; Regs used in ___lomod: [wreg+status,2+status,0]
  4432                           
  4433  0D27  0020               	movlb	0	; select bank0
  4434  0D28  0820               	movf	___lomod@divisor,w
  4435  0D29  0421               	iorwf	___lomod@divisor+1,w
  4436  0D2A  0422               	iorwf	___lomod@divisor+2,w
  4437  0D2B  0423               	iorwf	___lomod@divisor+3,w
  4438  0D2C  0424               	iorwf	___lomod@divisor+4,w
  4439  0D2D  0425               	iorwf	___lomod@divisor+5,w
  4440  0D2E  0426               	iorwf	___lomod@divisor+6,w
  4441  0D2F  0427               	iorwf	___lomod@divisor+7,w
  4442  0D30  1903               	skipnz
  4443  0D31  2D33               	goto	u1851
  4444  0D32  2D34               	goto	u1850
  4445  0D33                     u1851:
  4446  0D33  2D87               	goto	l560
  4447  0D34                     u1850:
  4448  0D34                     l1914:
  4449  0D34  01F1               	clrf	___lomod@counter
  4450  0D35  0AF1               	incf	___lomod@counter,f
  4451  0D36  2D43               	goto	l1920
  4452  0D37                     l1916:
  4453  0D37  35A0               	lslf	___lomod@divisor,f
  4454  0D38  0DA1               	rlf	___lomod@divisor+1,f
  4455  0D39  0DA2               	rlf	___lomod@divisor+2,f
  4456  0D3A  0DA3               	rlf	___lomod@divisor+3,f
  4457  0D3B  0DA4               	rlf	___lomod@divisor+4,f
  4458  0D3C  0DA5               	rlf	___lomod@divisor+5,f
  4459  0D3D  0DA6               	rlf	___lomod@divisor+6,f
  4460  0D3E  0DA7               	rlf	___lomod@divisor+7,f
  4461  0D3F                     l1918:
  4462  0D3F  3001               	movlw	1
  4463  0D40  00F0               	movwf	??___lomod
  4464  0D41  0870               	movf	??___lomod,w
  4465  0D42  07F1               	addwf	___lomod@counter,f
  4466  0D43                     l1920:
  4467  0D43  1FA7               	btfss	___lomod@divisor+7,7
  4468  0D44  2D46               	goto	u1861
  4469  0D45  2D47               	goto	u1860
  4470  0D46                     u1861:
  4471  0D46  2D37               	goto	l1916
  4472  0D47                     u1860:
  4473  0D47                     l1922:
  4474  0D47  0827               	movf	___lomod@divisor+7,w
  4475  0D48  022F               	subwf	___lomod@dividend+7,w
  4476  0D49  1D03               	skipz
  4477  0D4A  2D65               	goto	u1875
  4478  0D4B  0826               	movf	___lomod@divisor+6,w
  4479  0D4C  022E               	subwf	___lomod@dividend+6,w
  4480  0D4D  1D03               	skipz
  4481  0D4E  2D65               	goto	u1875
  4482  0D4F  0825               	movf	___lomod@divisor+5,w
  4483  0D50  022D               	subwf	___lomod@dividend+5,w
  4484  0D51  1D03               	skipz
  4485  0D52  2D65               	goto	u1875
  4486  0D53  0824               	movf	___lomod@divisor+4,w
  4487  0D54  022C               	subwf	___lomod@dividend+4,w
  4488  0D55  1D03               	skipz
  4489  0D56  2D65               	goto	u1875
  4490  0D57  0823               	movf	___lomod@divisor+3,w
  4491  0D58  022B               	subwf	___lomod@dividend+3,w
  4492  0D59  1D03               	skipz
  4493  0D5A  2D65               	goto	u1875
  4494  0D5B  0822               	movf	___lomod@divisor+2,w
  4495  0D5C  022A               	subwf	___lomod@dividend+2,w
  4496  0D5D  1D03               	skipz
  4497  0D5E  2D65               	goto	u1875
  4498  0D5F  0821               	movf	___lomod@divisor+1,w
  4499  0D60  0229               	subwf	___lomod@dividend+1,w
  4500  0D61  1D03               	skipz
  4501  0D62  2D65               	goto	u1875
  4502  0D63  0820               	movf	___lomod@divisor,w
  4503  0D64  0228               	subwf	___lomod@dividend,w
  4504  0D65                     u1875:
  4505  0D65  1C03               	skipc
  4506  0D66  2D68               	goto	u1871
  4507  0D67  2D69               	goto	u1870
  4508  0D68                     u1871:
  4509  0D68  2D79               	goto	l1926
  4510  0D69                     u1870:
  4511  0D69                     l1924:
  4512  0D69  0820               	movf	___lomod@divisor,w
  4513  0D6A  02A8               	subwf	___lomod@dividend,f
  4514  0D6B  0821               	movf	___lomod@divisor+1,w
  4515  0D6C  3BA9               	subwfb	___lomod@dividend+1,f
  4516  0D6D  0822               	movf	___lomod@divisor+2,w
  4517  0D6E  3BAA               	subwfb	___lomod@dividend+2,f
  4518  0D6F  0823               	movf	___lomod@divisor+3,w
  4519  0D70  3BAB               	subwfb	___lomod@dividend+3,f
  4520  0D71  0824               	movf	___lomod@divisor+4,w
  4521  0D72  3BAC               	subwfb	___lomod@dividend+4,f
  4522  0D73  0825               	movf	___lomod@divisor+5,w
  4523  0D74  3BAD               	subwfb	___lomod@dividend+5,f
  4524  0D75  0826               	movf	___lomod@divisor+6,w
  4525  0D76  3BAE               	subwfb	___lomod@dividend+6,f
  4526  0D77  0827               	movf	___lomod@divisor+7,w
  4527  0D78  3BAF               	subwfb	___lomod@dividend+7,f
  4528  0D79                     l1926:
  4529  0D79  36A7               	lsrf	___lomod@divisor+7,f
  4530  0D7A  0CA6               	rrf	___lomod@divisor+6,f
  4531  0D7B  0CA5               	rrf	___lomod@divisor+5,f
  4532  0D7C  0CA4               	rrf	___lomod@divisor+4,f
  4533  0D7D  0CA3               	rrf	___lomod@divisor+3,f
  4534  0D7E  0CA2               	rrf	___lomod@divisor+2,f
  4535  0D7F  0CA1               	rrf	___lomod@divisor+1,f
  4536  0D80  0CA0               	rrf	___lomod@divisor,f
  4537  0D81  3001               	movlw	1
  4538  0D82  02F1               	subwf	___lomod@counter,f
  4539  0D83  1D03               	btfss	3,2
  4540  0D84  2D86               	goto	u1881
  4541  0D85  2D87               	goto	u1880
  4542  0D86                     u1881:
  4543  0D86  2D47               	goto	l1922
  4544  0D87                     u1880:
  4545  0D87                     l560:
  4546  0D87  0828               	movf	___lomod@dividend,w
  4547  0D88  00A0               	movwf	?___lomod
  4548  0D89  0829               	movf	___lomod@dividend+1,w
  4549  0D8A  00A1               	movwf	?___lomod+1
  4550  0D8B  082A               	movf	___lomod@dividend+2,w
  4551  0D8C  00A2               	movwf	?___lomod+2
  4552  0D8D  082B               	movf	___lomod@dividend+3,w
  4553  0D8E  00A3               	movwf	?___lomod+3
  4554  0D8F  082C               	movf	___lomod@dividend+4,w
  4555  0D90  00A4               	movwf	?___lomod+4
  4556  0D91  082D               	movf	___lomod@dividend+5,w
  4557  0D92  00A5               	movwf	?___lomod+5
  4558  0D93  082E               	movf	___lomod@dividend+6,w
  4559  0D94  00A6               	movwf	?___lomod+6
  4560  0D95  082F               	movf	___lomod@dividend+7,w
  4561  0D96  00A7               	movwf	?___lomod+7
  4562  0D97                     l567:
  4563  0D97  0008               	return
  4564  0D98                     __end_of___lomod:
  4565                           
  4566                           	psect	text11
  4567  0E0D                     __ptext11:	
  4568 ;; *************** function ___lodiv *****************
  4569 ;; Defined at:
  4570 ;;		line 7 in file "C:\Program Files\Microchip\xc8\v2.36\pic\sources\c99\common\lodiv.c"
  4571 ;; Parameters:    Size  Location     Type
  4572 ;;  divisor         8    0[BANK0 ] unsigned long long 
  4573 ;;  dividend        8    8[BANK0 ] unsigned long long 
  4574 ;; Auto vars:     Size  Location     Type
  4575 ;;  quotient        8    1[COMMON] unsigned long long 
  4576 ;;  counter         1    9[COMMON] unsigned char 
  4577 ;; Return value:  Size  Location     Type
  4578 ;;                  8    0[BANK0 ] unsigned long long 
  4579 ;; Registers used:
  4580 ;;		wreg, fsr1l, fsr1h, status,2, status,0
  4581 ;; Tracked objects:
  4582 ;;		On entry : 0/0
  4583 ;;		On exit  : 0/0
  4584 ;;		Unchanged: 0/0
  4585 ;; Data sizes:     COMMON   BANK0   BANK1   BANK2   BANK3   BANK4   BANK5   BANK6
  4586 ;;      Params:         0      16       0       0       0       0       0       0
  4587 ;;      Locals:         9       0       0       0       0       0       0       0
  4588 ;;      Temps:          1       0       0       0       0       0       0       0
  4589 ;;      Totals:        10      16       0       0       0       0       0       0
  4590 ;;Total ram usage:       26 bytes
  4591 ;; Hardware stack levels used: 1
  4592 ;; This function calls:
  4593 ;;		Nothing
  4594 ;; This function is called by:
  4595 ;;		_utoa
  4596 ;; This function uses a non-reentrant model
  4597 ;;
  4598                           
  4599  0E0D                     ___lodiv:	
  4600                           ;psect for function ___lodiv
  4601                           
  4602  0E0D                     l1890:	
  4603                           ;incstack = 0
  4604                           ; Regs used in ___lodiv: [wreg+fsr1l+fsr1h+status,2+status,0]
  4605                           
  4606  0E0D  3071               	movlw	low ___lodiv@quotient
  4607  0E0E  0086               	movwf	6
  4608  0E0F  3000               	movlw	high ___lodiv@quotient
  4609  0E10  0087               	movwf	7
  4610  0E11  3008               	movlw	8
  4611  0E12  00F0               	movwf	??___lodiv
  4612  0E13  3000               	movlw	0
  4613  0E14                     u1800:
  4614  0E14  001E               	movwi fsr1++
  4615  0E15  0BF0               	decfsz	??___lodiv,f
  4616  0E16  2E14               	goto	u1800
  4617  0E17                     l1892:
  4618  0E17  0020               	movlb	0	; select bank0
  4619  0E18  0820               	movf	___lodiv@divisor,w
  4620  0E19  0421               	iorwf	___lodiv@divisor+1,w
  4621  0E1A  0422               	iorwf	___lodiv@divisor+2,w
  4622  0E1B  0423               	iorwf	___lodiv@divisor+3,w
  4623  0E1C  0424               	iorwf	___lodiv@divisor+4,w
  4624  0E1D  0425               	iorwf	___lodiv@divisor+5,w
  4625  0E1E  0426               	iorwf	___lodiv@divisor+6,w
  4626  0E1F  0427               	iorwf	___lodiv@divisor+7,w
  4627  0E20  1903               	skipnz
  4628  0E21  2E23               	goto	u1811
  4629  0E22  2E24               	goto	u1810
  4630  0E23                     u1811:
  4631  0E23  2E80               	goto	l550
  4632  0E24                     u1810:
  4633  0E24                     l1894:
  4634  0E24  01F9               	clrf	___lodiv@counter
  4635  0E25  0AF9               	incf	___lodiv@counter,f
  4636  0E26  2E33               	goto	l1900
  4637  0E27                     l1896:
  4638  0E27  35A0               	lslf	___lodiv@divisor,f
  4639  0E28  0DA1               	rlf	___lodiv@divisor+1,f
  4640  0E29  0DA2               	rlf	___lodiv@divisor+2,f
  4641  0E2A  0DA3               	rlf	___lodiv@divisor+3,f
  4642  0E2B  0DA4               	rlf	___lodiv@divisor+4,f
  4643  0E2C  0DA5               	rlf	___lodiv@divisor+5,f
  4644  0E2D  0DA6               	rlf	___lodiv@divisor+6,f
  4645  0E2E  0DA7               	rlf	___lodiv@divisor+7,f
  4646  0E2F                     l1898:
  4647  0E2F  3001               	movlw	1
  4648  0E30  00F0               	movwf	??___lodiv
  4649  0E31  0870               	movf	??___lodiv,w
  4650  0E32  07F9               	addwf	___lodiv@counter,f
  4651  0E33                     l1900:
  4652  0E33  1FA7               	btfss	___lodiv@divisor+7,7
  4653  0E34  2E36               	goto	u1821
  4654  0E35  2E37               	goto	u1820
  4655  0E36                     u1821:
  4656  0E36  2E27               	goto	l1896
  4657  0E37                     u1820:
  4658  0E37                     l1902:
  4659  0E37  35F1               	lslf	___lodiv@quotient,f
  4660  0E38  0DF2               	rlf	___lodiv@quotient+1,f
  4661  0E39  0DF3               	rlf	___lodiv@quotient+2,f
  4662  0E3A  0DF4               	rlf	___lodiv@quotient+3,f
  4663  0E3B  0DF5               	rlf	___lodiv@quotient+4,f
  4664  0E3C  0DF6               	rlf	___lodiv@quotient+5,f
  4665  0E3D  0DF7               	rlf	___lodiv@quotient+6,f
  4666  0E3E  0DF8               	rlf	___lodiv@quotient+7,f
  4667  0E3F                     l1904:
  4668  0E3F  0827               	movf	___lodiv@divisor+7,w
  4669  0E40  022F               	subwf	___lodiv@dividend+7,w
  4670  0E41  1D03               	skipz
  4671  0E42  2E5D               	goto	u1835
  4672  0E43  0826               	movf	___lodiv@divisor+6,w
  4673  0E44  022E               	subwf	___lodiv@dividend+6,w
  4674  0E45  1D03               	skipz
  4675  0E46  2E5D               	goto	u1835
  4676  0E47  0825               	movf	___lodiv@divisor+5,w
  4677  0E48  022D               	subwf	___lodiv@dividend+5,w
  4678  0E49  1D03               	skipz
  4679  0E4A  2E5D               	goto	u1835
  4680  0E4B  0824               	movf	___lodiv@divisor+4,w
  4681  0E4C  022C               	subwf	___lodiv@dividend+4,w
  4682  0E4D  1D03               	skipz
  4683  0E4E  2E5D               	goto	u1835
  4684  0E4F  0823               	movf	___lodiv@divisor+3,w
  4685  0E50  022B               	subwf	___lodiv@dividend+3,w
  4686  0E51  1D03               	skipz
  4687  0E52  2E5D               	goto	u1835
  4688  0E53  0822               	movf	___lodiv@divisor+2,w
  4689  0E54  022A               	subwf	___lodiv@dividend+2,w
  4690  0E55  1D03               	skipz
  4691  0E56  2E5D               	goto	u1835
  4692  0E57  0821               	movf	___lodiv@divisor+1,w
  4693  0E58  0229               	subwf	___lodiv@dividend+1,w
  4694  0E59  1D03               	skipz
  4695  0E5A  2E5D               	goto	u1835
  4696  0E5B  0820               	movf	___lodiv@divisor,w
  4697  0E5C  0228               	subwf	___lodiv@dividend,w
  4698  0E5D                     u1835:
  4699  0E5D  1C03               	skipc
  4700  0E5E  2E60               	goto	u1831
  4701  0E5F  2E61               	goto	u1830
  4702  0E60                     u1831:
  4703  0E60  2E72               	goto	l1910
  4704  0E61                     u1830:
  4705  0E61                     l1906:
  4706  0E61  0820               	movf	___lodiv@divisor,w
  4707  0E62  02A8               	subwf	___lodiv@dividend,f
  4708  0E63  0821               	movf	___lodiv@divisor+1,w
  4709  0E64  3BA9               	subwfb	___lodiv@dividend+1,f
  4710  0E65  0822               	movf	___lodiv@divisor+2,w
  4711  0E66  3BAA               	subwfb	___lodiv@dividend+2,f
  4712  0E67  0823               	movf	___lodiv@divisor+3,w
  4713  0E68  3BAB               	subwfb	___lodiv@dividend+3,f
  4714  0E69  0824               	movf	___lodiv@divisor+4,w
  4715  0E6A  3BAC               	subwfb	___lodiv@dividend+4,f
  4716  0E6B  0825               	movf	___lodiv@divisor+5,w
  4717  0E6C  3BAD               	subwfb	___lodiv@dividend+5,f
  4718  0E6D  0826               	movf	___lodiv@divisor+6,w
  4719  0E6E  3BAE               	subwfb	___lodiv@dividend+6,f
  4720  0E6F  0827               	movf	___lodiv@divisor+7,w
  4721  0E70  3BAF               	subwfb	___lodiv@dividend+7,f
  4722  0E71                     l1908:
  4723  0E71  1471               	bsf	___lodiv@quotient,0
  4724  0E72                     l1910:
  4725  0E72  36A7               	lsrf	___lodiv@divisor+7,f
  4726  0E73  0CA6               	rrf	___lodiv@divisor+6,f
  4727  0E74  0CA5               	rrf	___lodiv@divisor+5,f
  4728  0E75  0CA4               	rrf	___lodiv@divisor+4,f
  4729  0E76  0CA3               	rrf	___lodiv@divisor+3,f
  4730  0E77  0CA2               	rrf	___lodiv@divisor+2,f
  4731  0E78  0CA1               	rrf	___lodiv@divisor+1,f
  4732  0E79  0CA0               	rrf	___lodiv@divisor,f
  4733  0E7A  3001               	movlw	1
  4734  0E7B  02F9               	subwf	___lodiv@counter,f
  4735  0E7C  1D03               	btfss	3,2
  4736  0E7D  2E7F               	goto	u1841
  4737  0E7E  2E80               	goto	u1840
  4738  0E7F                     u1841:
  4739  0E7F  2E37               	goto	l1902
  4740  0E80                     u1840:
  4741  0E80                     l550:
  4742  0E80  0871               	movf	___lodiv@quotient,w
  4743  0E81  00A0               	movwf	?___lodiv
  4744  0E82  0872               	movf	___lodiv@quotient+1,w
  4745  0E83  00A1               	movwf	?___lodiv+1
  4746  0E84  0873               	movf	___lodiv@quotient+2,w
  4747  0E85  00A2               	movwf	?___lodiv+2
  4748  0E86  0874               	movf	___lodiv@quotient+3,w
  4749  0E87  00A3               	movwf	?___lodiv+3
  4750  0E88  0875               	movf	___lodiv@quotient+4,w
  4751  0E89  00A4               	movwf	?___lodiv+4
  4752  0E8A  0876               	movf	___lodiv@quotient+5,w
  4753  0E8B  00A5               	movwf	?___lodiv+5
  4754  0E8C  0877               	movf	___lodiv@quotient+6,w
  4755  0E8D  00A6               	movwf	?___lodiv+6
  4756  0E8E  0878               	movf	___lodiv@quotient+7,w
  4757  0E8F  00A7               	movwf	?___lodiv+7
  4758  0E90                     l557:
  4759  0E90  0008               	return
  4760  0E91                     __end_of___lodiv:
  4761                           
  4762                           	psect	text12
  4763  0B0C                     __ptext12:	
  4764 ;; *************** function _motor_dir *****************
  4765 ;; Defined at:
  4766 ;;		line 70 in file "main.c"
  4767 ;; Parameters:    Size  Location     Type
  4768 ;;  dir             1    wreg     unsigned char 
  4769 ;; Auto vars:     Size  Location     Type
  4770 ;;  dir             1    4[COMMON] unsigned char 
  4771 ;; Return value:  Size  Location     Type
  4772 ;;                  1    wreg      void 
  4773 ;; Registers used:
  4774 ;;		wreg, status,2, status,0, pclath, cstack
  4775 ;; Tracked objects:
  4776 ;;		On entry : 0/0
  4777 ;;		On exit  : 0/0
  4778 ;;		Unchanged: 0/0
  4779 ;; Data sizes:     COMMON   BANK0   BANK1   BANK2   BANK3   BANK4   BANK5   BANK6
  4780 ;;      Params:         0       0       0       0       0       0       0       0
  4781 ;;      Locals:         1       0       0       0       0       0       0       0
  4782 ;;      Temps:          0       0       0       0       0       0       0       0
  4783 ;;      Totals:         1       0       0       0       0       0       0       0
  4784 ;;Total ram usage:        1 bytes
  4785 ;; Hardware stack levels used: 1
  4786 ;; Hardware stack levels required when called: 1
  4787 ;; This function calls:
  4788 ;;		_PWM3_LoadDutyValue
  4789 ;; This function is called by:
  4790 ;;		_main
  4791 ;; This function uses a non-reentrant model
  4792 ;;
  4793                           
  4794  0B0C                     _motor_dir:	
  4795                           ;psect for function _motor_dir
  4796                           
  4797                           
  4798                           ;incstack = 0
  4799                           ; Regs used in _motor_dir: [wreg+status,2+status,0+pclath+cstack]
  4800                           ;motor_dir@dir stored from wreg
  4801  0B0C  00F4               	movwf	motor_dir@dir
  4802  0B0D                     l2170:
  4803                           
  4804                           ;main.c: 73:     if(dir == 1){
  4805  0B0D  0374               	decf	motor_dir@dir,w
  4806  0B0E  1D03               	btfss	3,2
  4807  0B0F  2B11               	goto	u2211
  4808  0B10  2B12               	goto	u2210
  4809  0B11                     u2211:
  4810  0B11  2B15               	goto	l2174
  4811  0B12                     u2210:
  4812  0B12                     l2172:
  4813                           
  4814                           ;main.c: 76:         LATCbits.LATC3 = 1;
  4815  0B12  0022               	movlb	2	; select bank2
  4816  0B13  158E               	bsf	14,3	;volatile
  4817                           
  4818                           ;main.c: 77:         LATCbits.LATC4 = 0;
  4819  0B14  120E               	bcf	14,4	;volatile
  4820  0B15                     l2174:
  4821                           
  4822                           ;main.c: 82:     if(dir == 2){
  4823  0B15  3002               	movlw	2
  4824  0B16  0674               	xorwf	motor_dir@dir,w
  4825  0B17  1D03               	btfss	3,2
  4826  0B18  2B1A               	goto	u2221
  4827  0B19  2B1B               	goto	u2220
  4828  0B1A                     u2221:
  4829  0B1A  2B1E               	goto	l2178
  4830  0B1B                     u2220:
  4831  0B1B                     l2176:
  4832                           
  4833                           ;main.c: 85:         LATCbits.LATC3 = 0;
  4834  0B1B  0022               	movlb	2	; select bank2
  4835  0B1C  118E               	bcf	14,3	;volatile
  4836                           
  4837                           ;main.c: 86:         LATCbits.LATC4 = 1;
  4838  0B1D  160E               	bsf	14,4	;volatile
  4839  0B1E                     l2178:
  4840                           
  4841                           ;main.c: 91:     if(dir == 0){
  4842  0B1E  0874               	movf	motor_dir@dir,w
  4843  0B1F  1D03               	btfss	3,2
  4844  0B20  2B22               	goto	u2231
  4845  0B21  2B23               	goto	u2230
  4846  0B22                     u2231:
  4847  0B22  2B2C               	goto	l169
  4848  0B23                     u2230:
  4849  0B23                     l2180:
  4850                           
  4851                           ;main.c: 94:         LATCbits.LATC3 = 0;
  4852  0B23  0022               	movlb	2	; select bank2
  4853  0B24  118E               	bcf	14,3	;volatile
  4854                           
  4855                           ;main.c: 95:         LATCbits.LATC4 = 0;
  4856  0B25  120E               	bcf	14,4	;volatile
  4857  0B26                     l2182:
  4858                           
  4859                           ;main.c: 98:         PWM3_LoadDutyValue(0);
  4860  0B26  3000               	movlw	0
  4861  0B27  00F0               	movwf	PWM3_LoadDutyValue@dutyValue
  4862  0B28  00F1               	movwf	PWM3_LoadDutyValue@dutyValue+1
  4863  0B29  318A  2268  318B   	fcall	_PWM3_LoadDutyValue
  4864  0B2C                     l169:
  4865  0B2C  0008               	return
  4866  0B2D                     __end_of_motor_dir:
  4867                           
  4868                           	psect	text13
  4869  0A68                     __ptext13:	
  4870 ;; *************** function _PWM3_LoadDutyValue *****************
  4871 ;; Defined at:
  4872 ;;		line 72 in file "mcc_generated_files/pwm3.c"
  4873 ;; Parameters:    Size  Location     Type
  4874 ;;  dutyValue       2    0[COMMON] unsigned short 
  4875 ;; Auto vars:     Size  Location     Type
  4876 ;;		None
  4877 ;; Return value:  Size  Location     Type
  4878 ;;                  1    wreg      void 
  4879 ;; Registers used:
  4880 ;;		wreg, status,2, status,0
  4881 ;; Tracked objects:
  4882 ;;		On entry : 0/0
  4883 ;;		On exit  : 0/0
  4884 ;;		Unchanged: 0/0
  4885 ;; Data sizes:     COMMON   BANK0   BANK1   BANK2   BANK3   BANK4   BANK5   BANK6
  4886 ;;      Params:         2       0       0       0       0       0       0       0
  4887 ;;      Locals:         0       0       0       0       0       0       0       0
  4888 ;;      Temps:          2       0       0       0       0       0       0       0
  4889 ;;      Totals:         4       0       0       0       0       0       0       0
  4890 ;;Total ram usage:        4 bytes
  4891 ;; Hardware stack levels used: 1
  4892 ;; This function calls:
  4893 ;;		Nothing
  4894 ;; This function is called by:
  4895 ;;		_motor_dir
  4896 ;;		_main
  4897 ;; This function uses a non-reentrant model
  4898 ;;
  4899                           
  4900  0A68                     _PWM3_LoadDutyValue:	
  4901                           ;psect for function _PWM3_LoadDutyValue
  4902                           
  4903  0A68                     l2112:	
  4904                           ;incstack = 0
  4905                           ; Regs used in _PWM3_LoadDutyValue: [wreg+status,2+status,0]
  4906                           
  4907                           
  4908                           ;mcc_generated_files/pwm3.c: 72:  void PWM3_LoadDutyValue(uint16_t dutyValue);mcc_genera
      +                          ted_files/pwm3.c: 73:  {;mcc_generated_files/pwm3.c: 75:      PWM3DCH = (dutyValue & 0x0
      +                          3FC)>>2;
  4909  0A68  0871               	movf	PWM3_LoadDutyValue@dutyValue+1,w
  4910  0A69  00F3               	movwf	??_PWM3_LoadDutyValue+1
  4911  0A6A  0870               	movf	PWM3_LoadDutyValue@dutyValue,w
  4912  0A6B  00F2               	movwf	??_PWM3_LoadDutyValue
  4913  0A6C  36F3               	lsrf	??_PWM3_LoadDutyValue+1,f
  4914  0A6D  0CF2               	rrf	??_PWM3_LoadDutyValue,f
  4915  0A6E  36F3               	lsrf	??_PWM3_LoadDutyValue+1,f
  4916  0A6F  0CF2               	rrf	??_PWM3_LoadDutyValue,f
  4917  0A70  0872               	movf	??_PWM3_LoadDutyValue,w
  4918  0A71  002C               	movlb	12	; select bank12
  4919  0A72  0098               	movwf	24	;volatile
  4920                           
  4921                           ;mcc_generated_files/pwm3.c: 78:      PWM3DCL = (dutyValue & 0x0003)<<6;
  4922  0A73  0870               	movf	PWM3_LoadDutyValue@dutyValue,w
  4923  0A74  3903               	andlw	3
  4924  0A75  00F2               	movwf	??_PWM3_LoadDutyValue
  4925  0A76  3005               	movlw	5
  4926  0A77                     u2125:
  4927  0A77  35F2               	lslf	??_PWM3_LoadDutyValue,f
  4928  0A78  3EFF               	addlw	-1
  4929  0A79  1D03               	skipz
  4930  0A7A  2A77               	goto	u2125
  4931  0A7B  3572               	lslf	??_PWM3_LoadDutyValue,w
  4932  0A7C  0097               	movwf	23	;volatile
  4933  0A7D                     l111:
  4934  0A7D  0008               	return
  4935  0A7E                     __end_of_PWM3_LoadDutyValue:
  4936                           
  4937                           	psect	text14
  4938  0E91                     __ptext14:	
  4939 ;; *************** function ___xxtofl *****************
  4940 ;; Defined at:
  4941 ;;		line 10 in file "C:\Program Files\Microchip\xc8\v2.36\pic\sources\c99\common\xxtofl.c"
  4942 ;; Parameters:    Size  Location     Type
  4943 ;;  sign            1    wreg     unsigned char 
  4944 ;;  val             4    0[COMMON] long 
  4945 ;; Auto vars:     Size  Location     Type
  4946 ;;  sign            1    8[COMMON] unsigned char 
  4947 ;;  arg             4   10[COMMON] unsigned long 
  4948 ;;  exp             1    9[COMMON] unsigned char 
  4949 ;; Return value:  Size  Location     Type
  4950 ;;                  4    0[COMMON] unsigned char 
  4951 ;; Registers used:
  4952 ;;		wreg, status,2, status,0
  4953 ;; Tracked objects:
  4954 ;;		On entry : 0/0
  4955 ;;		On exit  : 0/0
  4956 ;;		Unchanged: 0/0
  4957 ;; Data sizes:     COMMON   BANK0   BANK1   BANK2   BANK3   BANK4   BANK5   BANK6
  4958 ;;      Params:         4       0       0       0       0       0       0       0
  4959 ;;      Locals:         6       0       0       0       0       0       0       0
  4960 ;;      Temps:          4       0       0       0       0       0       0       0
  4961 ;;      Totals:        14       0       0       0       0       0       0       0
  4962 ;;Total ram usage:       14 bytes
  4963 ;; Hardware stack levels used: 1
  4964 ;; This function calls:
  4965 ;;		Nothing
  4966 ;; This function is called by:
  4967 ;;		_main
  4968 ;; This function uses a non-reentrant model
  4969 ;;
  4970                           
  4971  0E91                     ___xxtofl:	
  4972                           ;psect for function ___xxtofl
  4973                           
  4974                           
  4975                           ;incstack = 0
  4976                           ; Regs used in ___xxtofl: [wreg+status,2+status,0]
  4977                           ;___xxtofl@sign stored from wreg
  4978  0E91  00F8               	movwf	___xxtofl@sign
  4979  0E92                     l2596:
  4980  0E92  0878               	movf	___xxtofl@sign,w
  4981  0E93  1903               	btfsc	3,2
  4982  0E94  2E96               	goto	u3061
  4983  0E95  2E97               	goto	u3060
  4984  0E96                     u3061:
  4985  0E96  2EAB               	goto	l2602
  4986  0E97                     u3060:
  4987  0E97                     l2598:
  4988  0E97  1FF3               	btfss	___xxtofl@val+3,7
  4989  0E98  2E9A               	goto	u3071
  4990  0E99  2E9B               	goto	u3070
  4991  0E9A                     u3071:
  4992  0E9A  2EAB               	goto	l2602
  4993  0E9B                     u3070:
  4994  0E9B                     l2600:
  4995  0E9B  0970               	comf	___xxtofl@val,w
  4996  0E9C  00FA               	movwf	___xxtofl@arg
  4997  0E9D  0971               	comf	___xxtofl@val+1,w
  4998  0E9E  00FB               	movwf	___xxtofl@arg+1
  4999  0E9F  0972               	comf	___xxtofl@val+2,w
  5000  0EA0  00FC               	movwf	___xxtofl@arg+2
  5001  0EA1  0973               	comf	___xxtofl@val+3,w
  5002  0EA2  00FD               	movwf	___xxtofl@arg+3
  5003  0EA3  0AFA               	incf	___xxtofl@arg,f
  5004  0EA4  1903               	skipnz
  5005  0EA5  0AFB               	incf	___xxtofl@arg+1,f
  5006  0EA6  1903               	skipnz
  5007  0EA7  0AFC               	incf	___xxtofl@arg+2,f
  5008  0EA8  1903               	skipnz
  5009  0EA9  0AFD               	incf	___xxtofl@arg+3,f
  5010  0EAA  2EB3               	goto	l758
  5011  0EAB                     l2602:
  5012  0EAB  0873               	movf	___xxtofl@val+3,w
  5013  0EAC  00FD               	movwf	___xxtofl@arg+3
  5014  0EAD  0872               	movf	___xxtofl@val+2,w
  5015  0EAE  00FC               	movwf	___xxtofl@arg+2
  5016  0EAF  0871               	movf	___xxtofl@val+1,w
  5017  0EB0  00FB               	movwf	___xxtofl@arg+1
  5018  0EB1  0870               	movf	___xxtofl@val,w
  5019  0EB2  00FA               	movwf	___xxtofl@arg
  5020  0EB3                     l758:
  5021  0EB3  0873               	movf	___xxtofl@val+3,w
  5022  0EB4  0472               	iorwf	___xxtofl@val+2,w
  5023  0EB5  0471               	iorwf	___xxtofl@val+1,w
  5024  0EB6  0470               	iorwf	___xxtofl@val,w
  5025  0EB7  1D03               	skipz
  5026  0EB8  2EBA               	goto	u3081
  5027  0EB9  2EBB               	goto	u3080
  5028  0EBA                     u3081:
  5029  0EBA  2EC4               	goto	l2608
  5030  0EBB                     u3080:
  5031  0EBB                     l2604:
  5032  0EBB  3000               	movlw	0
  5033  0EBC  00F3               	movwf	?___xxtofl+3
  5034  0EBD  3000               	movlw	0
  5035  0EBE  00F2               	movwf	?___xxtofl+2
  5036  0EBF  3000               	movlw	0
  5037  0EC0  00F1               	movwf	?___xxtofl+1
  5038  0EC1  3000               	movlw	0
  5039  0EC2  00F0               	movwf	?___xxtofl
  5040  0EC3  2F3C               	goto	l760
  5041  0EC4                     l2608:
  5042  0EC4  3096               	movlw	150
  5043  0EC5  00F4               	movwf	??___xxtofl
  5044  0EC6  0874               	movf	??___xxtofl,w
  5045  0EC7  00F9               	movwf	___xxtofl@exp
  5046  0EC8  2ED4               	goto	l2612
  5047  0EC9                     l2610:
  5048  0EC9  3001               	movlw	1
  5049  0ECA  00F4               	movwf	??___xxtofl
  5050  0ECB  0874               	movf	??___xxtofl,w
  5051  0ECC  07F9               	addwf	___xxtofl@exp,f
  5052  0ECD  3001               	movlw	1
  5053  0ECE                     u3095:
  5054  0ECE  36FD               	lsrf	___xxtofl@arg+3,f
  5055  0ECF  0CFC               	rrf	___xxtofl@arg+2,f
  5056  0ED0  0CFB               	rrf	___xxtofl@arg+1,f
  5057  0ED1  0CFA               	rrf	___xxtofl@arg,f
  5058  0ED2  0B89               	decfsz	9,f
  5059  0ED3  2ECE               	goto	u3095
  5060  0ED4                     l2612:
  5061  0ED4  30FE               	movlw	254
  5062  0ED5  057D               	andwf	___xxtofl@arg+3,w
  5063  0ED6  1D03               	btfss	3,2
  5064  0ED7  2ED9               	goto	u3101
  5065  0ED8  2EDA               	goto	u3100
  5066  0ED9                     u3101:
  5067  0ED9  2EC9               	goto	l2610
  5068  0EDA                     u3100:
  5069  0EDA  2EEE               	goto	l764
  5070  0EDB                     l2614:
  5071  0EDB  3001               	movlw	1
  5072  0EDC  00F4               	movwf	??___xxtofl
  5073  0EDD  0874               	movf	??___xxtofl,w
  5074  0EDE  07F9               	addwf	___xxtofl@exp,f
  5075  0EDF                     l2616:
  5076  0EDF  3001               	movlw	1
  5077  0EE0  07FA               	addwf	___xxtofl@arg,f
  5078  0EE1  3000               	movlw	0
  5079  0EE2  3DFB               	addwfc	___xxtofl@arg+1,f
  5080  0EE3  3000               	movlw	0
  5081  0EE4  3DFC               	addwfc	___xxtofl@arg+2,f
  5082  0EE5  3000               	movlw	0
  5083  0EE6  3DFD               	addwfc	___xxtofl@arg+3,f
  5084  0EE7                     l2618:
  5085  0EE7  3001               	movlw	1
  5086  0EE8                     u3115:
  5087  0EE8  36FD               	lsrf	___xxtofl@arg+3,f
  5088  0EE9  0CFC               	rrf	___xxtofl@arg+2,f
  5089  0EEA  0CFB               	rrf	___xxtofl@arg+1,f
  5090  0EEB  0CFA               	rrf	___xxtofl@arg,f
  5091  0EEC  0B89               	decfsz	9,f
  5092  0EED  2EE8               	goto	u3115
  5093  0EEE                     l764:
  5094  0EEE  30FF               	movlw	255
  5095  0EEF  057D               	andwf	___xxtofl@arg+3,w
  5096  0EF0  1D03               	btfss	3,2
  5097  0EF1  2EF3               	goto	u3121
  5098  0EF2  2EF4               	goto	u3120
  5099  0EF3                     u3121:
  5100  0EF3  2EDB               	goto	l2614
  5101  0EF4                     u3120:
  5102  0EF4  2EFE               	goto	l2622
  5103  0EF5                     l2620:
  5104  0EF5  3001               	movlw	1
  5105  0EF6  02F9               	subwf	___xxtofl@exp,f
  5106  0EF7  3001               	movlw	1
  5107  0EF8                     u3135:
  5108  0EF8  35FA               	lslf	___xxtofl@arg,f
  5109  0EF9  0DFB               	rlf	___xxtofl@arg+1,f
  5110  0EFA  0DFC               	rlf	___xxtofl@arg+2,f
  5111  0EFB  0DFD               	rlf	___xxtofl@arg+3,f
  5112  0EFC  0B89               	decfsz	9,f
  5113  0EFD  2EF8               	goto	u3135
  5114  0EFE                     l2622:
  5115  0EFE  1BFC               	btfsc	___xxtofl@arg+2,7
  5116  0EFF  2F01               	goto	u3141
  5117  0F00  2F02               	goto	u3140
  5118  0F01                     u3141:
  5119  0F01  2F08               	goto	l771
  5120  0F02                     u3140:
  5121  0F02                     l2624:
  5122  0F02  3002               	movlw	2
  5123  0F03  0279               	subwf	___xxtofl@exp,w
  5124  0F04  1803               	skipnc
  5125  0F05  2F07               	goto	u3151
  5126  0F06  2F08               	goto	u3150
  5127  0F07                     u3151:
  5128  0F07  2EF5               	goto	l2620
  5129  0F08                     u3150:
  5130  0F08                     l771:
  5131  0F08  1879               	btfsc	___xxtofl@exp,0
  5132  0F09  2F0B               	goto	u3161
  5133  0F0A  2F0C               	goto	u3160
  5134  0F0B                     u3161:
  5135  0F0B  2F14               	goto	l772
  5136  0F0C                     u3160:
  5137  0F0C                     l2626:
  5138  0F0C  30FF               	movlw	255
  5139  0F0D  05FA               	andwf	___xxtofl@arg,f
  5140  0F0E  30FF               	movlw	255
  5141  0F0F  05FB               	andwf	___xxtofl@arg+1,f
  5142  0F10  307F               	movlw	127
  5143  0F11  05FC               	andwf	___xxtofl@arg+2,f
  5144  0F12  30FF               	movlw	255
  5145  0F13  05FD               	andwf	___xxtofl@arg+3,f
  5146  0F14                     l772:
  5147  0F14  1003               	clrc
  5148  0F15  0CF9               	rrf	___xxtofl@exp,f
  5149  0F16                     l2628:
  5150  0F16  0879               	movf	___xxtofl@exp,w
  5151  0F17  00F4               	movwf	??___xxtofl
  5152  0F18  01F5               	clrf	??___xxtofl+1
  5153  0F19  01F6               	clrf	??___xxtofl+2
  5154  0F1A  01F7               	clrf	??___xxtofl+3
  5155  0F1B  3018               	movlw	24
  5156  0F1C                     u3175:
  5157  0F1C  35F4               	lslf	??___xxtofl,f
  5158  0F1D  0DF5               	rlf	??___xxtofl+1,f
  5159  0F1E  0DF6               	rlf	??___xxtofl+2,f
  5160  0F1F  0DF7               	rlf	??___xxtofl+3,f
  5161  0F20                     u3170:
  5162  0F20  0B89               	decfsz	9,f
  5163  0F21  2F1C               	goto	u3175
  5164  0F22  0874               	movf	??___xxtofl,w
  5165  0F23  04FA               	iorwf	___xxtofl@arg,f
  5166  0F24  0875               	movf	??___xxtofl+1,w
  5167  0F25  04FB               	iorwf	___xxtofl@arg+1,f
  5168  0F26  0876               	movf	??___xxtofl+2,w
  5169  0F27  04FC               	iorwf	___xxtofl@arg+2,f
  5170  0F28  0877               	movf	??___xxtofl+3,w
  5171  0F29  04FD               	iorwf	___xxtofl@arg+3,f
  5172  0F2A                     l2630:
  5173  0F2A  0878               	movf	___xxtofl@sign,w
  5174  0F2B  1903               	btfsc	3,2
  5175  0F2C  2F2E               	goto	u3181
  5176  0F2D  2F2F               	goto	u3180
  5177  0F2E                     u3181:
  5178  0F2E  2F34               	goto	l2636
  5179  0F2F                     u3180:
  5180  0F2F                     l2632:
  5181  0F2F  1FF3               	btfss	___xxtofl@val+3,7
  5182  0F30  2F32               	goto	u3191
  5183  0F31  2F33               	goto	u3190
  5184  0F32                     u3191:
  5185  0F32  2F34               	goto	l2636
  5186  0F33                     u3190:
  5187  0F33                     l2634:
  5188  0F33  17FD               	bsf	___xxtofl@arg+3,7
  5189  0F34                     l2636:
  5190  0F34  087D               	movf	___xxtofl@arg+3,w
  5191  0F35  00F3               	movwf	?___xxtofl+3
  5192  0F36  087C               	movf	___xxtofl@arg+2,w
  5193  0F37  00F2               	movwf	?___xxtofl+2
  5194  0F38  087B               	movf	___xxtofl@arg+1,w
  5195  0F39  00F1               	movwf	?___xxtofl+1
  5196  0F3A  087A               	movf	___xxtofl@arg,w
  5197  0F3B  00F0               	movwf	?___xxtofl
  5198  0F3C                     l760:
  5199  0F3C  0008               	return
  5200  0F3D                     __end_of___xxtofl:
  5201                           
  5202                           	psect	text15
  5203  0D98                     __ptext15:	
  5204 ;; *************** function ___fltol *****************
  5205 ;; Defined at:
  5206 ;;		line 43 in file "C:\Program Files\Microchip\xc8\v2.36\pic\sources\c99\common\fltol.c"
  5207 ;; Parameters:    Size  Location     Type
  5208 ;;  f1              4   46[BANK0 ] unsigned char 
  5209 ;; Auto vars:     Size  Location     Type
  5210 ;;  exp1            1   56[BANK0 ] unsigned char 
  5211 ;;  sign1           1   55[BANK0 ] unsigned char 
  5212 ;; Return value:  Size  Location     Type
  5213 ;;                  4   46[BANK0 ] long 
  5214 ;; Registers used:
  5215 ;;		wreg, status,2, status,0
  5216 ;; Tracked objects:
  5217 ;;		On entry : 0/0
  5218 ;;		On exit  : 0/0
  5219 ;;		Unchanged: 0/0
  5220 ;; Data sizes:     COMMON   BANK0   BANK1   BANK2   BANK3   BANK4   BANK5   BANK6
  5221 ;;      Params:         0       4       0       0       0       0       0       0
  5222 ;;      Locals:         0       2       0       0       0       0       0       0
  5223 ;;      Temps:          0       5       0       0       0       0       0       0
  5224 ;;      Totals:         0      11       0       0       0       0       0       0
  5225 ;;Total ram usage:       11 bytes
  5226 ;; Hardware stack levels used: 1
  5227 ;; This function calls:
  5228 ;;		Nothing
  5229 ;; This function is called by:
  5230 ;;		_main
  5231 ;; This function uses a non-reentrant model
  5232 ;;
  5233                           
  5234  0D98                     ___fltol:	
  5235                           ;psect for function ___fltol
  5236                           
  5237  0D98                     l2226:	
  5238                           ;incstack = 0
  5239                           ; Regs used in ___fltol: [wreg+status,2+status,0]
  5240                           
  5241  0D98  1003               	clrc
  5242  0D99  0020               	movlb	0	; select bank0
  5243  0D9A  0D50               	rlf	___fltol@f1+2,w
  5244  0D9B  0D51               	rlf	___fltol@f1+3,w
  5245  0D9C  00D2               	movwf	??___fltol
  5246  0D9D  0852               	movf	??___fltol,w
  5247  0D9E  00D8               	movwf	___fltol@exp1
  5248  0D9F  0858               	movf	___fltol@exp1,w
  5249  0DA0  1D03               	btfss	3,2
  5250  0DA1  2DA3               	goto	u2271
  5251  0DA2  2DA4               	goto	u2270
  5252  0DA3                     u2271:
  5253  0DA3  2DAD               	goto	l2232
  5254  0DA4                     u2270:
  5255  0DA4                     l2228:
  5256  0DA4  3000               	movlw	0
  5257  0DA5  00D1               	movwf	?___fltol+3
  5258  0DA6  3000               	movlw	0
  5259  0DA7  00D0               	movwf	?___fltol+2
  5260  0DA8  3000               	movlw	0
  5261  0DA9  00CF               	movwf	?___fltol+1
  5262  0DAA  3000               	movlw	0
  5263  0DAB  00CE               	movwf	?___fltol
  5264  0DAC  2E0C               	goto	l511
  5265  0DAD                     l2232:
  5266  0DAD  084E               	movf	___fltol@f1,w
  5267  0DAE  00D2               	movwf	??___fltol
  5268  0DAF  084F               	movf	___fltol@f1+1,w
  5269  0DB0  00D3               	movwf	??___fltol+1
  5270  0DB1  0850               	movf	___fltol@f1+2,w
  5271  0DB2  00D4               	movwf	??___fltol+2
  5272  0DB3  0851               	movf	___fltol@f1+3,w
  5273  0DB4  00D5               	movwf	??___fltol+3
  5274  0DB5  301F               	movlw	31
  5275  0DB6                     u2285:
  5276  0DB6  36D5               	lsrf	??___fltol+3,f
  5277  0DB7  0CD4               	rrf	??___fltol+2,f
  5278  0DB8  0CD3               	rrf	??___fltol+1,f
  5279  0DB9  0CD2               	rrf	??___fltol,f
  5280  0DBA                     u2280:
  5281  0DBA  0B89               	decfsz	9,f
  5282  0DBB  2DB6               	goto	u2285
  5283  0DBC  0852               	movf	??___fltol,w
  5284  0DBD  00D6               	movwf	??___fltol+4
  5285  0DBE  0856               	movf	??___fltol+4,w
  5286  0DBF  00D7               	movwf	___fltol@sign1
  5287  0DC0                     l2234:
  5288  0DC0  17D0               	bsf	___fltol@f1+2,7
  5289  0DC1                     l2236:
  5290  0DC1  30FF               	movlw	255
  5291  0DC2  05CE               	andwf	___fltol@f1,f
  5292  0DC3  30FF               	movlw	255
  5293  0DC4  05CF               	andwf	___fltol@f1+1,f
  5294  0DC5  30FF               	movlw	255
  5295  0DC6  05D0               	andwf	___fltol@f1+2,f
  5296  0DC7  3000               	movlw	0
  5297  0DC8  05D1               	andwf	___fltol@f1+3,f
  5298  0DC9                     l2238:
  5299  0DC9  3096               	movlw	150
  5300  0DCA  02D8               	subwf	___fltol@exp1,f
  5301  0DCB                     l2240:
  5302  0DCB  1FD8               	btfss	___fltol@exp1,7
  5303  0DCC  2DCE               	goto	u2291
  5304  0DCD  2DCF               	goto	u2290
  5305  0DCE                     u2291:
  5306  0DCE  2DE7               	goto	l2250
  5307  0DCF                     u2290:
  5308  0DCF                     l2242:
  5309  0DCF  0858               	movf	___fltol@exp1,w
  5310  0DD0  3A80               	xorlw	128
  5311  0DD1  3E97               	addlw	151
  5312  0DD2  1803               	skipnc
  5313  0DD3  2DD5               	goto	u2301
  5314  0DD4  2DD6               	goto	u2300
  5315  0DD5                     u2301:
  5316  0DD5  2DD7               	goto	l2248
  5317  0DD6                     u2300:
  5318  0DD6  2DA4               	goto	l2228
  5319  0DD7                     l2248:
  5320  0DD7  3001               	movlw	1
  5321  0DD8                     u2315:
  5322  0DD8  36D1               	lsrf	___fltol@f1+3,f
  5323  0DD9  0CD0               	rrf	___fltol@f1+2,f
  5324  0DDA  0CCF               	rrf	___fltol@f1+1,f
  5325  0DDB  0CCE               	rrf	___fltol@f1,f
  5326  0DDC  0B89               	decfsz	9,f
  5327  0DDD  2DD8               	goto	u2315
  5328  0DDE  3001               	movlw	1
  5329  0DDF  00D2               	movwf	??___fltol
  5330  0DE0  0852               	movf	??___fltol,w
  5331  0DE1  07D8               	addwf	___fltol@exp1,f
  5332  0DE2  1D03               	btfss	3,2
  5333  0DE3  2DE5               	goto	u2321
  5334  0DE4  2DE6               	goto	u2320
  5335  0DE5                     u2321:
  5336  0DE5  2DD7               	goto	l2248
  5337  0DE6                     u2320:
  5338  0DE6  2DFC               	goto	l2258
  5339  0DE7                     l2250:
  5340  0DE7  3020               	movlw	32
  5341  0DE8  0258               	subwf	___fltol@exp1,w
  5342  0DE9  1C03               	skipc
  5343  0DEA  2DEC               	goto	u2331
  5344  0DEB  2DED               	goto	u2330
  5345  0DEC                     u2331:
  5346  0DEC  2DF7               	goto	l518
  5347  0DED                     u2330:
  5348  0DED  2DA4               	goto	l2228
  5349  0DEE                     l2256:
  5350  0DEE  3001               	movlw	1
  5351  0DEF                     u2345:
  5352  0DEF  35CE               	lslf	___fltol@f1,f
  5353  0DF0  0DCF               	rlf	___fltol@f1+1,f
  5354  0DF1  0DD0               	rlf	___fltol@f1+2,f
  5355  0DF2  0DD1               	rlf	___fltol@f1+3,f
  5356  0DF3  0B89               	decfsz	9,f
  5357  0DF4  2DEF               	goto	u2345
  5358  0DF5  3001               	movlw	1
  5359  0DF6  02D8               	subwf	___fltol@exp1,f
  5360  0DF7                     l518:
  5361  0DF7  0858               	movf	___fltol@exp1,w
  5362  0DF8  1D03               	btfss	3,2
  5363  0DF9  2DFB               	goto	u2351
  5364  0DFA  2DFC               	goto	u2350
  5365  0DFB                     u2351:
  5366  0DFB  2DEE               	goto	l2256
  5367  0DFC                     u2350:
  5368  0DFC                     l2258:
  5369  0DFC  0857               	movf	___fltol@sign1,w
  5370  0DFD  1903               	btfsc	3,2
  5371  0DFE  2E00               	goto	u2361
  5372  0DFF  2E01               	goto	u2360
  5373  0E00                     u2361:
  5374  0E00  2E0C               	goto	l521
  5375  0E01                     u2360:
  5376  0E01                     l2260:
  5377  0E01  09CE               	comf	___fltol@f1,f
  5378  0E02  09CF               	comf	___fltol@f1+1,f
  5379  0E03  09D0               	comf	___fltol@f1+2,f
  5380  0E04  09D1               	comf	___fltol@f1+3,f
  5381  0E05  0ACE               	incf	___fltol@f1,f
  5382  0E06  1903               	skipnz
  5383  0E07  0ACF               	incf	___fltol@f1+1,f
  5384  0E08  1903               	skipnz
  5385  0E09  0AD0               	incf	___fltol@f1+2,f
  5386  0E0A  1903               	skipnz
  5387  0E0B  0AD1               	incf	___fltol@f1+3,f
  5388  0E0C                     l521:
  5389  0E0C                     l511:
  5390  0E0C  0008               	return
  5391  0E0D                     __end_of___fltol:
  5392                           
  5393                           	psect	text16
  5394  0334                     __ptext16:	
  5395 ;; *************** function ___flmul *****************
  5396 ;; Defined at:
  5397 ;;		line 8 in file "C:\Program Files\Microchip\xc8\v2.36\pic\sources\c99\common\sprcmul.c"
  5398 ;; Parameters:    Size  Location     Type
  5399 ;;  b               4    0[BANK0 ] long 
  5400 ;;  a               4    4[BANK0 ] long 
  5401 ;; Auto vars:     Size  Location     Type
  5402 ;;  prod            4   20[BANK0 ] struct .
  5403 ;;  grs             4   14[BANK0 ] unsigned long 
  5404 ;;  temp            2   24[BANK0 ] struct .
  5405 ;;  bexp            1   19[BANK0 ] unsigned char 
  5406 ;;  aexp            1   18[BANK0 ] unsigned char 
  5407 ;;  sign            1   13[BANK0 ] unsigned char 
  5408 ;; Return value:  Size  Location     Type
  5409 ;;                  4    0[BANK0 ] unsigned char 
  5410 ;; Registers used:
  5411 ;;		wreg, status,2, status,0, pclath, cstack
  5412 ;; Tracked objects:
  5413 ;;		On entry : 0/0
  5414 ;;		On exit  : 0/0
  5415 ;;		Unchanged: 0/0
  5416 ;; Data sizes:     COMMON   BANK0   BANK1   BANK2   BANK3   BANK4   BANK5   BANK6
  5417 ;;      Params:         0       8       0       0       0       0       0       0
  5418 ;;      Locals:         0      13       0       0       0       0       0       0
  5419 ;;      Temps:          0       5       0       0       0       0       0       0
  5420 ;;      Totals:         0      26       0       0       0       0       0       0
  5421 ;;Total ram usage:       26 bytes
  5422 ;; Hardware stack levels used: 1
  5423 ;; Hardware stack levels required when called: 1
  5424 ;; This function calls:
  5425 ;;		__Umul8_16
  5426 ;; This function is called by:
  5427 ;;		_main
  5428 ;; This function uses a non-reentrant model
  5429 ;;
  5430                           
  5431  0334                     ___flmul:	
  5432                           ;psect for function ___flmul
  5433                           
  5434  0334                     l2456:	
  5435                           ;incstack = 0
  5436                           ; Regs used in ___flmul: [wreg+status,2+status,0+pclath+cstack]
  5437                           
  5438  0334  0020               	movlb	0	; select bank0
  5439  0335  0823               	movf	___flmul@b+3,w
  5440  0336  3980               	andlw	128
  5441  0337  00A8               	movwf	??___flmul
  5442  0338  0828               	movf	??___flmul,w
  5443  0339  00AD               	movwf	___flmul@sign
  5444  033A                     l2458:
  5445  033A  3523               	lslf	___flmul@b+3,w
  5446  033B  00A8               	movwf	??___flmul
  5447  033C  0828               	movf	??___flmul,w
  5448  033D  00B3               	movwf	___flmul@bexp
  5449  033E                     l2460:
  5450  033E  1FA2               	btfss	___flmul@b+2,7
  5451  033F  2B41               	goto	u2801
  5452  0340  2B42               	goto	u2800
  5453  0341                     u2801:
  5454  0341  2B43               	goto	l2464
  5455  0342                     u2800:
  5456  0342                     l2462:
  5457  0342  1433               	bsf	___flmul@bexp,0
  5458  0343                     l2464:
  5459  0343  0833               	movf	___flmul@bexp,w
  5460  0344  1903               	btfsc	3,2
  5461  0345  2B47               	goto	u2811
  5462  0346  2B48               	goto	u2810
  5463  0347                     u2811:
  5464  0347  2B57               	goto	l2472
  5465  0348                     u2810:
  5466  0348                     l2466:
  5467  0348  0A33               	incf	___flmul@bexp,w
  5468  0349  1D03               	btfss	3,2
  5469  034A  2B4C               	goto	u2821
  5470  034B  2B4D               	goto	u2820
  5471  034C                     u2821:
  5472  034C  2B55               	goto	l2470
  5473  034D                     u2820:
  5474  034D                     l2468:
  5475  034D  3000               	movlw	0
  5476  034E  00A3               	movwf	___flmul@b+3
  5477  034F  3000               	movlw	0
  5478  0350  00A2               	movwf	___flmul@b+2
  5479  0351  3000               	movlw	0
  5480  0352  00A1               	movwf	___flmul@b+1
  5481  0353  3000               	movlw	0
  5482  0354  00A0               	movwf	___flmul@b
  5483  0355                     l2470:
  5484  0355  17A2               	bsf	___flmul@b+2,7
  5485  0356  2B5F               	goto	l2474
  5486  0357                     l2472:
  5487  0357  3000               	movlw	0
  5488  0358  00A3               	movwf	___flmul@b+3
  5489  0359  3000               	movlw	0
  5490  035A  00A2               	movwf	___flmul@b+2
  5491  035B  3000               	movlw	0
  5492  035C  00A1               	movwf	___flmul@b+1
  5493  035D  3000               	movlw	0
  5494  035E  00A0               	movwf	___flmul@b
  5495  035F                     l2474:
  5496  035F  0827               	movf	___flmul@a+3,w
  5497  0360  3980               	andlw	128
  5498  0361  00A8               	movwf	??___flmul
  5499  0362  0828               	movf	??___flmul,w
  5500  0363  06AD               	xorwf	___flmul@sign,f
  5501  0364                     l2476:
  5502  0364  3527               	lslf	___flmul@a+3,w
  5503  0365  00A8               	movwf	??___flmul
  5504  0366  0828               	movf	??___flmul,w
  5505  0367  00B2               	movwf	___flmul@aexp
  5506  0368                     l2478:
  5507  0368  1FA6               	btfss	___flmul@a+2,7
  5508  0369  2B6B               	goto	u2831
  5509  036A  2B6C               	goto	u2830
  5510  036B                     u2831:
  5511  036B  2B6D               	goto	l2482
  5512  036C                     u2830:
  5513  036C                     l2480:
  5514  036C  1432               	bsf	___flmul@aexp,0
  5515  036D                     l2482:
  5516  036D  0832               	movf	___flmul@aexp,w
  5517  036E  1903               	btfsc	3,2
  5518  036F  2B71               	goto	u2841
  5519  0370  2B72               	goto	u2840
  5520  0371                     u2841:
  5521  0371  2B81               	goto	l2490
  5522  0372                     u2840:
  5523  0372                     l2484:
  5524  0372  0A32               	incf	___flmul@aexp,w
  5525  0373  1D03               	btfss	3,2
  5526  0374  2B76               	goto	u2851
  5527  0375  2B77               	goto	u2850
  5528  0376                     u2851:
  5529  0376  2B7F               	goto	l2488
  5530  0377                     u2850:
  5531  0377                     l2486:
  5532  0377  3000               	movlw	0
  5533  0378  00A7               	movwf	___flmul@a+3
  5534  0379  3000               	movlw	0
  5535  037A  00A6               	movwf	___flmul@a+2
  5536  037B  3000               	movlw	0
  5537  037C  00A5               	movwf	___flmul@a+1
  5538  037D  3000               	movlw	0
  5539  037E  00A4               	movwf	___flmul@a
  5540  037F                     l2488:
  5541  037F  17A6               	bsf	___flmul@a+2,7
  5542  0380  2B89               	goto	l2492
  5543  0381                     l2490:
  5544  0381  3000               	movlw	0
  5545  0382  00A7               	movwf	___flmul@a+3
  5546  0383  3000               	movlw	0
  5547  0384  00A6               	movwf	___flmul@a+2
  5548  0385  3000               	movlw	0
  5549  0386  00A5               	movwf	___flmul@a+1
  5550  0387  3000               	movlw	0
  5551  0388  00A4               	movwf	___flmul@a
  5552  0389                     l2492:
  5553  0389  0832               	movf	___flmul@aexp,w
  5554  038A  1903               	btfsc	3,2
  5555  038B  2B8D               	goto	u2861
  5556  038C  2B8E               	goto	u2860
  5557  038D                     u2861:
  5558  038D  2B93               	goto	l2496
  5559  038E                     u2860:
  5560  038E                     l2494:
  5561  038E  0833               	movf	___flmul@bexp,w
  5562  038F  1D03               	btfss	3,2
  5563  0390  2B92               	goto	u2871
  5564  0391  2B93               	goto	u2870
  5565  0392                     u2871:
  5566  0392  2B9C               	goto	l2500
  5567  0393                     u2870:
  5568  0393                     l2496:
  5569  0393  3000               	movlw	0
  5570  0394  00A3               	movwf	?___flmul+3
  5571  0395  3000               	movlw	0
  5572  0396  00A2               	movwf	?___flmul+2
  5573  0397  3000               	movlw	0
  5574  0398  00A1               	movwf	?___flmul+1
  5575  0399  3000               	movlw	0
  5576  039A  00A0               	movwf	?___flmul
  5577  039B  2D8A               	goto	l714
  5578  039C                     l2500:
  5579  039C  0820               	movf	___flmul@b,w
  5580  039D  00A8               	movwf	??___flmul
  5581  039E  0828               	movf	??___flmul,w
  5582  039F  00F0               	movwf	__Umul8_16@multiplicand
  5583  03A0  0826               	movf	___flmul@a+2,w
  5584  03A1  318B  232D  3183   	fcall	__Umul8_16
  5585  03A4  0871               	movf	?__Umul8_16+1,w
  5586  03A5  0020               	movlb	0	; select bank0
  5587  03A6  00B9               	movwf	___flmul@temp+1
  5588  03A7  0870               	movf	?__Umul8_16,w
  5589  03A8  00B8               	movwf	___flmul@temp
  5590  03A9                     l2502:
  5591  03A9  0838               	movf	___flmul@temp,w
  5592  03AA  00A8               	movwf	??___flmul
  5593  03AB  01A9               	clrf	??___flmul+1
  5594  03AC  01AA               	clrf	??___flmul+2
  5595  03AD  01AB               	clrf	??___flmul+3
  5596  03AE  082B               	movf	??___flmul+3,w
  5597  03AF  00B1               	movwf	___flmul@grs+3
  5598  03B0  082A               	movf	??___flmul+2,w
  5599  03B1  00B0               	movwf	___flmul@grs+2
  5600  03B2  0829               	movf	??___flmul+1,w
  5601  03B3  00AF               	movwf	___flmul@grs+1
  5602  03B4  0828               	movf	??___flmul,w
  5603  03B5  00AE               	movwf	___flmul@grs
  5604  03B6                     l2504:
  5605  03B6  0839               	movf	___flmul@temp+1,w
  5606  03B7  00A8               	movwf	??___flmul
  5607  03B8  01A9               	clrf	??___flmul+1
  5608  03B9  01AA               	clrf	??___flmul+2
  5609  03BA  01AB               	clrf	??___flmul+3
  5610  03BB  082B               	movf	??___flmul+3,w
  5611  03BC  00B7               	movwf	___flmul@prod+3
  5612  03BD  082A               	movf	??___flmul+2,w
  5613  03BE  00B6               	movwf	___flmul@prod+2
  5614  03BF  0829               	movf	??___flmul+1,w
  5615  03C0  00B5               	movwf	___flmul@prod+1
  5616  03C1  0828               	movf	??___flmul,w
  5617  03C2  00B4               	movwf	___flmul@prod
  5618  03C3  0821               	movf	___flmul@b+1,w
  5619  03C4  00A8               	movwf	??___flmul
  5620  03C5  0828               	movf	??___flmul,w
  5621  03C6  00F0               	movwf	__Umul8_16@multiplicand
  5622  03C7  0825               	movf	___flmul@a+1,w
  5623  03C8  318B  232D  3183   	fcall	__Umul8_16
  5624  03CB  0871               	movf	?__Umul8_16+1,w
  5625  03CC  0020               	movlb	0	; select bank0
  5626  03CD  00B9               	movwf	___flmul@temp+1
  5627  03CE  0870               	movf	?__Umul8_16,w
  5628  03CF  00B8               	movwf	___flmul@temp
  5629  03D0                     l2506:
  5630  03D0  0838               	movf	___flmul@temp,w
  5631  03D1  00A8               	movwf	??___flmul
  5632  03D2  01A9               	clrf	??___flmul+1
  5633  03D3  01AA               	clrf	??___flmul+2
  5634  03D4  01AB               	clrf	??___flmul+3
  5635  03D5  0828               	movf	??___flmul,w
  5636  03D6  07AE               	addwf	___flmul@grs,f
  5637  03D7  0829               	movf	??___flmul+1,w
  5638  03D8  3DAF               	addwfc	___flmul@grs+1,f
  5639  03D9  082A               	movf	??___flmul+2,w
  5640  03DA  3DB0               	addwfc	___flmul@grs+2,f
  5641  03DB  082B               	movf	??___flmul+3,w
  5642  03DC  3DB1               	addwfc	___flmul@grs+3,f
  5643  03DD                     l2508:
  5644  03DD  0839               	movf	___flmul@temp+1,w
  5645  03DE  00A8               	movwf	??___flmul
  5646  03DF  01A9               	clrf	??___flmul+1
  5647  03E0  01AA               	clrf	??___flmul+2
  5648  03E1  01AB               	clrf	??___flmul+3
  5649  03E2  0828               	movf	??___flmul,w
  5650  03E3  07B4               	addwf	___flmul@prod,f
  5651  03E4  0829               	movf	??___flmul+1,w
  5652  03E5  3DB5               	addwfc	___flmul@prod+1,f
  5653  03E6  082A               	movf	??___flmul+2,w
  5654  03E7  3DB6               	addwfc	___flmul@prod+2,f
  5655  03E8  082B               	movf	??___flmul+3,w
  5656  03E9  3DB7               	addwfc	___flmul@prod+3,f
  5657  03EA  0822               	movf	___flmul@b+2,w
  5658  03EB  00A8               	movwf	??___flmul
  5659  03EC  0828               	movf	??___flmul,w
  5660  03ED  00F0               	movwf	__Umul8_16@multiplicand
  5661  03EE  0824               	movf	___flmul@a,w
  5662  03EF  318B  232D  3183   	fcall	__Umul8_16
  5663  03F2  0871               	movf	?__Umul8_16+1,w
  5664  03F3  0020               	movlb	0	; select bank0
  5665  03F4  00B9               	movwf	___flmul@temp+1
  5666  03F5  0870               	movf	?__Umul8_16,w
  5667  03F6  00B8               	movwf	___flmul@temp
  5668  03F7                     l2510:
  5669  03F7  0838               	movf	___flmul@temp,w
  5670  03F8  00A8               	movwf	??___flmul
  5671  03F9  01A9               	clrf	??___flmul+1
  5672  03FA  01AA               	clrf	??___flmul+2
  5673  03FB  01AB               	clrf	??___flmul+3
  5674  03FC  0828               	movf	??___flmul,w
  5675  03FD  07AE               	addwf	___flmul@grs,f
  5676  03FE  0829               	movf	??___flmul+1,w
  5677  03FF  3DAF               	addwfc	___flmul@grs+1,f
  5678  0400  082A               	movf	??___flmul+2,w
  5679  0401  3DB0               	addwfc	___flmul@grs+2,f
  5680  0402  082B               	movf	??___flmul+3,w
  5681  0403  3DB1               	addwfc	___flmul@grs+3,f
  5682  0404                     l2512:
  5683  0404  0839               	movf	___flmul@temp+1,w
  5684  0405  00A8               	movwf	??___flmul
  5685  0406  01A9               	clrf	??___flmul+1
  5686  0407  01AA               	clrf	??___flmul+2
  5687  0408  01AB               	clrf	??___flmul+3
  5688  0409  0828               	movf	??___flmul,w
  5689  040A  07B4               	addwf	___flmul@prod,f
  5690  040B  0829               	movf	??___flmul+1,w
  5691  040C  3DB5               	addwfc	___flmul@prod+1,f
  5692  040D  082A               	movf	??___flmul+2,w
  5693  040E  3DB6               	addwfc	___flmul@prod+2,f
  5694  040F  082B               	movf	??___flmul+3,w
  5695  0410  3DB7               	addwfc	___flmul@prod+3,f
  5696  0411                     l2514:
  5697  0411  3008               	movlw	8
  5698  0412                     u2885:
  5699  0412  35AE               	lslf	___flmul@grs,f
  5700  0413  0DAF               	rlf	___flmul@grs+1,f
  5701  0414  0DB0               	rlf	___flmul@grs+2,f
  5702  0415  0DB1               	rlf	___flmul@grs+3,f
  5703  0416  0B89               	decfsz	9,f
  5704  0417  2C12               	goto	u2885
  5705  0418                     l2516:
  5706  0418  0821               	movf	___flmul@b+1,w
  5707  0419  00A8               	movwf	??___flmul
  5708  041A  0828               	movf	??___flmul,w
  5709  041B  00F0               	movwf	__Umul8_16@multiplicand
  5710  041C  0824               	movf	___flmul@a,w
  5711  041D  318B  232D  3183   	fcall	__Umul8_16
  5712  0420  0871               	movf	?__Umul8_16+1,w
  5713  0421  0020               	movlb	0	; select bank0
  5714  0422  00B9               	movwf	___flmul@temp+1
  5715  0423  0870               	movf	?__Umul8_16,w
  5716  0424  00B8               	movwf	___flmul@temp
  5717  0425                     l2518:
  5718  0425  0838               	movf	___flmul@temp,w
  5719  0426  07AE               	addwf	___flmul@grs,f
  5720  0427  0839               	movf	___flmul@temp+1,w
  5721  0428  3DAF               	addwfc	___flmul@grs+1,f
  5722  0429  3000               	movlw	0
  5723  042A  3DB0               	addwfc	___flmul@grs+2,f
  5724  042B  3DB1               	addwfc	___flmul@grs+3,f
  5725  042C                     l2520:
  5726  042C  0820               	movf	___flmul@b,w
  5727  042D  00A8               	movwf	??___flmul
  5728  042E  0828               	movf	??___flmul,w
  5729  042F  00F0               	movwf	__Umul8_16@multiplicand
  5730  0430  0825               	movf	___flmul@a+1,w
  5731  0431  318B  232D  3183   	fcall	__Umul8_16
  5732  0434  0871               	movf	?__Umul8_16+1,w
  5733  0435  0020               	movlb	0	; select bank0
  5734  0436  00B9               	movwf	___flmul@temp+1
  5735  0437  0870               	movf	?__Umul8_16,w
  5736  0438  00B8               	movwf	___flmul@temp
  5737  0439                     l2522:
  5738  0439  0838               	movf	___flmul@temp,w
  5739  043A  07AE               	addwf	___flmul@grs,f
  5740  043B  0839               	movf	___flmul@temp+1,w
  5741  043C  3DAF               	addwfc	___flmul@grs+1,f
  5742  043D  3000               	movlw	0
  5743  043E  3DB0               	addwfc	___flmul@grs+2,f
  5744  043F  3DB1               	addwfc	___flmul@grs+3,f
  5745  0440                     l2524:
  5746  0440  3008               	movlw	8
  5747  0441                     u2895:
  5748  0441  35AE               	lslf	___flmul@grs,f
  5749  0442  0DAF               	rlf	___flmul@grs+1,f
  5750  0443  0DB0               	rlf	___flmul@grs+2,f
  5751  0444  0DB1               	rlf	___flmul@grs+3,f
  5752  0445  0B89               	decfsz	9,f
  5753  0446  2C41               	goto	u2895
  5754  0447  0820               	movf	___flmul@b,w
  5755  0448  00A8               	movwf	??___flmul
  5756  0449  0828               	movf	??___flmul,w
  5757  044A  00F0               	movwf	__Umul8_16@multiplicand
  5758  044B  0824               	movf	___flmul@a,w
  5759  044C  318B  232D  3183   	fcall	__Umul8_16
  5760  044F  0871               	movf	?__Umul8_16+1,w
  5761  0450  0020               	movlb	0	; select bank0
  5762  0451  00B9               	movwf	___flmul@temp+1
  5763  0452  0870               	movf	?__Umul8_16,w
  5764  0453  00B8               	movwf	___flmul@temp
  5765  0454                     l2526:
  5766  0454  0838               	movf	___flmul@temp,w
  5767  0455  07AE               	addwf	___flmul@grs,f
  5768  0456  0839               	movf	___flmul@temp+1,w
  5769  0457  3DAF               	addwfc	___flmul@grs+1,f
  5770  0458  3000               	movlw	0
  5771  0459  3DB0               	addwfc	___flmul@grs+2,f
  5772  045A  3DB1               	addwfc	___flmul@grs+3,f
  5773  045B                     l2528:
  5774  045B  0821               	movf	___flmul@b+1,w
  5775  045C  00A8               	movwf	??___flmul
  5776  045D  0828               	movf	??___flmul,w
  5777  045E  00F0               	movwf	__Umul8_16@multiplicand
  5778  045F  0826               	movf	___flmul@a+2,w
  5779  0460  318B  232D  3183   	fcall	__Umul8_16
  5780  0463  0871               	movf	?__Umul8_16+1,w
  5781  0464  0020               	movlb	0	; select bank0
  5782  0465  00B9               	movwf	___flmul@temp+1
  5783  0466  0870               	movf	?__Umul8_16,w
  5784  0467  00B8               	movwf	___flmul@temp
  5785  0468  0838               	movf	___flmul@temp,w
  5786  0469  07B4               	addwf	___flmul@prod,f
  5787  046A  0839               	movf	___flmul@temp+1,w
  5788  046B  3DB5               	addwfc	___flmul@prod+1,f
  5789  046C  3000               	movlw	0
  5790  046D  3DB6               	addwfc	___flmul@prod+2,f
  5791  046E  3DB7               	addwfc	___flmul@prod+3,f
  5792  046F                     l2530:
  5793  046F  0822               	movf	___flmul@b+2,w
  5794  0470  00A8               	movwf	??___flmul
  5795  0471  0828               	movf	??___flmul,w
  5796  0472  00F0               	movwf	__Umul8_16@multiplicand
  5797  0473  0825               	movf	___flmul@a+1,w
  5798  0474  318B  232D  3183   	fcall	__Umul8_16
  5799  0477  0871               	movf	?__Umul8_16+1,w
  5800  0478  0020               	movlb	0	; select bank0
  5801  0479  00B9               	movwf	___flmul@temp+1
  5802  047A  0870               	movf	?__Umul8_16,w
  5803  047B  00B8               	movwf	___flmul@temp
  5804  047C                     l2532:
  5805  047C  0838               	movf	___flmul@temp,w
  5806  047D  07B4               	addwf	___flmul@prod,f
  5807  047E  0839               	movf	___flmul@temp+1,w
  5808  047F  3DB5               	addwfc	___flmul@prod+1,f
  5809  0480  3000               	movlw	0
  5810  0481  3DB6               	addwfc	___flmul@prod+2,f
  5811  0482  3DB7               	addwfc	___flmul@prod+3,f
  5812  0483  0822               	movf	___flmul@b+2,w
  5813  0484  00A8               	movwf	??___flmul
  5814  0485  0828               	movf	??___flmul,w
  5815  0486  00F0               	movwf	__Umul8_16@multiplicand
  5816  0487  0826               	movf	___flmul@a+2,w
  5817  0488  318B  232D  3183   	fcall	__Umul8_16
  5818  048B  0871               	movf	?__Umul8_16+1,w
  5819  048C  0020               	movlb	0	; select bank0
  5820  048D  00B9               	movwf	___flmul@temp+1
  5821  048E  0870               	movf	?__Umul8_16,w
  5822  048F  00B8               	movwf	___flmul@temp
  5823  0490                     l2534:
  5824  0490  0838               	movf	___flmul@temp,w
  5825  0491  00A8               	movwf	??___flmul
  5826  0492  0839               	movf	___flmul@temp+1,w
  5827  0493  00A9               	movwf	??___flmul+1
  5828  0494  01AA               	clrf	??___flmul+2
  5829  0495  01AB               	clrf	??___flmul+3
  5830  0496  3008               	movlw	8
  5831  0497                     u2905:
  5832  0497  35A8               	lslf	??___flmul,f
  5833  0498  0DA9               	rlf	??___flmul+1,f
  5834  0499  0DAA               	rlf	??___flmul+2,f
  5835  049A  0DAB               	rlf	??___flmul+3,f
  5836  049B                     u2900:
  5837  049B  0B89               	decfsz	9,f
  5838  049C  2C97               	goto	u2905
  5839  049D  0828               	movf	??___flmul,w
  5840  049E  07B4               	addwf	___flmul@prod,f
  5841  049F  0829               	movf	??___flmul+1,w
  5842  04A0  3DB5               	addwfc	___flmul@prod+1,f
  5843  04A1  082A               	movf	??___flmul+2,w
  5844  04A2  3DB6               	addwfc	___flmul@prod+2,f
  5845  04A3  082B               	movf	??___flmul+3,w
  5846  04A4  3DB7               	addwfc	___flmul@prod+3,f
  5847  04A5                     l2536:
  5848  04A5  082E               	movf	___flmul@grs,w
  5849  04A6  00A8               	movwf	??___flmul
  5850  04A7  082F               	movf	___flmul@grs+1,w
  5851  04A8  00A9               	movwf	??___flmul+1
  5852  04A9  0830               	movf	___flmul@grs+2,w
  5853  04AA  00AA               	movwf	??___flmul+2
  5854  04AB  0831               	movf	___flmul@grs+3,w
  5855  04AC  00AB               	movwf	??___flmul+3
  5856  04AD  3018               	movlw	24
  5857  04AE                     u2915:
  5858  04AE  36AB               	lsrf	??___flmul+3,f
  5859  04AF  0CAA               	rrf	??___flmul+2,f
  5860  04B0  0CA9               	rrf	??___flmul+1,f
  5861  04B1  0CA8               	rrf	??___flmul,f
  5862  04B2                     u2910:
  5863  04B2  0B89               	decfsz	9,f
  5864  04B3  2CAE               	goto	u2915
  5865  04B4  0828               	movf	??___flmul,w
  5866  04B5  07B4               	addwf	___flmul@prod,f
  5867  04B6  0829               	movf	??___flmul+1,w
  5868  04B7  3DB5               	addwfc	___flmul@prod+1,f
  5869  04B8  082A               	movf	??___flmul+2,w
  5870  04B9  3DB6               	addwfc	___flmul@prod+2,f
  5871  04BA  082B               	movf	??___flmul+3,w
  5872  04BB  3DB7               	addwfc	___flmul@prod+3,f
  5873  04BC                     l2538:
  5874  04BC  3008               	movlw	8
  5875  04BD                     u2925:
  5876  04BD  35AE               	lslf	___flmul@grs,f
  5877  04BE  0DAF               	rlf	___flmul@grs+1,f
  5878  04BF  0DB0               	rlf	___flmul@grs+2,f
  5879  04C0  0DB1               	rlf	___flmul@grs+3,f
  5880  04C1  0B89               	decfsz	9,f
  5881  04C2  2CBD               	goto	u2925
  5882  04C3                     l2540:
  5883  04C3  0833               	movf	___flmul@bexp,w
  5884  04C4  0732               	addwf	___flmul@aexp,w
  5885  04C5  00A8               	movwf	??___flmul
  5886  04C6  01A9               	clrf	??___flmul+1
  5887  04C7  0DA9               	rlf	??___flmul+1,f
  5888  04C8  0828               	movf	??___flmul,w
  5889  04C9  3E82               	addlw	130
  5890  04CA  00B8               	movwf	___flmul@temp
  5891  04CB  30FF               	movlw	255
  5892  04CC  3D29               	addwfc	??___flmul+1,w
  5893  04CD  00B9               	movwf	___flmul@temp+1
  5894  04CE  2CE6               	goto	l2552
  5895  04CF                     l2542:
  5896  04CF  3001               	movlw	1
  5897  04D0                     u2935:
  5898  04D0  35B4               	lslf	___flmul@prod,f
  5899  04D1  0DB5               	rlf	___flmul@prod+1,f
  5900  04D2  0DB6               	rlf	___flmul@prod+2,f
  5901  04D3  0DB7               	rlf	___flmul@prod+3,f
  5902  04D4  0B89               	decfsz	9,f
  5903  04D5  2CD0               	goto	u2935
  5904  04D6                     l2544:
  5905  04D6  1FB1               	btfss	___flmul@grs+3,7
  5906  04D7  2CD9               	goto	u2941
  5907  04D8  2CDA               	goto	u2940
  5908  04D9                     u2941:
  5909  04D9  2CDB               	goto	l2548
  5910  04DA                     u2940:
  5911  04DA                     l2546:
  5912  04DA  1434               	bsf	___flmul@prod,0
  5913  04DB                     l2548:
  5914  04DB  3001               	movlw	1
  5915  04DC                     u2955:
  5916  04DC  35AE               	lslf	___flmul@grs,f
  5917  04DD  0DAF               	rlf	___flmul@grs+1,f
  5918  04DE  0DB0               	rlf	___flmul@grs+2,f
  5919  04DF  0DB1               	rlf	___flmul@grs+3,f
  5920  04E0  0B89               	decfsz	9,f
  5921  04E1  2CDC               	goto	u2955
  5922  04E2                     l2550:
  5923  04E2  30FF               	movlw	255
  5924  04E3  07B8               	addwf	___flmul@temp,f
  5925  04E4  30FF               	movlw	255
  5926  04E5  3DB9               	addwfc	___flmul@temp+1,f
  5927  04E6                     l2552:
  5928  04E6  1FB6               	btfss	___flmul@prod+2,7
  5929  04E7  2CE9               	goto	u2961
  5930  04E8  2CEA               	goto	u2960
  5931  04E9                     u2961:
  5932  04E9  2CCF               	goto	l2542
  5933  04EA                     u2960:
  5934  04EA                     l2554:
  5935  04EA  01B2               	clrf	___flmul@aexp
  5936  04EB                     l2556:
  5937  04EB  1FB1               	btfss	___flmul@grs+3,7
  5938  04EC  2CEE               	goto	u2971
  5939  04ED  2CEF               	goto	u2970
  5940  04EE                     u2971:
  5941  04EE  2D0B               	goto	l2564
  5942  04EF                     u2970:
  5943  04EF                     l2558:
  5944  04EF  30FF               	movlw	255
  5945  04F0  052E               	andwf	___flmul@grs,w
  5946  04F1  00A8               	movwf	??___flmul
  5947  04F2  30FF               	movlw	255
  5948  04F3  052F               	andwf	___flmul@grs+1,w
  5949  04F4  00A9               	movwf	??___flmul+1
  5950  04F5  30FF               	movlw	255
  5951  04F6  0530               	andwf	___flmul@grs+2,w
  5952  04F7  00AA               	movwf	??___flmul+2
  5953  04F8  307F               	movlw	127
  5954  04F9  0531               	andwf	___flmul@grs+3,w
  5955  04FA  00AB               	movwf	??___flmul+3
  5956  04FB  082B               	movf	??___flmul+3,w
  5957  04FC  042A               	iorwf	??___flmul+2,w
  5958  04FD  0429               	iorwf	??___flmul+1,w
  5959  04FE  0428               	iorwf	??___flmul,w
  5960  04FF  1903               	skipnz
  5961  0500  2D02               	goto	u2981
  5962  0501  2D03               	goto	u2980
  5963  0502                     u2981:
  5964  0502  2D06               	goto	l720
  5965  0503                     u2980:
  5966  0503                     l2560:
  5967  0503  01B2               	clrf	___flmul@aexp
  5968  0504  0AB2               	incf	___flmul@aexp,f
  5969  0505  2D0B               	goto	l2564
  5970  0506                     l720:
  5971  0506  1C34               	btfss	___flmul@prod,0
  5972  0507  2D09               	goto	u2991
  5973  0508  2D0A               	goto	u2990
  5974  0509                     u2991:
  5975  0509  2D0B               	goto	l2564
  5976  050A                     u2990:
  5977  050A  2D03               	goto	l2560
  5978  050B                     l2564:
  5979  050B  0832               	movf	___flmul@aexp,w
  5980  050C  1903               	btfsc	3,2
  5981  050D  2D0F               	goto	u3001
  5982  050E  2D10               	goto	u3000
  5983  050F                     u3001:
  5984  050F  2D38               	goto	l2574
  5985  0510                     u3000:
  5986  0510                     l2566:
  5987  0510  3001               	movlw	1
  5988  0511  07B4               	addwf	___flmul@prod,f
  5989  0512  3000               	movlw	0
  5990  0513  3DB5               	addwfc	___flmul@prod+1,f
  5991  0514  3000               	movlw	0
  5992  0515  3DB6               	addwfc	___flmul@prod+2,f
  5993  0516  3000               	movlw	0
  5994  0517  3DB7               	addwfc	___flmul@prod+3,f
  5995  0518                     l2568:
  5996  0518  1C37               	btfss	___flmul@prod+3,0
  5997  0519  2D1B               	goto	u3011
  5998  051A  2D1C               	goto	u3010
  5999  051B                     u3011:
  6000  051B  2D38               	goto	l2574
  6001  051C                     u3010:
  6002  051C                     l2570:
  6003  051C  0834               	movf	___flmul@prod,w
  6004  051D  00A8               	movwf	??___flmul
  6005  051E  0835               	movf	___flmul@prod+1,w
  6006  051F  00A9               	movwf	??___flmul+1
  6007  0520  0836               	movf	___flmul@prod+2,w
  6008  0521  00AA               	movwf	??___flmul+2
  6009  0522  0837               	movf	___flmul@prod+3,w
  6010  0523  00AB               	movwf	??___flmul+3
  6011  0524  3001               	movlw	1
  6012  0525  00AC               	movwf	??___flmul+4
  6013  0526                     u3025:
  6014  0526  37AB               	asrf	??___flmul+3,f
  6015  0527  0CAA               	rrf	??___flmul+2,f
  6016  0528  0CA9               	rrf	??___flmul+1,f
  6017  0529  0CA8               	rrf	??___flmul,f
  6018  052A                     u3020:
  6019  052A  0BAC               	decfsz	??___flmul+4,f
  6020  052B  2D26               	goto	u3025
  6021  052C  082B               	movf	??___flmul+3,w
  6022  052D  00B7               	movwf	___flmul@prod+3
  6023  052E  082A               	movf	??___flmul+2,w
  6024  052F  00B6               	movwf	___flmul@prod+2
  6025  0530  0829               	movf	??___flmul+1,w
  6026  0531  00B5               	movwf	___flmul@prod+1
  6027  0532  0828               	movf	??___flmul,w
  6028  0533  00B4               	movwf	___flmul@prod
  6029  0534                     l2572:
  6030  0534  3001               	movlw	1
  6031  0535  07B8               	addwf	___flmul@temp,f
  6032  0536  3000               	movlw	0
  6033  0537  3DB9               	addwfc	___flmul@temp+1,f
  6034  0538                     l2574:
  6035  0538  0839               	movf	___flmul@temp+1,w
  6036  0539  3A80               	xorlw	128
  6037  053A  00A8               	movwf	??___flmul
  6038  053B  3080               	movlw	128
  6039  053C  0228               	subwf	??___flmul,w
  6040  053D  1D03               	skipz
  6041  053E  2D41               	goto	u3035
  6042  053F  30FF               	movlw	255
  6043  0540  0238               	subwf	___flmul@temp,w
  6044  0541                     u3035:
  6045  0541  1C03               	skipc
  6046  0542  2D44               	goto	u3031
  6047  0543  2D45               	goto	u3030
  6048  0544                     u3031:
  6049  0544  2D4F               	goto	l2578
  6050  0545                     u3030:
  6051  0545                     l2576:
  6052  0545  307F               	movlw	127
  6053  0546  0020               	movlb	0	; select bank0
  6054  0547  00B7               	movwf	___flmul@prod+3
  6055  0548  3080               	movlw	128
  6056  0549  00B6               	movwf	___flmul@prod+2
  6057  054A  3000               	movlw	0
  6058  054B  00B5               	movwf	___flmul@prod+1
  6059  054C  3000               	movlw	0
  6060  054D  00B4               	movwf	___flmul@prod
  6061  054E  2D7E               	goto	l726
  6062  054F                     l2578:
  6063  054F  0020               	movlb	0	; select bank0
  6064  0550  0839               	movf	___flmul@temp+1,w
  6065  0551  3A80               	xorlw	128
  6066  0552  00A8               	movwf	??___flmul
  6067  0553  3080               	movlw	128
  6068  0554  0228               	subwf	??___flmul,w
  6069  0555  1D03               	skipz
  6070  0556  2D59               	goto	u3045
  6071  0557  3001               	movlw	1
  6072  0558  0238               	subwf	___flmul@temp,w
  6073  0559                     u3045:
  6074  0559  1803               	skipnc
  6075  055A  2D5C               	goto	u3041
  6076  055B  2D5D               	goto	u3040
  6077  055C                     u3041:
  6078  055C  2D68               	goto	l2584
  6079  055D                     u3040:
  6080  055D                     l2580:
  6081  055D  3000               	movlw	0
  6082  055E  0020               	movlb	0	; select bank0
  6083  055F  00B7               	movwf	___flmul@prod+3
  6084  0560  3000               	movlw	0
  6085  0561  00B6               	movwf	___flmul@prod+2
  6086  0562  3000               	movlw	0
  6087  0563  00B5               	movwf	___flmul@prod+1
  6088  0564  3000               	movlw	0
  6089  0565  00B4               	movwf	___flmul@prod
  6090  0566                     l2582:
  6091  0566  01AD               	clrf	___flmul@sign
  6092  0567  2D7E               	goto	l726
  6093  0568                     l2584:
  6094  0568  0020               	movlb	0	; select bank0
  6095  0569  0838               	movf	___flmul@temp,w
  6096  056A  00A8               	movwf	??___flmul
  6097  056B  0828               	movf	??___flmul,w
  6098  056C  00B3               	movwf	___flmul@bexp
  6099  056D  30FF               	movlw	255
  6100  056E  05B4               	andwf	___flmul@prod,f
  6101  056F  30FF               	movlw	255
  6102  0570  05B5               	andwf	___flmul@prod+1,f
  6103  0571  307F               	movlw	127
  6104  0572  05B6               	andwf	___flmul@prod+2,f
  6105  0573  3000               	movlw	0
  6106  0574  05B7               	andwf	___flmul@prod+3,f
  6107  0575                     l2586:
  6108  0575  1C33               	btfss	___flmul@bexp,0
  6109  0576  2D78               	goto	u3051
  6110  0577  2D79               	goto	u3050
  6111  0578                     u3051:
  6112  0578  2D7A               	goto	l2590
  6113  0579                     u3050:
  6114  0579                     l2588:
  6115  0579  17B6               	bsf	___flmul@prod+2,7
  6116  057A                     l2590:
  6117  057A  3633               	lsrf	___flmul@bexp,w
  6118  057B  00A8               	movwf	??___flmul
  6119  057C  0828               	movf	??___flmul,w
  6120  057D  00B7               	movwf	___flmul@prod+3
  6121  057E                     l726:
  6122  057E  082D               	movf	___flmul@sign,w
  6123  057F  00A8               	movwf	??___flmul
  6124  0580  0828               	movf	??___flmul,w
  6125  0581  04B7               	iorwf	___flmul@prod+3,f
  6126  0582                     l2592:
  6127  0582  0837               	movf	___flmul@prod+3,w
  6128  0583  00A3               	movwf	?___flmul+3
  6129  0584  0836               	movf	___flmul@prod+2,w
  6130  0585  00A2               	movwf	?___flmul+2
  6131  0586  0835               	movf	___flmul@prod+1,w
  6132  0587  00A1               	movwf	?___flmul+1
  6133  0588  0834               	movf	___flmul@prod,w
  6134  0589  00A0               	movwf	?___flmul
  6135  058A                     l714:
  6136  058A  0008               	return
  6137  058B                     __end_of___flmul:
  6138                           
  6139                           	psect	text17
  6140  0B2D                     __ptext17:	
  6141 ;; *************** function __Umul8_16 *****************
  6142 ;; Defined at:
  6143 ;;		line 4 in file "C:\Program Files\Microchip\xc8\v2.36\pic\sources\c99\common\Umul8_16.c"
  6144 ;; Parameters:    Size  Location     Type
  6145 ;;  multiplier      1    wreg     unsigned char 
  6146 ;;  multiplicand    1    0[COMMON] unsigned char 
  6147 ;; Auto vars:     Size  Location     Type
  6148 ;;  multiplier      1    8[COMMON] unsigned char 
  6149 ;;  word_mpld       2    6[COMMON] unsigned int 
  6150 ;;  product         2    4[COMMON] unsigned int 
  6151 ;; Return value:  Size  Location     Type
  6152 ;;                  2    0[COMMON] unsigned int 
  6153 ;; Registers used:
  6154 ;;		wreg, status,2, status,0
  6155 ;; Tracked objects:
  6156 ;;		On entry : 0/0
  6157 ;;		On exit  : 0/0
  6158 ;;		Unchanged: 0/0
  6159 ;; Data sizes:     COMMON   BANK0   BANK1   BANK2   BANK3   BANK4   BANK5   BANK6
  6160 ;;      Params:         2       0       0       0       0       0       0       0
  6161 ;;      Locals:         5       0       0       0       0       0       0       0
  6162 ;;      Temps:          2       0       0       0       0       0       0       0
  6163 ;;      Totals:         9       0       0       0       0       0       0       0
  6164 ;;Total ram usage:        9 bytes
  6165 ;; Hardware stack levels used: 1
  6166 ;; This function calls:
  6167 ;;		Nothing
  6168 ;; This function is called by:
  6169 ;;		___flmul
  6170 ;; This function uses a non-reentrant model
  6171 ;;
  6172                           
  6173  0B2D                     __Umul8_16:	
  6174                           ;psect for function __Umul8_16
  6175                           
  6176                           
  6177                           ;incstack = 0
  6178                           ; Regs used in __Umul8_16: [wreg+status,2+status,0]
  6179                           ;__Umul8_16@multiplier stored from wreg
  6180  0B2D  00F8               	movwf	__Umul8_16@multiplier
  6181  0B2E                     l2136:
  6182  0B2E  01F4               	clrf	__Umul8_16@product
  6183  0B2F  01F5               	clrf	__Umul8_16@product+1
  6184  0B30                     l2138:
  6185  0B30  0870               	movf	__Umul8_16@multiplicand,w
  6186  0B31  00F2               	movwf	??__Umul8_16
  6187  0B32  01F3               	clrf	??__Umul8_16+1
  6188  0B33  0872               	movf	??__Umul8_16,w
  6189  0B34  00F6               	movwf	__Umul8_16@word_mpld
  6190  0B35  0873               	movf	??__Umul8_16+1,w
  6191  0B36  00F7               	movwf	__Umul8_16@word_mpld+1
  6192  0B37                     l2140:
  6193  0B37  1C78               	btfss	__Umul8_16@multiplier,0
  6194  0B38  2B3A               	goto	u2171
  6195  0B39  2B3B               	goto	u2170
  6196  0B3A                     u2171:
  6197  0B3A  2B3F               	goto	l733
  6198  0B3B                     u2170:
  6199  0B3B                     l2142:
  6200  0B3B  0876               	movf	__Umul8_16@word_mpld,w
  6201  0B3C  07F4               	addwf	__Umul8_16@product,f
  6202  0B3D  0877               	movf	__Umul8_16@word_mpld+1,w
  6203  0B3E  3DF5               	addwfc	__Umul8_16@product+1,f
  6204  0B3F                     l733:
  6205  0B3F  3001               	movlw	1
  6206  0B40                     u2185:
  6207  0B40  35F6               	lslf	__Umul8_16@word_mpld,f
  6208  0B41  0DF7               	rlf	__Umul8_16@word_mpld+1,f
  6209  0B42  0B89               	decfsz	9,f
  6210  0B43  2B40               	goto	u2185
  6211  0B44  1003               	clrc
  6212  0B45  0CF8               	rrf	__Umul8_16@multiplier,f
  6213  0B46                     l2144:
  6214  0B46  0878               	movf	__Umul8_16@multiplier,w
  6215  0B47  1D03               	btfss	3,2
  6216  0B48  2B4A               	goto	u2191
  6217  0B49  2B4B               	goto	u2190
  6218  0B4A                     u2191:
  6219  0B4A  2B37               	goto	l2140
  6220  0B4B                     u2190:
  6221  0B4B                     l2146:
  6222  0B4B  0875               	movf	__Umul8_16@product+1,w
  6223  0B4C  00F1               	movwf	?__Umul8_16+1
  6224  0B4D  0874               	movf	__Umul8_16@product,w
  6225  0B4E  00F0               	movwf	?__Umul8_16
  6226  0B4F                     l735:
  6227  0B4F  0008               	return
  6228  0B50                     __end_of__Umul8_16:
  6229                           
  6230                           	psect	text18
  6231  00FC                     __ptext18:	
  6232 ;; *************** function ___fladd *****************
  6233 ;; Defined at:
  6234 ;;		line 10 in file "C:\Program Files\Microchip\xc8\v2.36\pic\sources\c99\common\sprcadd.c"
  6235 ;; Parameters:    Size  Location     Type
  6236 ;;  b               4   26[BANK0 ] unsigned int 
  6237 ;;  a               4   30[BANK0 ] unsigned int 
  6238 ;; Auto vars:     Size  Location     Type
  6239 ;;  grs             1   45[BANK0 ] unsigned char 
  6240 ;;  bexp            1   44[BANK0 ] unsigned char 
  6241 ;;  aexp            1   43[BANK0 ] unsigned char 
  6242 ;;  signs           1   42[BANK0 ] unsigned char 
  6243 ;; Return value:  Size  Location     Type
  6244 ;;                  4   26[BANK0 ] unsigned char 
  6245 ;; Registers used:
  6246 ;;		wreg, status,2, status,0
  6247 ;; Tracked objects:
  6248 ;;		On entry : 0/0
  6249 ;;		On exit  : 0/0
  6250 ;;		Unchanged: 0/0
  6251 ;; Data sizes:     COMMON   BANK0   BANK1   BANK2   BANK3   BANK4   BANK5   BANK6
  6252 ;;      Params:         0       8       0       0       0       0       0       0
  6253 ;;      Locals:         0       4       0       0       0       0       0       0
  6254 ;;      Temps:          0       8       0       0       0       0       0       0
  6255 ;;      Totals:         0      20       0       0       0       0       0       0
  6256 ;;Total ram usage:       20 bytes
  6257 ;; Hardware stack levels used: 1
  6258 ;; This function calls:
  6259 ;;		Nothing
  6260 ;; This function is called by:
  6261 ;;		_main
  6262 ;; This function uses a non-reentrant model
  6263 ;;
  6264                           
  6265  00FC                     ___fladd:	
  6266                           ;psect for function ___fladd
  6267                           
  6268  00FC                     l2262:	
  6269                           ;incstack = 0
  6270                           ; Regs used in ___fladd: [wreg+status,2+status,0]
  6271                           
  6272  00FC  0020               	movlb	0	; select bank0
  6273  00FD  083D               	movf	___fladd@b+3,w
  6274  00FE  3980               	andlw	128
  6275  00FF  00C2               	movwf	??___fladd
  6276  0100  0842               	movf	??___fladd,w
  6277  0101  00CA               	movwf	___fladd@signs
  6278  0102                     l2264:
  6279  0102  353D               	lslf	___fladd@b+3,w
  6280  0103  00C2               	movwf	??___fladd
  6281  0104  0842               	movf	??___fladd,w
  6282  0105  00CC               	movwf	___fladd@bexp
  6283  0106                     l2266:
  6284  0106  1FBC               	btfss	___fladd@b+2,7
  6285  0107  2909               	goto	u2371
  6286  0108  290A               	goto	u2370
  6287  0109                     u2371:
  6288  0109  290B               	goto	l2270
  6289  010A                     u2370:
  6290  010A                     l2268:
  6291  010A  144C               	bsf	___fladd@bexp,0
  6292  010B                     l2270:
  6293  010B  084C               	movf	___fladd@bexp,w
  6294  010C  1903               	btfsc	3,2
  6295  010D  290F               	goto	u2381
  6296  010E  2910               	goto	u2380
  6297  010F                     u2381:
  6298  010F  2920               	goto	l2280
  6299  0110                     u2380:
  6300  0110                     l2272:
  6301  0110  0A4C               	incf	___fladd@bexp,w
  6302  0111  1D03               	btfss	3,2
  6303  0112  2914               	goto	u2391
  6304  0113  2915               	goto	u2390
  6305  0114                     u2391:
  6306  0114  291D               	goto	l2276
  6307  0115                     u2390:
  6308  0115                     l2274:
  6309  0115  3000               	movlw	0
  6310  0116  00BD               	movwf	___fladd@b+3
  6311  0117  3000               	movlw	0
  6312  0118  00BC               	movwf	___fladd@b+2
  6313  0119  3000               	movlw	0
  6314  011A  00BB               	movwf	___fladd@b+1
  6315  011B  3000               	movlw	0
  6316  011C  00BA               	movwf	___fladd@b
  6317  011D                     l2276:
  6318  011D  17BC               	bsf	___fladd@b+2,7
  6319  011E                     l2278:
  6320  011E  01BD               	clrf	___fladd@b+3
  6321  011F  2928               	goto	l2282
  6322  0120                     l2280:
  6323  0120  3000               	movlw	0
  6324  0121  00BD               	movwf	___fladd@b+3
  6325  0122  3000               	movlw	0
  6326  0123  00BC               	movwf	___fladd@b+2
  6327  0124  3000               	movlw	0
  6328  0125  00BB               	movwf	___fladd@b+1
  6329  0126  3000               	movlw	0
  6330  0127  00BA               	movwf	___fladd@b
  6331  0128                     l2282:
  6332  0128  0841               	movf	___fladd@a+3,w
  6333  0129  3980               	andlw	128
  6334  012A  00C2               	movwf	??___fladd
  6335  012B  0842               	movf	??___fladd,w
  6336  012C  00CB               	movwf	___fladd@aexp
  6337  012D                     l2284:
  6338  012D  084B               	movf	___fladd@aexp,w
  6339  012E  064A               	xorwf	___fladd@signs,w
  6340  012F  1903               	skipnz
  6341  0130  2932               	goto	u2401
  6342  0131  2933               	goto	u2400
  6343  0132                     u2401:
  6344  0132  2934               	goto	l2288
  6345  0133                     u2400:
  6346  0133                     l2286:
  6347  0133  174A               	bsf	___fladd@signs,6
  6348  0134                     l2288:
  6349  0134  3541               	lslf	___fladd@a+3,w
  6350  0135  00C2               	movwf	??___fladd
  6351  0136  0842               	movf	??___fladd,w
  6352  0137  00CB               	movwf	___fladd@aexp
  6353  0138                     l2290:
  6354  0138  1FC0               	btfss	___fladd@a+2,7
  6355  0139  293B               	goto	u2411
  6356  013A  293C               	goto	u2410
  6357  013B                     u2411:
  6358  013B  293D               	goto	l2294
  6359  013C                     u2410:
  6360  013C                     l2292:
  6361  013C  144B               	bsf	___fladd@aexp,0
  6362  013D                     l2294:
  6363  013D  084B               	movf	___fladd@aexp,w
  6364  013E  1903               	btfsc	3,2
  6365  013F  2941               	goto	u2421
  6366  0140  2942               	goto	u2420
  6367  0141                     u2421:
  6368  0141  2952               	goto	l2304
  6369  0142                     u2420:
  6370  0142                     l2296:
  6371  0142  0A4B               	incf	___fladd@aexp,w
  6372  0143  1D03               	btfss	3,2
  6373  0144  2946               	goto	u2431
  6374  0145  2947               	goto	u2430
  6375  0146                     u2431:
  6376  0146  294F               	goto	l2300
  6377  0147                     u2430:
  6378  0147                     l2298:
  6379  0147  3000               	movlw	0
  6380  0148  00C1               	movwf	___fladd@a+3
  6381  0149  3000               	movlw	0
  6382  014A  00C0               	movwf	___fladd@a+2
  6383  014B  3000               	movlw	0
  6384  014C  00BF               	movwf	___fladd@a+1
  6385  014D  3000               	movlw	0
  6386  014E  00BE               	movwf	___fladd@a
  6387  014F                     l2300:
  6388  014F  17C0               	bsf	___fladd@a+2,7
  6389  0150                     l2302:
  6390  0150  01C1               	clrf	___fladd@a+3
  6391  0151  295A               	goto	l618
  6392  0152                     l2304:
  6393  0152  3000               	movlw	0
  6394  0153  00C1               	movwf	___fladd@a+3
  6395  0154  3000               	movlw	0
  6396  0155  00C0               	movwf	___fladd@a+2
  6397  0156  3000               	movlw	0
  6398  0157  00BF               	movwf	___fladd@a+1
  6399  0158  3000               	movlw	0
  6400  0159  00BE               	movwf	___fladd@a
  6401  015A                     l618:
  6402  015A  084C               	movf	___fladd@bexp,w
  6403  015B  024B               	subwf	___fladd@aexp,w
  6404  015C  1803               	skipnc
  6405  015D  295F               	goto	u2441
  6406  015E  2960               	goto	u2440
  6407  015F                     u2441:
  6408  015F  29A4               	goto	l2340
  6409  0160                     u2440:
  6410  0160                     l2306:
  6411  0160  1F4A               	btfss	___fladd@signs,6
  6412  0161  2963               	goto	u2451
  6413  0162  2964               	goto	u2450
  6414  0163                     u2451:
  6415  0163  2968               	goto	l2310
  6416  0164                     u2450:
  6417  0164                     l2308:
  6418  0164  3080               	movlw	128
  6419  0165  00C2               	movwf	??___fladd
  6420  0166  0842               	movf	??___fladd,w
  6421  0167  06CA               	xorwf	___fladd@signs,f
  6422  0168                     l2310:
  6423  0168  084C               	movf	___fladd@bexp,w
  6424  0169  00C2               	movwf	??___fladd
  6425  016A  0842               	movf	??___fladd,w
  6426  016B  00CD               	movwf	___fladd@grs
  6427  016C                     l2312:
  6428  016C  084B               	movf	___fladd@aexp,w
  6429  016D  00C2               	movwf	??___fladd
  6430  016E  0842               	movf	??___fladd,w
  6431  016F  00CC               	movwf	___fladd@bexp
  6432  0170                     l2314:
  6433  0170  084D               	movf	___fladd@grs,w
  6434  0171  00C2               	movwf	??___fladd
  6435  0172  0842               	movf	??___fladd,w
  6436  0173  00CB               	movwf	___fladd@aexp
  6437  0174                     l2316:
  6438  0174  083A               	movf	___fladd@b,w
  6439  0175  00C2               	movwf	??___fladd
  6440  0176  0842               	movf	??___fladd,w
  6441  0177  00CD               	movwf	___fladd@grs
  6442  0178                     l2318:
  6443  0178  083E               	movf	___fladd@a,w
  6444  0179  00C2               	movwf	??___fladd
  6445  017A  0842               	movf	??___fladd,w
  6446  017B  00BA               	movwf	___fladd@b
  6447  017C                     l2320:
  6448  017C  084D               	movf	___fladd@grs,w
  6449  017D  00C2               	movwf	??___fladd
  6450  017E  0842               	movf	??___fladd,w
  6451  017F  00BE               	movwf	___fladd@a
  6452  0180                     l2322:
  6453  0180  083B               	movf	___fladd@b+1,w
  6454  0181  00C2               	movwf	??___fladd
  6455  0182  0842               	movf	??___fladd,w
  6456  0183  00CD               	movwf	___fladd@grs
  6457  0184                     l2324:
  6458  0184  083F               	movf	___fladd@a+1,w
  6459  0185  00C2               	movwf	??___fladd
  6460  0186  0842               	movf	??___fladd,w
  6461  0187  00BB               	movwf	___fladd@b+1
  6462  0188                     l2326:
  6463  0188  084D               	movf	___fladd@grs,w
  6464  0189  00C2               	movwf	??___fladd
  6465  018A  0842               	movf	??___fladd,w
  6466  018B  00BF               	movwf	___fladd@a+1
  6467  018C                     l2328:
  6468  018C  083C               	movf	___fladd@b+2,w
  6469  018D  00C2               	movwf	??___fladd
  6470  018E  0842               	movf	??___fladd,w
  6471  018F  00CD               	movwf	___fladd@grs
  6472  0190                     l2330:
  6473  0190  0840               	movf	___fladd@a+2,w
  6474  0191  00C2               	movwf	??___fladd
  6475  0192  0842               	movf	??___fladd,w
  6476  0193  00BC               	movwf	___fladd@b+2
  6477  0194                     l2332:
  6478  0194  084D               	movf	___fladd@grs,w
  6479  0195  00C2               	movwf	??___fladd
  6480  0196  0842               	movf	??___fladd,w
  6481  0197  00C0               	movwf	___fladd@a+2
  6482  0198                     l2334:
  6483  0198  083D               	movf	___fladd@b+3,w
  6484  0199  00C2               	movwf	??___fladd
  6485  019A  0842               	movf	??___fladd,w
  6486  019B  00CD               	movwf	___fladd@grs
  6487  019C                     l2336:
  6488  019C  0841               	movf	___fladd@a+3,w
  6489  019D  00C2               	movwf	??___fladd
  6490  019E  0842               	movf	??___fladd,w
  6491  019F  00BD               	movwf	___fladd@b+3
  6492  01A0                     l2338:
  6493  01A0  084D               	movf	___fladd@grs,w
  6494  01A1  00C2               	movwf	??___fladd
  6495  01A2  0842               	movf	??___fladd,w
  6496  01A3  00C1               	movwf	___fladd@a+3
  6497  01A4                     l2340:
  6498  01A4  01CD               	clrf	___fladd@grs
  6499  01A5                     l2342:
  6500  01A5  084B               	movf	___fladd@aexp,w
  6501  01A6  00C2               	movwf	??___fladd
  6502  01A7  01C3               	clrf	??___fladd+1
  6503  01A8  0843               	movf	??___fladd+1,w
  6504  01A9  00C5               	movwf	??___fladd+3
  6505  01AA  084C               	movf	___fladd@bexp,w
  6506  01AB  0242               	subwf	??___fladd,w
  6507  01AC  00C4               	movwf	??___fladd+2
  6508  01AD  1C03               	skipc
  6509  01AE  03C5               	decf	??___fladd+3,f
  6510  01AF  0845               	movf	??___fladd+3,w
  6511  01B0  3A80               	xorlw	128
  6512  01B1  00C6               	movwf	??___fladd+4
  6513  01B2  3080               	movlw	128
  6514  01B3  0246               	subwf	??___fladd+4,w
  6515  01B4  1D03               	skipz
  6516  01B5  29B8               	goto	u2465
  6517  01B6  301A               	movlw	26
  6518  01B7  0244               	subwf	??___fladd+2,w
  6519  01B8                     u2465:
  6520  01B8  1C03               	skipc
  6521  01B9  29BB               	goto	u2461
  6522  01BA  29BC               	goto	u2460
  6523  01BB                     u2461:
  6524  01BB  29F4               	goto	l2358
  6525  01BC                     u2460:
  6526  01BC                     l2344:
  6527  01BC  0020               	movlb	0	; select bank0
  6528  01BD  083D               	movf	___fladd@b+3,w
  6529  01BE  043C               	iorwf	___fladd@b+2,w
  6530  01BF  043B               	iorwf	___fladd@b+1,w
  6531  01C0  043A               	iorwf	___fladd@b,w
  6532  01C1  1D03               	skipz
  6533  01C2  29C4               	goto	u2471
  6534  01C3  29C6               	goto	u2470
  6535  01C4                     u2471:
  6536  01C4  3001               	movlw	1
  6537  01C5  29C7               	goto	u2480
  6538  01C6                     u2470:
  6539  01C6  3000               	movlw	0
  6540  01C7                     u2480:
  6541  01C7  00C2               	movwf	??___fladd
  6542  01C8  0842               	movf	??___fladd,w
  6543  01C9  00CD               	movwf	___fladd@grs
  6544  01CA  3000               	movlw	0
  6545  01CB  00BD               	movwf	___fladd@b+3
  6546  01CC  3000               	movlw	0
  6547  01CD  00BC               	movwf	___fladd@b+2
  6548  01CE  3000               	movlw	0
  6549  01CF  00BB               	movwf	___fladd@b+1
  6550  01D0  3000               	movlw	0
  6551  01D1  00BA               	movwf	___fladd@b
  6552  01D2  084B               	movf	___fladd@aexp,w
  6553  01D3  00C2               	movwf	??___fladd
  6554  01D4  0842               	movf	??___fladd,w
  6555  01D5  00CC               	movwf	___fladd@bexp
  6556  01D6  29FB               	goto	l622
  6557  01D7                     l624:
  6558  01D7  1C4D               	btfss	___fladd@grs,0
  6559  01D8  29DA               	goto	u2491
  6560  01D9  29DB               	goto	u2490
  6561  01DA                     u2491:
  6562  01DA  29E1               	goto	l2348
  6563  01DB                     u2490:
  6564  01DB                     l2346:
  6565  01DB  364D               	lsrf	___fladd@grs,w
  6566  01DC  3801               	iorlw	1
  6567  01DD  00C2               	movwf	??___fladd
  6568  01DE  0842               	movf	??___fladd,w
  6569  01DF  00CD               	movwf	___fladd@grs
  6570  01E0  29E3               	goto	l2350
  6571  01E1                     l2348:
  6572  01E1  1003               	clrc
  6573  01E2  0CCD               	rrf	___fladd@grs,f
  6574  01E3                     l2350:
  6575  01E3  1C3A               	btfss	___fladd@b,0
  6576  01E4  29E6               	goto	u2501
  6577  01E5  29E7               	goto	u2500
  6578  01E6                     u2501:
  6579  01E6  29E8               	goto	l2354
  6580  01E7                     u2500:
  6581  01E7                     l2352:
  6582  01E7  17CD               	bsf	___fladd@grs,7
  6583  01E8                     l2354:
  6584  01E8  3001               	movlw	1
  6585  01E9  00C2               	movwf	??___fladd
  6586  01EA                     u2515:
  6587  01EA  37BD               	asrf	___fladd@b+3,f
  6588  01EB  0CBC               	rrf	___fladd@b+2,f
  6589  01EC  0CBB               	rrf	___fladd@b+1,f
  6590  01ED  0CBA               	rrf	___fladd@b,f
  6591  01EE  0BC2               	decfsz	??___fladd& (0+127),f
  6592  01EF  29EA               	goto	u2515
  6593  01F0                     l2356:
  6594  01F0  3001               	movlw	1
  6595  01F1  00C2               	movwf	??___fladd
  6596  01F2  0842               	movf	??___fladd,w
  6597  01F3  07CC               	addwf	___fladd@bexp,f
  6598  01F4                     l2358:
  6599  01F4  0020               	movlb	0	; select bank0
  6600  01F5  084B               	movf	___fladd@aexp,w
  6601  01F6  024C               	subwf	___fladd@bexp,w
  6602  01F7  1C03               	skipc
  6603  01F8  29FA               	goto	u2521
  6604  01F9  29FB               	goto	u2520
  6605  01FA                     u2521:
  6606  01FA  29D7               	goto	l624
  6607  01FB                     u2520:
  6608  01FB                     l622:
  6609  01FB  1B4A               	btfsc	___fladd@signs,6
  6610  01FC  29FE               	goto	u2531
  6611  01FD  29FF               	goto	u2530
  6612  01FE                     u2531:
  6613  01FE  2A37               	goto	l2384
  6614  01FF                     u2530:
  6615  01FF                     l2360:
  6616  01FF  084C               	movf	___fladd@bexp,w
  6617  0200  1D03               	btfss	3,2
  6618  0201  2A03               	goto	u2541
  6619  0202  2A04               	goto	u2540
  6620  0203                     u2541:
  6621  0203  2A0D               	goto	l2366
  6622  0204                     u2540:
  6623  0204                     l2362:
  6624  0204  3000               	movlw	0
  6625  0205  00BD               	movwf	?___fladd+3
  6626  0206  3000               	movlw	0
  6627  0207  00BC               	movwf	?___fladd+2
  6628  0208  3000               	movlw	0
  6629  0209  00BB               	movwf	?___fladd+1
  6630  020A  3000               	movlw	0
  6631  020B  00BA               	movwf	?___fladd
  6632  020C  2B33               	goto	l631
  6633  020D                     l2366:
  6634  020D  083E               	movf	___fladd@a,w
  6635  020E  07BA               	addwf	___fladd@b,f
  6636  020F  083F               	movf	___fladd@a+1,w
  6637  0210  3DBB               	addwfc	___fladd@b+1,f
  6638  0211  0840               	movf	___fladd@a+2,w
  6639  0212  3DBC               	addwfc	___fladd@b+2,f
  6640  0213  0841               	movf	___fladd@a+3,w
  6641  0214  3DBD               	addwfc	___fladd@b+3,f
  6642  0215                     l2368:
  6643  0215  1C3D               	btfss	___fladd@b+3,0
  6644  0216  2A18               	goto	u2551
  6645  0217  2A19               	goto	u2550
  6646  0218                     u2551:
  6647  0218  2AC3               	goto	l2418
  6648  0219                     u2550:
  6649  0219                     l2370:
  6650  0219  1C4D               	btfss	___fladd@grs,0
  6651  021A  2A1C               	goto	u2561
  6652  021B  2A1D               	goto	u2560
  6653  021C                     u2561:
  6654  021C  2A23               	goto	l2374
  6655  021D                     u2560:
  6656  021D                     l2372:
  6657  021D  364D               	lsrf	___fladd@grs,w
  6658  021E  3801               	iorlw	1
  6659  021F  00C2               	movwf	??___fladd
  6660  0220  0842               	movf	??___fladd,w
  6661  0221  00CD               	movwf	___fladd@grs
  6662  0222  2A25               	goto	l2376
  6663  0223                     l2374:
  6664  0223  1003               	clrc
  6665  0224  0CCD               	rrf	___fladd@grs,f
  6666  0225                     l2376:
  6667  0225  1C3A               	btfss	___fladd@b,0
  6668  0226  2A28               	goto	u2571
  6669  0227  2A29               	goto	u2570
  6670  0228                     u2571:
  6671  0228  2A2A               	goto	l2380
  6672  0229                     u2570:
  6673  0229                     l2378:
  6674  0229  17CD               	bsf	___fladd@grs,7
  6675  022A                     l2380:
  6676  022A  3001               	movlw	1
  6677  022B  00C2               	movwf	??___fladd
  6678  022C                     u2585:
  6679  022C  37BD               	asrf	___fladd@b+3,f
  6680  022D  0CBC               	rrf	___fladd@b+2,f
  6681  022E  0CBB               	rrf	___fladd@b+1,f
  6682  022F  0CBA               	rrf	___fladd@b,f
  6683  0230  0BC2               	decfsz	??___fladd& (0+127),f
  6684  0231  2A2C               	goto	u2585
  6685  0232                     l2382:
  6686  0232  3001               	movlw	1
  6687  0233  00C2               	movwf	??___fladd
  6688  0234  0842               	movf	??___fladd,w
  6689  0235  07CC               	addwf	___fladd@bexp,f
  6690  0236  2AC3               	goto	l2418
  6691  0237                     l2384:
  6692  0237  083D               	movf	___fladd@b+3,w
  6693  0238  3A80               	xorlw	128
  6694  0239  00C2               	movwf	??___fladd
  6695  023A  0841               	movf	___fladd@a+3,w
  6696  023B  3A80               	xorlw	128
  6697  023C  0242               	subwf	??___fladd,w
  6698  023D  1D03               	skipz
  6699  023E  2A49               	goto	u2593
  6700  023F  0840               	movf	___fladd@a+2,w
  6701  0240  023C               	subwf	___fladd@b+2,w
  6702  0241  1D03               	skipz
  6703  0242  2A49               	goto	u2593
  6704  0243  083F               	movf	___fladd@a+1,w
  6705  0244  023B               	subwf	___fladd@b+1,w
  6706  0245  1D03               	skipz
  6707  0246  2A49               	goto	u2593
  6708  0247  083E               	movf	___fladd@a,w
  6709  0248  023A               	subwf	___fladd@b,w
  6710  0249                     u2593:
  6711  0249  1803               	skipnc
  6712  024A  2A4C               	goto	u2591
  6713  024B  2A4D               	goto	u2590
  6714  024C                     u2591:
  6715  024C  2A85               	goto	l2394
  6716  024D                     u2590:
  6717  024D                     l2386:
  6718  024D  30FF               	movlw	255
  6719  024E  00C2               	movwf	??___fladd
  6720  024F  30FF               	movlw	255
  6721  0250  00C3               	movwf	??___fladd+1
  6722  0251  30FF               	movlw	255
  6723  0252  00C4               	movwf	??___fladd+2
  6724  0253  30FF               	movlw	255
  6725  0254  00C5               	movwf	??___fladd+3
  6726  0255  083A               	movf	___fladd@b,w
  6727  0256  023E               	subwf	___fladd@a,w
  6728  0257  00C6               	movwf	??___fladd+4
  6729  0258  083B               	movf	___fladd@b+1,w
  6730  0259  3B3F               	subwfb	___fladd@a+1,w
  6731  025A  00C7               	movwf	??___fladd+5
  6732  025B  083C               	movf	___fladd@b+2,w
  6733  025C  3B40               	subwfb	___fladd@a+2,w
  6734  025D  00C8               	movwf	??___fladd+6
  6735  025E  083D               	movf	___fladd@b+3,w
  6736  025F  3B41               	subwfb	___fladd@a+3,w
  6737  0260  00C9               	movwf	??___fladd+7
  6738  0261  0846               	movf	??___fladd+4,w
  6739  0262  07C2               	addwf	??___fladd,f
  6740  0263  0847               	movf	??___fladd+5,w
  6741  0264  3DC3               	addwfc	??___fladd+1,f
  6742  0265  0848               	movf	??___fladd+6,w
  6743  0266  3DC4               	addwfc	??___fladd+2,f
  6744  0267  0849               	movf	??___fladd+7,w
  6745  0268  3DC5               	addwfc	??___fladd+3,f
  6746  0269  0845               	movf	??___fladd+3,w
  6747  026A  00BD               	movwf	___fladd@b+3
  6748  026B  0844               	movf	??___fladd+2,w
  6749  026C  00BC               	movwf	___fladd@b+2
  6750  026D  0843               	movf	??___fladd+1,w
  6751  026E  00BB               	movwf	___fladd@b+1
  6752  026F  0842               	movf	??___fladd,w
  6753  0270  00BA               	movwf	___fladd@b
  6754  0271                     l2388:
  6755  0271  3080               	movlw	128
  6756  0272  00C2               	movwf	??___fladd
  6757  0273  0842               	movf	??___fladd,w
  6758  0274  06CA               	xorwf	___fladd@signs,f
  6759  0275  09CD               	comf	___fladd@grs,f
  6760  0276  0ACD               	incf	___fladd@grs,f
  6761  0277                     l2390:
  6762  0277  084D               	movf	___fladd@grs,w
  6763  0278  1D03               	btfss	3,2
  6764  0279  2A7B               	goto	u2601
  6765  027A  2A7C               	goto	u2600
  6766  027B                     u2601:
  6767  027B  2A8D               	goto	l639
  6768  027C                     u2600:
  6769  027C                     l2392:
  6770  027C  3001               	movlw	1
  6771  027D  07BA               	addwf	___fladd@b,f
  6772  027E  3000               	movlw	0
  6773  027F  3DBB               	addwfc	___fladd@b+1,f
  6774  0280  3000               	movlw	0
  6775  0281  3DBC               	addwfc	___fladd@b+2,f
  6776  0282  3000               	movlw	0
  6777  0283  3DBD               	addwfc	___fladd@b+3,f
  6778  0284  2A8D               	goto	l639
  6779  0285                     l2394:
  6780  0285  083E               	movf	___fladd@a,w
  6781  0286  02BA               	subwf	___fladd@b,f
  6782  0287  083F               	movf	___fladd@a+1,w
  6783  0288  3BBB               	subwfb	___fladd@b+1,f
  6784  0289  0840               	movf	___fladd@a+2,w
  6785  028A  3BBC               	subwfb	___fladd@b+2,f
  6786  028B  0841               	movf	___fladd@a+3,w
  6787  028C  3BBD               	subwfb	___fladd@b+3,f
  6788  028D                     l639:
  6789  028D  083D               	movf	___fladd@b+3,w
  6790  028E  043C               	iorwf	___fladd@b+2,w
  6791  028F  043B               	iorwf	___fladd@b+1,w
  6792  0290  043A               	iorwf	___fladd@b,w
  6793  0291  1D03               	skipz
  6794  0292  2A94               	goto	u2611
  6795  0293  2A95               	goto	u2610
  6796  0294                     u2611:
  6797  0294  2ABF               	goto	l2416
  6798  0295                     u2610:
  6799  0295                     l2396:
  6800  0295  084D               	movf	___fladd@grs,w
  6801  0296  1D03               	btfss	3,2
  6802  0297  2A99               	goto	u2621
  6803  0298  2A9A               	goto	u2620
  6804  0299                     u2621:
  6805  0299  2ABF               	goto	l2416
  6806  029A                     u2620:
  6807  029A                     l2398:
  6808  029A  3000               	movlw	0
  6809  029B  00BD               	movwf	?___fladd+3
  6810  029C  3000               	movlw	0
  6811  029D  00BC               	movwf	?___fladd+2
  6812  029E  3000               	movlw	0
  6813  029F  00BB               	movwf	?___fladd+1
  6814  02A0  3000               	movlw	0
  6815  02A1  00BA               	movwf	?___fladd
  6816  02A2  2B33               	goto	l631
  6817  02A3                     l2402:
  6818  02A3  3001               	movlw	1
  6819  02A4                     u2635:
  6820  02A4  35BA               	lslf	___fladd@b,f
  6821  02A5  0DBB               	rlf	___fladd@b+1,f
  6822  02A6  0DBC               	rlf	___fladd@b+2,f
  6823  02A7  0DBD               	rlf	___fladd@b+3,f
  6824  02A8  0B89               	decfsz	9,f
  6825  02A9  2AA4               	goto	u2635
  6826  02AA                     l2404:
  6827  02AA  1FCD               	btfss	___fladd@grs,7
  6828  02AB  2AAD               	goto	u2641
  6829  02AC  2AAE               	goto	u2640
  6830  02AD                     u2641:
  6831  02AD  2AAF               	goto	l643
  6832  02AE                     u2640:
  6833  02AE                     l2406:
  6834  02AE  143A               	bsf	___fladd@b,0
  6835  02AF                     l643:
  6836  02AF  1C4D               	btfss	___fladd@grs,0
  6837  02B0  2AB2               	goto	u2651
  6838  02B1  2AB3               	goto	u2650
  6839  02B2                     u2651:
  6840  02B2  2AB6               	goto	l2410
  6841  02B3                     u2650:
  6842  02B3                     l2408:
  6843  02B3  1403               	setc
  6844  02B4  0DCD               	rlf	___fladd@grs,f
  6845  02B5  2AB8               	goto	l2412
  6846  02B6                     l2410:
  6847  02B6  1003               	clrc
  6848  02B7  0DCD               	rlf	___fladd@grs,f
  6849  02B8                     l2412:
  6850  02B8  084C               	movf	___fladd@bexp,w
  6851  02B9  1903               	btfsc	3,2
  6852  02BA  2ABC               	goto	u2661
  6853  02BB  2ABD               	goto	u2660
  6854  02BC                     u2661:
  6855  02BC  2ABF               	goto	l2416
  6856  02BD                     u2660:
  6857  02BD                     l2414:
  6858  02BD  3001               	movlw	1
  6859  02BE  02CC               	subwf	___fladd@bexp,f
  6860  02BF                     l2416:
  6861  02BF  1FBC               	btfss	___fladd@b+2,7
  6862  02C0  2AC2               	goto	u2671
  6863  02C1  2AC3               	goto	u2670
  6864  02C2                     u2671:
  6865  02C2  2AA3               	goto	l2402
  6866  02C3                     u2670:
  6867  02C3                     l2418:
  6868  02C3  01CB               	clrf	___fladd@aexp
  6869  02C4                     l2420:
  6870  02C4  1FCD               	btfss	___fladd@grs,7
  6871  02C5  2AC7               	goto	u2681
  6872  02C6  2AC8               	goto	u2680
  6873  02C7                     u2681:
  6874  02C7  2AD6               	goto	l2428
  6875  02C8                     u2680:
  6876  02C8                     l2422:
  6877  02C8  084D               	movf	___fladd@grs,w
  6878  02C9  397F               	andlw	127
  6879  02CA  1903               	btfsc	3,2
  6880  02CB  2ACD               	goto	u2691
  6881  02CC  2ACE               	goto	u2690
  6882  02CD                     u2691:
  6883  02CD  2AD1               	goto	l649
  6884  02CE                     u2690:
  6885  02CE                     l2424:
  6886  02CE  01CB               	clrf	___fladd@aexp
  6887  02CF  0ACB               	incf	___fladd@aexp,f
  6888  02D0  2AD6               	goto	l2428
  6889  02D1                     l649:
  6890  02D1  1C3A               	btfss	___fladd@b,0
  6891  02D2  2AD4               	goto	u2701
  6892  02D3  2AD5               	goto	u2700
  6893  02D4                     u2701:
  6894  02D4  2AD6               	goto	l2428
  6895  02D5                     u2700:
  6896  02D5  2ACE               	goto	l2424
  6897  02D6                     l2428:
  6898  02D6  084B               	movf	___fladd@aexp,w
  6899  02D7  1903               	btfsc	3,2
  6900  02D8  2ADA               	goto	u2711
  6901  02D9  2ADB               	goto	u2710
  6902  02DA                     u2711:
  6903  02DA  2B08               	goto	l652
  6904  02DB                     u2710:
  6905  02DB                     l2430:
  6906  02DB  3001               	movlw	1
  6907  02DC  07BA               	addwf	___fladd@b,f
  6908  02DD  3000               	movlw	0
  6909  02DE  3DBB               	addwfc	___fladd@b+1,f
  6910  02DF  3000               	movlw	0
  6911  02E0  3DBC               	addwfc	___fladd@b+2,f
  6912  02E1  3000               	movlw	0
  6913  02E2  3DBD               	addwfc	___fladd@b+3,f
  6914  02E3                     l2432:
  6915  02E3  1C3D               	btfss	___fladd@b+3,0
  6916  02E4  2AE6               	goto	u2721
  6917  02E5  2AE7               	goto	u2720
  6918  02E6                     u2721:
  6919  02E6  2B08               	goto	l652
  6920  02E7                     u2720:
  6921  02E7                     l2434:
  6922  02E7  083A               	movf	___fladd@b,w
  6923  02E8  00C2               	movwf	??___fladd
  6924  02E9  083B               	movf	___fladd@b+1,w
  6925  02EA  00C3               	movwf	??___fladd+1
  6926  02EB  083C               	movf	___fladd@b+2,w
  6927  02EC  00C4               	movwf	??___fladd+2
  6928  02ED  083D               	movf	___fladd@b+3,w
  6929  02EE  00C5               	movwf	??___fladd+3
  6930  02EF  3001               	movlw	1
  6931  02F0  00C6               	movwf	??___fladd+4
  6932  02F1                     u2735:
  6933  02F1  37C5               	asrf	??___fladd+3,f
  6934  02F2  0CC4               	rrf	??___fladd+2,f
  6935  02F3  0CC3               	rrf	??___fladd+1,f
  6936  02F4  0CC2               	rrf	??___fladd,f
  6937  02F5                     u2730:
  6938  02F5  0BC6               	decfsz	??___fladd+4,f
  6939  02F6  2AF1               	goto	u2735
  6940  02F7  0845               	movf	??___fladd+3,w
  6941  02F8  00BD               	movwf	___fladd@b+3
  6942  02F9  0844               	movf	??___fladd+2,w
  6943  02FA  00BC               	movwf	___fladd@b+2
  6944  02FB  0843               	movf	??___fladd+1,w
  6945  02FC  00BB               	movwf	___fladd@b+1
  6946  02FD  0842               	movf	??___fladd,w
  6947  02FE  00BA               	movwf	___fladd@b
  6948  02FF  0A4C               	incf	___fladd@bexp,w
  6949  0300  1903               	btfsc	3,2
  6950  0301  2B03               	goto	u2741
  6951  0302  2B04               	goto	u2740
  6952  0303                     u2741:
  6953  0303  2B08               	goto	l652
  6954  0304                     u2740:
  6955  0304                     l2436:
  6956  0304  3001               	movlw	1
  6957  0305  00C2               	movwf	??___fladd
  6958  0306  0842               	movf	??___fladd,w
  6959  0307  07CC               	addwf	___fladd@bexp,f
  6960  0308                     l652:
  6961  0308  0A4C               	incf	___fladd@bexp,w
  6962  0309  1903               	btfsc	3,2
  6963  030A  2B0C               	goto	u2751
  6964  030B  2B0D               	goto	u2750
  6965  030C                     u2751:
  6966  030C  2B12               	goto	l2440
  6967  030D                     u2750:
  6968  030D                     l2438:
  6969  030D  084C               	movf	___fladd@bexp,w
  6970  030E  1D03               	btfss	3,2
  6971  030F  2B11               	goto	u2761
  6972  0310  2B12               	goto	u2760
  6973  0311                     u2761:
  6974  0311  2B20               	goto	l2446
  6975  0312                     u2760:
  6976  0312                     l2440:
  6977  0312  3000               	movlw	0
  6978  0313  00BD               	movwf	___fladd@b+3
  6979  0314  3000               	movlw	0
  6980  0315  00BC               	movwf	___fladd@b+2
  6981  0316  3000               	movlw	0
  6982  0317  00BB               	movwf	___fladd@b+1
  6983  0318  3000               	movlw	0
  6984  0319  00BA               	movwf	___fladd@b
  6985  031A                     l2442:
  6986  031A  084C               	movf	___fladd@bexp,w
  6987  031B  1D03               	btfss	3,2
  6988  031C  2B1E               	goto	u2771
  6989  031D  2B1F               	goto	u2770
  6990  031E                     u2771:
  6991  031E  2B20               	goto	l2446
  6992  031F                     u2770:
  6993  031F                     l2444:
  6994  031F  01CA               	clrf	___fladd@signs
  6995  0320                     l2446:
  6996  0320  1C4C               	btfss	___fladd@bexp,0
  6997  0321  2B23               	goto	u2781
  6998  0322  2B24               	goto	u2780
  6999  0323                     u2781:
  7000  0323  2B26               	goto	l2450
  7001  0324                     u2780:
  7002  0324                     l2448:
  7003  0324  17BC               	bsf	___fladd@b+2,7
  7004  0325  2B2A               	goto	l660
  7005  0326                     l2450:
  7006  0326  307F               	movlw	127
  7007  0327  00C2               	movwf	??___fladd
  7008  0328  0842               	movf	??___fladd,w
  7009  0329  05BC               	andwf	___fladd@b+2,f
  7010  032A                     l660:
  7011  032A  364C               	lsrf	___fladd@bexp,w
  7012  032B  00C2               	movwf	??___fladd
  7013  032C  0842               	movf	??___fladd,w
  7014  032D  00BD               	movwf	___fladd@b+3
  7015  032E                     l2452:
  7016  032E  1FCA               	btfss	___fladd@signs,7
  7017  032F  2B31               	goto	u2791
  7018  0330  2B32               	goto	u2790
  7019  0331                     u2791:
  7020  0331  2B33               	goto	l661
  7021  0332                     u2790:
  7022  0332                     l2454:
  7023  0332  17BD               	bsf	___fladd@b+3,7
  7024  0333                     l661:
  7025  0333                     l631:
  7026  0333  0008               	return
  7027  0334                     __end_of___fladd:
  7028                           
  7029                           	psect	text19
  7030  0A55                     __ptext19:	
  7031 ;; *************** function _SYSTEM_Initialize *****************
  7032 ;; Defined at:
  7033 ;;		line 50 in file "mcc_generated_files/mcc.c"
  7034 ;; Parameters:    Size  Location     Type
  7035 ;;		None
  7036 ;; Auto vars:     Size  Location     Type
  7037 ;;		None
  7038 ;; Return value:  Size  Location     Type
  7039 ;;                  1    wreg      void 
  7040 ;; Registers used:
  7041 ;;		wreg, status,2, status,0, pclath, cstack
  7042 ;; Tracked objects:
  7043 ;;		On entry : 0/0
  7044 ;;		On exit  : 0/0
  7045 ;;		Unchanged: 0/0
  7046 ;; Data sizes:     COMMON   BANK0   BANK1   BANK2   BANK3   BANK4   BANK5   BANK6
  7047 ;;      Params:         0       0       0       0       0       0       0       0
  7048 ;;      Locals:         0       0       0       0       0       0       0       0
  7049 ;;      Temps:          0       0       0       0       0       0       0       0
  7050 ;;      Totals:         0       0       0       0       0       0       0       0
  7051 ;;Total ram usage:        0 bytes
  7052 ;; Hardware stack levels used: 1
  7053 ;; Hardware stack levels required when called: 1
  7054 ;; This function calls:
  7055 ;;		_ADC_Initialize
  7056 ;;		_OSCILLATOR_Initialize
  7057 ;;		_PIN_MANAGER_Initialize
  7058 ;;		_PWM3_Initialize
  7059 ;;		_TMR2_Initialize
  7060 ;;		_WDT_Initialize
  7061 ;; This function is called by:
  7062 ;;		_main
  7063 ;; This function uses a non-reentrant model
  7064 ;;
  7065                           
  7066  0A55                     _SYSTEM_Initialize:	
  7067                           ;psect for function _SYSTEM_Initialize
  7068                           
  7069  0A55                     l2162:	
  7070                           ;incstack = 0
  7071                           ; Regs used in _SYSTEM_Initialize: [wreg+status,2+status,0+pclath+cstack]
  7072                           
  7073                           
  7074                           ;mcc_generated_files/mcc.c: 53:     PIN_MANAGER_Initialize();
  7075  0A55  318A  227E  318A   	fcall	_PIN_MANAGER_Initialize
  7076                           
  7077                           ;mcc_generated_files/mcc.c: 54:     OSCILLATOR_Initialize();
  7078  0A58  318A  2239  318A   	fcall	_OSCILLATOR_Initialize
  7079                           
  7080                           ;mcc_generated_files/mcc.c: 55:     WDT_Initialize();
  7081  0A5B  318A  222F  318A   	fcall	_WDT_Initialize
  7082                           
  7083                           ;mcc_generated_files/mcc.c: 56:     PWM3_Initialize();
  7084  0A5E  318A  2245  318A   	fcall	_PWM3_Initialize
  7085                           
  7086                           ;mcc_generated_files/mcc.c: 57:     TMR2_Initialize();
  7087  0A61  318A  224D  318A   	fcall	_TMR2_Initialize
  7088                           
  7089                           ;mcc_generated_files/mcc.c: 58:     ADC_Initialize();
  7090  0A64  3180  2006  318A   	fcall	_ADC_Initialize
  7091  0A67                     l53:
  7092  0A67  0008               	return
  7093  0A68                     __end_of_SYSTEM_Initialize:
  7094                           
  7095                           	psect	text20
  7096  0A2F                     __ptext20:	
  7097 ;; *************** function _WDT_Initialize *****************
  7098 ;; Defined at:
  7099 ;;		line 69 in file "mcc_generated_files/mcc.c"
  7100 ;; Parameters:    Size  Location     Type
  7101 ;;		None
  7102 ;; Auto vars:     Size  Location     Type
  7103 ;;		None
  7104 ;; Return value:  Size  Location     Type
  7105 ;;                  1    wreg      void 
  7106 ;; Registers used:
  7107 ;;		wreg
  7108 ;; Tracked objects:
  7109 ;;		On entry : 0/0
  7110 ;;		On exit  : 0/0
  7111 ;;		Unchanged: 0/0
  7112 ;; Data sizes:     COMMON   BANK0   BANK1   BANK2   BANK3   BANK4   BANK5   BANK6
  7113 ;;      Params:         0       0       0       0       0       0       0       0
  7114 ;;      Locals:         0       0       0       0       0       0       0       0
  7115 ;;      Temps:          0       0       0       0       0       0       0       0
  7116 ;;      Totals:         0       0       0       0       0       0       0       0
  7117 ;;Total ram usage:        0 bytes
  7118 ;; Hardware stack levels used: 1
  7119 ;; This function calls:
  7120 ;;		Nothing
  7121 ;; This function is called by:
  7122 ;;		_SYSTEM_Initialize
  7123 ;; This function uses a non-reentrant model
  7124 ;;
  7125                           
  7126  0A2F                     _WDT_Initialize:	
  7127                           ;psect for function _WDT_Initialize
  7128                           
  7129  0A2F                     l2098:	
  7130                           ;incstack = 0
  7131                           ; Regs used in _WDT_Initialize: [wreg]
  7132                           
  7133                           
  7134                           ;mcc_generated_files/mcc.c: 72:     WDTCON = 0x16;
  7135  0A2F  3016               	movlw	22
  7136  0A30  0021               	movlb	1	; select bank1
  7137  0A31  0097               	movwf	23	;volatile
  7138  0A32                     l59:
  7139  0A32  0008               	return
  7140  0A33                     __end_of_WDT_Initialize:
  7141                           
  7142                           	psect	text21
  7143  0A4D                     __ptext21:	
  7144 ;; *************** function _TMR2_Initialize *****************
  7145 ;; Defined at:
  7146 ;;		line 62 in file "mcc_generated_files/tmr2.c"
  7147 ;; Parameters:    Size  Location     Type
  7148 ;;		None
  7149 ;; Auto vars:     Size  Location     Type
  7150 ;;		None
  7151 ;; Return value:  Size  Location     Type
  7152 ;;                  1    wreg      void 
  7153 ;; Registers used:
  7154 ;;		wreg, status,2
  7155 ;; Tracked objects:
  7156 ;;		On entry : 0/0
  7157 ;;		On exit  : 0/0
  7158 ;;		Unchanged: 0/0
  7159 ;; Data sizes:     COMMON   BANK0   BANK1   BANK2   BANK3   BANK4   BANK5   BANK6
  7160 ;;      Params:         0       0       0       0       0       0       0       0
  7161 ;;      Locals:         0       0       0       0       0       0       0       0
  7162 ;;      Temps:          0       0       0       0       0       0       0       0
  7163 ;;      Totals:         0       0       0       0       0       0       0       0
  7164 ;;Total ram usage:        0 bytes
  7165 ;; Hardware stack levels used: 1
  7166 ;; This function calls:
  7167 ;;		Nothing
  7168 ;; This function is called by:
  7169 ;;		_SYSTEM_Initialize
  7170 ;; This function uses a non-reentrant model
  7171 ;;
  7172                           
  7173  0A4D                     _TMR2_Initialize:	
  7174                           ;psect for function _TMR2_Initialize
  7175                           
  7176  0A4D                     l2072:	
  7177                           ;incstack = 0
  7178                           ; Regs used in _TMR2_Initialize: [wreg+status,2]
  7179                           
  7180                           
  7181                           ;mcc_generated_files/tmr2.c: 67:     PR2 = 0xF9;
  7182  0A4D  30F9               	movlw	249
  7183  0A4E  0020               	movlb	0	; select bank0
  7184  0A4F  009B               	movwf	27	;volatile
  7185  0A50                     l2074:
  7186                           
  7187                           ;mcc_generated_files/tmr2.c: 70:     TMR2 = 0x00;
  7188  0A50  019A               	clrf	26	;volatile
  7189  0A51                     l2076:
  7190                           
  7191                           ;mcc_generated_files/tmr2.c: 73:     PIR1bits.TMR2IF = 0;
  7192  0A51  1091               	bcf	17,1	;volatile
  7193  0A52                     l2078:
  7194                           
  7195                           ;mcc_generated_files/tmr2.c: 76:     T2CON = 0x04;
  7196  0A52  3004               	movlw	4
  7197  0A53  009C               	movwf	28	;volatile
  7198  0A54                     l13:
  7199  0A54  0008               	return
  7200  0A55                     __end_of_TMR2_Initialize:
  7201                           
  7202                           	psect	text22
  7203  0A45                     __ptext22:	
  7204 ;; *************** function _PWM3_Initialize *****************
  7205 ;; Defined at:
  7206 ;;		line 58 in file "mcc_generated_files/pwm3.c"
  7207 ;; Parameters:    Size  Location     Type
  7208 ;;		None
  7209 ;; Auto vars:     Size  Location     Type
  7210 ;;		None
  7211 ;; Return value:  Size  Location     Type
  7212 ;;                  1    wreg      void 
  7213 ;; Registers used:
  7214 ;;		wreg
  7215 ;; Tracked objects:
  7216 ;;		On entry : 0/0
  7217 ;;		On exit  : 0/0
  7218 ;;		Unchanged: 0/0
  7219 ;; Data sizes:     COMMON   BANK0   BANK1   BANK2   BANK3   BANK4   BANK5   BANK6
  7220 ;;      Params:         0       0       0       0       0       0       0       0
  7221 ;;      Locals:         0       0       0       0       0       0       0       0
  7222 ;;      Temps:          0       0       0       0       0       0       0       0
  7223 ;;      Totals:         0       0       0       0       0       0       0       0
  7224 ;;Total ram usage:        0 bytes
  7225 ;; Hardware stack levels used: 1
  7226 ;; This function calls:
  7227 ;;		Nothing
  7228 ;; This function is called by:
  7229 ;;		_SYSTEM_Initialize
  7230 ;; This function uses a non-reentrant model
  7231 ;;
  7232                           
  7233  0A45                     _PWM3_Initialize:	
  7234                           ;psect for function _PWM3_Initialize
  7235                           
  7236  0A45                     l2100:	
  7237                           ;incstack = 0
  7238                           ; Regs used in _PWM3_Initialize: [wreg]
  7239                           
  7240                           
  7241                           ;mcc_generated_files/pwm3.c: 62:     PWM3CON = 0xC0;
  7242  0A45  30C0               	movlw	192
  7243  0A46  002C               	movlb	12	; select bank12
  7244  0A47  0099               	movwf	25	;volatile
  7245                           
  7246                           ;mcc_generated_files/pwm3.c: 65:     PWM3DCH = 0xE0;
  7247  0A48  30E0               	movlw	224
  7248  0A49  0098               	movwf	24	;volatile
  7249                           
  7250                           ;mcc_generated_files/pwm3.c: 68:     PWM3DCL = 0xC0;
  7251  0A4A  30C0               	movlw	192
  7252  0A4B  0097               	movwf	23	;volatile
  7253  0A4C                     l108:
  7254  0A4C  0008               	return
  7255  0A4D                     __end_of_PWM3_Initialize:
  7256                           
  7257                           	psect	text23
  7258  0A7E                     __ptext23:	
  7259 ;; *************** function _PIN_MANAGER_Initialize *****************
  7260 ;; Defined at:
  7261 ;;		line 55 in file "mcc_generated_files/pin_manager.c"
  7262 ;; Parameters:    Size  Location     Type
  7263 ;;		None
  7264 ;; Auto vars:     Size  Location     Type
  7265 ;;		None
  7266 ;; Return value:  Size  Location     Type
  7267 ;;                  1    wreg      void 
  7268 ;; Registers used:
  7269 ;;		wreg, status,2
  7270 ;; Tracked objects:
  7271 ;;		On entry : 0/0
  7272 ;;		On exit  : 0/0
  7273 ;;		Unchanged: 0/0
  7274 ;; Data sizes:     COMMON   BANK0   BANK1   BANK2   BANK3   BANK4   BANK5   BANK6
  7275 ;;      Params:         0       0       0       0       0       0       0       0
  7276 ;;      Locals:         0       0       0       0       0       0       0       0
  7277 ;;      Temps:          0       0       0       0       0       0       0       0
  7278 ;;      Totals:         0       0       0       0       0       0       0       0
  7279 ;;Total ram usage:        0 bytes
  7280 ;; Hardware stack levels used: 1
  7281 ;; This function calls:
  7282 ;;		Nothing
  7283 ;; This function is called by:
  7284 ;;		_SYSTEM_Initialize
  7285 ;; This function uses a non-reentrant model
  7286 ;;
  7287                           
  7288  0A7E                     _PIN_MANAGER_Initialize:	
  7289                           ;psect for function _PIN_MANAGER_Initialize
  7290                           
  7291  0A7E                     l2080:	
  7292                           ;incstack = 0
  7293                           ; Regs used in _PIN_MANAGER_Initialize: [wreg+status,2]
  7294                           
  7295                           
  7296                           ;mcc_generated_files/pin_manager.c: 60:     LATA = 0x00;
  7297  0A7E  0022               	movlb	2	; select bank2
  7298  0A7F  018C               	clrf	12	;volatile
  7299                           
  7300                           ;mcc_generated_files/pin_manager.c: 61:     LATB = 0x00;
  7301  0A80  018D               	clrf	13	;volatile
  7302                           
  7303                           ;mcc_generated_files/pin_manager.c: 62:     LATC = 0x00;
  7304  0A81  018E               	clrf	14	;volatile
  7305  0A82                     l2082:
  7306                           
  7307                           ;mcc_generated_files/pin_manager.c: 67:     TRISA = 0x3B;
  7308  0A82  303B               	movlw	59
  7309  0A83  0021               	movlb	1	; select bank1
  7310  0A84  008C               	movwf	12	;volatile
  7311  0A85                     l2084:
  7312                           
  7313                           ;mcc_generated_files/pin_manager.c: 68:     TRISB = 0x00;
  7314  0A85  018D               	clrf	13	;volatile
  7315                           
  7316                           ;mcc_generated_files/pin_manager.c: 69:     TRISC = 0xE0;
  7317  0A86  30E0               	movlw	224
  7318  0A87  008E               	movwf	14	;volatile
  7319                           
  7320                           ;mcc_generated_files/pin_manager.c: 74:     ANSELC = 0x0F;
  7321  0A88  300F               	movlw	15
  7322  0A89  0023               	movlb	3	; select bank3
  7323  0A8A  008E               	movwf	14	;volatile
  7324                           
  7325                           ;mcc_generated_files/pin_manager.c: 75:     ANSELB = 0x30;
  7326  0A8B  3030               	movlw	48
  7327  0A8C  008D               	movwf	13	;volatile
  7328                           
  7329                           ;mcc_generated_files/pin_manager.c: 76:     ANSELA = 0x17;
  7330  0A8D  3017               	movlw	23
  7331  0A8E  008C               	movwf	12	;volatile
  7332  0A8F                     l2086:
  7333                           
  7334                           ;mcc_generated_files/pin_manager.c: 81:     WPUB = 0x00;
  7335  0A8F  0024               	movlb	4	; select bank4
  7336  0A90  018D               	clrf	13	;volatile
  7337  0A91                     l2088:
  7338                           
  7339                           ;mcc_generated_files/pin_manager.c: 82:     WPUA = 0x00;
  7340  0A91  018C               	clrf	12	;volatile
  7341  0A92                     l2090:
  7342                           
  7343                           ;mcc_generated_files/pin_manager.c: 83:     OPTION_REGbits.nWPUEN = 1;
  7344  0A92  0021               	movlb	1	; select bank1
  7345  0A93  1795               	bsf	21,7	;volatile
  7346  0A94                     l2092:
  7347                           
  7348                           ;mcc_generated_files/pin_manager.c: 89:     APFCON = 0x00;
  7349  0A94  0022               	movlb	2	; select bank2
  7350  0A95  019D               	clrf	29	;volatile
  7351  0A96                     l140:
  7352  0A96  0008               	return
  7353  0A97                     __end_of_PIN_MANAGER_Initialize:
  7354                           
  7355                           	psect	text24
  7356  0A39                     __ptext24:	
  7357 ;; *************** function _OSCILLATOR_Initialize *****************
  7358 ;; Defined at:
  7359 ;;		line 61 in file "mcc_generated_files/mcc.c"
  7360 ;; Parameters:    Size  Location     Type
  7361 ;;		None
  7362 ;; Auto vars:     Size  Location     Type
  7363 ;;		None
  7364 ;; Return value:  Size  Location     Type
  7365 ;;                  1    wreg      void 
  7366 ;; Registers used:
  7367 ;;		wreg, status,2
  7368 ;; Tracked objects:
  7369 ;;		On entry : 0/0
  7370 ;;		On exit  : 0/0
  7371 ;;		Unchanged: 0/0
  7372 ;; Data sizes:     COMMON   BANK0   BANK1   BANK2   BANK3   BANK4   BANK5   BANK6
  7373 ;;      Params:         0       0       0       0       0       0       0       0
  7374 ;;      Locals:         0       0       0       0       0       0       0       0
  7375 ;;      Temps:          0       0       0       0       0       0       0       0
  7376 ;;      Totals:         0       0       0       0       0       0       0       0
  7377 ;;Total ram usage:        0 bytes
  7378 ;; Hardware stack levels used: 1
  7379 ;; This function calls:
  7380 ;;		Nothing
  7381 ;; This function is called by:
  7382 ;;		_SYSTEM_Initialize
  7383 ;; This function uses a non-reentrant model
  7384 ;;
  7385                           
  7386  0A39                     _OSCILLATOR_Initialize:	
  7387                           ;psect for function _OSCILLATOR_Initialize
  7388                           
  7389  0A39                     l2094:	
  7390                           ;incstack = 0
  7391                           ; Regs used in _OSCILLATOR_Initialize: [wreg+status,2]
  7392                           
  7393                           
  7394                           ;mcc_generated_files/mcc.c: 64:     OSCCON = 0x58;
  7395  0A39  3058               	movlw	88
  7396  0A3A  0021               	movlb	1	; select bank1
  7397  0A3B  0099               	movwf	25	;volatile
  7398  0A3C                     l2096:
  7399                           
  7400                           ;mcc_generated_files/mcc.c: 66:     BORCON = 0x00;
  7401  0A3C  0022               	movlb	2	; select bank2
  7402  0A3D  0196               	clrf	22	;volatile
  7403  0A3E                     l56:
  7404  0A3E  0008               	return
  7405  0A3F                     __end_of_OSCILLATOR_Initialize:
  7406                           
  7407                           	psect	text25
  7408  0006                     __ptext25:	
  7409 ;; *************** function _ADC_Initialize *****************
  7410 ;; Defined at:
  7411 ;;		line 67 in file "mcc_generated_files/adc.c"
  7412 ;; Parameters:    Size  Location     Type
  7413 ;;		None
  7414 ;; Auto vars:     Size  Location     Type
  7415 ;;		None
  7416 ;; Return value:  Size  Location     Type
  7417 ;;                  1    wreg      void 
  7418 ;; Registers used:
  7419 ;;		wreg, status,2
  7420 ;; Tracked objects:
  7421 ;;		On entry : 0/0
  7422 ;;		On exit  : 0/0
  7423 ;;		Unchanged: 0/0
  7424 ;; Data sizes:     COMMON   BANK0   BANK1   BANK2   BANK3   BANK4   BANK5   BANK6
  7425 ;;      Params:         0       0       0       0       0       0       0       0
  7426 ;;      Locals:         0       0       0       0       0       0       0       0
  7427 ;;      Temps:          0       0       0       0       0       0       0       0
  7428 ;;      Totals:         0       0       0       0       0       0       0       0
  7429 ;;Total ram usage:        0 bytes
  7430 ;; Hardware stack levels used: 1
  7431 ;; This function calls:
  7432 ;;		Nothing
  7433 ;; This function is called by:
  7434 ;;		_SYSTEM_Initialize
  7435 ;; This function uses a non-reentrant model
  7436 ;;
  7437                           
  7438  0006                     _ADC_Initialize:	
  7439                           ;psect for function _ADC_Initialize
  7440                           
  7441  0006                     l2102:	
  7442                           ;incstack = 0
  7443                           ; Regs used in _ADC_Initialize: [wreg+status,2]
  7444                           
  7445                           
  7446                           ;mcc_generated_files/adc.c: 72:     ADCON1 = 0xC0;
  7447  0006  30C0               	movlw	192
  7448  0007  0021               	movlb	1	; select bank1
  7449  0008  009E               	movwf	30	;volatile
  7450  0009                     l2104:
  7451                           
  7452                           ;mcc_generated_files/adc.c: 75:     ADCON2 = 0x00;
  7453  0009  019F               	clrf	31	;volatile
  7454  000A                     l2106:
  7455                           
  7456                           ;mcc_generated_files/adc.c: 78:     ADRESL = 0x00;
  7457  000A  019B               	clrf	27	;volatile
  7458  000B                     l2108:
  7459                           
  7460                           ;mcc_generated_files/adc.c: 81:     ADRESH = 0x00;
  7461  000B  019C               	clrf	28	;volatile
  7462  000C                     l2110:
  7463                           
  7464                           ;mcc_generated_files/adc.c: 84:     ADCON0 = 0x01;
  7465  000C  3001               	movlw	1
  7466  000D  009D               	movwf	29	;volatile
  7467  000E                     l78:
  7468  000E  0008               	return
  7469  000F                     __end_of_ADC_Initialize:
  7470                           
  7471                           	psect	text26
  7472  0AED                     __ptext26:	
  7473 ;; *************** function _LCD_Initialize *****************
  7474 ;; Defined at:
  7475 ;;		line 46 in file "lcd.c"
  7476 ;; Parameters:    Size  Location     Type
  7477 ;;		None
  7478 ;; Auto vars:     Size  Location     Type
  7479 ;;		None
  7480 ;; Return value:  Size  Location     Type
  7481 ;;                  1    wreg      void 
  7482 ;; Registers used:
  7483 ;;		wreg, status,2, status,0, pclath, cstack
  7484 ;; Tracked objects:
  7485 ;;		On entry : 0/0
  7486 ;;		On exit  : 0/0
  7487 ;;		Unchanged: 0/0
  7488 ;; Data sizes:     COMMON   BANK0   BANK1   BANK2   BANK3   BANK4   BANK5   BANK6
  7489 ;;      Params:         0       0       0       0       0       0       0       0
  7490 ;;      Locals:         0       0       0       0       0       0       0       0
  7491 ;;      Temps:          1       0       0       0       0       0       0       0
  7492 ;;      Totals:         1       0       0       0       0       0       0       0
  7493 ;;Total ram usage:        1 bytes
  7494 ;; Hardware stack levels used: 1
  7495 ;; Hardware stack levels required when called: 2
  7496 ;; This function calls:
  7497 ;;		_LCDPutCmd
  7498 ;; This function is called by:
  7499 ;;		_main
  7500 ;; This function uses a non-reentrant model
  7501 ;;
  7502                           
  7503  0AED                     _LCD_Initialize:	
  7504                           ;psect for function _LCD_Initialize
  7505                           
  7506  0AED                     l2186:	
  7507                           ;incstack = 0
  7508                           ; Regs used in _LCD_Initialize: [wreg+status,2+status,0+pclath+cstack]
  7509                           
  7510                           
  7511                           ;lcd.c: 49:     LATC = 0x00;
  7512  0AED  0022               	movlb	2	; select bank2
  7513  0AEE  018E               	clrf	14	;volatile
  7514                           
  7515                           ;lcd.c: 50:     LATB = 0x00;
  7516  0AEF  018D               	clrf	13	;volatile
  7517  0AF0                     l2188:
  7518                           
  7519                           ;lcd.c: 56:     _delay((unsigned long)((15)*(1000000/4000.0)));
  7520  0AF0  3005               	movlw	5
  7521  0AF1  00F6               	movwf	??_LCD_Initialize
  7522  0AF2  30DE               	movlw	222
  7523  0AF3                     u3497:
  7524  0AF3  0B89               	decfsz	9,f
  7525  0AF4  2AF3               	goto	u3497
  7526  0AF5  0BF6               	decfsz	??_LCD_Initialize,f
  7527  0AF6  2AF3               	goto	u3497
  7528  0AF7                     l2190:
  7529                           
  7530                           ;lcd.c: 59:     LCDPutCmd(0x32);
  7531  0AF7  3032               	movlw	50
  7532  0AF8  318A  22CE  318A   	fcall	_LCDPutCmd
  7533  0AFB                     l2192:
  7534                           
  7535                           ;lcd.c: 62:     LCDPutCmd(0x28);
  7536  0AFB  3028               	movlw	40
  7537  0AFC  318A  22CE  318A   	fcall	_LCDPutCmd
  7538  0AFF                     l2194:
  7539                           
  7540                           ;lcd.c: 65:     LCDPutCmd(0x0C);
  7541  0AFF  300C               	movlw	12
  7542  0B00  318A  22CE  318A   	fcall	_LCDPutCmd
  7543  0B03                     l2196:
  7544                           
  7545                           ;lcd.c: 67:     LCDPutCmd(0x01);
  7546  0B03  3001               	movlw	1
  7547  0B04  318A  22CE  318A   	fcall	_LCDPutCmd
  7548  0B07                     l2198:
  7549                           
  7550                           ;lcd.c: 70:     LCDPutCmd(0x06);
  7551  0B07  3006               	movlw	6
  7552  0B08  318A  22CE  318A   	fcall	_LCDPutCmd
  7553  0B0B                     l208:
  7554  0B0B  0008               	return
  7555  0B0C                     __end_of_LCD_Initialize:
  7556                           
  7557                           	psect	text27
  7558  0BF4                     __ptext27:	
  7559 ;; *************** function _LCDPutStr2 *****************
  7560 ;; Defined at:
  7561 ;;		line 187 in file "lcd.c"
  7562 ;; Parameters:    Size  Location     Type
  7563 ;;  str             2   10[COMMON] PTR const unsigned char 
  7564 ;;		 -> STR_12(8), STR_11(9), STR_10(15), STR_9(5), 
  7565 ;;		 -> STR_8(5), STR_7(4), STR_6(5), main@duty_string(20), 
  7566 ;;		 -> main@pwm_string(20), STR_3(5), STR_2(6), STR_1(13), 
  7567 ;;  _pos            1   12[COMMON] unsigned char 
  7568 ;;  _line           1   13[COMMON] unsigned char 
  7569 ;; Auto vars:     Size  Location     Type
  7570 ;;  i               1    3[BANK0 ] unsigned char 
  7571 ;; Return value:  Size  Location     Type
  7572 ;;                  1    wreg      void 
  7573 ;; Registers used:
  7574 ;;		wreg, fsr0l, fsr0h, status,2, status,0, pclath, cstack
  7575 ;; Tracked objects:
  7576 ;;		On entry : 0/0
  7577 ;;		On exit  : 0/0
  7578 ;;		Unchanged: 0/0
  7579 ;; Data sizes:     COMMON   BANK0   BANK1   BANK2   BANK3   BANK4   BANK5   BANK6
  7580 ;;      Params:         4       0       0       0       0       0       0       0
  7581 ;;      Locals:         0       1       0       0       0       0       0       0
  7582 ;;      Temps:          0       3       0       0       0       0       0       0
  7583 ;;      Totals:         4       4       0       0       0       0       0       0
  7584 ;;Total ram usage:        8 bytes
  7585 ;; Hardware stack levels used: 1
  7586 ;; Hardware stack levels required when called: 3
  7587 ;; This function calls:
  7588 ;;		_LCDGoto
  7589 ;;		_LCDPutChar
  7590 ;; This function is called by:
  7591 ;;		_main
  7592 ;; This function uses a non-reentrant model
  7593 ;;
  7594                           
  7595  0BF4                     _LCDPutStr2:	
  7596                           ;psect for function _LCDPutStr2
  7597                           
  7598  0BF4                     l2200:	
  7599                           ;incstack = 0
  7600                           ; Regs used in _LCDPutStr2: [wreg-fsr0h+status,2+status,0+pclath+cstack]
  7601                           
  7602                           
  7603                           ;lcd.c: 187: void LCDPutStr2(const char *str, char _pos, char _line);lcd.c: 188: {;lcd.c
      +                          : 191:     if ((_pos>=0&&_pos<=15)&&(_line>=0&&_line<=1)){
  7604  0BF4  3010               	movlw	16
  7605  0BF5  027C               	subwf	LCDPutStr2@_pos,w
  7606  0BF6  1803               	skipnc
  7607  0BF7  2BF9               	goto	u2241
  7608  0BF8  2BFA               	goto	u2240
  7609  0BF9                     u2241:
  7610  0BF9  2C30               	goto	l246
  7611  0BFA                     u2240:
  7612  0BFA                     l2202:
  7613  0BFA  3002               	movlw	2
  7614  0BFB  027D               	subwf	LCDPutStr2@_line,w
  7615  0BFC  1803               	skipnc
  7616  0BFD  2BFF               	goto	u2251
  7617  0BFE  2C00               	goto	u2250
  7618  0BFF                     u2251:
  7619  0BFF  2C30               	goto	l246
  7620  0C00                     u2250:
  7621  0C00                     l2204:
  7622                           
  7623                           ;lcd.c: 193:          LCDGoto(_pos, _line);
  7624  0C00  087D               	movf	LCDPutStr2@_line,w
  7625  0C01  0020               	movlb	0	; select bank0
  7626  0C02  00A0               	movwf	??_LCDPutStr2
  7627  0C03  0820               	movf	??_LCDPutStr2,w
  7628  0C04  00F6               	movwf	LCDGoto@ln
  7629  0C05  087C               	movf	LCDPutStr2@_pos,w
  7630  0C06  318B  2373  318B   	fcall	_LCDGoto
  7631  0C09                     l2206:	
  7632                           ;lcd.c: 194:     } else {
  7633                           
  7634                           
  7635                           ;lcd.c: 198:     uint8_t i=0;
  7636  0C09  0020               	movlb	0	; select bank0
  7637  0C0A  01A3               	clrf	LCDPutStr2@i
  7638                           
  7639                           ;lcd.c: 201:     while (str[i])
  7640  0C0B  2C20               	goto	l2212
  7641  0C0C                     l2208:
  7642                           
  7643                           ;lcd.c: 202:     {;lcd.c: 204:         LCDPutChar(str[i++]);
  7644  0C0C  087B               	movf	LCDPutStr2@str+1,w
  7645  0C0D  00A1               	movwf	??_LCDPutStr2+1
  7646  0C0E  087A               	movf	LCDPutStr2@str,w
  7647  0C0F  00A0               	movwf	??_LCDPutStr2
  7648  0C10  0823               	movf	LCDPutStr2@i,w
  7649  0C11  0720               	addwf	??_LCDPutStr2,w
  7650  0C12  0084               	movwf	4
  7651  0C13  0821               	movf	??_LCDPutStr2+1,w
  7652  0C14  1803               	skipnc
  7653  0C15  0A21               	incf	??_LCDPutStr2+1,w
  7654  0C16  0085               	movwf	5
  7655  0C17  0800               	movf	0,w	;code access
  7656  0C18  318A  22B1  318B   	fcall	_LCDPutChar
  7657  0C1B                     l2210:
  7658  0C1B  3001               	movlw	1
  7659  0C1C  0020               	movlb	0	; select bank0
  7660  0C1D  00A0               	movwf	??_LCDPutStr2
  7661  0C1E  0820               	movf	??_LCDPutStr2,w
  7662  0C1F  07A3               	addwf	LCDPutStr2@i,f
  7663  0C20                     l2212:
  7664                           
  7665                           ;lcd.c: 201:     while (str[i])
  7666  0C20  087B               	movf	LCDPutStr2@str+1,w
  7667  0C21  00A1               	movwf	??_LCDPutStr2+1
  7668  0C22  087A               	movf	LCDPutStr2@str,w
  7669  0C23  00A0               	movwf	??_LCDPutStr2
  7670  0C24  0823               	movf	LCDPutStr2@i,w
  7671  0C25  0720               	addwf	??_LCDPutStr2,w
  7672  0C26  0084               	movwf	4
  7673  0C27  0821               	movf	??_LCDPutStr2+1,w
  7674  0C28  1803               	skipnc
  7675  0C29  0A21               	incf	??_LCDPutStr2+1,w
  7676  0C2A  0085               	movwf	5
  7677  0C2B  0012               	moviw fsr0++
  7678  0C2C  1D03               	btfss	3,2
  7679  0C2D  2C2F               	goto	u2261
  7680  0C2E  2C30               	goto	u2260
  7681  0C2F                     u2261:
  7682  0C2F  2C0C               	goto	l2208
  7683  0C30                     u2260:
  7684  0C30                     l246:
  7685  0C30  0008               	return
  7686  0C31                     __end_of_LCDPutStr2:
  7687                           
  7688                           	psect	text28
  7689  0AB1                     __ptext28:	
  7690 ;; *************** function _LCDPutChar *****************
  7691 ;; Defined at:
  7692 ;;		line 128 in file "lcd.c"
  7693 ;; Parameters:    Size  Location     Type
  7694 ;;  ch              1    wreg     unsigned char 
  7695 ;; Auto vars:     Size  Location     Type
  7696 ;;  ch              1    5[COMMON] unsigned char 
  7697 ;; Return value:  Size  Location     Type
  7698 ;;                  1    wreg      void 
  7699 ;; Registers used:
  7700 ;;		wreg, status,2, status,0, pclath, cstack
  7701 ;; Tracked objects:
  7702 ;;		On entry : 0/0
  7703 ;;		On exit  : 0/0
  7704 ;;		Unchanged: 0/0
  7705 ;; Data sizes:     COMMON   BANK0   BANK1   BANK2   BANK3   BANK4   BANK5   BANK6
  7706 ;;      Params:         0       0       0       0       0       0       0       0
  7707 ;;      Locals:         1       0       0       0       0       0       0       0
  7708 ;;      Temps:          2       0       0       0       0       0       0       0
  7709 ;;      Totals:         3       0       0       0       0       0       0       0
  7710 ;;Total ram usage:        3 bytes
  7711 ;; Hardware stack levels used: 1
  7712 ;; Hardware stack levels required when called: 1
  7713 ;; This function calls:
  7714 ;;		_LCDWriteNibble
  7715 ;; This function is called by:
  7716 ;;		_LCDPutStr2
  7717 ;;		_LCDPutStr
  7718 ;; This function uses a non-reentrant model
  7719 ;;
  7720                           
  7721  0AB1                     _LCDPutChar:	
  7722                           ;psect for function _LCDPutChar
  7723                           
  7724                           
  7725                           ;incstack = 0
  7726                           ; Regs used in _LCDPutChar: [wreg+status,2+status,0+pclath+cstack]
  7727                           ;LCDPutChar@ch stored from wreg
  7728  0AB1  00F5               	movwf	LCDPutChar@ch
  7729  0AB2                     l2114:
  7730                           
  7731                           ;lcd.c: 128: void LCDPutChar(uint8_t ch);lcd.c: 129: {;lcd.c: 130:     _delay((unsigned 
      +                          long)((5)*(1000000/4000.0)));
  7732  0AB2  30FA               	movlw	250
  7733  0AB3                     u3507:
  7734  0AB3  3200               	nop2
  7735  0AB4  0B89               	decfsz	9,f
  7736  0AB5  2AB3               	goto	u3507
  7737  0AB6                     l2116:
  7738                           
  7739                           ;lcd.c: 133:     LCDWriteNibble(ch,1);
  7740  0AB6  01F0               	clrf	LCDWriteNibble@rs
  7741  0AB7  0AF0               	incf	LCDWriteNibble@rs,f
  7742  0AB8  0875               	movf	LCDPutChar@ch,w
  7743  0AB9  318C  2431  318A   	fcall	_LCDWriteNibble
  7744  0ABC                     l2118:
  7745                           
  7746                           ;lcd.c: 136:     ch = (ch << 4);
  7747  0ABC  0875               	movf	LCDPutChar@ch,w
  7748  0ABD  00F3               	movwf	??_LCDPutChar
  7749  0ABE  3003               	movlw	3
  7750  0ABF                     u2135:
  7751  0ABF  35F3               	lslf	??_LCDPutChar,f
  7752  0AC0  3EFF               	addlw	-1
  7753  0AC1  1D03               	skipz
  7754  0AC2  2ABF               	goto	u2135
  7755  0AC3  3573               	lslf	??_LCDPutChar,w
  7756  0AC4  00F4               	movwf	??_LCDPutChar+1
  7757  0AC5  0874               	movf	??_LCDPutChar+1,w
  7758  0AC6  00F5               	movwf	LCDPutChar@ch
  7759  0AC7                     l2120:
  7760                           
  7761                           ;lcd.c: 139:     LCDWriteNibble(ch,1);
  7762  0AC7  01F0               	clrf	LCDWriteNibble@rs
  7763  0AC8  0AF0               	incf	LCDWriteNibble@rs,f
  7764  0AC9  0875               	movf	LCDPutChar@ch,w
  7765  0ACA  318C  2431  318A   	fcall	_LCDWriteNibble
  7766  0ACD                     l222:
  7767  0ACD  0008               	return
  7768  0ACE                     __end_of_LCDPutChar:
  7769                           
  7770                           	psect	text29
  7771  0B73                     __ptext29:	
  7772 ;; *************** function _LCDGoto *****************
  7773 ;; Defined at:
  7774 ;;		line 172 in file "lcd.c"
  7775 ;; Parameters:    Size  Location     Type
  7776 ;;  pos             1    wreg     unsigned char 
  7777 ;;  ln              1    6[COMMON] unsigned char 
  7778 ;; Auto vars:     Size  Location     Type
  7779 ;;  pos             1    9[COMMON] unsigned char 
  7780 ;; Return value:  Size  Location     Type
  7781 ;;                  1    wreg      void 
  7782 ;; Registers used:
  7783 ;;		wreg, status,2, status,0, pclath, cstack
  7784 ;; Tracked objects:
  7785 ;;		On entry : 0/0
  7786 ;;		On exit  : 0/0
  7787 ;;		Unchanged: 0/0
  7788 ;; Data sizes:     COMMON   BANK0   BANK1   BANK2   BANK3   BANK4   BANK5   BANK6
  7789 ;;      Params:         1       0       0       0       0       0       0       0
  7790 ;;      Locals:         3       0       0       0       0       0       0       0
  7791 ;;      Temps:          0       0       0       0       0       0       0       0
  7792 ;;      Totals:         4       0       0       0       0       0       0       0
  7793 ;;Total ram usage:        4 bytes
  7794 ;; Hardware stack levels used: 1
  7795 ;; Hardware stack levels required when called: 2
  7796 ;; This function calls:
  7797 ;;		_LCDPutCmd
  7798 ;; This function is called by:
  7799 ;;		_LCDPutStr2
  7800 ;; This function uses a non-reentrant model
  7801 ;;
  7802                           
  7803  0B73                     _LCDGoto:	
  7804                           ;psect for function _LCDGoto
  7805                           
  7806                           
  7807                           ;incstack = 0
  7808                           ; Regs used in _LCDGoto: [wreg+status,2+status,0+pclath+cstack]
  7809                           ;LCDGoto@pos stored from wreg
  7810  0B73  00F9               	movwf	LCDGoto@pos
  7811  0B74                     l2122:
  7812                           
  7813                           ;lcd.c: 172: void LCDGoto(uint8_t pos,uint8_t ln);lcd.c: 173: {;lcd.c: 175:     if ((ln 
      +                          > (2 -1)) || (pos > (16 -1)))
  7814  0B74  3002               	movlw	2
  7815  0B75  0276               	subwf	LCDGoto@ln,w
  7816  0B76  1803               	skipnc
  7817  0B77  2B79               	goto	u2141
  7818  0B78  2B7A               	goto	u2140
  7819  0B79                     u2141:
  7820  0B79  2B99               	goto	l237
  7821  0B7A                     u2140:
  7822  0B7A                     l2124:
  7823  0B7A  3010               	movlw	16
  7824  0B7B  0279               	subwf	LCDGoto@pos,w
  7825  0B7C  1C03               	skipc
  7826  0B7D  2B7F               	goto	u2151
  7827  0B7E  2B80               	goto	u2150
  7828  0B7F                     u2151:
  7829  0B7F  2B81               	goto	l2126
  7830  0B80                     u2150:
  7831  0B80  2B99               	goto	l237
  7832  0B81                     l2126:
  7833                           
  7834                           ;lcd.c: 182:     LCDPutCmd((ln == 1) ? (0xC0 | pos) : (0x80 | pos));
  7835  0B81  0376               	decf	LCDGoto@ln,w
  7836  0B82  1903               	btfsc	3,2
  7837  0B83  2B85               	goto	u2161
  7838  0B84  2B86               	goto	u2160
  7839  0B85                     u2161:
  7840  0B85  2B8C               	goto	l2130
  7841  0B86                     u2160:
  7842  0B86                     l2128:
  7843  0B86  3080               	movlw	128
  7844  0B87  0479               	iorwf	LCDGoto@pos,w
  7845  0B88  00F7               	movwf	_LCDGoto$419
  7846  0B89  3000               	movlw	0
  7847  0B8A  00F8               	movwf	_LCDGoto$419+1
  7848  0B8B  2B91               	goto	l2132
  7849  0B8C                     l2130:
  7850  0B8C  30C0               	movlw	192
  7851  0B8D  0479               	iorwf	LCDGoto@pos,w
  7852  0B8E  00F7               	movwf	_LCDGoto$419
  7853  0B8F  3000               	movlw	0
  7854  0B90  00F8               	movwf	_LCDGoto$419+1
  7855  0B91                     l2132:
  7856  0B91  0877               	movf	_LCDGoto$419,w
  7857  0B92  318A  22CE  318B   	fcall	_LCDPutCmd
  7858  0B95                     l2134:
  7859                           
  7860                           ;lcd.c: 185:     _delay((unsigned long)((5)*(1000000/4000.0)));
  7861  0B95  30FA               	movlw	250
  7862  0B96                     u3517:
  7863  0B96  3200               	nop2
  7864  0B97  0B89               	decfsz	9,f
  7865  0B98  2B96               	goto	u3517
  7866  0B99                     l237:
  7867  0B99  0008               	return
  7868  0B9A                     __end_of_LCDGoto:
  7869                           
  7870                           	psect	text30
  7871  0ACE                     __ptext30:	
  7872 ;; *************** function _LCDPutCmd *****************
  7873 ;; Defined at:
  7874 ;;		line 143 in file "lcd.c"
  7875 ;; Parameters:    Size  Location     Type
  7876 ;;  ch              1    wreg     unsigned char 
  7877 ;; Auto vars:     Size  Location     Type
  7878 ;;  ch              1    5[COMMON] unsigned char 
  7879 ;; Return value:  Size  Location     Type
  7880 ;;                  1    wreg      void 
  7881 ;; Registers used:
  7882 ;;		wreg, status,2, status,0, pclath, cstack
  7883 ;; Tracked objects:
  7884 ;;		On entry : 0/0
  7885 ;;		On exit  : 0/0
  7886 ;;		Unchanged: 0/0
  7887 ;; Data sizes:     COMMON   BANK0   BANK1   BANK2   BANK3   BANK4   BANK5   BANK6
  7888 ;;      Params:         0       0       0       0       0       0       0       0
  7889 ;;      Locals:         1       0       0       0       0       0       0       0
  7890 ;;      Temps:          2       0       0       0       0       0       0       0
  7891 ;;      Totals:         3       0       0       0       0       0       0       0
  7892 ;;Total ram usage:        3 bytes
  7893 ;; Hardware stack levels used: 1
  7894 ;; Hardware stack levels required when called: 1
  7895 ;; This function calls:
  7896 ;;		_LCDWriteNibble
  7897 ;; This function is called by:
  7898 ;;		_LCD_Initialize
  7899 ;;		_LCDGoto
  7900 ;; This function uses a non-reentrant model
  7901 ;;
  7902                           
  7903  0ACE                     _LCDPutCmd:	
  7904                           ;psect for function _LCDPutCmd
  7905                           
  7906                           
  7907                           ;incstack = 0
  7908                           ; Regs used in _LCDPutCmd: [wreg+status,2+status,0+pclath+cstack]
  7909                           ;LCDPutCmd@ch stored from wreg
  7910  0ACE  00F5               	movwf	LCDPutCmd@ch
  7911  0ACF                     l2020:
  7912                           
  7913                           ;lcd.c: 143: void LCDPutCmd(uint8_t ch);lcd.c: 144: {;lcd.c: 145:     _delay((unsigned l
      +                          ong)((5)*(1000000/4000.0)));
  7914  0ACF  30FA               	movlw	250
  7915  0AD0                     u3527:
  7916  0AD0  3200               	nop2
  7917  0AD1  0B89               	decfsz	9,f
  7918  0AD2  2AD0               	goto	u3527
  7919  0AD3                     l2022:
  7920                           
  7921                           ;lcd.c: 148:     LCDWriteNibble(ch,0);
  7922  0AD3  01F0               	clrf	LCDWriteNibble@rs
  7923  0AD4  0875               	movf	LCDPutCmd@ch,w
  7924  0AD5  318C  2431  318A   	fcall	_LCDWriteNibble
  7925  0AD8                     l2024:
  7926                           
  7927                           ;lcd.c: 151:     ch = (ch << 4);
  7928  0AD8  0875               	movf	LCDPutCmd@ch,w
  7929  0AD9  00F3               	movwf	??_LCDPutCmd
  7930  0ADA  3003               	movlw	3
  7931  0ADB                     u2085:
  7932  0ADB  35F3               	lslf	??_LCDPutCmd,f
  7933  0ADC  3EFF               	addlw	-1
  7934  0ADD  1D03               	skipz
  7935  0ADE  2ADB               	goto	u2085
  7936  0ADF  3573               	lslf	??_LCDPutCmd,w
  7937  0AE0  00F4               	movwf	??_LCDPutCmd+1
  7938  0AE1  0874               	movf	??_LCDPutCmd+1,w
  7939  0AE2  00F5               	movwf	LCDPutCmd@ch
  7940  0AE3                     l2026:
  7941                           
  7942                           ;lcd.c: 153:     _delay((unsigned long)((1)*(1000000/4000.0)));
  7943  0AE3  3053               	movlw	83
  7944  0AE4                     u3537:
  7945  0AE4  0B89               	decfsz	9,f
  7946  0AE5  2AE4               	goto	u3537
  7947  0AE6  0000               	nop
  7948  0AE7                     l2028:
  7949                           
  7950                           ;lcd.c: 156:     LCDWriteNibble(ch,0);
  7951  0AE7  01F0               	clrf	LCDWriteNibble@rs
  7952  0AE8  0875               	movf	LCDPutCmd@ch,w
  7953  0AE9  318C  2431  318A   	fcall	_LCDWriteNibble
  7954  0AEC                     l225:
  7955  0AEC  0008               	return
  7956  0AED                     __end_of_LCDPutCmd:
  7957                           
  7958                           	psect	text31
  7959  0C31                     __ptext31:	
  7960 ;; *************** function _LCDWriteNibble *****************
  7961 ;; Defined at:
  7962 ;;		line 75 in file "lcd.c"
  7963 ;; Parameters:    Size  Location     Type
  7964 ;;  ch              1    wreg     unsigned char 
  7965 ;;  rs              1    0[COMMON] unsigned char 
  7966 ;; Auto vars:     Size  Location     Type
  7967 ;;  ch              1    2[COMMON] unsigned char 
  7968 ;; Return value:  Size  Location     Type
  7969 ;;                  1    wreg      void 
  7970 ;; Registers used:
  7971 ;;		wreg, status,2, status,0
  7972 ;; Tracked objects:
  7973 ;;		On entry : 0/0
  7974 ;;		On exit  : 0/0
  7975 ;;		Unchanged: 0/0
  7976 ;; Data sizes:     COMMON   BANK0   BANK1   BANK2   BANK3   BANK4   BANK5   BANK6
  7977 ;;      Params:         1       0       0       0       0       0       0       0
  7978 ;;      Locals:         1       0       0       0       0       0       0       0
  7979 ;;      Temps:          1       0       0       0       0       0       0       0
  7980 ;;      Totals:         3       0       0       0       0       0       0       0
  7981 ;;Total ram usage:        3 bytes
  7982 ;; Hardware stack levels used: 1
  7983 ;; This function calls:
  7984 ;;		Nothing
  7985 ;; This function is called by:
  7986 ;;		_LCDPutChar
  7987 ;;		_LCDPutCmd
  7988 ;; This function uses a non-reentrant model
  7989 ;;
  7990                           
  7991  0C31                     _LCDWriteNibble:	
  7992                           ;psect for function _LCDWriteNibble
  7993                           
  7994                           
  7995                           ;incstack = 0
  7996                           ; Regs used in _LCDWriteNibble: [wreg+status,2+status,0]
  7997                           ;LCDWriteNibble@ch stored from wreg
  7998  0C31  00F2               	movwf	LCDWriteNibble@ch
  7999  0C32                     l1950:
  8000                           
  8001                           ;lcd.c: 75: void LCDWriteNibble(uint8_t ch,uint8_t rs);lcd.c: 76: {;lcd.c: 78:     ch = 
      +                          (ch & 0xF0);
  8002  0C32  0872               	movf	LCDWriteNibble@ch,w
  8003  0C33  39F0               	andlw	240
  8004  0C34  00F1               	movwf	??_LCDWriteNibble
  8005  0C35  0871               	movf	??_LCDWriteNibble,w
  8006  0C36  00F2               	movwf	LCDWriteNibble@ch
  8007                           
  8008                           ;lcd.c: 81:     LATC = (LATC & 0x0F);
  8009  0C37  0022               	movlb	2	; select bank2
  8010  0C38  080E               	movf	14,w	;volatile
  8011  0C39  390F               	andlw	15
  8012  0C3A  008E               	movwf	14	;volatile
  8013  0C3B                     l1952:
  8014                           
  8015                           ;lcd.c: 82:     LATBbits.LATB4 = 0;
  8016  0C3B  120D               	bcf	13,4	;volatile
  8017  0C3C                     l1954:
  8018                           
  8019                           ;lcd.c: 83:     LATBbits.LATB5 = 0;
  8020  0C3C  128D               	bcf	13,5	;volatile
  8021  0C3D                     l1956:
  8022                           
  8023                           ;lcd.c: 84:     LATBbits.LATB6 = 0;
  8024  0C3D  130D               	bcf	13,6	;volatile
  8025  0C3E                     l1958:
  8026                           
  8027                           ;lcd.c: 85:     LATBbits.LATB7 = 0;
  8028  0C3E  138D               	bcf	13,7	;volatile
  8029  0C3F                     l1960:
  8030                           
  8031                           ;lcd.c: 89:     if(((ch & 0x80)>>7)==1){
  8032  0C3F  0872               	movf	LCDWriteNibble@ch,w
  8033  0C40  00F1               	movwf	??_LCDWriteNibble
  8034  0C41  3007               	movlw	7
  8035  0C42                     u1935:
  8036  0C42  36F1               	lsrf	??_LCDWriteNibble,f
  8037  0C43  0B89               	decfsz	9,f
  8038  0C44  2C42               	goto	u1935
  8039  0C45  1C71               	btfss	??_LCDWriteNibble,0
  8040  0C46  2C48               	goto	u1941
  8041  0C47  2C49               	goto	u1940
  8042  0C48                     u1941:
  8043  0C48  2C4B               	goto	l211
  8044  0C49                     u1940:
  8045  0C49                     l1962:
  8046                           
  8047                           ;lcd.c: 90:         LATBbits.LATB7 = 1;
  8048  0C49  178D               	bsf	13,7	;volatile
  8049                           
  8050                           ;lcd.c: 91:     } else{
  8051  0C4A  2C4C               	goto	l1964
  8052  0C4B                     l211:
  8053                           
  8054                           ;lcd.c: 92:         LATBbits.LATB7 = 0;
  8055  0C4B  138D               	bcf	13,7	;volatile
  8056  0C4C                     l1964:
  8057                           
  8058                           ;lcd.c: 95:     if(((ch & 0x40)>>6)==1){
  8059  0C4C  0872               	movf	LCDWriteNibble@ch,w
  8060  0C4D  00F1               	movwf	??_LCDWriteNibble
  8061  0C4E  3006               	movlw	6
  8062  0C4F                     u1955:
  8063  0C4F  36F1               	lsrf	??_LCDWriteNibble,f
  8064  0C50  0B89               	decfsz	9,f
  8065  0C51  2C4F               	goto	u1955
  8066  0C52  1C71               	btfss	??_LCDWriteNibble,0
  8067  0C53  2C55               	goto	u1961
  8068  0C54  2C56               	goto	u1960
  8069  0C55                     u1961:
  8070  0C55  2C58               	goto	l213
  8071  0C56                     u1960:
  8072  0C56                     l1966:
  8073                           
  8074                           ;lcd.c: 96:         LATBbits.LATB6 = 1;
  8075  0C56  170D               	bsf	13,6	;volatile
  8076                           
  8077                           ;lcd.c: 97:     } else{
  8078  0C57  2C59               	goto	l1968
  8079  0C58                     l213:
  8080                           
  8081                           ;lcd.c: 98:         LATBbits.LATB6 = 0;
  8082  0C58  130D               	bcf	13,6	;volatile
  8083  0C59                     l1968:
  8084                           
  8085                           ;lcd.c: 101:     if(((ch & 0x20)>>5)==1){
  8086  0C59  0872               	movf	LCDWriteNibble@ch,w
  8087  0C5A  00F1               	movwf	??_LCDWriteNibble
  8088  0C5B  3005               	movlw	5
  8089  0C5C                     u1975:
  8090  0C5C  36F1               	lsrf	??_LCDWriteNibble,f
  8091  0C5D  0B89               	decfsz	9,f
  8092  0C5E  2C5C               	goto	u1975
  8093  0C5F  1C71               	btfss	??_LCDWriteNibble,0
  8094  0C60  2C62               	goto	u1981
  8095  0C61  2C63               	goto	u1980
  8096  0C62                     u1981:
  8097  0C62  2C65               	goto	l215
  8098  0C63                     u1980:
  8099  0C63                     l1970:
  8100                           
  8101                           ;lcd.c: 102:         LATBbits.LATB5 = 1;
  8102  0C63  168D               	bsf	13,5	;volatile
  8103                           
  8104                           ;lcd.c: 103:     } else{
  8105  0C64  2C66               	goto	l1972
  8106  0C65                     l215:
  8107                           
  8108                           ;lcd.c: 104:         LATBbits.LATB5 = 0;
  8109  0C65  128D               	bcf	13,5	;volatile
  8110  0C66                     l1972:
  8111                           
  8112                           ;lcd.c: 107:     if(((ch & 0x10)>>4)==1){
  8113  0C66  0872               	movf	LCDWriteNibble@ch,w
  8114  0C67  00F1               	movwf	??_LCDWriteNibble
  8115  0C68  3004               	movlw	4
  8116  0C69                     u1995:
  8117  0C69  36F1               	lsrf	??_LCDWriteNibble,f
  8118  0C6A  0B89               	decfsz	9,f
  8119  0C6B  2C69               	goto	u1995
  8120  0C6C  1C71               	btfss	??_LCDWriteNibble,0
  8121  0C6D  2C6F               	goto	u2001
  8122  0C6E  2C70               	goto	u2000
  8123  0C6F                     u2001:
  8124  0C6F  2C72               	goto	l217
  8125  0C70                     u2000:
  8126  0C70                     l1974:
  8127                           
  8128                           ;lcd.c: 108:         LATBbits.LATB4 = 1;
  8129  0C70  160D               	bsf	13,4	;volatile
  8130                           
  8131                           ;lcd.c: 109:     } else{
  8132  0C71  2C73               	goto	l1976
  8133  0C72                     l217:
  8134                           
  8135                           ;lcd.c: 110:         LATBbits.LATB4 = 0;
  8136  0C72  120D               	bcf	13,4	;volatile
  8137  0C73                     l1976:
  8138                           
  8139                           ;lcd.c: 116:     LATCbits.LATC0 = rs;
  8140  0C73  0C70               	rrf	LCDWriteNibble@rs,w
  8141  0C74  1C03               	skipc
  8142  0C75  100E               	bcf	14,0	;volatile
  8143  0C76  1803               	skipnc
  8144  0C77  140E               	bsf	14,0	;volatile
  8145  0C78                     l1978:
  8146                           
  8147                           ;lcd.c: 119:     LATCbits.LATC1 = 0;
  8148  0C78  108E               	bcf	14,1	;volatile
  8149  0C79                     l1980:
  8150                           
  8151                           ;lcd.c: 122:     LATCbits.LATC2 = 1;
  8152  0C79  150E               	bsf	14,2	;volatile
  8153  0C7A                     l1982:
  8154                           
  8155                           ;lcd.c: 125:     LATCbits.LATC2 = 0;
  8156  0C7A  110E               	bcf	14,2	;volatile
  8157  0C7B                     l219:
  8158  0C7B  0008               	return
  8159  0C7C                     __end_of_LCDWriteNibble:
  8160                           
  8161                           	psect	text32
  8162  0A2C                     __ptext32:	
  8163 ;; *************** function _ADC_StartConversion *****************
  8164 ;; Defined at:
  8165 ;;		line 96 in file "mcc_generated_files/adc.c"
  8166 ;; Parameters:    Size  Location     Type
  8167 ;;		None
  8168 ;; Auto vars:     Size  Location     Type
  8169 ;;		None
  8170 ;; Return value:  Size  Location     Type
  8171 ;;                  1    wreg      void 
  8172 ;; Registers used:
  8173 ;;		None
  8174 ;; Tracked objects:
  8175 ;;		On entry : 0/0
  8176 ;;		On exit  : 0/0
  8177 ;;		Unchanged: 0/0
  8178 ;; Data sizes:     COMMON   BANK0   BANK1   BANK2   BANK3   BANK4   BANK5   BANK6
  8179 ;;      Params:         0       0       0       0       0       0       0       0
  8180 ;;      Locals:         0       0       0       0       0       0       0       0
  8181 ;;      Temps:          0       0       0       0       0       0       0       0
  8182 ;;      Totals:         0       0       0       0       0       0       0       0
  8183 ;;Total ram usage:        0 bytes
  8184 ;; Hardware stack levels used: 1
  8185 ;; This function calls:
  8186 ;;		Nothing
  8187 ;; This function is called by:
  8188 ;;		_main
  8189 ;; This function uses a non-reentrant model
  8190 ;;
  8191                           
  8192  0A2C                     _ADC_StartConversion:	
  8193                           ;psect for function _ADC_StartConversion
  8194                           
  8195  0A2C                     l2164:	
  8196                           ;incstack = 0
  8197                           ; Regs used in _ADC_StartConversion: []
  8198                           
  8199                           
  8200                           ;mcc_generated_files/adc.c: 99:     ADCON0bits.GO_nDONE = 1;
  8201  0A2C  0021               	movlb	1	; select bank1
  8202  0A2D  149D               	bsf	29,1	;volatile
  8203  0A2E                     l84:
  8204  0A2E  0008               	return
  8205  0A2F                     __end_of_ADC_StartConversion:
  8206                           
  8207                           	psect	text33
  8208  0A33                     __ptext33:	
  8209 ;; *************** function _ADC_GetConversionResult *****************
  8210 ;; Defined at:
  8211 ;;		line 109 in file "mcc_generated_files/adc.c"
  8212 ;; Parameters:    Size  Location     Type
  8213 ;;		None
  8214 ;; Auto vars:     Size  Location     Type
  8215 ;;		None
  8216 ;; Return value:  Size  Location     Type
  8217 ;;                  2    0[COMMON] unsigned short 
  8218 ;; Registers used:
  8219 ;;		wreg
  8220 ;; Tracked objects:
  8221 ;;		On entry : 0/0
  8222 ;;		On exit  : 0/0
  8223 ;;		Unchanged: 0/0
  8224 ;; Data sizes:     COMMON   BANK0   BANK1   BANK2   BANK3   BANK4   BANK5   BANK6
  8225 ;;      Params:         2       0       0       0       0       0       0       0
  8226 ;;      Locals:         0       0       0       0       0       0       0       0
  8227 ;;      Temps:          0       0       0       0       0       0       0       0
  8228 ;;      Totals:         2       0       0       0       0       0       0       0
  8229 ;;Total ram usage:        2 bytes
  8230 ;; Hardware stack levels used: 1
  8231 ;; This function calls:
  8232 ;;		Nothing
  8233 ;; This function is called by:
  8234 ;;		_main
  8235 ;; This function uses a non-reentrant model
  8236 ;;
  8237                           
  8238  0A33                     _ADC_GetConversionResult:	
  8239                           ;psect for function _ADC_GetConversionResult
  8240                           
  8241  0A33                     l2166:	
  8242                           ;incstack = 0
  8243                           ; Regs used in _ADC_GetConversionResult: [wreg]
  8244                           
  8245                           
  8246                           ;mcc_generated_files/adc.c: 112:     return ((adc_result_t)((ADRESH << 8) + ADRESL));
  8247  0A33  0021               	movlb	1	; select bank1
  8248  0A34  081C               	movf	28,w	;volatile
  8249  0A35  00F1               	movwf	?_ADC_GetConversionResult+1
  8250  0A36  081B               	movf	27,w	;volatile
  8251  0A37  00F0               	movwf	?_ADC_GetConversionResult
  8252  0A38                     l90:
  8253  0A38  0008               	return
  8254  0A39                     __end_of_ADC_GetConversionResult:
  8255  007E                     btemp	set	126	;btemp
  8256  007E                     wtemp0	set	126
  8257                           
  8258                           	psect	idloc
  8259                           
  8260                           ;Config register IDLOC0 @ 0x8000
  8261                           ;	unspecified, using default values
  8262  8000                     	org	32768
  8263  8000  3FFF               	dw	16383
  8264                           
  8265                           ;Config register IDLOC1 @ 0x8001
  8266                           ;	unspecified, using default values
  8267  8001                     	org	32769
  8268  8001  3FFF               	dw	16383
  8269                           
  8270                           ;Config register IDLOC2 @ 0x8002
  8271                           ;	unspecified, using default values
  8272  8002                     	org	32770
  8273  8002  3FFF               	dw	16383
  8274                           
  8275                           ;Config register IDLOC3 @ 0x8003
  8276                           ;	unspecified, using default values
  8277  8003                     	org	32771
  8278  8003  3FFF               	dw	16383
  8279                           
  8280                           	psect	config
  8281                           
  8282                           ;Config register CONFIG1 @ 0x8007
  8283                           ;	Oscillator Selection Bits
  8284                           ;	FOSC = INTOSC, INTOSC oscillator: I/O function on CLKIN pin
  8285                           ;	Watchdog Timer Enable
  8286                           ;	WDTE = OFF, WDT disabled
  8287                           ;	Power-up Timer Enable
  8288                           ;	PWRTE = OFF, PWRT disabled
  8289                           ;	MCLR Pin Function Select
  8290                           ;	MCLRE = ON, MCLR/VPP pin function is MCLR
  8291                           ;	Flash Program Memory Code Protection
  8292                           ;	CP = OFF, Program memory code protection is disabled
  8293                           ;	Brown-out Reset Enable
  8294                           ;	BOREN = OFF, Brown-out Reset disabled
  8295                           ;	Clock Out Enable
  8296                           ;	CLKOUTEN = OFF, CLKOUT function is disabled. I/O or oscillator function on the CLKOUT 
      +                          pin
  8297                           ;	Internal/External Switchover Mode
  8298                           ;	IESO = OFF, Internal/External Switchover Mode is disabled
  8299                           ;	Fail-Safe Clock Monitor Enable
  8300                           ;	FCMEN = OFF, Fail-Safe Clock Monitor is disabled
  8301  8007                     	org	32775
  8302  8007  09E4               	dw	2532
  8303                           
  8304                           ;Config register CONFIG2 @ 0x8008
  8305                           ;	Flash Memory Self-Write Protection
  8306                           ;	WRT = OFF, Write protection off
  8307                           ;	Stack Overflow/Underflow Reset Enable
  8308                           ;	STVREN = OFF, Stack Overflow or Underflow will not cause a Reset
  8309                           ;	Brown-out Reset Voltage Selection
  8310                           ;	BORV = LO, Brown-out Reset Voltage (Vbor), low trip point selected.
  8311                           ;	Low-Power Brown Out Reset
  8312                           ;	LPBOR = OFF, Low-Power BOR is disabled
  8313                           ;	Low-Voltage Programming Enable
  8314                           ;	LVP = ON, Low-voltage programming enabled
  8315  8008                     	org	32776
  8316  8008  3DFF               	dw	15871

Data Sizes:
    Strings     74
    Constant    0
    Data        0
    BSS         42
    Persistent  32
    Stack       0

Auto Spaces:
    Space          Size  Autos    Used
    COMMON           14     14      14
    BANK0            80     80      80
    BANK1            80     55      65
    BANK2            80      0      32
    BANK3            80      0       0
    BANK4            80      0       0
    BANK5            80      0       0
    BANK6            16      0       0

Pointer List with Targets:

    ADC_InterruptHandler	PTR FTN()void  size(2) Largest target is 1
		 -> Absolute function(), 

    strlen@s	PTR const unsigned char  size(1) Largest target is 32
		 -> dbuf(BANK2[32]), 

    strlen@a	PTR const unsigned char  size(1) Largest target is 32
		 -> dbuf(BANK2[32]), 

    fputs@s	PTR const unsigned char  size(1) Largest target is 32
		 -> dbuf(BANK2[32]), 

    fputs@fp	PTR struct _IO_FILE size(1) Largest target is 10
		 -> sprintf@f(BANK0[10]), 

    fputc@fp...source	PTR const unsigned char  size(1) Largest target is 0

    fputc@fp...buffer	PTR unsigned char  size(1) Largest target is 0

    fputc@fp	PTR struct _IO_FILE size(1) Largest target is 10
		 -> sprintf@f(BANK0[10]), 

    vfprintf@ap	PTR PTR void  size(1) Largest target is 1
		 -> sprintf@ap(BANK0[1]), 

    vfprintf@fp	PTR struct _IO_FILE size(1) Largest target is 10
		 -> sprintf@f(BANK0[10]), 

    vfprintf@fmt	PTR const unsigned char  size(2) Largest target is 6
		 -> STR_5(CODE[6]), STR_4(CODE[3]), 

    vfprintf@cfmt	PTR unsigned char  size(2) Largest target is 6
		 -> STR_5(CODE[6]), STR_4(CODE[3]), 

    vfpfcnvrt@fp	PTR struct _IO_FILE size(1) Largest target is 10
		 -> sprintf@f(BANK0[10]), 

    vfpfcnvrt@ap	PTR PTR void  size(1) Largest target is 1
		 -> sprintf@ap(BANK0[1]), 

    vfpfcnvrt@fmt	PTR PTR unsigned char  size(1) Largest target is 2
		 -> vfprintf@cfmt(BANK0[2]), 

    utoa@fp	PTR struct _IO_FILE size(1) Largest target is 10
		 -> sprintf@f(BANK0[10]), 

    pad@fp	PTR struct _IO_FILE size(1) Largest target is 10
		 -> sprintf@f(BANK0[10]), 

    pad@buf	PTR unsigned char  size(1) Largest target is 32
		 -> dbuf(BANK2[32]), 

    sprintf@fmt	PTR const unsigned char  size(2) Largest target is 6
		 -> STR_5(CODE[6]), STR_4(CODE[3]), 

    sprintf@s	PTR unsigned char  size(1) Largest target is 20
		 -> main@duty_string(BANK1[20]), main@pwm_string(BANK1[20]), 

    sprintf@ap	PTR void [1] size(1) Largest target is 2
		 -> ?_sprintf(BANK0[2]), 

    S738$source	PTR const unsigned char  size(1) Largest target is 0

    f...source	PTR const unsigned char  size(1) Largest target is 0

    S738$buffer	PTR unsigned char  size(1) Largest target is 0

    f...buffer	PTR unsigned char  size(1) Largest target is 0

    LCDPutStr2@str	PTR const unsigned char  size(2) Largest target is 20
		 -> STR_12(CODE[8]), STR_11(CODE[9]), STR_10(CODE[15]), STR_9(CODE[5]), 
		 -> STR_8(CODE[5]), STR_7(CODE[4]), STR_6(CODE[5]), main@duty_string(BANK1[20]), 
		 -> main@pwm_string(BANK1[20]), STR_3(CODE[5]), STR_2(CODE[6]), STR_1(CODE[13]), 


Critical Paths under _main in COMMON

    _main->_LCDPutStr2
    _main->___xxtofl
    _vfpfcnvrt->_utoa
    _utoa->_pad
    _pad->_fputs
    _fputs->_fputc
    _motor_dir->_PWM3_LoadDutyValue
    ___fltol->___xxtofl
    ___flmul->___xxtofl
    ___fladd->___xxtofl
    _LCD_Initialize->_LCDPutCmd
    _LCDPutStr2->_LCDGoto
    _LCDPutChar->_LCDWriteNibble
    _LCDGoto->_LCDPutCmd
    _LCDPutCmd->_LCDWriteNibble

Critical Paths under _main in BANK0

    _main->_sprintf
    _sprintf->_vfprintf
    _vfprintf->_vfpfcnvrt
    _vfpfcnvrt->_utoa
    _utoa->___lodiv
    _utoa->___lomod
    _pad->_fputs
    ___fltol->___fladd
    ___fladd->___flmul

Critical Paths under _main in BANK1

    None.

Critical Paths under _main in BANK2

    None.

Critical Paths under _main in BANK3

    None.

Critical Paths under _main in BANK4

    None.

Critical Paths under _main in BANK5

    None.

Critical Paths under _main in BANK6

    None.

Call Graph Tables:

 ---------------------------------------------------------------------------------
 (Depth) Function   	        Calls       Base Space   Used Autos Params    Refs
 ---------------------------------------------------------------------------------
 (0) _main                                                55    55      0   17556
                                              0 BANK1     55    55      0
            _ADC_GetConversionResult
                _ADC_StartConversion
                         _LCDPutStr2
                     _LCD_Initialize
                 _PWM3_LoadDutyValue
                  _SYSTEM_Initialize
                            ___fladd
                            ___flmul
                            ___fltol
                           ___xxtofl
                          _motor_dir
                            _sprintf
 ---------------------------------------------------------------------------------
 (1) _sprintf                                             19    15      4    5599
                                             63 BANK0     17    13      4
                           _vfprintf
 ---------------------------------------------------------------------------------
 (2) _vfprintf                                             8     5      3    5182
                                             55 BANK0      8     5      3
                          _vfpfcnvrt
 ---------------------------------------------------------------------------------
 (3) _vfpfcnvrt                                           40    38      2    4872
                                             39 BANK0     16    14      2
                              _fputc
                               _utoa
 ---------------------------------------------------------------------------------
 (4) _utoa                                                24    16      8    3544
                                             13 COMMON     1     1      0
                                             16 BANK0     23    15      8
                            ___lodiv
                            ___lomod
                                _pad
 ---------------------------------------------------------------------------------
 (5) _pad                                                  9     6      3    2537
                                             12 COMMON     1     1      0
                                              4 BANK0      8     5      3
                              _fputc
                              _fputs
                             _strlen
 ---------------------------------------------------------------------------------
 (6) _strlen                                               5     3      2     123
                                              0 COMMON     5     3      2
 ---------------------------------------------------------------------------------
 (6) _fputs                                                8     7      1    1149
                                              8 COMMON     4     3      1
                                              0 BANK0      4     4      0
                              _fputc
 ---------------------------------------------------------------------------------
 (7) _fputc                                                8     5      3     834
                                              0 COMMON     8     5      3
                              _putch
 ---------------------------------------------------------------------------------
 (8) _putch                                                1     1      0       0
 ---------------------------------------------------------------------------------
 (5) ___lomod                                             18     2     16     311
                                              0 COMMON     2     2      0
                                              0 BANK0     16     0     16
 ---------------------------------------------------------------------------------
 (5) ___lodiv                                             26    10     16     314
                                              0 COMMON    10    10      0
                                              0 BANK0     16     0     16
 ---------------------------------------------------------------------------------
 (1) _motor_dir                                            1     1      0     490
                                              4 COMMON     1     1      0
                 _PWM3_LoadDutyValue
 ---------------------------------------------------------------------------------
 (2) _PWM3_LoadDutyValue                                   4     2      2     424
                                              0 COMMON     4     2      2
 ---------------------------------------------------------------------------------
 (1) ___xxtofl                                            14    10      4     474
                                              0 COMMON    14    10      4
 ---------------------------------------------------------------------------------
 (1) ___fltol                                             11     7      4     381
                                             46 BANK0     11     7      4
                            ___fladd (ARG)
                            ___flmul (ARG)
                           ___xxtofl (ARG)
 ---------------------------------------------------------------------------------
 (1) ___flmul                                             26    18      8    2569
                                              0 BANK0     26    18      8
                          __Umul8_16
                           ___xxtofl (ARG)
 ---------------------------------------------------------------------------------
 (2) __Umul8_16                                            9     7      2     799
                                              0 COMMON     9     7      2
 ---------------------------------------------------------------------------------
 (1) ___fladd                                             20    12      8    2262
                                             26 BANK0     20    12      8
                            ___flmul (ARG)
                           ___xxtofl (ARG)
 ---------------------------------------------------------------------------------
 (1) _SYSTEM_Initialize                                    0     0      0       0
                     _ADC_Initialize
              _OSCILLATOR_Initialize
             _PIN_MANAGER_Initialize
                    _PWM3_Initialize
                    _TMR2_Initialize
                     _WDT_Initialize
 ---------------------------------------------------------------------------------
 (2) _WDT_Initialize                                       0     0      0       0
 ---------------------------------------------------------------------------------
 (2) _TMR2_Initialize                                      0     0      0       0
 ---------------------------------------------------------------------------------
 (2) _PWM3_Initialize                                      0     0      0       0
 ---------------------------------------------------------------------------------
 (2) _PIN_MANAGER_Initialize                               0     0      0       0
 ---------------------------------------------------------------------------------
 (2) _OSCILLATOR_Initialize                                0     0      0       0
 ---------------------------------------------------------------------------------
 (2) _ADC_Initialize                                       0     0      0       0
 ---------------------------------------------------------------------------------
 (1) _LCD_Initialize                                       1     1      0     504
                                              6 COMMON     1     1      0
                          _LCDPutCmd
 ---------------------------------------------------------------------------------
 (1) _LCDPutStr2                                           8     4      4    4132
                                             10 COMMON     4     0      4
                                              0 BANK0      4     4      0
                            _LCDGoto
                         _LCDPutChar
 ---------------------------------------------------------------------------------
 (2) _LCDPutChar                                           3     3      0     504
                                              3 COMMON     3     3      0
                     _LCDWriteNibble
 ---------------------------------------------------------------------------------
 (2) _LCDGoto                                              4     3      1     714
                                              6 COMMON     4     3      1
                          _LCDPutCmd
 ---------------------------------------------------------------------------------
 (2) _LCDPutCmd                                            3     3      0     504
                                              3 COMMON     3     3      0
                     _LCDWriteNibble
 ---------------------------------------------------------------------------------
 (3) _LCDWriteNibble                                       3     2      1     437
                                              0 COMMON     3     2      1
 ---------------------------------------------------------------------------------
 (1) _ADC_StartConversion                                  0     0      0       0
 ---------------------------------------------------------------------------------
 (1) _ADC_GetConversionResult                              2     0      2       0
                                              0 COMMON     2     0      2
 ---------------------------------------------------------------------------------
 Estimated maximum stack depth 8
 ---------------------------------------------------------------------------------

 Call Graph Graphs:

 _main (ROOT)
   _ADC_GetConversionResult
   _ADC_StartConversion
   _LCDPutStr2
     _LCDGoto
       _LCDPutCmd
         _LCDWriteNibble
     _LCDPutChar
       _LCDWriteNibble
   _LCD_Initialize
     _LCDPutCmd
   _PWM3_LoadDutyValue
   _SYSTEM_Initialize
     _ADC_Initialize
     _OSCILLATOR_Initialize
     _PIN_MANAGER_Initialize
     _PWM3_Initialize
     _TMR2_Initialize
     _WDT_Initialize
   ___fladd
     ___flmul (ARG)
       __Umul8_16
       ___xxtofl (ARG)
     ___xxtofl (ARG)
   ___flmul
   ___fltol
     ___fladd (ARG)
     ___flmul (ARG)
     ___xxtofl (ARG)
   ___xxtofl
   _motor_dir
     _PWM3_LoadDutyValue
   _sprintf
     _vfprintf
       _vfpfcnvrt
         _fputc
           _putch
         _utoa
           ___lodiv
           ___lomod
           _pad
             _fputc
             _fputs
               _fputc
             _strlen

 Address spaces:
Name               Size   Autos  Total    Cost      Usage
BIGRAM             1F0      0       0       0        0.0%
NULL                 0      0       0       0        0.0%
CODE                 0      0       0       0        0.0%
BITCOMMON            E      0       0       1        0.0%
BITSFR0              0      0       0       1        0.0%
SFR0                 0      0       0       1        0.0%
COMMON               E      E       E       2      100.0%
BITSFR1              0      0       0       2        0.0%
SFR1                 0      0       0       2        0.0%
BITSFR2              0      0       0       3        0.0%
SFR2                 0      0       0       3        0.0%
STACK                0      0       0       3        0.0%
BITSFR3              0      0       0       4        0.0%
SFR3                 0      0       0       4        0.0%
ABS                  0      0      BF       4        0.0%
BITBANK0            50      0       0       5        0.0%
BITSFR4              0      0       0       5        0.0%
SFR4                 0      0       0       5        0.0%
BANK0               50     50      50       6      100.0%
BITSFR5              0      0       0       6        0.0%
SFR5                 0      0       0       6        0.0%
BITBANK1            50      0       0       7        0.0%
BITSFR6              0      0       0       7        0.0%
SFR6                 0      0       0       7        0.0%
BANK1               50     37      41       8       81.2%
BITSFR7              0      0       0       8        0.0%
SFR7                 0      0       0       8        0.0%
BITBANK2            50      0       0       9        0.0%
BITSFR8              0      0       0       9        0.0%
SFR8                 0      0       0       9        0.0%
BANK2               50      0      20      10       40.0%
BITSFR9              0      0       0      10        0.0%
SFR9                 0      0       0      10        0.0%
BITBANK3            50      0       0      11        0.0%
BITSFR10             0      0       0      11        0.0%
SFR10                0      0       0      11        0.0%
BANK3               50      0       0      12        0.0%
BITSFR11             0      0       0      12        0.0%
SFR11                0      0       0      12        0.0%
BITBANK4            50      0       0      13        0.0%
BITSFR12             0      0       0      13        0.0%
SFR12                0      0       0      13        0.0%
BANK4               50      0       0      14        0.0%
BITSFR13             0      0       0      14        0.0%
SFR13                0      0       0      14        0.0%
BITBANK5            50      0       0      15        0.0%
BITSFR14             0      0       0      15        0.0%
SFR14                0      0       0      15        0.0%
BANK5               50      0       0      16        0.0%
BITSFR15             0      0       0      16        0.0%
SFR15                0      0       0      16        0.0%
BITBANK6            10      0       0      17        0.0%
BITSFR16             0      0       0      17        0.0%
SFR16                0      0       0      17        0.0%
BANK6               10      0       0      18        0.0%
BITSFR17             0      0       0      18        0.0%
SFR17                0      0       0      18        0.0%
BITSFR18             0      0       0      19        0.0%
SFR18                0      0       0      19        0.0%
DATA                 0      0      BF      19        0.0%
BITSFR19             0      0       0      20        0.0%
SFR19                0      0       0      20        0.0%
BITSFR20             0      0       0      21        0.0%
SFR20                0      0       0      21        0.0%
BITSFR21             0      0       0      22        0.0%
SFR21                0      0       0      22        0.0%
BITSFR22             0      0       0      23        0.0%
SFR22                0      0       0      23        0.0%
BITSFR23             0      0       0      24        0.0%
SFR23                0      0       0      24        0.0%
BITSFR24             0      0       0      25        0.0%
SFR24                0      0       0      25        0.0%
BITSFR25             0      0       0      26        0.0%
SFR25                0      0       0      26        0.0%
BITSFR26             0      0       0      27        0.0%
SFR26                0      0       0      27        0.0%
BITSFR27             0      0       0      28        0.0%
SFR27                0      0       0      28        0.0%
BITSFR28             0      0       0      29        0.0%
SFR28                0      0       0      29        0.0%
BITSFR29             0      0       0      30        0.0%
SFR29                0      0       0      30        0.0%
BITSFR30             0      0       0      31        0.0%
SFR30                0      0       0      31        0.0%
BITSFR31             0      0       0      32        0.0%
SFR31                0      0       0      32        0.0%


Microchip Technology PIC Macro Assembler V2.36 build 20220127204148 
Symbol Table                                                                                   Sun May 15 11:22:57 2022

                 _LCD_Initialize 0AED                               l13 0A54                      ?_LCDPutChar 0070  
                             l53 0A67                               l56 0A3E                               l90 0A38  
                             l59 0A32                               l84 0A2E                               l78 000E  
                    ?_LCDPutStr2 007A              __Umul8_16@word_mpld 0076                              l111 0A7D  
                            l211 0C4B                              l140 0A96                              l108 0A4C  
                            l213 0C58                              l222 0ACD                              l215 0C65  
                            l208 0B0B                              l217 0C72                              l225 0AEC  
                            l219 0C7B                              l237 0B99                              l246 0C30  
                            l511 0E0C                              l521 0E0C                              l169 0B2C  
                            l622 01FB                              l518 0DF7                              l550 0E80  
                            l631 0333                              l624 01D7                              l720 0506  
                            l560 0D87                              l618 015A                              l714 058A  
                            l810 0D26                              l643 02AF                              l660 032A  
                            l652 0308                              l661 0333                              l733 0B3F  
                            l557 0E90                              l805 0CEA                              l813 001A  
                            l726 057E                              l830 0FFF                              l639 028D  
                            l735 0B4F                              l567 0D97                              l760 0F3C  
                            l808 0D0C                              l649 02D1                              l825 00FB  
                            l817 0035                              l771 0F08                              l772 0F14  
                            l764 0EEE                              l860 0005                              l780 0B72  
                            l837 0BF3                              l758 0EB3                              l849 0CCD  
                            l857 0BC2                              l866 0AB0                              _PR2 001B  
                            _pad 0CCE                  _TMR2_Initialize 0A4D                              wreg 0009  
                   ___flmul@aexp 0032                     ___flmul@bexp 0033                     ___flmul@sign 002D  
                   ___flmul@temp 0038                     ___flmul@prod 0034                  __end_of_LCDGoto 0B9A  
                   ___fltol@exp1 0058                             l2000 0080                             l2010 00C8  
                           l2002 0084                             l2020 0ACF                             l2100 0A45  
                           l2012 00D5                             l2004 0088                             l2022 0AD3  
                           l2110 000C                             l2102 0006                             l2014 00E3  
                           l2006 00B5                             l2030 0F3F                             l2024 0AD8  
                           l2120 0AC7                             l2200 0BF4                             l2104 0009  
                           l2112 0A68                             l2008 00BC                             l2016 00E8  
                           l2040 0F73                             l2032 0F50                             l2026 0AE3  
                           l2130 0B8C                             l2122 0B74                             l2114 0AB2  
                           l2210 0C1B                             l2202 0BFA                             l2106 000A  
                           l2050 0FB8                             l2042 0F7B                             l2034 0F58  
                           l2028 0AE7                             l2132 0B91                             l2124 0B7A  
                           l2116 0AB6                             l2212 0C20                             l2204 0C00  
                           l2108 000B                             l2300 014F                             l2140 0B37  
                           l2060 0FD9                             l2052 0FC0                             l2044 0F8D  
                           l2036 0F5D                             l2220 0B5E                             l2134 0B95  
                           l2126 0B81                             l2118 0ABC                             l2206 0C09  
                           l2310 0168                             l2302 0150                             l2142 0B3B  
                           l2054 0FCB                             l2038 0F61                             l2150 0BC5  
                           l2222 0B6A                             l2214 0B52                             l2128 0B86  
                           l2208 0C0C                             l2080 0A7E                             l2072 0A4D  
                           l2320 017C                             l2312 016C                             l2304 0152  
                           l2144 0B46                             l2136 0B2E                             l2240 0DCB  
                           l2232 0DAD                             l2048 0FA7                             l2064 0FDC  
                           l2152 0BC9                             l2216 0B5A                             l2090 0A92  
                           l2082 0A82                             l2074 0A50                             l2162 0A55  
                           l2410 02B6                             l2402 02A3                             l2330 0190  
                           l2322 0180                             l2314 0170                             l2306 0160  
                           l2146 0B4B                             l2138 0B30                             l2242 0DCF  
                           l2250 0DE7                             l2234 0DC0                             l2226 0D98  
                           l2170 0B0D                             l2066 0FF5                             l2058 0FD1  
                           l2154 0BCD                             l2218 0B5C                             l2164 0A2C  
                           l2092 0A94                             l2084 0A85                             l2076 0A51  
                           l2420 02C4                             l2412 02B8                             l2404 02AA  
                           l2332 0194                             l2324 0184                             l2316 0174  
                           l2308 0164                             l2340 01A4                             l2500 039C  
                           l2260 0E01                             l2236 0DC1                             l2228 0DA4  
                           l2180 0B23                             l2172 0B12                             l2156 0BE1  
                           l2166 0A33                             l2190 0AF7                             l2094 0A39  
                           l2086 0A8F                             l2078 0A52                             l2430 02DB  
                           l2422 02C8                             l2414 02BD                             l2406 02AE  
                           l2350 01E3                             l2342 01A5                             l2334 0198  
                           l2326 0188                             l2318 0178                             l2270 010B  
                           l2262 00FC                             l2510 03F7                             l2502 03A9  
                           l2238 0DC9                             l2182 0B26                             l2174 0B15  
                           l2158 0BEB                             l2192 0AFB                             l2096 0A3C  
                           l2088 0A91                             l2440 0312                             l2432 02E3  
                           l2424 02CE                             l2408 02B3                             l2416 02BF  
                           l2360 01FF                             l2352 01E7                             l2344 01BC  
                           l2336 019C                             l2328 018C                             l2272 0110  
                           l2280 0120                             l2264 0102                             l2520 042C  
                           l2512 0404                             l2504 03B6                             l2256 0DEE  
                           l2248 0DD7                             l2600 0E9B                             l2176 0B1B  
                           l2194 0AFF                             l2186 0AED                             l2098 0A2F  
                           l2450 0326                             l2442 031A                             l2434 02E7  
                           l2370 0219                             l2418 02C3                             l2362 0204  
                           l2354 01E8                             l2346 01DB                             l2338 01A0  
                           l2290 0138                             l2282 0128                             l2274 0115  
                           l2266 0106                             l2530 046F                             l2522 0439  
                           l2514 0411                             l2506 03D0                             l2258 0DFC  
                           l2610 0EC9                             l2602 0EAB                             l2178 0B1E  
                           l2196 0B03                             l2188 0AF0                             l2452 032E  
                           l2444 031F                             l2436 0304                             l2428 02D6  
                           l2380 022A                             l2372 021D                             l2356 01F0  
                           l2348 01E1                             l2292 013C                             l2284 012D  
                           l2276 011D                             l2268 010A                             l2540 04C3  
                           l2532 047C                             l2524 0440                             l2516 0418  
                           l2508 03DD                             l2460 033E                             l2620 0EF5  
                           l2612 0ED4                             l2604 0EBB                             l1900 0E33  
                           l2700 06A7                             l2198 0B07                             l2454 0332  
                           l2446 0320                             l2438 030D                             l2390 0277  
                           l2382 0232                             l2374 0223                             l2366 020D  
                           l2358 01F4                             l2294 013D                             l2286 0133  
                           l2278 011E                             l2550 04E2                             l2542 04CF  
                           l2534 0490                             l2526 0454                             l2518 0425  
                           l2470 0355                             l2462 0342                             l2630 0F2A  
                           l2622 0EFE                             l2614 0EDB                             l1910 0E72  
                           l1902 0E37                             l2710 06E2                             l2702 06B8  
                           l2448 0324                             l2392 027C                             l2376 0225  
                           l2368 0215                             l2384 0237                             l2296 0142  
                           l2288 0134                             l2560 0503                             l2544 04D6  
                           l2552 04E6                             l2536 04A5                             l2528 045B  
                           l2480 036C                             l2472 0357                             l2464 0343  
                           l2456 0334                             l2632 0F2F                             l2624 0F02  
                           l2616 0EDF                             l2608 0EC4                             l1904 0E3F  
                           l1920 0D43                             l1912 0D27                             l2712 06E7  
                           l2720 06FE                             l2704 06C6                             l2640 058B  
                           l2386 024D                             l2394 0285                             l2378 0229  
                           l2298 0147                             l2570 051C                             l2554 04EA  
                           l2546 04DA                             l2538 04BC                             l2490 0381  
                           l2482 036D                             l2474 035F                             l2466 0348  
                           l2458 033A                             l2634 0F33                             l2626 0F0C  
                           l2618 0EE7                             l1906 0E61                             l1922 0D47  
                           l1914 0D34                             l1930 0CD5                             l2730 072E  
                           l2722 0709                             l2714 06EF                             l2706 06D3  
                           l2650 059B                             l2642 0591                             l2396 0295  
                           l2388 0271                             l2580 055D                             l2572 0534  
                           l2564 050B                             l2556 04EB                             l2548 04DB  
                           l2492 0389                             l2484 0372                             l2476 0364  
                           l2468 034D                             l2636 0F34                             l2628 0F16  
                           l1908 0E71                             l1924 0D69                             l1916 0D37  
                           l1860 0C86                             l1940 0CF9                             l1932 0CDE  
                           l2740 0750                             l2732 0736                             l2724 070F  
                           l2716 06F6                             l2708 06DB                             l2660 05A3  
                           l2652 059B                             l2644 0593                             l1950 0C32  
                           l2398 029A                             l2590 057A                             l2582 0566  
                           l2566 0510                             l2574 0538                             l2558 04EF  
                           l2494 038E                             l2486 0377                             l2478 0368  
                           l1926 0D79                             l1918 0D3F                             l1862 0C8B  
                           l1942 0CFE                             l1934 0CE3                             l2750 0776  
                           l2742 075E                             l2726 0713                             l2734 073A  
                           l2718 06FB                             l2670 05D0                             l2662 05AD  
                           l2654 059B                             l2646 0595                             l1960 0C3F  
                           l1952 0C3B                             l2592 0582                             l2584 0568  
                           l2576 0545                             l2568 0518                             l2496 0393  
                           l2488 037F                             l1864 0C95                             l1856 0C7C  
                           l1872 0B9C                             l1880 0A98                             l1944 0D11  
                           l1936 0CE8                             l1928 0CD0                             l2760 0795  
                           l2752 077E                             l2744 0762                             l2736 0741  
                           l2728 0720                             l2680 05EC                             l2672 05D8  
                           l2664 05B7                             l2656 059D                             l2648 0599  
                           l1970 0C63                             l1962 0C49                             l1954 0C3C  
                           l2586 0575                             l2578 054F                             l1890 0E0D  
                           l1866 0CB3                             l1858 0C81                             l1874 0B9F  
                           l1882 0A9D                             l1946 0D1A                             l1938 0CED  
                           l2762 079A                             l2770 07AF                             l2754 0785  
                           l2738 0743                             l2746 076A                             l2690 0677  
                           l2682 05EE                             l2674 05DE                             l2666 05C5  
                           l2658 059D                             l1980 0C79                             l1972 0C66  
                           l1964 0C4C                             l1956 0C3D                             l2588 0579  
                           l2596 0E92                             l1892 0E17                             l1868 0CC4  
                           l1876 0BAD                             l1884 0AA1                             l2780 07C2  
                           l2772 07B6                             l2764 07A2                             l2756 078A  
                           l2748 0771                             l2692 0684                             l2684 05F1  
                           l2676 05E3                             l2668 05CB                             l1982 0C7A  
                           l1974 0C70                             l1966 0C56                             l1958 0C3E  
                           l2598 0E97                             l1894 0E24                             l1878 0BB2  
                           l1886 0AAA                             l1990 002D                             l2790 07C8  
                           l2782 07C6                             l2774 07BB                             l2766 07A8  
                           l2694 0687                             l2686 05F9                             l2758 078F  
                           l2678 05E6                             ?_pad 0024                             l1976 0C73  
                           l1968 0C59                             l1896 0E27                             l1992 003D  
                           l1984 0011                             l2792 07D2                             l2784 07C6  
                           l2776 07BC                             l2768 07AD                             l2696 0692  
                           l2688 062E                             l1978 0C78                             l1898 0E2F  
                           l1994 0051                             l1986 0016                             l2794 07DC  
                           l2786 07C6                             l2778 07C0                             l2698 0696  
                           l1996 0054                             l1988 0027                             l2788 07C8  
                           l1998 0059                             STR_1 100F                             STR_2 102D  
                           STR_3 1039                             STR_4 1047                             STR_5 1033  
                           STR_6 1020                             STR_7 1043                             STR_8 1020  
                           STR_9 103E                             u2000 0C70                             u2001 0C6F  
                           u2010 0016                             u2011 0015                             u2020 0027  
                           u2100 0F73                             u2021 0026                             u2101 0F72  
                           u2030 00BC                             u2110 0FB8                             u2031 00BB  
                           u2111 0FB7                             u3000 0510                             u2040 00C8  
                           u2200 0BEB                             u3001 050F                             u2041 00C7  
                           u2025 0023                             u2201 0BEA                             u3010 051C  
                           u2210 0B12                             u2050 00D5                             u3011 051B  
                           u2211 0B11                             u2051 00D4                             u2140 0B7A  
                           u3020 052A                             u2300 0DD6                             u3100 0EDA  
                           u2220 0B1B                             u2060 00E3                             u2141 0B79  
                           u2301 0DD5                             u3101 0ED9                             u2125 0A77  
                           u2221 0B1A                             u2061 00E2                             _LATA 010C  
                           u2150 0B80                             u3030 0545                             u2230 0B23  
                           u2070 00E8                             _LATB 010D                             u2151 0B7F  
                           u2135 0ABF                             u3031 0544                             u2231 0B22  
                           u2071 00E7                             u2055 00D1                             _LATC 010E  
                           u2160 0B86                             u2240 0BFA                             u2400 0133  
                           u3040 055D                             u2320 0DE6                             u3120 0EF4  
                           u3200 05CB                             u2161 0B85                             u2241 0BF9  
                           u2401 0132                             u3041 055C                             u3025 0526  
                           u2321 0DE5                             u3121 0EF3                             u2065 00DF  
                           u3201 05CA                             u2250 0C00                             u2410 013C  
                           u2170 0B3B                             u3050 0579                             u2330 0DED  
                           u2090 0F50                             u3210 05D0                             u2251 0BFF  
                           u2411 013B                             u2171 0B3A                             u3051 0578  
                           u3035 0541                             u2331 0DEC                             u2315 0DD8  
                           u3115 0EE8                             u2091 0F4F                             u3211 05CF  
                           u2260 0C30                             u2500 01E7                             u2420 0142  
                           u3140 0F02                             u3060 0E97                             u3300 06FB  
                           u3220 05DE                             u2085 0ADB                             u2261 0C2F  
                           u2501 01E6                             u2421 0141                             u3045 0559  
                           u3141 0F01                             u3061 0E96                             u3301 06FA  
                           u3221 05DD                             u2430 0147                             u2190 0B4B  
                           u2350 0DFC                             u2270 0DA4                             u3150 0F08  
                           u3070 0E9B                             u3310 0709                             u3230 05E3  
                           u2431 0146                             u2191 0B4A                             u2351 0DFB  
                           u2271 0DA3                             u3151 0F07                             u3135 0EF8  
                           u3071 0E9A                             u3311 0708                             u3231 05E2  
                           u2600 027C                             u2520 01FB                             u2440 0160  
                           u2360 0E01                             u2280 0DBA                             u3160 0F0C  
                           u3080 0EBB                             u1800 0E14                             u3400 07A8  
                           u3320 070F                             u3240 05EC                             u2601 027B  
                           u2521 01FA                             u2441 015F                             u2185 0B40  
                           u2361 0E00                             u2345 0DEF                             u3161 0F0B  
                           u3081 0EBA                             u3401 07A7                             u3321 070E  
                           u3241 05EB                             u2610 0295                             u2530 01FF  
                           u2450 0164                             u2370 010A                             u2290 0DCF  
                           u3170 0F20                             u1810 0E24                             u3410 07AD  
                           u3330 0741                             u3250 0684                             u2611 0294  
                           u2531 01FE                             u2515 01EA                             u2451 0163  
                           u2371 0109                             u2291 0DCE                             u1811 0E23  
                           u3411 07AC                             u3331 0740                             u3315 0705  
                           u3251 0683                             u2700 02D5                             u2620 029A  
                           u2540 0204                             u2460 01BC                             u2380 0110  
                           u3180 0F2F                             u1820 0E37                             u1740 0C81  
                           u1900 0CE3                             u3420 07B6                             u3340 0771  
                           u3260 0692                             u2701 02D4                             u2621 0299  
                           u2541 0203                             u2461 01BB                             u2381 010F  
                           u2285 0DB6                             u3181 0F2E                             u1821 0E36  
                           u1741 0C80                             u1901 0CE2                             u3421 07B5  
                           u3341 0770                             u3261 0691                             u2710 02DB  
                           u2550 0219                             u2470 01C6                             u2390 0115  
                           u3190 0F33                             u1830 0E61                             u1750 0C86  
                           u1910 0D0C                             u3430 07BB                             u3350 0776  
                           u3270 06E2                             u2711 02DA                             u2551 0218  
                           u2471 01C4                             u2391 0114                             u3191 0F32  
                           u3175 0F1C                             u3095 0ECE                             u1831 0E60  
                           u1751 0C85                             u1911 0D0B                             u3431 07BA  
                           u3351 0775                             u3271 06E1                             u3255 0680  
                           u2720 02E7                             u2640 02AE                             u2560 021D  
                           u2480 01C7                             u2800 0342                             u1840 0E80  
                           u1760 0C95                             u1920 0D11                             u3360 0785  
                           u3280 06E7                             u2721 02E6                             u2641 02AD  
                           u2561 021C                             u2465 01B8                             u2801 0341  
                           u1841 0E7F                             u1761 0C94                             u1921 0D10  
                           u3361 0784                             u3281 06E6                             u3265 068E  
                           u2730 02F5                             u2650 02B3                             u2570 0229  
                           u2490 01DB                             u2810 0348                             u1850 0D34  
                           u1770 0CB3                             u3370 078A                             u3290 06F6  
                           u3507 0AB3                             u2651 02B2                             u2635 02A4  
                           u2571 0228                             u2491 01DA                             u2811 0347  
                           u1835 0E5D                             u1851 0D33                             u1771 0CB2  
                           u1915 0D08                             u3371 0789                             u3291 06F5  
                           u1940 0C49                             u2740 0304                             u2660 02BD  
                           u2900 049B                             u2820 034D                             u1860 0D47  
                           u1780 0BC2                             u3380 0795                             u1941 0C48  
                           u3517 0B96                             u2741 0303                             u2661 02BC  
                           u2821 034C                             u1861 0D46                             u1781 0BC1  
                           u3381 0794                             u2750 030D                             u2670 02C3  
                           u2590 024D                             u2910 04B2                             u2830 036C  
                           u1870 0D69                             u1790 0AAA                             u3390 079A  
                           u1935 0C42                             u3527 0AD0                             u2751 030C  
                           u2735 02F1                             u2671 02C2                             u2591 024C  
                           u2831 036B                             u1871 0D68                             u1775 0CAF  
                           u1791 0AA9                             u3391 0799                             u1960 0C56  
                           u2760 0312                             u2680 02C8                             u2840 0372  
                           u1880 0D87                             u1961 0C55                             u3537 0AE4  
                           u2761 0311                             u2681 02C7                             u2593 0249  
                           u2585 022C                             u2905 0497                             u2841 0371  
                           u1881 0D86                             u3457 05D4                             u2770 031F  
                           u2690 02CE                             u2850 0377                             u1890 0CD5  
                           u1955 0C4F                             u2771 031E                             u2691 02CD  
                           u2915 04AE                             u2851 0376                             u1875 0D65  
                           u1891 0CD4                             u3467 06EB                             u1980 0C63  
                           u2780 0324                             u2940 04DA                             u2860 038E  
                           u1981 0C62                             u2781 0323                             u2941 04D9  
                           u2925 04BD                             u2861 038D                             u3477 077A  
                           u2790 0332                             u2870 0393                             u1975 0C5C  
                           u2791 0331                             u2935 04D0                             u2871 0392  
                           u3487 079E                             u2960 04EA                             u3497 0AF3  
                           u2961 04E9                             u2970 04EF                             u1995 0C69  
                           u2971 04EE                             u2955 04DC                             u2980 0503  
                           u2981 0502                             u2885 0412                             u2990 050A  
                           u2991 0509                             u2895 0441                             _TMR2 001A  
                           _WPUA 020C                             _WPUB 020D                             _dbuf 0120  
                           _main 058B                             _prec 00DB                             _nout 00D7  
                           pad@i 0027                             pad@p 0025                             fsr0h 0005  
                           fsr1h 0007                             indf0 0000                             fsr0l 0004  
                           indf1 0001                             fsr1l 0006                             pad@w 0029  
                           btemp 007E                             _utoa 000F                             start 0002  
                   main@adc_read 00CB           __end_of_LCD_Initialize 0B0C                            ??_pad 007C  
                    LCDPutCmd@ch 0075    __end_of_OSCILLATOR_Initialize 0A3F                    ___fltol@sign1 0057  
                __end_of___fladd 0334                            ?_main 0070                            STR_10 1000  
                          STR_11 101C                            STR_12 1025                  __end_of___flmul 058B  
                __end_of___fltol 0E0D                            ?_utoa 0030                  __end_of___lodiv 0E91  
                          _T2CON 001C                  __end_of___lomod 0D98                      LCDPutStr2@i 0023  
                   vfpfcnvrt@fmt 0047                     vfpfcnvrt@llu 004E                            _TRISA 008C  
                          _TRISB 008D                            _TRISC 008E                            _flags 00DD  
                 _WDT_Initialize 0A2F                            _fputc 0C7C                            _fputs 0B9A  
                          pad@fp 002B                            _width 00D9                            _putch 0005  
        __end_of_PWM3_Initialize 0A4D                     main@pwm_temp 00CD                            utoa@d 0030  
                          utoa@i 0045                            utoa@n 003D                            utoa@p 0039  
                          utoa@w 003B                            status 0003                            wtemp0 007E  
                __end_of_sprintf 0B73                 ___lodiv@dividend 0028                  ?_LCD_Initialize 0070  
                __initialization 07ED                     __end_of_main 07ED                     __end_of_utoa 00FC  
        __end_of_TMR2_Initialize 0A55                           ??_main 00A0                           ??_utoa 007D  
                      ??_LCDGoto 0077                __end_of_LCDPutCmd 0AED                     LCDPutChar@ch 0075  
               ___lodiv@quotient 0071           __end_of_WDT_Initialize 0A33                           _ADCON0 009D  
                         _ADCON1 009E                           _ADCON2 009F                           ?_fputc 0070  
                         ?_fputs 0078                           _ADRESH 009C                           _ADRESL 009B  
                         _APFCON 011D                           _ANSELA 018C                           ?_putch 0070  
                         _ANSELB 018D                           _ANSELC 018E                           _BORCON 0116  
                         _OSCCON 0099                           _WDTCON 0097                 __end_of___xxtofl 0F3D  
                 _LCDWriteNibble 0C31                     vfprintf@cfmt 005D                        ??___fladd 0042  
                      ??___flmul 0028                        ??___fltol 0052                        ??___lodiv 0070  
                      ??___lomod 0070                           pad@buf 0024                           _strlen 0A97  
                         fputc@c 0070                           fputs@c 0020                           fputs@i 0021  
                         fputs@s 0023                  ?_WDT_Initialize 0070                           putch@c 0070  
                  main@pwm_value 00D5                 __end_of_vfprintf 0BF4                           utoa@fp 0038  
                      ??_sprintf 0063                 ?_PWM3_Initialize 0070                     ___xxtofl@arg 007A  
                   ___xxtofl@exp 0079                _SYSTEM_Initialize 0A55                     ___xxtofl@val 0070  
         __end_of_LCDWriteNibble 0C7C          __end_of__initialization 07FD               ?_SYSTEM_Initialize 0070  
                     ___fltol@f1 004E                        LCDGoto@ln 0076                   __pcstackCOMMON 0070  
            ??_SYSTEM_Initialize 0070                    __end_of_fputc 0CCE                     ??_LCDPutChar 0073  
                  __end_of_fputs 0BC3                     ??_LCDPutStr2 0020                    __end_of_putch 0006  
               ?_TMR2_Initialize 0070          _ADC_GetConversionResult 0A33                   _OPTION_REGbits 0095  
                        ??_fputc 0073        __end_of_SYSTEM_Initialize 0A68                          ??_fputs 0079  
                        ??_putch 0070                       __pbssBANK1 00D7                       __pbssBANK2 0120  
                ?_LCDWriteNibble 0070               __end_of_LCDPutChar 0ACE                   main@direc_temp 00C9  
             __end_of_LCDPutStr2 0C31                __end_of__Umul8_16 0B50                       __pmaintext 058B  
                        ?_strlen 0070                          _LCDGoto 0B73                    LCDPutStr2@str 007A  
                      ?___xxtofl 0070                          _PWM3DCH 0618                          _PWM3DCL 0617  
                        _PWM3CON 0619                 ___lomod@dividend 0028                 ??_LCD_Initialize 0076  
                 main@duty_cycle 00CF             _ADC_InterruptHandler 00DF                          ___fladd 00FC  
                        ___flmul 0334                          ___fltol 0D98                          ___lodiv 0E0D  
                        ___lomod 0D27                        ?_vfprintf 0057        ??_ADC_GetConversionResult 0072  
                        __ptext1 0B50                          __ptext2 0BC3                          __ptext3 0F3D  
                        __ptext4 000F                          __ptext5 0CCE                          __ptext6 0A97  
                        __ptext7 0B9A                          __ptext8 0C7C                          __ptext9 0005  
          _OSCILLATOR_Initialize 0A39                        _T2CONbits 001C                       ??___xxtofl 0074  
       ??_PIN_MANAGER_Initialize 0070                  LCDPutStr2@_line 007D                        _LCDPutCmd 0ACE  
                        _sprintf 0B50                          clrloop0 0A40             end_of_initialization 07FD  
                        fputc@fp 0072                          fputs@fp 0078                __end_of_motor_dir 0B2D  
              __end_of_vfpfcnvrt 1000                   main@state_temp 00D1                       ??_vfprintf 005A  
                 main@pwm_string 00A1                          strlen@a 0073                          strlen@s 0074  
               ??_WDT_Initialize 0070                        _PORTCbits 000E                      ___fladd@grs 004D  
                  ___xxtofl@sign 0078              _ADC_StartConversion 0A2C                       ?_LCDPutCmd 0070  
                    ___flmul@grs 002E                       LCDGoto@pos 0079       __end_of_PWM3_LoadDutyValue 0A7E  
           ?_ADC_StartConversion 0070                      vfpfcnvrt@ap 0048                      vfpfcnvrt@fp 0056  
                 _ADC_Initialize 0006           ?_OSCILLATOR_Initialize 0070                   __end_of_strlen 0AB1  
            start_initialization 07ED                  ___lodiv@divisor 0020                  ___lodiv@counter 0079  
               ??_LCDWriteNibble 0071                      __end_of_pad 0D27            ??_ADC_StartConversion 0070  
                    vfprintf@fmt 0057           __end_of_ADC_Initialize 000F                        __Umul8_16 0B2D  
                       ??_strlen 0072                        ___fladd@a 003E                        ___fladd@b 003A  
                       ?_LCDGoto 0076                        ___flmul@a 0024                        ___flmul@b 0020  
                      ___latbits 0002                    __pcstackBANK0 0020                    __pcstackBANK1 00A0  
                    ??_LCDPutCmd 0073           _PIN_MANAGER_Initialize 0A7E                         ?___fladd 003A  
                       ?___flmul 0020                         ?___fltol 004E                         ?___lodiv 0020  
                       ?___lomod 0020                       ?__Umul8_16 0070                  ?_ADC_Initialize 0070  
               LCDWriteNibble@ch 0072                 LCDWriteNibble@rs 0070                  ___lomod@divisor 0020  
                ___lomod@counter 0071                         ?_sprintf 005F                   LCDPutStr2@_pos 007C  
                       _LATBbits 010D                         _LATCbits 010E                        clear_ram0 0A3F  
                    _LCDGoto$419 0077                         _PIR1bits 0011                        _motor_dir 0B0C  
                      _vfpfcnvrt 0F3D                ??_PWM3_Initialize 0070                       _ADCON0bits 009D  
              ??_TMR2_Initialize 0070                  main@duty_string 00B5                       vfprintf@ap 0059  
                     vfprintf@fp 005C         ?_ADC_GetConversionResult 0070                       ?_motor_dir 0070  
        ??_OSCILLATOR_Initialize 0070                      ??__Umul8_16 0072                       ?_vfpfcnvrt 0047  
             _PWM3_LoadDutyValue 0A68                       sprintf@fmt 005F                         ___xxtofl 0E91  
                       __ptext10 0D27                         __ptext11 0E0D                         __ptext20 0A2F  
                       __ptext12 0B0C                         __ptext21 0A4D                         __ptext13 0A68  
                       __ptext30 0ACE                         __ptext22 0A45                         __ptext14 0E91  
                       __ptext31 0C31                         __ptext23 0A7E                         __ptext15 0D98  
                       __ptext32 0A2C                         __ptext24 0A39                         __ptext16 0334  
                       __ptext33 0A33                         __ptext25 0006                         __ptext17 0B2D  
                       __ptext26 0AED                         __ptext18 00FC                         __ptext27 0BF4  
                       __ptext19 0A55                         __ptext28 0AB1                         __ptext29 0B73  
            ?_PWM3_LoadDutyValue 0070             ??_PWM3_LoadDutyValue 0072                         _vfprintf 0BC3  
                     _LCDPutChar 0AB1                       _LCDPutStr2 0BF4                  main@motor_direc 00D2  
                main@motor_state 00D4                   __pstringtext10 1047                   __pstringtext11 0000  
                      sprintf@ap 0064      __end_of_ADC_StartConversion 0A2F          ?_PIN_MANAGER_Initialize 0070  
__end_of_ADC_GetConversionResult 0A39                 ??_ADC_Initialize 0070                      ??_motor_dir 0074  
                   motor_dir@dir 0074      PWM3_LoadDutyValue@dutyValue 0070                      ??_vfpfcnvrt 0049  
                  __pstringtext1 1000                    __pstringtext2 100F                    __pstringtext3 101C  
                  __pstringtext4 1025                    __pstringtext5 102D                    __pstringtext6 1033  
                  __pstringtext7 1039                    __pstringtext8 103E                    __pstringtext9 1043  
         __Umul8_16@multiplicand 0070                         sprintf@f 0066                         sprintf@s 0065  
                  ___fladd@signs 004A   __end_of_PIN_MANAGER_Initialize 0A97                     ___fladd@aexp 004B  
                   ___fladd@bexp 004C             __Umul8_16@multiplier 0078                  _PWM3_Initialize 0A45  
              __Umul8_16@product 0074  
