

Microchip MPLAB XC8 Assembler V2.36 build 20220127204148 
                                                                                               Tue Mar 08 14:14:16 2022

Microchip MPLAB XC8 C Compiler v2.36 (Free license) build 20220127204148 Og1 
     1                           	processor	16F1509
     2                           	pagewidth 120
     3                           	opt	flic
     4                           	psect	cinit,global,class=CODE,merge=1,delta=2
     5                           	psect	cstackCOMMON,global,class=COMMON,space=1,delta=1,noexec
     6                           	psect	maintext,global,class=CODE,merge=1,split=1,delta=2
     7                           	psect	text1,local,class=CODE,merge=1,delta=2
     8                           	psect	text2,local,class=CODE,merge=1,delta=2
     9                           	psect	text3,local,class=CODE,merge=1,delta=2
    10                           	psect	text4,local,class=CODE,merge=1,delta=2
    11                           	psect	text5,local,class=CODE,merge=1,delta=2
    12                           	psect	text6,local,class=CODE,merge=1,delta=2
    13                           	psect	text7,local,class=CODE,merge=1,delta=2
    14                           	psect	text8,local,class=CODE,merge=1,delta=2
    15                           	psect	text9,local,class=CODE,merge=1,delta=2
    16                           	psect	text10,local,class=CODE,merge=1,delta=2
    17                           	psect	text11,local,class=CODE,merge=1,delta=2
    18                           	psect	text12,local,class=CODE,merge=1,delta=2
    19                           	psect	idloc,global,abs,ovrld,class=IDLOC,space=5,delta=2,noexec
    20                           	psect	config,global,abs,ovrld,class=CONFIG,space=4,delta=2,noexec
    21                           	psect	maintext_split_1,global,class=CODE,merge=1,split=1,delta=2
    22                           	psect	maintext_split_2,global,class=CODE,merge=1,split=1,delta=2
    23                           	psect	maintext_split_3,global,class=CODE,merge=1,split=1,delta=2
    24                           	dabs	1,0x7E,2
    25  0000                     
    26                           ; Version 2.40
    27                           ; Generated 17/11/2021 GMT
    28                           ; 
    29                           ; Copyright © 2021, Microchip Technology Inc. and its subsidiaries ("Microchip")
    30                           ; All rights reserved.
    31                           ; 
    32                           ; This software is developed by Microchip Technology Inc. and its subsidiaries ("Microch
      +                          ip").
    33                           ; 
    34                           ; Redistribution and use in source and binary forms, with or without modification, are
    35                           ; permitted provided that the following conditions are met:
    36                           ; 
    37                           ;     1. Redistributions of source code must retain the above copyright notice, this lis
      +                          t of
    38                           ;        conditions and the following disclaimer.
    39                           ; 
    40                           ;     2. Redistributions in binary form must reproduce the above copyright notice, this 
      +                          list
    41                           ;        of conditions and the following disclaimer in the documentation and/or other
    42                           ;        materials provided with the distribution. Publication is not required when
    43                           ;        this file is used in an embedded application.
    44                           ; 
    45                           ;     3. Microchip's name may not be used to endorse or promote products derived from th
      +                          is
    46                           ;        software without specific prior written permission.
    47                           ; 
    48                           ; THIS SOFTWARE IS PROVIDED BY MICROCHIP "AS IS" AND ANY EXPRESS OR IMPLIED WARRANTIES,
    49                           ; INCLUDING, BUT NOT LIMITED TO, THE IMPLIED WARRANTIES OF MERCHANTABILITY AND FITNESS F
      +                          OR
    50                           ; PURPOSE ARE DISCLAIMED.  IN NO EVENT SHALL MICROCHIP BE LIABLE FOR ANY DIRECT, INDIREC
      +                          T,
    51                           ; INCIDENTAL, SPECIAL, EXEMPLARY, OR CONSEQUENTIAL DAMAGES (INCLUDING BUT NOT LIMITED TO
    52                           ; PROCUREMENT OF SUBSTITUTE GOODS OR SERVICES; LOSS OF USE, DATA OR PROFITS; OR BUSINESS
    53                           ; INTERRUPTION) HOWSOEVER CAUSED AND ON ANY THEORY OF LIABILITY, WHETHER IN CONTRACT, ST
      +                          RICT
    54                           ; LIABILITY, OR TORT (INCLUDING NEGLIGENCE OR OTHERWISE) ARISING IN ANY WAY OUT OF THE U
      +                          SE OF
    55                           ; THIS SOFTWARE, EVEN IF ADVISED OF THE POSSIBILITY OF SUCH DAMAGE.
    56                           ; 
    57                           ; 
    58                           ; Code-generator required, PIC16F1509 Definitions
    59                           ; 
    60                           ; SFR Addresses
    61  0000                     	;# 
    62  0001                     	;# 
    63  0002                     	;# 
    64  0003                     	;# 
    65  0004                     	;# 
    66  0005                     	;# 
    67  0006                     	;# 
    68  0007                     	;# 
    69  0008                     	;# 
    70  0009                     	;# 
    71  000A                     	;# 
    72  000B                     	;# 
    73  000C                     	;# 
    74  000D                     	;# 
    75  000E                     	;# 
    76  0011                     	;# 
    77  0012                     	;# 
    78  0013                     	;# 
    79  0015                     	;# 
    80  0016                     	;# 
    81  0016                     	;# 
    82  0017                     	;# 
    83  0018                     	;# 
    84  0019                     	;# 
    85  001A                     	;# 
    86  001B                     	;# 
    87  001C                     	;# 
    88  008C                     	;# 
    89  008D                     	;# 
    90  008E                     	;# 
    91  0091                     	;# 
    92  0092                     	;# 
    93  0093                     	;# 
    94  0095                     	;# 
    95  0096                     	;# 
    96  0097                     	;# 
    97  0099                     	;# 
    98  009A                     	;# 
    99  009B                     	;# 
   100  009B                     	;# 
   101  009C                     	;# 
   102  009D                     	;# 
   103  009E                     	;# 
   104  009F                     	;# 
   105  010C                     	;# 
   106  010D                     	;# 
   107  010E                     	;# 
   108  0111                     	;# 
   109  0112                     	;# 
   110  0113                     	;# 
   111  0114                     	;# 
   112  0115                     	;# 
   113  0116                     	;# 
   114  0117                     	;# 
   115  0118                     	;# 
   116  0119                     	;# 
   117  011D                     	;# 
   118  018C                     	;# 
   119  018D                     	;# 
   120  018E                     	;# 
   121  0191                     	;# 
   122  0191                     	;# 
   123  0192                     	;# 
   124  0193                     	;# 
   125  0193                     	;# 
   126  0194                     	;# 
   127  0195                     	;# 
   128  0196                     	;# 
   129  0197                     	;# 
   130  0199                     	;# 
   131  019A                     	;# 
   132  019B                     	;# 
   133  019B                     	;# 
   134  019C                     	;# 
   135  019D                     	;# 
   136  019E                     	;# 
   137  019F                     	;# 
   138  020C                     	;# 
   139  020D                     	;# 
   140  0211                     	;# 
   141  0211                     	;# 
   142  0212                     	;# 
   143  0212                     	;# 
   144  0213                     	;# 
   145  0213                     	;# 
   146  0214                     	;# 
   147  0214                     	;# 
   148  0215                     	;# 
   149  0215                     	;# 
   150  0215                     	;# 
   151  0216                     	;# 
   152  0216                     	;# 
   153  0217                     	;# 
   154  0217                     	;# 
   155  0391                     	;# 
   156  0392                     	;# 
   157  0393                     	;# 
   158  0394                     	;# 
   159  0395                     	;# 
   160  0396                     	;# 
   161  0498                     	;# 
   162  0498                     	;# 
   163  0499                     	;# 
   164  049A                     	;# 
   165  049B                     	;# 
   166  049B                     	;# 
   167  049C                     	;# 
   168  049D                     	;# 
   169  049E                     	;# 
   170  049F                     	;# 
   171  0611                     	;# 
   172  0612                     	;# 
   173  0613                     	;# 
   174  0613                     	;# 
   175  0614                     	;# 
   176  0615                     	;# 
   177  0616                     	;# 
   178  0616                     	;# 
   179  0617                     	;# 
   180  0618                     	;# 
   181  0619                     	;# 
   182  0619                     	;# 
   183  061A                     	;# 
   184  061B                     	;# 
   185  061C                     	;# 
   186  061C                     	;# 
   187  0691                     	;# 
   188  0692                     	;# 
   189  0693                     	;# 
   190  0694                     	;# 
   191  0695                     	;# 
   192  0F0F                     	;# 
   193  0F10                     	;# 
   194  0F11                     	;# 
   195  0F12                     	;# 
   196  0F13                     	;# 
   197  0F14                     	;# 
   198  0F15                     	;# 
   199  0F16                     	;# 
   200  0F17                     	;# 
   201  0F18                     	;# 
   202  0F19                     	;# 
   203  0F1A                     	;# 
   204  0F1B                     	;# 
   205  0F1C                     	;# 
   206  0F1D                     	;# 
   207  0F1E                     	;# 
   208  0F1F                     	;# 
   209  0F20                     	;# 
   210  0F21                     	;# 
   211  0F22                     	;# 
   212  0F23                     	;# 
   213  0F24                     	;# 
   214  0F25                     	;# 
   215  0F26                     	;# 
   216  0F27                     	;# 
   217  0F28                     	;# 
   218  0F29                     	;# 
   219  0F2A                     	;# 
   220  0F2B                     	;# 
   221  0F2C                     	;# 
   222  0F2D                     	;# 
   223  0F2E                     	;# 
   224  0F2F                     	;# 
   225  0F8C                     	;# 
   226  0F8D                     	;# 
   227  0F91                     	;# 
   228  0F95                     	;# 
   229  0F96                     	;# 
   230  0F97                     	;# 
   231  0F9C                     	;# 
   232  0F9D                     	;# 
   233  0F9E                     	;# 
   234  0FE3                     	;# 
   235  0FE4                     	;# 
   236  0FE5                     	;# 
   237  0FE6                     	;# 
   238  0FE7                     	;# 
   239  0FE8                     	;# 
   240  0FE9                     	;# 
   241  0FEA                     	;# 
   242  0FEB                     	;# 
   243  0FED                     	;# 
   244  0FEE                     	;# 
   245  0FEF                     	;# 
   246  008E                     _TRISC	set	142
   247  010E                     _LATCbits	set	270
   248  018E                     _ANSELC	set	398
   249                           
   250                           	psect	cinit
   251  07FD                     start_initialization:	
   252                           ; #config settings
   253                           
   254  07FD                     __initialization:
   255  07FD                     end_of_initialization:	
   256                           ;End of C runtime variable initialization code
   257                           
   258  07FD                     __end_of__initialization:
   259  07FD  0020               	movlb	0
   260  07FE  318E  2EED         	ljmp	_main	;jump to C main() function
   261                           
   262                           	psect	cstackCOMMON
   263  0070                     __pcstackCOMMON:
   264  0070                     ?_pulse_gen:
   265  0070                     ?_latch_gen:	
   266                           ; 1 bytes @ 0x0
   267                           
   268  0070                     ??_latch_gen:	
   269                           ; 1 bytes @ 0x0
   270                           
   271  0070                     ?_state_0:	
   272                           ; 1 bytes @ 0x0
   273                           
   274  0070                     ?_state_1:	
   275                           ; 1 bytes @ 0x0
   276                           
   277  0070                     ?_state_2:	
   278                           ; 1 bytes @ 0x0
   279                           
   280  0070                     ?_state_3:	
   281                           ; 1 bytes @ 0x0
   282                           
   283  0070                     ?_state_4:	
   284                           ; 1 bytes @ 0x0
   285                           
   286  0070                     ?_state_5:	
   287                           ; 1 bytes @ 0x0
   288                           
   289  0070                     ?_state_6:	
   290                           ; 1 bytes @ 0x0
   291                           
   292  0070                     ?_state_7:	
   293                           ; 1 bytes @ 0x0
   294                           
   295  0070                     ?_state_8:	
   296                           ; 1 bytes @ 0x0
   297                           
   298  0070                     ?_state_9:	
   299                           ; 1 bytes @ 0x0
   300                           
   301  0070                     ?_main:	
   302                           ; 1 bytes @ 0x0
   303                           
   304  0070                     pulse_gen@n:	
   305                           ; 1 bytes @ 0x0
   306                           
   307                           
   308                           ; 2 bytes @ 0x0
   309  0070                     	ds	2
   310  0072                     ??_pulse_gen:
   311                           
   312                           ; 1 bytes @ 0x2
   313  0072                     	ds	3
   314  0075                     pulse_gen@i:
   315                           
   316                           ; 2 bytes @ 0x5
   317  0075                     	ds	2
   318  0077                     ??_state_0:
   319  0077                     ??_state_1:	
   320                           ; 1 bytes @ 0x7
   321                           
   322  0077                     ??_state_2:	
   323                           ; 1 bytes @ 0x7
   324                           
   325  0077                     ??_state_3:	
   326                           ; 1 bytes @ 0x7
   327                           
   328  0077                     ??_state_4:	
   329                           ; 1 bytes @ 0x7
   330                           
   331  0077                     ??_state_5:	
   332                           ; 1 bytes @ 0x7
   333                           
   334  0077                     ??_state_6:	
   335                           ; 1 bytes @ 0x7
   336                           
   337  0077                     ??_state_7:	
   338                           ; 1 bytes @ 0x7
   339                           
   340  0077                     ??_state_8:	
   341                           ; 1 bytes @ 0x7
   342                           
   343  0077                     ??_state_9:	
   344                           ; 1 bytes @ 0x7
   345                           
   346  0077                     ??_main:	
   347                           ; 1 bytes @ 0x7
   348                           
   349                           
   350                           ; 1 bytes @ 0x7
   351  0077                     	ds	1
   352                           
   353                           	psect	maintext
   354  0EED                     __pmaintext:	
   355 ;;
   356 ;;Main: autosize = 0, tempsize = 1, incstack = 0, save=0
   357 ;;
   358 ;; *************** function _main *****************
   359 ;; Defined at:
   360 ;;		line 102 in file "newmain.c"
   361 ;; Parameters:    Size  Location     Type
   362 ;;		None
   363 ;; Auto vars:     Size  Location     Type
   364 ;;		None
   365 ;; Return value:  Size  Location     Type
   366 ;;                  1    wreg      void 
   367 ;; Registers used:
   368 ;;		wreg, status,2, status,0, pclath, cstack
   369 ;; Tracked objects:
   370 ;;		On entry : B1F/0
   371 ;;		On exit  : 0/0
   372 ;;		Unchanged: 0/0
   373 ;; Data sizes:     COMMON   BANK0   BANK1   BANK2   BANK3   BANK4   BANK5   BANK6
   374 ;;      Params:         0       0       0       0       0       0       0       0
   375 ;;      Locals:         0       0       0       0       0       0       0       0
   376 ;;      Temps:          1       0       0       0       0       0       0       0
   377 ;;      Totals:         1       0       0       0       0       0       0       0
   378 ;;Total ram usage:        1 bytes
   379 ;; Hardware stack levels required when called: 2
   380 ;; This function calls:
   381 ;;		_latch_gen
   382 ;;		_pulse_gen
   383 ;;		_state_0
   384 ;;		_state_1
   385 ;;		_state_2
   386 ;;		_state_3
   387 ;;		_state_4
   388 ;;		_state_5
   389 ;;		_state_6
   390 ;;		_state_7
   391 ;;		_state_8
   392 ;;		_state_9
   393 ;; This function is called by:
   394 ;;		Startup code after reset
   395 ;; This function uses a non-reentrant model
   396 ;;
   397                           
   398  0EED                     _main:	
   399                           ;psect for function _main
   400                           
   401  0EED                     l1801:	
   402                           ;incstack = 0
   403                           ; Regs used in _main: [wreg+status,2+status,0+pclath+cstack]
   404                           
   405                           
   406                           ;newmain.c: 103:     TRISC = 0;
   407  0EED  0021               	movlb	1	; select bank1
   408  0EEE  018E               	clrf	14	;volatile
   409                           
   410                           ;newmain.c: 104:     ANSELC = 0;
   411  0EEF  0023               	movlb	3	; select bank3
   412  0EF0  018E               	clrf	14	;volatile
   413  0EF1                     l1803:
   414                           
   415                           ;newmain.c: 112:         state_0(); pulse_gen(1); state_0(); latch_gen();_delay((unsigne
      +                          d long)((200)*(1000000/4000.0)));
   416  0EF1  318D  2552  318E   	fcall	_state_0
   417  0EF4                     l1805:
   418  0EF4  3001               	movlw	1
   419  0EF5  00F0               	movwf	pulse_gen@n
   420  0EF6  3000               	movlw	0
   421  0EF7  00F1               	movwf	pulse_gen@n+1
   422  0EF8  3180  2007  318E   	fcall	_pulse_gen
   423  0EFB                     l1807:
   424  0EFB  318D  2552  318E   	fcall	_state_0
   425  0EFE                     l1809:
   426  0EFE  318D  2544  318E   	fcall	_latch_gen
   427  0F01                     l1811:
   428  0F01  3041               	movlw	65
   429  0F02  00F7               	movwf	??_main
   430  0F03  30EE               	movlw	238
   431  0F04                     u37:
   432  0F04  0B89               	decfsz	9,f
   433  0F05  2F04               	goto	u37
   434  0F06  0BF7               	decfsz	??_main,f
   435  0F07  2F04               	goto	u37
   436  0F08  3200               	nop2
   437  0F09                     l1813:
   438                           
   439                           ;newmain.c: 113:         state_0(); pulse_gen(1); state_1(); latch_gen();_delay((unsigne
      +                          d long)((200)*(1000000/4000.0)));
   440  0F09  318D  2552  318E   	fcall	_state_0
   441  0F0C                     l1815:
   442  0F0C  3001               	movlw	1
   443  0F0D  00F0               	movwf	pulse_gen@n
   444  0F0E  3000               	movlw	0
   445  0F0F  00F1               	movwf	pulse_gen@n+1
   446  0F10  3180  2007  318E   	fcall	_pulse_gen
   447  0F13                     l1817:
   448  0F13  318D  2578  318E   	fcall	_state_1
   449  0F16                     l1819:
   450  0F16  318D  2544  318E   	fcall	_latch_gen
   451  0F19                     l1821:
   452  0F19  3041               	movlw	65
   453  0F1A  00F7               	movwf	??_main
   454  0F1B  30EE               	movlw	238
   455  0F1C                     u47:
   456  0F1C  0B89               	decfsz	9,f
   457  0F1D  2F1C               	goto	u47
   458  0F1E  0BF7               	decfsz	??_main,f
   459  0F1F  2F1C               	goto	u47
   460  0F20  3200               	nop2
   461  0F21                     l1823:
   462                           
   463                           ;newmain.c: 114:         state_0(); pulse_gen(1); state_2(); latch_gen();_delay((unsigne
      +                          d long)((200)*(1000000/4000.0)));
   464  0F21  318D  2552  318E   	fcall	_state_0
   465  0F24                     l1825:
   466  0F24  3001               	movlw	1
   467  0F25  00F0               	movwf	pulse_gen@n
   468  0F26  3000               	movlw	0
   469  0F27  00F1               	movwf	pulse_gen@n+1
   470  0F28  3180  2007  318E   	fcall	_pulse_gen
   471  0F2B                     l1827:
   472  0F2B  318E  260D  318E   	fcall	_state_2
   473  0F2E                     l1829:
   474  0F2E  318D  2544  318E   	fcall	_latch_gen
   475  0F31                     l1831:
   476  0F31  3041               	movlw	65
   477  0F32  00F7               	movwf	??_main
   478  0F33  30EE               	movlw	238
   479  0F34                     u57:
   480  0F34  0B89               	decfsz	9,f
   481  0F35  2F34               	goto	u57
   482  0F36  0BF7               	decfsz	??_main,f
   483  0F37  2F34               	goto	u57
   484  0F38  3200               	nop2
   485  0F39                     l1833:
   486                           
   487                           ;newmain.c: 115:         state_0(); pulse_gen(1); state_3(); latch_gen();_delay((unsigne
      +                          d long)((200)*(1000000/4000.0)));
   488  0F39  318D  2552  318E   	fcall	_state_0
   489  0F3C                     l1835:
   490  0F3C  3001               	movlw	1
   491  0F3D  00F0               	movwf	pulse_gen@n
   492  0F3E  3000               	movlw	0
   493  0F3F  00F1               	movwf	pulse_gen@n+1
   494  0F40  3180  2007  318E   	fcall	_pulse_gen
   495  0F43                     l1837:
   496  0F43  318D  2594  318E   	fcall	_state_3
   497  0F46                     l1839:
   498  0F46  318D  2544  318E   	fcall	_latch_gen
   499  0F49                     l1841:
   500  0F49  3041               	movlw	65
   501  0F4A  00F7               	movwf	??_main
   502  0F4B  30EE               	movlw	238
   503  0F4C                     u67:
   504  0F4C  0B89               	decfsz	9,f
   505  0F4D  2F4C               	goto	u67
   506  0F4E  0BF7               	decfsz	??_main,f
   507  0F4F  2F4C               	goto	u67
   508  0F50  3200               	nop2
   509  0F51                     l1843:
   510                           
   511                           ;newmain.c: 116:         state_0(); pulse_gen(1); state_4(); latch_gen();_delay((unsigne
      +                          d long)((200)*(1000000/4000.0)));
   512  0F51  318D  2552  318E   	fcall	_state_0
   513  0F54                     l1845:
   514  0F54  3001               	movlw	1
   515  0F55  00F0               	movwf	pulse_gen@n
   516  0F56  3000               	movlw	0
   517  0F57  00F1               	movwf	pulse_gen@n+1
   518  0F58  3180  2007  318E   	fcall	_pulse_gen
   519  0F5B                     l1847:
   520  0F5B  318D  25E8  318E   	fcall	_state_4
   521  0F5E                     l1849:
   522  0F5E  318D  2544  318E   	fcall	_latch_gen
   523  0F61                     l1851:
   524  0F61  3041               	movlw	65
   525  0F62  00F7               	movwf	??_main
   526  0F63  30EE               	movlw	238
   527  0F64                     u77:
   528  0F64  0B89               	decfsz	9,f
   529  0F65  2F64               	goto	u77
   530  0F66  0BF7               	decfsz	??_main,f
   531  0F67  2F64               	goto	u77
   532  0F68  3200               	nop2
   533  0F69                     l1853:
   534                           
   535                           ;newmain.c: 117:         state_0(); pulse_gen(1); state_5(); latch_gen();_delay((unsigne
      +                          d long)((200)*(1000000/4000.0)));
   536  0F69  318D  2552  318E   	fcall	_state_0
   537  0F6C                     l1855:
   538  0F6C  3001               	movlw	1
   539  0F6D  00F0               	movwf	pulse_gen@n
   540  0F6E  3000               	movlw	0
   541  0F6F  00F1               	movwf	pulse_gen@n+1
   542  0F70  3180  2007  318E   	fcall	_pulse_gen
   543  0F73                     l1857:
   544  0F73  318F  2F75         	ljmp	L1
   545                           
   546                           	psect	text1
   547  0DCC                     __ptext1:	
   548 ;; *************** function _state_9 *****************
   549 ;; Defined at:
   550 ;;		line 97 in file "newmain.c"
   551 ;; Parameters:    Size  Location     Type
   552 ;;		None
   553 ;; Auto vars:     Size  Location     Type
   554 ;;		None
   555 ;; Return value:  Size  Location     Type
   556 ;;                  1    wreg      void 
   557 ;; Registers used:
   558 ;;		wreg, status,2, status,0, pclath, cstack
   559 ;; Tracked objects:
   560 ;;		On entry : 0/0
   561 ;;		On exit  : 0/0
   562 ;;		Unchanged: 0/0
   563 ;; Data sizes:     COMMON   BANK0   BANK1   BANK2   BANK3   BANK4   BANK5   BANK6
   564 ;;      Params:         0       0       0       0       0       0       0       0
   565 ;;      Locals:         0       0       0       0       0       0       0       0
   566 ;;      Temps:          0       0       0       0       0       0       0       0
   567 ;;      Totals:         0       0       0       0       0       0       0       0
   568 ;;Total ram usage:        0 bytes
   569 ;; Hardware stack levels used: 1
   570 ;; Hardware stack levels required when called: 1
   571 ;; This function calls:
   572 ;;		_pulse_gen
   573 ;; This function is called by:
   574 ;;		_main
   575 ;; This function uses a non-reentrant model
   576 ;;
   577                           
   578  0DCC                     _state_9:	
   579                           ;psect for function _state_9
   580                           
   581  0DCC                     l1791:	
   582                           ;incstack = 0
   583                           ; Regs used in _state_9: [wreg+status,2+status,0+pclath+cstack]
   584                           
   585                           
   586                           ;newmain.c: 98:     LATCbits.LATC1 = 0; pulse_gen(2);
   587  0DCC  0022               	movlb	2	; select bank2
   588  0DCD  108E               	bcf	14,1	;volatile
   589  0DCE                     l1793:
   590  0DCE  3002               	movlw	2
   591  0DCF  00F0               	movwf	pulse_gen@n
   592  0DD0  3000               	movlw	0
   593  0DD1  00F1               	movwf	pulse_gen@n+1
   594  0DD2  3180  2007  318D   	fcall	_pulse_gen
   595  0DD5                     l1795:
   596                           
   597                           ;newmain.c: 99:     LATCbits.LATC1 = 1; pulse_gen(1);
   598  0DD5  0022               	movlb	2	; select bank2
   599  0DD6  148E               	bsf	14,1	;volatile
   600  0DD7  3001               	movlw	1
   601  0DD8  00F0               	movwf	pulse_gen@n
   602  0DD9  3000               	movlw	0
   603  0DDA  00F1               	movwf	pulse_gen@n+1
   604  0DDB  3180  2007  318D   	fcall	_pulse_gen
   605  0DDE                     l1797:
   606                           
   607                           ;newmain.c: 100:     LATCbits.LATC1 = 0; pulse_gen(4); return;
   608  0DDE  0022               	movlb	2	; select bank2
   609  0DDF  108E               	bcf	14,1	;volatile
   610  0DE0  3004               	movlw	4
   611  0DE1  00F0               	movwf	pulse_gen@n
   612  0DE2  3000               	movlw	0
   613  0DE3  00F1               	movwf	pulse_gen@n+1
   614  0DE4  3180  2007  318D   	fcall	_pulse_gen
   615  0DE7                     l47:
   616  0DE7  0008               	return
   617  0DE8                     __end_of_state_9:
   618                           
   619                           	psect	text2
   620  0D48                     __ptext2:	
   621 ;; *************** function _state_8 *****************
   622 ;; Defined at:
   623 ;;		line 94 in file "newmain.c"
   624 ;; Parameters:    Size  Location     Type
   625 ;;		None
   626 ;; Auto vars:     Size  Location     Type
   627 ;;		None
   628 ;; Return value:  Size  Location     Type
   629 ;;                  1    wreg      void 
   630 ;; Registers used:
   631 ;;		wreg, status,2, status,0, pclath, cstack
   632 ;; Tracked objects:
   633 ;;		On entry : 0/0
   634 ;;		On exit  : 0/0
   635 ;;		Unchanged: 0/0
   636 ;; Data sizes:     COMMON   BANK0   BANK1   BANK2   BANK3   BANK4   BANK5   BANK6
   637 ;;      Params:         0       0       0       0       0       0       0       0
   638 ;;      Locals:         0       0       0       0       0       0       0       0
   639 ;;      Temps:          0       0       0       0       0       0       0       0
   640 ;;      Totals:         0       0       0       0       0       0       0       0
   641 ;;Total ram usage:        0 bytes
   642 ;; Hardware stack levels used: 1
   643 ;; Hardware stack levels required when called: 1
   644 ;; This function calls:
   645 ;;		_pulse_gen
   646 ;; This function is called by:
   647 ;;		_main
   648 ;; This function uses a non-reentrant model
   649 ;;
   650                           
   651  0D48                     _state_8:	
   652                           ;psect for function _state_8
   653                           
   654  0D48                     l1785:	
   655                           ;incstack = 0
   656                           ; Regs used in _state_8: [wreg+status,2+status,0+pclath+cstack]
   657                           
   658                           
   659                           ;newmain.c: 95:     LATCbits.LATC1 = 0; pulse_gen(7); return;
   660  0D48  0022               	movlb	2	; select bank2
   661  0D49  108E               	bcf	14,1	;volatile
   662  0D4A                     l1787:
   663  0D4A  3007               	movlw	7
   664  0D4B  00F0               	movwf	pulse_gen@n
   665  0D4C  3000               	movlw	0
   666  0D4D  00F1               	movwf	pulse_gen@n+1
   667  0D4E  3180  2007  318D   	fcall	_pulse_gen
   668  0D51                     l44:
   669  0D51  0008               	return
   670  0D52                     __end_of_state_8:
   671                           
   672                           	psect	text3
   673  0D65                     __ptext3:	
   674 ;; *************** function _state_7 *****************
   675 ;; Defined at:
   676 ;;		line 90 in file "newmain.c"
   677 ;; Parameters:    Size  Location     Type
   678 ;;		None
   679 ;; Auto vars:     Size  Location     Type
   680 ;;		None
   681 ;; Return value:  Size  Location     Type
   682 ;;                  1    wreg      void 
   683 ;; Registers used:
   684 ;;		wreg, status,2, status,0, pclath, cstack
   685 ;; Tracked objects:
   686 ;;		On entry : 0/0
   687 ;;		On exit  : 0/0
   688 ;;		Unchanged: 0/0
   689 ;; Data sizes:     COMMON   BANK0   BANK1   BANK2   BANK3   BANK4   BANK5   BANK6
   690 ;;      Params:         0       0       0       0       0       0       0       0
   691 ;;      Locals:         0       0       0       0       0       0       0       0
   692 ;;      Temps:          0       0       0       0       0       0       0       0
   693 ;;      Totals:         0       0       0       0       0       0       0       0
   694 ;;Total ram usage:        0 bytes
   695 ;; Hardware stack levels used: 1
   696 ;; Hardware stack levels required when called: 1
   697 ;; This function calls:
   698 ;;		_pulse_gen
   699 ;; This function is called by:
   700 ;;		_main
   701 ;; This function uses a non-reentrant model
   702 ;;
   703                           
   704  0D65                     _state_7:	
   705                           ;psect for function _state_7
   706                           
   707  0D65                     l1777:	
   708                           ;incstack = 0
   709                           ; Regs used in _state_7: [wreg+status,2+status,0+pclath+cstack]
   710                           
   711                           
   712                           ;newmain.c: 91:     LATCbits.LATC1 = 1; pulse_gen(4);
   713  0D65  0022               	movlb	2	; select bank2
   714  0D66  148E               	bsf	14,1	;volatile
   715  0D67                     l1779:
   716  0D67  3004               	movlw	4
   717  0D68  00F0               	movwf	pulse_gen@n
   718  0D69  3000               	movlw	0
   719  0D6A  00F1               	movwf	pulse_gen@n+1
   720  0D6B  3180  2007  318D   	fcall	_pulse_gen
   721  0D6E                     l1781:
   722                           
   723                           ;newmain.c: 92:     LATCbits.LATC1 = 0; pulse_gen(3); return;
   724  0D6E  0022               	movlb	2	; select bank2
   725  0D6F  108E               	bcf	14,1	;volatile
   726  0D70  3003               	movlw	3
   727  0D71  00F0               	movwf	pulse_gen@n
   728  0D72  3000               	movlw	0
   729  0D73  00F1               	movwf	pulse_gen@n+1
   730  0D74  3180  2007  318D   	fcall	_pulse_gen
   731  0D77                     l41:
   732  0D77  0008               	return
   733  0D78                     __end_of_state_7:
   734                           
   735                           	psect	text4
   736  0DB0                     __ptext4:	
   737 ;; *************** function _state_6 *****************
   738 ;; Defined at:
   739 ;;		line 85 in file "newmain.c"
   740 ;; Parameters:    Size  Location     Type
   741 ;;		None
   742 ;; Auto vars:     Size  Location     Type
   743 ;;		None
   744 ;; Return value:  Size  Location     Type
   745 ;;                  1    wreg      void 
   746 ;; Registers used:
   747 ;;		wreg, status,2, status,0, pclath, cstack
   748 ;; Tracked objects:
   749 ;;		On entry : 0/0
   750 ;;		On exit  : 0/0
   751 ;;		Unchanged: 0/0
   752 ;; Data sizes:     COMMON   BANK0   BANK1   BANK2   BANK3   BANK4   BANK5   BANK6
   753 ;;      Params:         0       0       0       0       0       0       0       0
   754 ;;      Locals:         0       0       0       0       0       0       0       0
   755 ;;      Temps:          0       0       0       0       0       0       0       0
   756 ;;      Totals:         0       0       0       0       0       0       0       0
   757 ;;Total ram usage:        0 bytes
   758 ;; Hardware stack levels used: 1
   759 ;; Hardware stack levels required when called: 1
   760 ;; This function calls:
   761 ;;		_pulse_gen
   762 ;; This function is called by:
   763 ;;		_main
   764 ;; This function uses a non-reentrant model
   765 ;;
   766                           
   767  0DB0                     _state_6:	
   768                           ;psect for function _state_6
   769                           
   770  0DB0                     l1767:	
   771                           ;incstack = 0
   772                           ; Regs used in _state_6: [wreg+status,2+status,0+pclath+cstack]
   773                           
   774                           
   775                           ;newmain.c: 86:     LATCbits.LATC1 = 0; pulse_gen(5);
   776  0DB0  0022               	movlb	2	; select bank2
   777  0DB1  108E               	bcf	14,1	;volatile
   778  0DB2                     l1769:
   779  0DB2  3005               	movlw	5
   780  0DB3  00F0               	movwf	pulse_gen@n
   781  0DB4  3000               	movlw	0
   782  0DB5  00F1               	movwf	pulse_gen@n+1
   783  0DB6  3180  2007  318D   	fcall	_pulse_gen
   784  0DB9                     l1771:
   785                           
   786                           ;newmain.c: 87:     LATCbits.LATC1 = 1; pulse_gen(1);
   787  0DB9  0022               	movlb	2	; select bank2
   788  0DBA  148E               	bsf	14,1	;volatile
   789  0DBB  3001               	movlw	1
   790  0DBC  00F0               	movwf	pulse_gen@n
   791  0DBD  3000               	movlw	0
   792  0DBE  00F1               	movwf	pulse_gen@n+1
   793  0DBF  3180  2007  318D   	fcall	_pulse_gen
   794  0DC2                     l1773:
   795                           
   796                           ;newmain.c: 88:     LATCbits.LATC1 = 0; pulse_gen(1); return;
   797  0DC2  0022               	movlb	2	; select bank2
   798  0DC3  108E               	bcf	14,1	;volatile
   799  0DC4  3001               	movlw	1
   800  0DC5  00F0               	movwf	pulse_gen@n
   801  0DC6  3000               	movlw	0
   802  0DC7  00F1               	movwf	pulse_gen@n+1
   803  0DC8  3180  2007  318D   	fcall	_pulse_gen
   804  0DCB                     l38:
   805  0DCB  0008               	return
   806  0DCC                     __end_of_state_6:
   807                           
   808                           	psect	text5
   809  0E3B                     __ptext5:	
   810 ;; *************** function _state_5 *****************
   811 ;; Defined at:
   812 ;;		line 78 in file "newmain.c"
   813 ;; Parameters:    Size  Location     Type
   814 ;;		None
   815 ;; Auto vars:     Size  Location     Type
   816 ;;		None
   817 ;; Return value:  Size  Location     Type
   818 ;;                  1    wreg      void 
   819 ;; Registers used:
   820 ;;		wreg, status,2, status,0, pclath, cstack
   821 ;; Tracked objects:
   822 ;;		On entry : 0/0
   823 ;;		On exit  : 0/0
   824 ;;		Unchanged: 0/0
   825 ;; Data sizes:     COMMON   BANK0   BANK1   BANK2   BANK3   BANK4   BANK5   BANK6
   826 ;;      Params:         0       0       0       0       0       0       0       0
   827 ;;      Locals:         0       0       0       0       0       0       0       0
   828 ;;      Temps:          0       0       0       0       0       0       0       0
   829 ;;      Totals:         0       0       0       0       0       0       0       0
   830 ;;Total ram usage:        0 bytes
   831 ;; Hardware stack levels used: 1
   832 ;; Hardware stack levels required when called: 1
   833 ;; This function calls:
   834 ;;		_pulse_gen
   835 ;; This function is called by:
   836 ;;		_main
   837 ;; This function uses a non-reentrant model
   838 ;;
   839                           
   840  0E3B                     _state_5:	
   841                           ;psect for function _state_5
   842                           
   843  0E3B                     l1753:	
   844                           ;incstack = 0
   845                           ; Regs used in _state_5: [wreg+status,2+status,0+pclath+cstack]
   846                           
   847                           
   848                           ;newmain.c: 79:     LATCbits.LATC1 = 0; pulse_gen(2);
   849  0E3B  0022               	movlb	2	; select bank2
   850  0E3C  108E               	bcf	14,1	;volatile
   851  0E3D                     l1755:
   852  0E3D  3002               	movlw	2
   853  0E3E  00F0               	movwf	pulse_gen@n
   854  0E3F  3000               	movlw	0
   855  0E40  00F1               	movwf	pulse_gen@n+1
   856  0E41  3180  2007  318E   	fcall	_pulse_gen
   857  0E44                     l1757:
   858                           
   859                           ;newmain.c: 80:     LATCbits.LATC1 = 1; pulse_gen(1);
   860  0E44  0022               	movlb	2	; select bank2
   861  0E45  148E               	bsf	14,1	;volatile
   862  0E46  3001               	movlw	1
   863  0E47  00F0               	movwf	pulse_gen@n
   864  0E48  3000               	movlw	0
   865  0E49  00F1               	movwf	pulse_gen@n+1
   866  0E4A  3180  2007  318E   	fcall	_pulse_gen
   867  0E4D                     l1759:
   868                           
   869                           ;newmain.c: 81:     LATCbits.LATC1 = 0; pulse_gen(2);
   870  0E4D  0022               	movlb	2	; select bank2
   871  0E4E  108E               	bcf	14,1	;volatile
   872  0E4F  3002               	movlw	2
   873  0E50  00F0               	movwf	pulse_gen@n
   874  0E51  3000               	movlw	0
   875  0E52  00F1               	movwf	pulse_gen@n+1
   876  0E53  3180  2007  318E   	fcall	_pulse_gen
   877  0E56                     l1761:
   878                           
   879                           ;newmain.c: 82:     LATCbits.LATC1 = 1; pulse_gen(1);
   880  0E56  0022               	movlb	2	; select bank2
   881  0E57  148E               	bsf	14,1	;volatile
   882  0E58  3001               	movlw	1
   883  0E59  00F0               	movwf	pulse_gen@n
   884  0E5A  3000               	movlw	0
   885  0E5B  00F1               	movwf	pulse_gen@n+1
   886  0E5C  3180  2007  318E   	fcall	_pulse_gen
   887  0E5F                     l1763:
   888                           
   889                           ;newmain.c: 83:     LATCbits.LATC1 = 0; pulse_gen(1); return;
   890  0E5F  0022               	movlb	2	; select bank2
   891  0E60  108E               	bcf	14,1	;volatile
   892  0E61  3001               	movlw	1
   893  0E62  00F0               	movwf	pulse_gen@n
   894  0E63  3000               	movlw	0
   895  0E64  00F1               	movwf	pulse_gen@n+1
   896  0E65  3180  2007  318E   	fcall	_pulse_gen
   897  0E68                     l35:
   898  0E68  0008               	return
   899  0E69                     __end_of_state_5:
   900                           
   901                           	psect	text6
   902  0DE8                     __ptext6:	
   903 ;; *************** function _state_4 *****************
   904 ;; Defined at:
   905 ;;		line 72 in file "newmain.c"
   906 ;; Parameters:    Size  Location     Type
   907 ;;		None
   908 ;; Auto vars:     Size  Location     Type
   909 ;;		None
   910 ;; Return value:  Size  Location     Type
   911 ;;                  1    wreg      void 
   912 ;; Registers used:
   913 ;;		wreg, status,2, status,0, pclath, cstack
   914 ;; Tracked objects:
   915 ;;		On entry : 0/0
   916 ;;		On exit  : 0/0
   917 ;;		Unchanged: 0/0
   918 ;; Data sizes:     COMMON   BANK0   BANK1   BANK2   BANK3   BANK4   BANK5   BANK6
   919 ;;      Params:         0       0       0       0       0       0       0       0
   920 ;;      Locals:         0       0       0       0       0       0       0       0
   921 ;;      Temps:          0       0       0       0       0       0       0       0
   922 ;;      Totals:         0       0       0       0       0       0       0       0
   923 ;;Total ram usage:        0 bytes
   924 ;; Hardware stack levels used: 1
   925 ;; Hardware stack levels required when called: 1
   926 ;; This function calls:
   927 ;;		_pulse_gen
   928 ;; This function is called by:
   929 ;;		_main
   930 ;; This function uses a non-reentrant model
   931 ;;
   932                           
   933  0DE8                     _state_4:	
   934                           ;psect for function _state_4
   935                           
   936  0DE8                     l1741:	
   937                           ;incstack = 0
   938                           ; Regs used in _state_4: [wreg+status,2+status,0+pclath+cstack]
   939                           
   940                           
   941                           ;newmain.c: 73:     LATCbits.LATC1 = 0; pulse_gen(2);
   942  0DE8  0022               	movlb	2	; select bank2
   943  0DE9  108E               	bcf	14,1	;volatile
   944  0DEA                     l1743:
   945  0DEA  3002               	movlw	2
   946  0DEB  00F0               	movwf	pulse_gen@n
   947  0DEC  3000               	movlw	0
   948  0DED  00F1               	movwf	pulse_gen@n+1
   949  0DEE  3180  2007  318D   	fcall	_pulse_gen
   950  0DF1                     l1745:
   951                           
   952                           ;newmain.c: 74:     LATCbits.LATC1 = 1; pulse_gen(2);
   953  0DF1  0022               	movlb	2	; select bank2
   954  0DF2  148E               	bsf	14,1	;volatile
   955  0DF3  3002               	movlw	2
   956  0DF4  00F0               	movwf	pulse_gen@n
   957  0DF5  3000               	movlw	0
   958  0DF6  00F1               	movwf	pulse_gen@n+1
   959  0DF7  3180  2007  318D   	fcall	_pulse_gen
   960  0DFA                     l1747:
   961                           
   962                           ;newmain.c: 75:     LATCbits.LATC1 = 0; pulse_gen(2);
   963  0DFA  0022               	movlb	2	; select bank2
   964  0DFB  108E               	bcf	14,1	;volatile
   965  0DFC  3002               	movlw	2
   966  0DFD  00F0               	movwf	pulse_gen@n
   967  0DFE  3000               	movlw	0
   968  0DFF  00F1               	movwf	pulse_gen@n+1
   969  0E00  3180  2007  318D   	fcall	_pulse_gen
   970  0E03                     l1749:
   971                           
   972                           ;newmain.c: 76:     LATCbits.LATC1 = 1; pulse_gen(1); return;
   973  0E03  0022               	movlb	2	; select bank2
   974  0E04  148E               	bsf	14,1	;volatile
   975  0E05  3001               	movlw	1
   976  0E06  00F0               	movwf	pulse_gen@n
   977  0E07  3000               	movlw	0
   978  0E08  00F1               	movwf	pulse_gen@n+1
   979  0E09  3180  2007  318D   	fcall	_pulse_gen
   980  0E0C                     l32:
   981  0E0C  0008               	return
   982  0E0D                     __end_of_state_4:
   983                           
   984                           	psect	text7
   985  0D94                     __ptext7:	
   986 ;; *************** function _state_3 *****************
   987 ;; Defined at:
   988 ;;		line 67 in file "newmain.c"
   989 ;; Parameters:    Size  Location     Type
   990 ;;		None
   991 ;; Auto vars:     Size  Location     Type
   992 ;;		None
   993 ;; Return value:  Size  Location     Type
   994 ;;                  1    wreg      void 
   995 ;; Registers used:
   996 ;;		wreg, status,2, status,0, pclath, cstack
   997 ;; Tracked objects:
   998 ;;		On entry : 0/0
   999 ;;		On exit  : 0/0
  1000 ;;		Unchanged: 0/0
  1001 ;; Data sizes:     COMMON   BANK0   BANK1   BANK2   BANK3   BANK4   BANK5   BANK6
  1002 ;;      Params:         0       0       0       0       0       0       0       0
  1003 ;;      Locals:         0       0       0       0       0       0       0       0
  1004 ;;      Temps:          0       0       0       0       0       0       0       0
  1005 ;;      Totals:         0       0       0       0       0       0       0       0
  1006 ;;Total ram usage:        0 bytes
  1007 ;; Hardware stack levels used: 1
  1008 ;; Hardware stack levels required when called: 1
  1009 ;; This function calls:
  1010 ;;		_pulse_gen
  1011 ;; This function is called by:
  1012 ;;		_main
  1013 ;; This function uses a non-reentrant model
  1014 ;;
  1015                           
  1016  0D94                     _state_3:	
  1017                           ;psect for function _state_3
  1018                           
  1019  0D94                     l1731:	
  1020                           ;incstack = 0
  1021                           ; Regs used in _state_3: [wreg+status,2+status,0+pclath+cstack]
  1022                           
  1023                           
  1024                           ;newmain.c: 68:     LATCbits.LATC1 = 0; pulse_gen(1);
  1025  0D94  0022               	movlb	2	; select bank2
  1026  0D95  108E               	bcf	14,1	;volatile
  1027  0D96                     l1733:
  1028  0D96  3001               	movlw	1
  1029  0D97  00F0               	movwf	pulse_gen@n
  1030  0D98  3000               	movlw	0
  1031  0D99  00F1               	movwf	pulse_gen@n+1
  1032  0D9A  3180  2007  318D   	fcall	_pulse_gen
  1033  0D9D                     l1735:
  1034                           
  1035                           ;newmain.c: 69:     LATCbits.LATC1 = 1; pulse_gen(2);
  1036  0D9D  0022               	movlb	2	; select bank2
  1037  0D9E  148E               	bsf	14,1	;volatile
  1038  0D9F  3002               	movlw	2
  1039  0DA0  00F0               	movwf	pulse_gen@n
  1040  0DA1  3000               	movlw	0
  1041  0DA2  00F1               	movwf	pulse_gen@n+1
  1042  0DA3  3180  2007  318D   	fcall	_pulse_gen
  1043  0DA6                     l1737:
  1044                           
  1045                           ;newmain.c: 70:     LATCbits.LATC1 = 0; pulse_gen(4); return;
  1046  0DA6  0022               	movlb	2	; select bank2
  1047  0DA7  108E               	bcf	14,1	;volatile
  1048  0DA8  3004               	movlw	4
  1049  0DA9  00F0               	movwf	pulse_gen@n
  1050  0DAA  3000               	movlw	0
  1051  0DAB  00F1               	movwf	pulse_gen@n+1
  1052  0DAC  3180  2007  318D   	fcall	_pulse_gen
  1053  0DAF                     l29:
  1054  0DAF  0008               	return
  1055  0DB0                     __end_of_state_3:
  1056                           
  1057                           	psect	text8
  1058  0E0D                     __ptext8:	
  1059 ;; *************** function _state_2 *****************
  1060 ;; Defined at:
  1061 ;;		line 60 in file "newmain.c"
  1062 ;; Parameters:    Size  Location     Type
  1063 ;;		None
  1064 ;; Auto vars:     Size  Location     Type
  1065 ;;		None
  1066 ;; Return value:  Size  Location     Type
  1067 ;;                  1    wreg      void 
  1068 ;; Registers used:
  1069 ;;		wreg, status,2, status,0, pclath, cstack
  1070 ;; Tracked objects:
  1071 ;;		On entry : 0/0
  1072 ;;		On exit  : 0/0
  1073 ;;		Unchanged: 0/0
  1074 ;; Data sizes:     COMMON   BANK0   BANK1   BANK2   BANK3   BANK4   BANK5   BANK6
  1075 ;;      Params:         0       0       0       0       0       0       0       0
  1076 ;;      Locals:         0       0       0       0       0       0       0       0
  1077 ;;      Temps:          0       0       0       0       0       0       0       0
  1078 ;;      Totals:         0       0       0       0       0       0       0       0
  1079 ;;Total ram usage:        0 bytes
  1080 ;; Hardware stack levels used: 1
  1081 ;; Hardware stack levels required when called: 1
  1082 ;; This function calls:
  1083 ;;		_pulse_gen
  1084 ;; This function is called by:
  1085 ;;		_main
  1086 ;; This function uses a non-reentrant model
  1087 ;;
  1088                           
  1089  0E0D                     _state_2:	
  1090                           ;psect for function _state_2
  1091                           
  1092  0E0D                     l1717:	
  1093                           ;incstack = 0
  1094                           ; Regs used in _state_2: [wreg+status,2+status,0+pclath+cstack]
  1095                           
  1096                           
  1097                           ;newmain.c: 61:     LATCbits.LATC1 = 0; pulse_gen(1);
  1098  0E0D  0022               	movlb	2	; select bank2
  1099  0E0E  108E               	bcf	14,1	;volatile
  1100  0E0F                     l1719:
  1101  0E0F  3001               	movlw	1
  1102  0E10  00F0               	movwf	pulse_gen@n
  1103  0E11  3000               	movlw	0
  1104  0E12  00F1               	movwf	pulse_gen@n+1
  1105  0E13  3180  2007  318E   	fcall	_pulse_gen
  1106  0E16                     l1721:
  1107                           
  1108                           ;newmain.c: 62:     LATCbits.LATC1 = 1; pulse_gen(1);
  1109  0E16  0022               	movlb	2	; select bank2
  1110  0E17  148E               	bsf	14,1	;volatile
  1111  0E18  3001               	movlw	1
  1112  0E19  00F0               	movwf	pulse_gen@n
  1113  0E1A  3000               	movlw	0
  1114  0E1B  00F1               	movwf	pulse_gen@n+1
  1115  0E1C  3180  2007  318E   	fcall	_pulse_gen
  1116  0E1F                     l1723:
  1117                           
  1118                           ;newmain.c: 63:     LATCbits.LATC1 = 0; pulse_gen(2);
  1119  0E1F  0022               	movlb	2	; select bank2
  1120  0E20  108E               	bcf	14,1	;volatile
  1121  0E21  3002               	movlw	2
  1122  0E22  00F0               	movwf	pulse_gen@n
  1123  0E23  3000               	movlw	0
  1124  0E24  00F1               	movwf	pulse_gen@n+1
  1125  0E25  3180  2007  318E   	fcall	_pulse_gen
  1126  0E28                     l1725:
  1127                           
  1128                           ;newmain.c: 64:     LATCbits.LATC1 = 1; pulse_gen(1);
  1129  0E28  0022               	movlb	2	; select bank2
  1130  0E29  148E               	bsf	14,1	;volatile
  1131  0E2A  3001               	movlw	1
  1132  0E2B  00F0               	movwf	pulse_gen@n
  1133  0E2C  3000               	movlw	0
  1134  0E2D  00F1               	movwf	pulse_gen@n+1
  1135  0E2E  3180  2007  318E   	fcall	_pulse_gen
  1136  0E31                     l1727:
  1137                           
  1138                           ;newmain.c: 65:     LATCbits.LATC1 = 0; pulse_gen(2); return;
  1139  0E31  0022               	movlb	2	; select bank2
  1140  0E32  108E               	bcf	14,1	;volatile
  1141  0E33  3002               	movlw	2
  1142  0E34  00F0               	movwf	pulse_gen@n
  1143  0E35  3000               	movlw	0
  1144  0E36  00F1               	movwf	pulse_gen@n+1
  1145  0E37  3180  2007  318E   	fcall	_pulse_gen
  1146  0E3A                     l26:
  1147  0E3A  0008               	return
  1148  0E3B                     __end_of_state_2:
  1149                           
  1150                           	psect	text9
  1151  0D78                     __ptext9:	
  1152 ;; *************** function _state_1 *****************
  1153 ;; Defined at:
  1154 ;;		line 55 in file "newmain.c"
  1155 ;; Parameters:    Size  Location     Type
  1156 ;;		None
  1157 ;; Auto vars:     Size  Location     Type
  1158 ;;		None
  1159 ;; Return value:  Size  Location     Type
  1160 ;;                  1    wreg      void 
  1161 ;; Registers used:
  1162 ;;		wreg, status,2, status,0, pclath, cstack
  1163 ;; Tracked objects:
  1164 ;;		On entry : 0/0
  1165 ;;		On exit  : 0/0
  1166 ;;		Unchanged: 0/0
  1167 ;; Data sizes:     COMMON   BANK0   BANK1   BANK2   BANK3   BANK4   BANK5   BANK6
  1168 ;;      Params:         0       0       0       0       0       0       0       0
  1169 ;;      Locals:         0       0       0       0       0       0       0       0
  1170 ;;      Temps:          0       0       0       0       0       0       0       0
  1171 ;;      Totals:         0       0       0       0       0       0       0       0
  1172 ;;Total ram usage:        0 bytes
  1173 ;; Hardware stack levels used: 1
  1174 ;; Hardware stack levels required when called: 1
  1175 ;; This function calls:
  1176 ;;		_pulse_gen
  1177 ;; This function is called by:
  1178 ;;		_main
  1179 ;; This function uses a non-reentrant model
  1180 ;;
  1181                           
  1182  0D78                     _state_1:	
  1183                           ;psect for function _state_1
  1184                           
  1185  0D78                     l1707:	
  1186                           ;incstack = 0
  1187                           ; Regs used in _state_1: [wreg+status,2+status,0+pclath+cstack]
  1188                           
  1189                           
  1190                           ;newmain.c: 56:     LATCbits.LATC1 = 1; pulse_gen(4);
  1191  0D78  0022               	movlb	2	; select bank2
  1192  0D79  148E               	bsf	14,1	;volatile
  1193  0D7A                     l1709:
  1194  0D7A  3004               	movlw	4
  1195  0D7B  00F0               	movwf	pulse_gen@n
  1196  0D7C  3000               	movlw	0
  1197  0D7D  00F1               	movwf	pulse_gen@n+1
  1198  0D7E  3180  2007  318D   	fcall	_pulse_gen
  1199  0D81                     l1711:
  1200                           
  1201                           ;newmain.c: 57:     LATCbits.LATC1 = 0; pulse_gen(2);
  1202  0D81  0022               	movlb	2	; select bank2
  1203  0D82  108E               	bcf	14,1	;volatile
  1204  0D83  3002               	movlw	2
  1205  0D84  00F0               	movwf	pulse_gen@n
  1206  0D85  3000               	movlw	0
  1207  0D86  00F1               	movwf	pulse_gen@n+1
  1208  0D87  3180  2007  318D   	fcall	_pulse_gen
  1209  0D8A                     l1713:
  1210                           
  1211                           ;newmain.c: 58:     LATCbits.LATC1 = 1; pulse_gen(1); return;
  1212  0D8A  0022               	movlb	2	; select bank2
  1213  0D8B  148E               	bsf	14,1	;volatile
  1214  0D8C  3001               	movlw	1
  1215  0D8D  00F0               	movwf	pulse_gen@n
  1216  0D8E  3000               	movlw	0
  1217  0D8F  00F1               	movwf	pulse_gen@n+1
  1218  0D90  3180  2007  318D   	fcall	_pulse_gen
  1219  0D93                     l23:
  1220  0D93  0008               	return
  1221  0D94                     __end_of_state_1:
  1222                           
  1223                           	psect	text10
  1224  0D52                     __ptext10:	
  1225 ;; *************** function _state_0 *****************
  1226 ;; Defined at:
  1227 ;;		line 51 in file "newmain.c"
  1228 ;; Parameters:    Size  Location     Type
  1229 ;;		None
  1230 ;; Auto vars:     Size  Location     Type
  1231 ;;		None
  1232 ;; Return value:  Size  Location     Type
  1233 ;;                  1    wreg      void 
  1234 ;; Registers used:
  1235 ;;		wreg, status,2, status,0, pclath, cstack
  1236 ;; Tracked objects:
  1237 ;;		On entry : 0/0
  1238 ;;		On exit  : 0/0
  1239 ;;		Unchanged: 0/0
  1240 ;; Data sizes:     COMMON   BANK0   BANK1   BANK2   BANK3   BANK4   BANK5   BANK6
  1241 ;;      Params:         0       0       0       0       0       0       0       0
  1242 ;;      Locals:         0       0       0       0       0       0       0       0
  1243 ;;      Temps:          0       0       0       0       0       0       0       0
  1244 ;;      Totals:         0       0       0       0       0       0       0       0
  1245 ;;Total ram usage:        0 bytes
  1246 ;; Hardware stack levels used: 1
  1247 ;; Hardware stack levels required when called: 1
  1248 ;; This function calls:
  1249 ;;		_pulse_gen
  1250 ;; This function is called by:
  1251 ;;		_main
  1252 ;; This function uses a non-reentrant model
  1253 ;;
  1254                           
  1255  0D52                     _state_0:	
  1256                           ;psect for function _state_0
  1257                           
  1258  0D52                     l1699:	
  1259                           ;incstack = 0
  1260                           ; Regs used in _state_0: [wreg+status,2+status,0+pclath+cstack]
  1261                           
  1262                           
  1263                           ;newmain.c: 52:     LATCbits.LATC1 = 1; pulse_gen(1);
  1264  0D52  0022               	movlb	2	; select bank2
  1265  0D53  148E               	bsf	14,1	;volatile
  1266  0D54                     l1701:
  1267  0D54  3001               	movlw	1
  1268  0D55  00F0               	movwf	pulse_gen@n
  1269  0D56  3000               	movlw	0
  1270  0D57  00F1               	movwf	pulse_gen@n+1
  1271  0D58  3180  2007  318D   	fcall	_pulse_gen
  1272  0D5B                     l1703:
  1273                           
  1274                           ;newmain.c: 53:     LATCbits.LATC1 = 0; pulse_gen(6); return;
  1275  0D5B  0022               	movlb	2	; select bank2
  1276  0D5C  108E               	bcf	14,1	;volatile
  1277  0D5D  3006               	movlw	6
  1278  0D5E  00F0               	movwf	pulse_gen@n
  1279  0D5F  3000               	movlw	0
  1280  0D60  00F1               	movwf	pulse_gen@n+1
  1281  0D61  3180  2007  318D   	fcall	_pulse_gen
  1282  0D64                     l20:
  1283  0D64  0008               	return
  1284  0D65                     __end_of_state_0:
  1285                           
  1286                           	psect	text11
  1287  0007                     __ptext11:	
  1288 ;; *************** function _pulse_gen *****************
  1289 ;; Defined at:
  1290 ;;		line 30 in file "newmain.c"
  1291 ;; Parameters:    Size  Location     Type
  1292 ;;  n               2    0[COMMON] int 
  1293 ;; Auto vars:     Size  Location     Type
  1294 ;;  i               2    5[COMMON] int 
  1295 ;; Return value:  Size  Location     Type
  1296 ;;                  1    wreg      void 
  1297 ;; Registers used:
  1298 ;;		wreg, status,2, status,0
  1299 ;; Tracked objects:
  1300 ;;		On entry : 0/0
  1301 ;;		On exit  : 0/0
  1302 ;;		Unchanged: 0/0
  1303 ;; Data sizes:     COMMON   BANK0   BANK1   BANK2   BANK3   BANK4   BANK5   BANK6
  1304 ;;      Params:         2       0       0       0       0       0       0       0
  1305 ;;      Locals:         2       0       0       0       0       0       0       0
  1306 ;;      Temps:          3       0       0       0       0       0       0       0
  1307 ;;      Totals:         7       0       0       0       0       0       0       0
  1308 ;;Total ram usage:        7 bytes
  1309 ;; Hardware stack levels used: 1
  1310 ;; This function calls:
  1311 ;;		Nothing
  1312 ;; This function is called by:
  1313 ;;		_state_0
  1314 ;;		_state_1
  1315 ;;		_state_2
  1316 ;;		_state_3
  1317 ;;		_state_4
  1318 ;;		_state_5
  1319 ;;		_state_6
  1320 ;;		_state_7
  1321 ;;		_state_8
  1322 ;;		_state_9
  1323 ;;		_main
  1324 ;; This function uses a non-reentrant model
  1325 ;;
  1326                           
  1327  0007                     _pulse_gen:	
  1328                           ;psect for function _pulse_gen
  1329                           
  1330  0007                     l1693:	
  1331                           ;incstack = 0
  1332                           ; Regs used in _pulse_gen: [wreg+status,2+status,0]
  1333                           
  1334                           
  1335                           ;newmain.c: 31:     for(int i=0;i<=(n-1);i++){
  1336  0007  01F5               	clrf	pulse_gen@i
  1337  0008  01F6               	clrf	pulse_gen@i+1
  1338  0009  2811               	goto	l1697
  1339  000A                     l12:
  1340                           
  1341                           ;newmain.c: 32:         LATCbits.LATC0 = 0;
  1342  000A  0022               	movlb	2	; select bank2
  1343  000B  100E               	bcf	14,0	;volatile
  1344                           
  1345                           ;newmain.c: 33:         LATCbits.LATC0 = 1;
  1346  000C  140E               	bsf	14,0	;volatile
  1347  000D                     l1695:
  1348                           
  1349                           ;newmain.c: 34:     }
  1350  000D  3001               	movlw	1
  1351  000E  07F5               	addwf	pulse_gen@i,f
  1352  000F  3000               	movlw	0
  1353  0010  3DF6               	addwfc	pulse_gen@i+1,f
  1354  0011                     l1697:
  1355  0011  0870               	movf	pulse_gen@n,w
  1356  0012  3EFF               	addlw	255
  1357  0013  00F2               	movwf	??_pulse_gen
  1358  0014  30FF               	movlw	255
  1359  0015  3D71               	addwfc	pulse_gen@n+1,w
  1360  0016  00F3               	movwf	??_pulse_gen+1
  1361  0017  0873               	movf	??_pulse_gen+1,w
  1362  0018  3A80               	xorlw	128
  1363  0019  00F4               	movwf	??_pulse_gen+2
  1364  001A  0876               	movf	pulse_gen@i+1,w
  1365  001B  3A80               	xorlw	128
  1366  001C  0274               	subwf	??_pulse_gen+2,w
  1367  001D  1D03               	skipz
  1368  001E  2821               	goto	u25
  1369  001F  0875               	movf	pulse_gen@i,w
  1370  0020  0272               	subwf	??_pulse_gen,w
  1371  0021                     u25:
  1372  0021  1803               	skipnc
  1373  0022  2824               	goto	u21
  1374  0023  2825               	goto	u20
  1375  0024                     u21:
  1376  0024  280A               	goto	l12
  1377  0025                     u20:
  1378  0025                     l14:
  1379  0025  0008               	return
  1380  0026                     __end_of_pulse_gen:
  1381                           
  1382                           	psect	text12
  1383  0D44                     __ptext12:	
  1384 ;; *************** function _latch_gen *****************
  1385 ;; Defined at:
  1386 ;;		line 38 in file "newmain.c"
  1387 ;; Parameters:    Size  Location     Type
  1388 ;;		None
  1389 ;; Auto vars:     Size  Location     Type
  1390 ;;		None
  1391 ;; Return value:  Size  Location     Type
  1392 ;;                  1    wreg      void 
  1393 ;; Registers used:
  1394 ;;		None
  1395 ;; Tracked objects:
  1396 ;;		On entry : 0/0
  1397 ;;		On exit  : 0/0
  1398 ;;		Unchanged: 0/0
  1399 ;; Data sizes:     COMMON   BANK0   BANK1   BANK2   BANK3   BANK4   BANK5   BANK6
  1400 ;;      Params:         0       0       0       0       0       0       0       0
  1401 ;;      Locals:         0       0       0       0       0       0       0       0
  1402 ;;      Temps:          0       0       0       0       0       0       0       0
  1403 ;;      Totals:         0       0       0       0       0       0       0       0
  1404 ;;Total ram usage:        0 bytes
  1405 ;; Hardware stack levels used: 1
  1406 ;; This function calls:
  1407 ;;		Nothing
  1408 ;; This function is called by:
  1409 ;;		_main
  1410 ;; This function uses a non-reentrant model
  1411 ;;
  1412                           
  1413  0D44                     _latch_gen:	
  1414                           ;psect for function _latch_gen
  1415                           
  1416  0D44                     l587:	
  1417                           ;incstack = 0
  1418                           ; Regs used in _latch_gen: []
  1419                           
  1420                           
  1421                           ;newmain.c: 39:     LATCbits.LATC2 = 1;
  1422  0D44  0022               	movlb	2	; select bank2
  1423  0D45  150E               	bsf	14,2	;volatile
  1424                           
  1425                           ;newmain.c: 40:     LATCbits.LATC2 = 0;
  1426  0D46  110E               	bcf	14,2	;volatile
  1427  0D47                     l17:	
  1428                           ;newmain.c: 41:     return;
  1429                           
  1430  0D47  0008               	return
  1431  0D48                     __end_of_latch_gen:
  1432  007E                     btemp	set	126	;btemp
  1433  007E                     wtemp0	set	126
  1434                           
  1435                           	psect	idloc
  1436                           
  1437                           ;Config register IDLOC0 @ 0x8000
  1438                           ;	unspecified, using default values
  1439  8000                     	org	32768
  1440  8000  3FFF               	dw	16383
  1441                           
  1442                           ;Config register IDLOC1 @ 0x8001
  1443                           ;	unspecified, using default values
  1444  8001                     	org	32769
  1445  8001  3FFF               	dw	16383
  1446                           
  1447                           ;Config register IDLOC2 @ 0x8002
  1448                           ;	unspecified, using default values
  1449  8002                     	org	32770
  1450  8002  3FFF               	dw	16383
  1451                           
  1452                           ;Config register IDLOC3 @ 0x8003
  1453                           ;	unspecified, using default values
  1454  8003                     	org	32771
  1455  8003  3FFF               	dw	16383
  1456                           
  1457                           	psect	config
  1458                           
  1459                           ;Config register CONFIG1 @ 0x8007
  1460                           ;	Oscillator Selection Bits
  1461                           ;	FOSC = INTOSC, INTOSC oscillator: I/O function on CLKIN pin
  1462                           ;	Watchdog Timer Enable
  1463                           ;	WDTE = OFF, WDT disabled
  1464                           ;	Power-up Timer Enable
  1465                           ;	PWRTE = OFF, PWRT disabled
  1466                           ;	MCLR Pin Function Select
  1467                           ;	MCLRE = OFF, MCLR/VPP pin function is digital input
  1468                           ;	Flash Program Memory Code Protection
  1469                           ;	CP = OFF, Program memory code protection is disabled
  1470                           ;	Brown-out Reset Enable
  1471                           ;	BOREN = OFF, Brown-out Reset disabled
  1472                           ;	Clock Out Enable
  1473                           ;	CLKOUTEN = OFF, CLKOUT function is disabled. I/O or oscillator function on the CLKOUT 
      +                          pin
  1474                           ;	Internal/External Switchover Mode
  1475                           ;	IESO = OFF, Internal/External Switchover Mode is disabled
  1476                           ;	Fail-Safe Clock Monitor Enable
  1477                           ;	FCMEN = OFF, Fail-Safe Clock Monitor is disabled
  1478  8007                     	org	32775
  1479  8007  09A4               	dw	2468
  1480                           
  1481                           ;Config register CONFIG2 @ 0x8008
  1482                           ;	Flash Memory Self-Write Protection
  1483                           ;	WRT = OFF, Write protection off
  1484                           ;	Stack Overflow/Underflow Reset Enable
  1485                           ;	STVREN = OFF, Stack Overflow or Underflow will not cause a Reset
  1486                           ;	Brown-out Reset Voltage Selection
  1487                           ;	BORV = LO, Brown-out Reset Voltage (Vbor), low trip point selected.
  1488                           ;	Low-Power Brown Out Reset
  1489                           ;	LPBOR = OFF, Low-Power BOR is disabled
  1490                           ;	Low-Voltage Programming Enable
  1491                           ;	LVP = OFF, High-voltage on MCLR/VPP must be used for programming
  1492  8008                     	org	32776
  1493  8008  1DFF               	dw	7679
  1494                           
  1495                           	psect	maintext_split_1
  1496  0F75                     L1:
  1497  0F75  318E  263B  318F   	fcall	_state_5
  1498  0F78                     l1859:
  1499  0F78  318D  2544  318F   	fcall	_latch_gen
  1500  0F7B                     l1861:
  1501  0F7B  3041               	movlw	65
  1502  0F7C  00F7               	movwf	??_main
  1503  0F7D  30EE               	movlw	238
  1504  0F7E                     u87:
  1505  0F7E  0B89               	decfsz	9,f
  1506  0F7F  2F7E               	goto	u87
  1507  0F80  0BF7               	decfsz	??_main,f
  1508  0F81  2F7E               	goto	u87
  1509  0F82  3200               	nop2
  1510  0F83                     l1863:
  1511                           
  1512                           ;newmain.c: 118:         state_0(); pulse_gen(1); state_6(); latch_gen();_delay((unsigne
      +                          d long)((200)*(1000000/4000.0)));
  1513  0F83  318D  2552  318F   	fcall	_state_0
  1514  0F86                     l1865:
  1515  0F86  3001               	movlw	1
  1516  0F87  00F0               	movwf	pulse_gen@n
  1517  0F88  3000               	movlw	0
  1518  0F89  00F1               	movwf	pulse_gen@n+1
  1519  0F8A  3180  2007  318F   	fcall	_pulse_gen
  1520  0F8D                     l1867:
  1521  0F8D  318D  25B0  318F   	fcall	_state_6
  1522  0F90                     l1869:
  1523  0F90  318D  2544  318F   	fcall	_latch_gen
  1524  0F93                     l1871:
  1525  0F93  3041               	movlw	65
  1526  0F94  00F7               	movwf	??_main
  1527  0F95  30EE               	movlw	238
  1528  0F96                     u97:
  1529  0F96  0B89               	decfsz	9,f
  1530  0F97  2F96               	goto	u97
  1531  0F98  0BF7               	decfsz	??_main,f
  1532  0F99  2F96               	goto	u97
  1533  0F9A  3200               	nop2
  1534  0F9B                     l1873:
  1535                           
  1536                           ;newmain.c: 119:         state_0(); pulse_gen(1); state_7(); latch_gen();_delay((unsigne
      +                          d long)((200)*(1000000/4000.0)));
  1537  0F9B  318D  2552  318F   	fcall	_state_0
  1538  0F9E                     l1875:
  1539  0F9E  3001               	movlw	1
  1540  0F9F  00F0               	movwf	pulse_gen@n
  1541  0FA0  3000               	movlw	0
  1542  0FA1  00F1               	movwf	pulse_gen@n+1
  1543  0FA2  3180  2007  318F   	fcall	_pulse_gen
  1544  0FA5                     l1877:
  1545  0FA5  318D  2565  318F   	fcall	_state_7
  1546  0FA8                     l1879:
  1547  0FA8  318D  2544  318F   	fcall	_latch_gen
  1548  0FAB                     l1881:
  1549  0FAB  3041               	movlw	65
  1550  0FAC  00F7               	movwf	??_main
  1551  0FAD  30EE               	movlw	238
  1552  0FAE                     u107:
  1553  0FAE  0B89               	decfsz	9,f
  1554  0FAF  2FAE               	goto	u107
  1555  0FB0  0BF7               	decfsz	??_main,f
  1556  0FB1  2FAE               	goto	u107
  1557  0FB2  3200               	nop2
  1558  0FB3                     l1883:
  1559                           
  1560                           ;newmain.c: 120:         state_0(); pulse_gen(1); state_8(); latch_gen();_delay((unsigne
      +                          d long)((200)*(1000000/4000.0)));
  1561  0FB3  318D  2552  318F   	fcall	_state_0
  1562  0FB6                     l1885:
  1563  0FB6  3001               	movlw	1
  1564  0FB7  00F0               	movwf	pulse_gen@n
  1565  0FB8  3000               	movlw	0
  1566  0FB9  00F1               	movwf	pulse_gen@n+1
  1567  0FBA  3180  2007  318F   	fcall	_pulse_gen
  1568  0FBD                     l1887:
  1569  0FBD  318D  2548  318F   	fcall	_state_8
  1570  0FC0                     l1889:
  1571  0FC0  318D  2544  318F   	fcall	_latch_gen
  1572  0FC3                     l1891:
  1573  0FC3  3041               	movlw	65
  1574  0FC4  00F7               	movwf	??_main
  1575  0FC5  30EE               	movlw	238
  1576  0FC6                     u117:
  1577  0FC6  0B89               	decfsz	9,f
  1578  0FC7  2FC6               	goto	u117
  1579  0FC8  0BF7               	decfsz	??_main,f
  1580  0FC9  2FC6               	goto	u117
  1581  0FCA  3200               	nop2
  1582  0FCB                     l1893:
  1583                           
  1584                           ;newmain.c: 121:         state_0(); pulse_gen(1); state_9(); latch_gen();_delay((unsigne
      +                          d long)((200)*(1000000/4000.0)));
  1585  0FCB  318D  2552  318F   	fcall	_state_0
  1586  0FCE                     l1895:
  1587  0FCE  3001               	movlw	1
  1588  0FCF  00F0               	movwf	pulse_gen@n
  1589  0FD0  3000               	movlw	0
  1590  0FD1  00F1               	movwf	pulse_gen@n+1
  1591  0FD2  3180  2007  318F   	fcall	_pulse_gen
  1592  0FD5                     l1897:
  1593  0FD5  318D  25CC  318F   	fcall	_state_9
  1594  0FD8                     l1899:
  1595  0FD8  318D  2544  318F   	fcall	_latch_gen
  1596  0FDB                     l1901:
  1597  0FDB  3041               	movlw	65
  1598  0FDC  00F7               	movwf	??_main
  1599  0FDD  30EE               	movlw	238
  1600  0FDE                     u127:
  1601  0FDE  0B89               	decfsz	9,f
  1602  0FDF  2FDE               	goto	u127
  1603  0FE0  0BF7               	decfsz	??_main,f
  1604  0FE1  2FDE               	goto	u127
  1605  0FE2  3200               	nop2
  1606  0FE3                     l1903:
  1607                           
  1608                           ;newmain.c: 123:         state_1(); pulse_gen(1); state_0(); latch_gen();_delay((unsigne
      +                          d long)((200)*(1000000/4000.0)));
  1609  0FE3  318D  2578  318F   	fcall	_state_1
  1610  0FE6                     l1905:
  1611  0FE6  3001               	movlw	1
  1612  0FE7  00F0               	movwf	pulse_gen@n
  1613  0FE8  3000               	movlw	0
  1614  0FE9  00F1               	movwf	pulse_gen@n+1
  1615  0FEA  3180  2007  318F   	fcall	_pulse_gen
  1616  0FED                     l1907:
  1617  0FED  318D  2552  318F   	fcall	_state_0
  1618  0FF0                     l1909:
  1619  0FF0  318D  2544  318F   	fcall	_latch_gen
  1620  0FF3                     l1911:
  1621  0FF3  3041               	movlw	65
  1622  0FF4  00F7               	movwf	??_main
  1623  0FF5  30EE               	movlw	238
  1624  0FF6                     u137:
  1625  0FF6  0B89               	decfsz	9,f
  1626  0FF7  2FF6               	goto	u137
  1627  0FF8  0BF7               	decfsz	??_main,f
  1628  0FF9  2FF6               	goto	u137
  1629  0FFA  3200               	nop2
  1630  0FFB                     l1913:
  1631                           
  1632                           ;newmain.c: 124:         state_1(); pulse_gen(1); state_1(); latch_gen();_delay((unsigne
      +                          d long)((200)*(1000000/4000.0)));
  1633  0FFB  318D  2578  318F   	fcall	_state_1
  1634  0FFE                     l1915:
  1635  0FFE  318E  2E69         	ljmp	L2
  1636                           
  1637                           	psect	maintext_split_2
  1638  0E69                     L2:
  1639  0E69  3001               	movlw	1
  1640  0E6A  00F0               	movwf	pulse_gen@n
  1641  0E6B  3000               	movlw	0
  1642  0E6C  00F1               	movwf	pulse_gen@n+1
  1643  0E6D  3180  2007  318E   	fcall	_pulse_gen
  1644  0E70                     l1917:
  1645  0E70  318D  2578  318E   	fcall	_state_1
  1646  0E73                     l1919:
  1647  0E73  318D  2544  318E   	fcall	_latch_gen
  1648  0E76                     l1921:
  1649  0E76  3041               	movlw	65
  1650  0E77  00F7               	movwf	??_main
  1651  0E78  30EE               	movlw	238
  1652  0E79                     u147:
  1653  0E79  0B89               	decfsz	9,f
  1654  0E7A  2E79               	goto	u147
  1655  0E7B  0BF7               	decfsz	??_main,f
  1656  0E7C  2E79               	goto	u147
  1657  0E7D  3200               	nop2
  1658  0E7E                     l1923:
  1659                           
  1660                           ;newmain.c: 125:         state_1(); pulse_gen(1); state_2(); latch_gen();_delay((unsigne
      +                          d long)((200)*(1000000/4000.0)));
  1661  0E7E  318D  2578  318E   	fcall	_state_1
  1662  0E81                     l1925:
  1663  0E81  3001               	movlw	1
  1664  0E82  00F0               	movwf	pulse_gen@n
  1665  0E83  3000               	movlw	0
  1666  0E84  00F1               	movwf	pulse_gen@n+1
  1667  0E85  3180  2007  318E   	fcall	_pulse_gen
  1668  0E88                     l1927:
  1669  0E88  318E  260D  318E   	fcall	_state_2
  1670  0E8B                     l1929:
  1671  0E8B  318D  2544  318E   	fcall	_latch_gen
  1672  0E8E                     l1931:
  1673  0E8E  3041               	movlw	65
  1674  0E8F  00F7               	movwf	??_main
  1675  0E90  30EE               	movlw	238
  1676  0E91                     u157:
  1677  0E91  0B89               	decfsz	9,f
  1678  0E92  2E91               	goto	u157
  1679  0E93  0BF7               	decfsz	??_main,f
  1680  0E94  2E91               	goto	u157
  1681  0E95  3200               	nop2
  1682  0E96                     l1933:
  1683                           
  1684                           ;newmain.c: 126:         state_1(); pulse_gen(1); state_3(); latch_gen();_delay((unsigne
      +                          d long)((200)*(1000000/4000.0)));
  1685  0E96  318D  2578  318E   	fcall	_state_1
  1686  0E99                     l1935:
  1687  0E99  3001               	movlw	1
  1688  0E9A  00F0               	movwf	pulse_gen@n
  1689  0E9B  3000               	movlw	0
  1690  0E9C  00F1               	movwf	pulse_gen@n+1
  1691  0E9D  3180  2007  318E   	fcall	_pulse_gen
  1692  0EA0                     l1937:
  1693  0EA0  318D  2594  318E   	fcall	_state_3
  1694  0EA3                     l1939:
  1695  0EA3  318D  2544  318E   	fcall	_latch_gen
  1696  0EA6                     l1941:
  1697  0EA6  3041               	movlw	65
  1698  0EA7  00F7               	movwf	??_main
  1699  0EA8  30EE               	movlw	238
  1700  0EA9                     u167:
  1701  0EA9  0B89               	decfsz	9,f
  1702  0EAA  2EA9               	goto	u167
  1703  0EAB  0BF7               	decfsz	??_main,f
  1704  0EAC  2EA9               	goto	u167
  1705  0EAD  3200               	nop2
  1706  0EAE                     l1943:
  1707                           
  1708                           ;newmain.c: 127:         state_1(); pulse_gen(1); state_4(); latch_gen();_delay((unsigne
      +                          d long)((200)*(1000000/4000.0)));
  1709  0EAE  318D  2578  318E   	fcall	_state_1
  1710  0EB1                     l1945:
  1711  0EB1  3001               	movlw	1
  1712  0EB2  00F0               	movwf	pulse_gen@n
  1713  0EB3  3000               	movlw	0
  1714  0EB4  00F1               	movwf	pulse_gen@n+1
  1715  0EB5  3180  2007  318E   	fcall	_pulse_gen
  1716  0EB8                     l1947:
  1717  0EB8  318D  25E8  318E   	fcall	_state_4
  1718  0EBB                     l1949:
  1719  0EBB  318D  2544  318E   	fcall	_latch_gen
  1720  0EBE                     l1951:
  1721  0EBE  3041               	movlw	65
  1722  0EBF  00F7               	movwf	??_main
  1723  0EC0  30EE               	movlw	238
  1724  0EC1                     u177:
  1725  0EC1  0B89               	decfsz	9,f
  1726  0EC2  2EC1               	goto	u177
  1727  0EC3  0BF7               	decfsz	??_main,f
  1728  0EC4  2EC1               	goto	u177
  1729  0EC5  3200               	nop2
  1730  0EC6                     l1953:
  1731                           
  1732                           ;newmain.c: 128:         state_1(); pulse_gen(1); state_5(); latch_gen();_delay((unsigne
      +                          d long)((200)*(1000000/4000.0)));
  1733  0EC6  318D  2578  318E   	fcall	_state_1
  1734  0EC9                     l1955:
  1735  0EC9  3001               	movlw	1
  1736  0ECA  00F0               	movwf	pulse_gen@n
  1737  0ECB  3000               	movlw	0
  1738  0ECC  00F1               	movwf	pulse_gen@n+1
  1739  0ECD  3180  2007  318E   	fcall	_pulse_gen
  1740  0ED0                     l1957:
  1741  0ED0  318E  263B  318E   	fcall	_state_5
  1742  0ED3                     l1959:
  1743  0ED3  318D  2544  318E   	fcall	_latch_gen
  1744  0ED6                     l1961:
  1745  0ED6  3041               	movlw	65
  1746  0ED7  00F7               	movwf	??_main
  1747  0ED8  30EE               	movlw	238
  1748  0ED9                     u187:
  1749  0ED9  0B89               	decfsz	9,f
  1750  0EDA  2ED9               	goto	u187
  1751  0EDB  0BF7               	decfsz	??_main,f
  1752  0EDC  2ED9               	goto	u187
  1753  0EDD  3200               	nop2
  1754  0EDE                     l1963:
  1755                           
  1756                           ;newmain.c: 129:         state_1(); pulse_gen(1); state_6(); latch_gen();_delay((unsigne
      +                          d long)((200)*(1000000/4000.0)));
  1757  0EDE  318D  2578  318E   	fcall	_state_1
  1758  0EE1                     l1965:
  1759  0EE1  3001               	movlw	1
  1760  0EE2  00F0               	movwf	pulse_gen@n
  1761  0EE3  3000               	movlw	0
  1762  0EE4  00F1               	movwf	pulse_gen@n+1
  1763  0EE5  3180  2007  318E   	fcall	_pulse_gen
  1764  0EE8                     l1967:
  1765  0EE8  318D  25B0  318E   	fcall	_state_6
  1766  0EEB                     l1969:
  1767  0EEB  3180  2826         	ljmp	L3
  1768                           
  1769                           	psect	maintext_split_3
  1770  0026                     L3:
  1771  0026  318D  2544  3180   	fcall	_latch_gen
  1772  0029                     l1971:
  1773  0029  3041               	movlw	65
  1774  002A  00F7               	movwf	??_main
  1775  002B  30EE               	movlw	238
  1776  002C                     u197:
  1777  002C  0B89               	decfsz	9,f
  1778  002D  282C               	goto	u197
  1779  002E  0BF7               	decfsz	??_main,f
  1780  002F  282C               	goto	u197
  1781  0030  3200               	nop2
  1782  0031                     l1973:
  1783                           
  1784                           ;newmain.c: 130:         state_1(); pulse_gen(1); state_7(); latch_gen();_delay((unsigne
      +                          d long)((200)*(1000000/4000.0)));
  1785  0031  318D  2578  3180   	fcall	_state_1
  1786  0034                     l1975:
  1787  0034  3001               	movlw	1
  1788  0035  00F0               	movwf	pulse_gen@n
  1789  0036  3000               	movlw	0
  1790  0037  00F1               	movwf	pulse_gen@n+1
  1791  0038  3180  2007  3180   	fcall	_pulse_gen
  1792  003B                     l1977:
  1793  003B  318D  2565  3180   	fcall	_state_7
  1794  003E                     l1979:
  1795  003E  318D  2544  3180   	fcall	_latch_gen
  1796  0041                     l1981:
  1797  0041  3041               	movlw	65
  1798  0042  00F7               	movwf	??_main
  1799  0043  30EE               	movlw	238
  1800  0044                     u207:
  1801  0044  0B89               	decfsz	9,f
  1802  0045  2844               	goto	u207
  1803  0046  0BF7               	decfsz	??_main,f
  1804  0047  2844               	goto	u207
  1805  0048  3200               	nop2
  1806  0049                     l1983:
  1807                           
  1808                           ;newmain.c: 131:         state_1(); pulse_gen(1); state_8(); latch_gen();_delay((unsigne
      +                          d long)((200)*(1000000/4000.0)));
  1809  0049  318D  2578  3180   	fcall	_state_1
  1810  004C                     l1985:
  1811  004C  3001               	movlw	1
  1812  004D  00F0               	movwf	pulse_gen@n
  1813  004E  3000               	movlw	0
  1814  004F  00F1               	movwf	pulse_gen@n+1
  1815  0050  3180  2007  3180   	fcall	_pulse_gen
  1816  0053                     l1987:
  1817  0053  318D  2548  3180   	fcall	_state_8
  1818  0056                     l1989:
  1819  0056  318D  2544  3180   	fcall	_latch_gen
  1820  0059                     l1991:
  1821  0059  3041               	movlw	65
  1822  005A  00F7               	movwf	??_main
  1823  005B  30EE               	movlw	238
  1824  005C                     u217:
  1825  005C  0B89               	decfsz	9,f
  1826  005D  285C               	goto	u217
  1827  005E  0BF7               	decfsz	??_main,f
  1828  005F  285C               	goto	u217
  1829  0060  3200               	nop2
  1830  0061                     l1993:
  1831                           
  1832                           ;newmain.c: 132:         state_1(); pulse_gen(1); state_9(); latch_gen();_delay((unsigne
      +                          d long)((200)*(1000000/4000.0)));
  1833  0061  318D  2578  3180   	fcall	_state_1
  1834  0064                     l1995:
  1835  0064  3001               	movlw	1
  1836  0065  00F0               	movwf	pulse_gen@n
  1837  0066  3000               	movlw	0
  1838  0067  00F1               	movwf	pulse_gen@n+1
  1839  0068  3180  2007  3180   	fcall	_pulse_gen
  1840  006B                     l1997:
  1841  006B  318D  25CC  3180   	fcall	_state_9
  1842  006E                     l1999:
  1843  006E  318D  2544  3180   	fcall	_latch_gen
  1844  0071                     l2001:
  1845  0071  3041               	movlw	65
  1846  0072  00F7               	movwf	??_main
  1847  0073  30EE               	movlw	238
  1848  0074                     u227:
  1849  0074  0B89               	decfsz	9,f
  1850  0075  2874               	goto	u227
  1851  0076  0BF7               	decfsz	??_main,f
  1852  0077  2874               	goto	u227
  1853  0078  3200               	nop2
  1854  0079                     l2003:
  1855                           
  1856                           ;newmain.c: 134:         state_2(); pulse_gen(1); state_0(); latch_gen();_delay((unsigne
      +                          d long)((200)*(1000000/4000.0)));
  1857  0079  318E  260D  3180   	fcall	_state_2
  1858  007C                     l2005:
  1859  007C  3001               	movlw	1
  1860  007D  00F0               	movwf	pulse_gen@n
  1861  007E  3000               	movlw	0
  1862  007F  00F1               	movwf	pulse_gen@n+1
  1863  0080  3180  2007  3180   	fcall	_pulse_gen
  1864  0083                     l2007:
  1865  0083  318D  2552  3180   	fcall	_state_0
  1866  0086                     l2009:
  1867  0086  318D  2544  3180   	fcall	_latch_gen
  1868  0089                     l2011:
  1869  0089  3041               	movlw	65
  1870  008A  00F7               	movwf	??_main
  1871  008B  30EE               	movlw	238
  1872  008C                     u237:
  1873  008C  0B89               	decfsz	9,f
  1874  008D  288C               	goto	u237
  1875  008E  0BF7               	decfsz	??_main,f
  1876  008F  288C               	goto	u237
  1877  0090  3200               	nop2
  1878  0091                     l2013:
  1879                           
  1880                           ;newmain.c: 135:         state_2(); pulse_gen(1); state_1(); latch_gen();_delay((unsigne
      +                          d long)((200)*(1000000/4000.0)));
  1881  0091  318E  260D  3180   	fcall	_state_2
  1882  0094                     l2015:
  1883  0094  3001               	movlw	1
  1884  0095  00F0               	movwf	pulse_gen@n
  1885  0096  3000               	movlw	0
  1886  0097  00F1               	movwf	pulse_gen@n+1
  1887  0098  3180  2007  3180   	fcall	_pulse_gen
  1888  009B                     l2017:
  1889  009B  318D  2578  3180   	fcall	_state_1
  1890  009E                     l2019:
  1891  009E  318D  2544  3180   	fcall	_latch_gen
  1892  00A1                     l2021:
  1893  00A1  3041               	movlw	65
  1894  00A2  00F7               	movwf	??_main
  1895  00A3  30EE               	movlw	238
  1896  00A4                     u247:
  1897  00A4  0B89               	decfsz	9,f
  1898  00A5  28A4               	goto	u247
  1899  00A6  0BF7               	decfsz	??_main,f
  1900  00A7  28A4               	goto	u247
  1901  00A8  3200               	nop2
  1902  00A9                     l2023:
  1903                           
  1904                           ;newmain.c: 136:         state_2(); pulse_gen(1); state_2(); latch_gen();_delay((unsigne
      +                          d long)((200)*(1000000/4000.0)));
  1905  00A9  318E  260D  3180   	fcall	_state_2
  1906  00AC                     l2025:
  1907  00AC  3001               	movlw	1
  1908  00AD  00F0               	movwf	pulse_gen@n
  1909  00AE  3000               	movlw	0
  1910  00AF  00F1               	movwf	pulse_gen@n+1
  1911  00B0  3180  2007  3180   	fcall	_pulse_gen
  1912  00B3                     l2027:
  1913  00B3  318E  260D  3180   	fcall	_state_2
  1914  00B6                     l2029:
  1915  00B6  318D  2544  3180   	fcall	_latch_gen
  1916  00B9                     l2031:
  1917  00B9  3041               	movlw	65
  1918  00BA  00F7               	movwf	??_main
  1919  00BB  30EE               	movlw	238
  1920  00BC                     u257:
  1921  00BC  0B89               	decfsz	9,f
  1922  00BD  28BC               	goto	u257
  1923  00BE  0BF7               	decfsz	??_main,f
  1924  00BF  28BC               	goto	u257
  1925  00C0  3200               	nop2
  1926  00C1                     l2033:
  1927                           
  1928                           ;newmain.c: 137:         state_2(); pulse_gen(1); state_3(); latch_gen();_delay((unsigne
      +                          d long)((200)*(1000000/4000.0)));
  1929  00C1  318E  260D  3180   	fcall	_state_2
  1930  00C4                     l2035:
  1931  00C4  3001               	movlw	1
  1932  00C5  00F0               	movwf	pulse_gen@n
  1933  00C6  3000               	movlw	0
  1934  00C7  00F1               	movwf	pulse_gen@n+1
  1935  00C8  3180  2007  3180   	fcall	_pulse_gen
  1936  00CB                     l2037:
  1937  00CB  318D  2594  3180   	fcall	_state_3
  1938  00CE                     l2039:
  1939  00CE  318D  2544  3180   	fcall	_latch_gen
  1940  00D1                     l2041:
  1941  00D1  3041               	movlw	65
  1942  00D2  00F7               	movwf	??_main
  1943  00D3  30EE               	movlw	238
  1944  00D4                     u267:
  1945  00D4  0B89               	decfsz	9,f
  1946  00D5  28D4               	goto	u267
  1947  00D6  0BF7               	decfsz	??_main,f
  1948  00D7  28D4               	goto	u267
  1949  00D8  3200               	nop2
  1950  00D9                     l2043:
  1951                           
  1952                           ;newmain.c: 138:         state_2(); pulse_gen(1); state_4(); latch_gen();_delay((unsigne
      +                          d long)((200)*(1000000/4000.0)));
  1953  00D9  318E  260D  3180   	fcall	_state_2
  1954  00DC                     l2045:
  1955  00DC  3001               	movlw	1
  1956  00DD  00F0               	movwf	pulse_gen@n
  1957  00DE  3000               	movlw	0
  1958  00DF  00F1               	movwf	pulse_gen@n+1
  1959  00E0  3180  2007  3180   	fcall	_pulse_gen
  1960  00E3                     l2047:
  1961  00E3  318D  25E8  3180   	fcall	_state_4
  1962  00E6                     l2049:
  1963  00E6  318D  2544  3180   	fcall	_latch_gen
  1964  00E9                     l2051:
  1965  00E9  3041               	movlw	65
  1966  00EA  00F7               	movwf	??_main
  1967  00EB  30EE               	movlw	238
  1968  00EC                     u277:
  1969  00EC  0B89               	decfsz	9,f
  1970  00ED  28EC               	goto	u277
  1971  00EE  0BF7               	decfsz	??_main,f
  1972  00EF  28EC               	goto	u277
  1973  00F0  3200               	nop2
  1974  00F1                     l2053:
  1975                           
  1976                           ;newmain.c: 139:         state_2(); pulse_gen(1); state_5(); latch_gen();_delay((unsigne
      +                          d long)((200)*(1000000/4000.0)));
  1977  00F1  318E  260D  3180   	fcall	_state_2
  1978  00F4                     l2055:
  1979  00F4  3001               	movlw	1
  1980  00F5  00F0               	movwf	pulse_gen@n
  1981  00F6  3000               	movlw	0
  1982  00F7  00F1               	movwf	pulse_gen@n+1
  1983  00F8  3180  2007  3180   	fcall	_pulse_gen
  1984  00FB                     l2057:
  1985  00FB  318E  263B  3180   	fcall	_state_5
  1986  00FE                     l2059:
  1987  00FE  318D  2544  3180   	fcall	_latch_gen
  1988  0101                     l2061:
  1989  0101  3041               	movlw	65
  1990  0102  00F7               	movwf	??_main
  1991  0103  30EE               	movlw	238
  1992  0104                     u287:
  1993  0104  0B89               	decfsz	9,f
  1994  0105  2904               	goto	u287
  1995  0106  0BF7               	decfsz	??_main,f
  1996  0107  2904               	goto	u287
  1997  0108  3200               	nop2
  1998  0109                     l2063:
  1999                           
  2000                           ;newmain.c: 140:         state_2(); pulse_gen(1); state_6(); latch_gen();_delay((unsigne
      +                          d long)((200)*(1000000/4000.0)));
  2001  0109  318E  260D  3180   	fcall	_state_2
  2002  010C                     l2065:
  2003  010C  3001               	movlw	1
  2004  010D  00F0               	movwf	pulse_gen@n
  2005  010E  3000               	movlw	0
  2006  010F  00F1               	movwf	pulse_gen@n+1
  2007  0110  3180  2007  3180   	fcall	_pulse_gen
  2008  0113                     l2067:
  2009  0113  318D  25B0  3180   	fcall	_state_6
  2010  0116                     l2069:
  2011  0116  318D  2544  3180   	fcall	_latch_gen
  2012  0119                     l2071:
  2013  0119  3041               	movlw	65
  2014  011A  00F7               	movwf	??_main
  2015  011B  30EE               	movlw	238
  2016  011C                     u297:
  2017  011C  0B89               	decfsz	9,f
  2018  011D  291C               	goto	u297
  2019  011E  0BF7               	decfsz	??_main,f
  2020  011F  291C               	goto	u297
  2021  0120  3200               	nop2
  2022  0121                     l2073:
  2023                           
  2024                           ;newmain.c: 141:         state_2(); pulse_gen(1); state_7(); latch_gen();_delay((unsigne
      +                          d long)((200)*(1000000/4000.0)));
  2025  0121  318E  260D  3180   	fcall	_state_2
  2026  0124                     l2075:
  2027  0124  3001               	movlw	1
  2028  0125  00F0               	movwf	pulse_gen@n
  2029  0126  3000               	movlw	0
  2030  0127  00F1               	movwf	pulse_gen@n+1
  2031  0128  3180  2007  3180   	fcall	_pulse_gen
  2032  012B                     l2077:
  2033  012B  318D  2565  3180   	fcall	_state_7
  2034  012E                     l2079:
  2035  012E  318D  2544  3180   	fcall	_latch_gen
  2036  0131                     l2081:
  2037  0131  3041               	movlw	65
  2038  0132  00F7               	movwf	??_main
  2039  0133  30EE               	movlw	238
  2040  0134                     u307:
  2041  0134  0B89               	decfsz	9,f
  2042  0135  2934               	goto	u307
  2043  0136  0BF7               	decfsz	??_main,f
  2044  0137  2934               	goto	u307
  2045  0138  3200               	nop2
  2046  0139                     l2083:
  2047                           
  2048                           ;newmain.c: 142:         state_2(); pulse_gen(1); state_8(); latch_gen();_delay((unsigne
      +                          d long)((200)*(1000000/4000.0)));
  2049  0139  318E  260D  3180   	fcall	_state_2
  2050  013C                     l2085:
  2051  013C  3001               	movlw	1
  2052  013D  00F0               	movwf	pulse_gen@n
  2053  013E  3000               	movlw	0
  2054  013F  00F1               	movwf	pulse_gen@n+1
  2055  0140  3180  2007  3180   	fcall	_pulse_gen
  2056  0143                     l2087:
  2057  0143  318D  2548  3180   	fcall	_state_8
  2058  0146                     l2089:
  2059  0146  318D  2544  3180   	fcall	_latch_gen
  2060  0149                     l2091:
  2061  0149  3041               	movlw	65
  2062  014A  00F7               	movwf	??_main
  2063  014B  30EE               	movlw	238
  2064  014C                     u317:
  2065  014C  0B89               	decfsz	9,f
  2066  014D  294C               	goto	u317
  2067  014E  0BF7               	decfsz	??_main,f
  2068  014F  294C               	goto	u317
  2069  0150  3200               	nop2
  2070  0151                     l2093:
  2071                           
  2072                           ;newmain.c: 143:         state_2(); pulse_gen(1); state_9(); latch_gen();_delay((unsigne
      +                          d long)((200)*(1000000/4000.0)));
  2073  0151  318E  260D  3180   	fcall	_state_2
  2074  0154                     l2095:
  2075  0154  3001               	movlw	1
  2076  0155  00F0               	movwf	pulse_gen@n
  2077  0156  3000               	movlw	0
  2078  0157  00F1               	movwf	pulse_gen@n+1
  2079  0158  3180  2007  3180   	fcall	_pulse_gen
  2080  015B                     l2097:
  2081  015B  318D  25CC  3180   	fcall	_state_9
  2082  015E                     l2099:
  2083  015E  318D  2544  3180   	fcall	_latch_gen
  2084  0161                     l2101:
  2085  0161  3041               	movlw	65
  2086  0162  00F7               	movwf	??_main
  2087  0163  30EE               	movlw	238
  2088  0164                     u327:
  2089  0164  0B89               	decfsz	9,f
  2090  0165  2964               	goto	u327
  2091  0166  0BF7               	decfsz	??_main,f
  2092  0167  2964               	goto	u327
  2093  0168  3200               	nop2
  2094  0169                     l2103:
  2095                           
  2096                           ;newmain.c: 145:         state_3(); pulse_gen(1); state_0(); latch_gen();_delay((unsigne
      +                          d long)((200)*(1000000/4000.0)));
  2097  0169  318D  2594  3180   	fcall	_state_3
  2098  016C                     l2105:
  2099  016C  3001               	movlw	1
  2100  016D  00F0               	movwf	pulse_gen@n
  2101  016E  3000               	movlw	0
  2102  016F  00F1               	movwf	pulse_gen@n+1
  2103  0170  3180  2007  3180   	fcall	_pulse_gen
  2104  0173                     l2107:
  2105  0173  318D  2552  3180   	fcall	_state_0
  2106  0176                     l2109:
  2107  0176  318D  2544  3180   	fcall	_latch_gen
  2108  0179                     l2111:
  2109  0179  3041               	movlw	65
  2110  017A  00F7               	movwf	??_main
  2111  017B  30EE               	movlw	238
  2112  017C                     u337:
  2113  017C  0B89               	decfsz	9,f
  2114  017D  297C               	goto	u337
  2115  017E  0BF7               	decfsz	??_main,f
  2116  017F  297C               	goto	u337
  2117  0180  3200               	nop2
  2118  0181                     l2113:
  2119                           
  2120                           ;newmain.c: 146:         state_3(); pulse_gen(1); state_1(); latch_gen();_delay((unsigne
      +                          d long)((200)*(1000000/4000.0)));
  2121  0181  318D  2594  3180   	fcall	_state_3
  2122  0184                     l2115:
  2123  0184  3001               	movlw	1
  2124  0185  00F0               	movwf	pulse_gen@n
  2125  0186  3000               	movlw	0
  2126  0187  00F1               	movwf	pulse_gen@n+1
  2127  0188  3180  2007  3180   	fcall	_pulse_gen
  2128  018B                     l2117:
  2129  018B  318D  2578  3180   	fcall	_state_1
  2130  018E                     l2119:
  2131  018E  318D  2544  3180   	fcall	_latch_gen
  2132  0191                     l2121:
  2133  0191  3041               	movlw	65
  2134  0192  00F7               	movwf	??_main
  2135  0193  30EE               	movlw	238
  2136  0194                     u347:
  2137  0194  0B89               	decfsz	9,f
  2138  0195  2994               	goto	u347
  2139  0196  0BF7               	decfsz	??_main,f
  2140  0197  2994               	goto	u347
  2141  0198  3200               	nop2
  2142  0199                     l2123:
  2143                           
  2144                           ;newmain.c: 147:         state_3(); pulse_gen(1); state_2(); latch_gen();_delay((unsigne
      +                          d long)((200)*(1000000/4000.0)));
  2145  0199  318D  2594  3180   	fcall	_state_3
  2146  019C                     l2125:
  2147  019C  3001               	movlw	1
  2148  019D  00F0               	movwf	pulse_gen@n
  2149  019E  3000               	movlw	0
  2150  019F  00F1               	movwf	pulse_gen@n+1
  2151  01A0  3180  2007  3180   	fcall	_pulse_gen
  2152  01A3                     l2127:
  2153  01A3  318E  260D  3180   	fcall	_state_2
  2154  01A6                     l2129:
  2155  01A6  318D  2544  3180   	fcall	_latch_gen
  2156  01A9                     l2131:
  2157  01A9  3041               	movlw	65
  2158  01AA  00F7               	movwf	??_main
  2159  01AB  30EE               	movlw	238
  2160  01AC                     u357:
  2161  01AC  0B89               	decfsz	9,f
  2162  01AD  29AC               	goto	u357
  2163  01AE  0BF7               	decfsz	??_main,f
  2164  01AF  29AC               	goto	u357
  2165  01B0  3200               	nop2
  2166  01B1                     l2133:
  2167                           
  2168                           ;newmain.c: 148:         state_3(); pulse_gen(1); state_3(); latch_gen();_delay((unsigne
      +                          d long)((200)*(1000000/4000.0)));
  2169  01B1  318D  2594  3180   	fcall	_state_3
  2170  01B4                     l2135:
  2171  01B4  3001               	movlw	1
  2172  01B5  00F0               	movwf	pulse_gen@n
  2173  01B6  3000               	movlw	0
  2174  01B7  00F1               	movwf	pulse_gen@n+1
  2175  01B8  3180  2007  3180   	fcall	_pulse_gen
  2176  01BB                     l2137:
  2177  01BB  318D  2594  3180   	fcall	_state_3
  2178  01BE                     l2139:
  2179  01BE  318D  2544  3180   	fcall	_latch_gen
  2180  01C1                     l2141:
  2181  01C1  3041               	movlw	65
  2182  01C2  00F7               	movwf	??_main
  2183  01C3  30EE               	movlw	238
  2184  01C4                     u367:
  2185  01C4  0B89               	decfsz	9,f
  2186  01C5  29C4               	goto	u367
  2187  01C6  0BF7               	decfsz	??_main,f
  2188  01C7  29C4               	goto	u367
  2189  01C8  3200               	nop2
  2190  01C9                     l2143:
  2191                           
  2192                           ;newmain.c: 149:         state_3(); pulse_gen(1); state_4(); latch_gen();_delay((unsigne
      +                          d long)((200)*(1000000/4000.0)));
  2193  01C9  318D  2594  3180   	fcall	_state_3
  2194  01CC                     l2145:
  2195  01CC  3001               	movlw	1
  2196  01CD  00F0               	movwf	pulse_gen@n
  2197  01CE  3000               	movlw	0
  2198  01CF  00F1               	movwf	pulse_gen@n+1
  2199  01D0  3180  2007  3180   	fcall	_pulse_gen
  2200  01D3                     l2147:
  2201  01D3  318D  25E8  3180   	fcall	_state_4
  2202  01D6                     l2149:
  2203  01D6  318D  2544  3180   	fcall	_latch_gen
  2204  01D9                     l2151:
  2205  01D9  3041               	movlw	65
  2206  01DA  00F7               	movwf	??_main
  2207  01DB  30EE               	movlw	238
  2208  01DC                     u377:
  2209  01DC  0B89               	decfsz	9,f
  2210  01DD  29DC               	goto	u377
  2211  01DE  0BF7               	decfsz	??_main,f
  2212  01DF  29DC               	goto	u377
  2213  01E0  3200               	nop2
  2214  01E1                     l2153:
  2215                           
  2216                           ;newmain.c: 150:         state_3(); pulse_gen(1); state_5(); latch_gen();_delay((unsigne
      +                          d long)((200)*(1000000/4000.0)));
  2217  01E1  318D  2594  3180   	fcall	_state_3
  2218  01E4                     l2155:
  2219  01E4  3001               	movlw	1
  2220  01E5  00F0               	movwf	pulse_gen@n
  2221  01E6  3000               	movlw	0
  2222  01E7  00F1               	movwf	pulse_gen@n+1
  2223  01E8  3180  2007  3180   	fcall	_pulse_gen
  2224  01EB                     l2157:
  2225  01EB  318E  263B  3180   	fcall	_state_5
  2226  01EE                     l2159:
  2227  01EE  318D  2544  3180   	fcall	_latch_gen
  2228  01F1                     l2161:
  2229  01F1  3041               	movlw	65
  2230  01F2  00F7               	movwf	??_main
  2231  01F3  30EE               	movlw	238
  2232  01F4                     u387:
  2233  01F4  0B89               	decfsz	9,f
  2234  01F5  29F4               	goto	u387
  2235  01F6  0BF7               	decfsz	??_main,f
  2236  01F7  29F4               	goto	u387
  2237  01F8  3200               	nop2
  2238  01F9                     l2163:
  2239                           
  2240                           ;newmain.c: 151:         state_3(); pulse_gen(1); state_6(); latch_gen();_delay((unsigne
      +                          d long)((200)*(1000000/4000.0)));
  2241  01F9  318D  2594  3180   	fcall	_state_3
  2242  01FC                     l2165:
  2243  01FC  3001               	movlw	1
  2244  01FD  00F0               	movwf	pulse_gen@n
  2245  01FE  3000               	movlw	0
  2246  01FF  00F1               	movwf	pulse_gen@n+1
  2247  0200  3180  2007  3180   	fcall	_pulse_gen
  2248  0203                     l2167:
  2249  0203  318D  25B0  3180   	fcall	_state_6
  2250  0206                     l2169:
  2251  0206  318D  2544  3180   	fcall	_latch_gen
  2252  0209                     l2171:
  2253  0209  3041               	movlw	65
  2254  020A  00F7               	movwf	??_main
  2255  020B  30EE               	movlw	238
  2256  020C                     u397:
  2257  020C  0B89               	decfsz	9,f
  2258  020D  2A0C               	goto	u397
  2259  020E  0BF7               	decfsz	??_main,f
  2260  020F  2A0C               	goto	u397
  2261  0210  3200               	nop2
  2262  0211                     l2173:
  2263                           
  2264                           ;newmain.c: 152:         state_3(); pulse_gen(1); state_7(); latch_gen();_delay((unsigne
      +                          d long)((200)*(1000000/4000.0)));
  2265  0211  318D  2594  3180   	fcall	_state_3
  2266  0214                     l2175:
  2267  0214  3001               	movlw	1
  2268  0215  00F0               	movwf	pulse_gen@n
  2269  0216  3000               	movlw	0
  2270  0217  00F1               	movwf	pulse_gen@n+1
  2271  0218  3180  2007  3180   	fcall	_pulse_gen
  2272  021B                     l2177:
  2273  021B  318D  2565  3180   	fcall	_state_7
  2274  021E                     l2179:
  2275  021E  318D  2544  3180   	fcall	_latch_gen
  2276  0221                     l2181:
  2277  0221  3041               	movlw	65
  2278  0222  00F7               	movwf	??_main
  2279  0223  30EE               	movlw	238
  2280  0224                     u407:
  2281  0224  0B89               	decfsz	9,f
  2282  0225  2A24               	goto	u407
  2283  0226  0BF7               	decfsz	??_main,f
  2284  0227  2A24               	goto	u407
  2285  0228  3200               	nop2
  2286  0229                     l2183:
  2287                           
  2288                           ;newmain.c: 153:         state_3(); pulse_gen(1); state_8(); latch_gen();_delay((unsigne
      +                          d long)((200)*(1000000/4000.0)));
  2289  0229  318D  2594  3180   	fcall	_state_3
  2290  022C                     l2185:
  2291  022C  3001               	movlw	1
  2292  022D  00F0               	movwf	pulse_gen@n
  2293  022E  3000               	movlw	0
  2294  022F  00F1               	movwf	pulse_gen@n+1
  2295  0230  3180  2007  3180   	fcall	_pulse_gen
  2296  0233                     l2187:
  2297  0233  318D  2548  3180   	fcall	_state_8
  2298  0236                     l2189:
  2299  0236  318D  2544  3180   	fcall	_latch_gen
  2300  0239                     l2191:
  2301  0239  3041               	movlw	65
  2302  023A  00F7               	movwf	??_main
  2303  023B  30EE               	movlw	238
  2304  023C                     u417:
  2305  023C  0B89               	decfsz	9,f
  2306  023D  2A3C               	goto	u417
  2307  023E  0BF7               	decfsz	??_main,f
  2308  023F  2A3C               	goto	u417
  2309  0240  3200               	nop2
  2310  0241                     l2193:
  2311                           
  2312                           ;newmain.c: 154:         state_3(); pulse_gen(1); state_9(); latch_gen();_delay((unsigne
      +                          d long)((200)*(1000000/4000.0)));
  2313  0241  318D  2594  3180   	fcall	_state_3
  2314  0244                     l2195:
  2315  0244  3001               	movlw	1
  2316  0245  00F0               	movwf	pulse_gen@n
  2317  0246  3000               	movlw	0
  2318  0247  00F1               	movwf	pulse_gen@n+1
  2319  0248  3180  2007  3180   	fcall	_pulse_gen
  2320  024B                     l2197:
  2321  024B  318D  25CC  3180   	fcall	_state_9
  2322  024E                     l2199:
  2323  024E  318D  2544  3180   	fcall	_latch_gen
  2324  0251                     l2201:
  2325  0251  3041               	movlw	65
  2326  0252  00F7               	movwf	??_main
  2327  0253  30EE               	movlw	238
  2328  0254                     u427:
  2329  0254  0B89               	decfsz	9,f
  2330  0255  2A54               	goto	u427
  2331  0256  0BF7               	decfsz	??_main,f
  2332  0257  2A54               	goto	u427
  2333  0258  3200               	nop2
  2334  0259                     l2203:
  2335                           
  2336                           ;newmain.c: 156:         state_4(); pulse_gen(1); state_0(); latch_gen();_delay((unsigne
      +                          d long)((200)*(1000000/4000.0)));
  2337  0259  318D  25E8  3180   	fcall	_state_4
  2338  025C                     l2205:
  2339  025C  3001               	movlw	1
  2340  025D  00F0               	movwf	pulse_gen@n
  2341  025E  3000               	movlw	0
  2342  025F  00F1               	movwf	pulse_gen@n+1
  2343  0260  3180  2007  3180   	fcall	_pulse_gen
  2344  0263                     l2207:
  2345  0263  318D  2552  3180   	fcall	_state_0
  2346  0266                     l2209:
  2347  0266  318D  2544  3180   	fcall	_latch_gen
  2348  0269                     l2211:
  2349  0269  3041               	movlw	65
  2350  026A  00F7               	movwf	??_main
  2351  026B  30EE               	movlw	238
  2352  026C                     u437:
  2353  026C  0B89               	decfsz	9,f
  2354  026D  2A6C               	goto	u437
  2355  026E  0BF7               	decfsz	??_main,f
  2356  026F  2A6C               	goto	u437
  2357  0270  3200               	nop2
  2358  0271                     l2213:
  2359                           
  2360                           ;newmain.c: 157:         state_4(); pulse_gen(1); state_1(); latch_gen();_delay((unsigne
      +                          d long)((200)*(1000000/4000.0)));
  2361  0271  318D  25E8  3180   	fcall	_state_4
  2362  0274                     l2215:
  2363  0274  3001               	movlw	1
  2364  0275  00F0               	movwf	pulse_gen@n
  2365  0276  3000               	movlw	0
  2366  0277  00F1               	movwf	pulse_gen@n+1
  2367  0278  3180  2007  3180   	fcall	_pulse_gen
  2368  027B                     l2217:
  2369  027B  318D  2578  3180   	fcall	_state_1
  2370  027E                     l2219:
  2371  027E  318D  2544  3180   	fcall	_latch_gen
  2372  0281                     l2221:
  2373  0281  3041               	movlw	65
  2374  0282  00F7               	movwf	??_main
  2375  0283  30EE               	movlw	238
  2376  0284                     u447:
  2377  0284  0B89               	decfsz	9,f
  2378  0285  2A84               	goto	u447
  2379  0286  0BF7               	decfsz	??_main,f
  2380  0287  2A84               	goto	u447
  2381  0288  3200               	nop2
  2382  0289                     l2223:
  2383                           
  2384                           ;newmain.c: 158:         state_4(); pulse_gen(1); state_2(); latch_gen();_delay((unsigne
      +                          d long)((200)*(1000000/4000.0)));
  2385  0289  318D  25E8  3180   	fcall	_state_4
  2386  028C                     l2225:
  2387  028C  3001               	movlw	1
  2388  028D  00F0               	movwf	pulse_gen@n
  2389  028E  3000               	movlw	0
  2390  028F  00F1               	movwf	pulse_gen@n+1
  2391  0290  3180  2007  3180   	fcall	_pulse_gen
  2392  0293                     l2227:
  2393  0293  318E  260D  3180   	fcall	_state_2
  2394  0296                     l2229:
  2395  0296  318D  2544  3180   	fcall	_latch_gen
  2396  0299                     l2231:
  2397  0299  3041               	movlw	65
  2398  029A  00F7               	movwf	??_main
  2399  029B  30EE               	movlw	238
  2400  029C                     u457:
  2401  029C  0B89               	decfsz	9,f
  2402  029D  2A9C               	goto	u457
  2403  029E  0BF7               	decfsz	??_main,f
  2404  029F  2A9C               	goto	u457
  2405  02A0  3200               	nop2
  2406  02A1                     l2233:
  2407                           
  2408                           ;newmain.c: 159:         state_4(); pulse_gen(1); state_3(); latch_gen();_delay((unsigne
      +                          d long)((200)*(1000000/4000.0)));
  2409  02A1  318D  25E8  3180   	fcall	_state_4
  2410  02A4                     l2235:
  2411  02A4  3001               	movlw	1
  2412  02A5  00F0               	movwf	pulse_gen@n
  2413  02A6  3000               	movlw	0
  2414  02A7  00F1               	movwf	pulse_gen@n+1
  2415  02A8  3180  2007  3180   	fcall	_pulse_gen
  2416  02AB                     l2237:
  2417  02AB  318D  2594  3180   	fcall	_state_3
  2418  02AE                     l2239:
  2419  02AE  318D  2544  3180   	fcall	_latch_gen
  2420  02B1                     l2241:
  2421  02B1  3041               	movlw	65
  2422  02B2  00F7               	movwf	??_main
  2423  02B3  30EE               	movlw	238
  2424  02B4                     u467:
  2425  02B4  0B89               	decfsz	9,f
  2426  02B5  2AB4               	goto	u467
  2427  02B6  0BF7               	decfsz	??_main,f
  2428  02B7  2AB4               	goto	u467
  2429  02B8  3200               	nop2
  2430  02B9                     l2243:
  2431                           
  2432                           ;newmain.c: 160:         state_4(); pulse_gen(1); state_4(); latch_gen();_delay((unsigne
      +                          d long)((200)*(1000000/4000.0)));
  2433  02B9  318D  25E8  3180   	fcall	_state_4
  2434  02BC                     l2245:
  2435  02BC  3001               	movlw	1
  2436  02BD  00F0               	movwf	pulse_gen@n
  2437  02BE  3000               	movlw	0
  2438  02BF  00F1               	movwf	pulse_gen@n+1
  2439  02C0  3180  2007  3180   	fcall	_pulse_gen
  2440  02C3                     l2247:
  2441  02C3  318D  25E8  3180   	fcall	_state_4
  2442  02C6                     l2249:
  2443  02C6  318D  2544  3180   	fcall	_latch_gen
  2444  02C9                     l2251:
  2445  02C9  3041               	movlw	65
  2446  02CA  00F7               	movwf	??_main
  2447  02CB  30EE               	movlw	238
  2448  02CC                     u477:
  2449  02CC  0B89               	decfsz	9,f
  2450  02CD  2ACC               	goto	u477
  2451  02CE  0BF7               	decfsz	??_main,f
  2452  02CF  2ACC               	goto	u477
  2453  02D0  3200               	nop2
  2454  02D1                     l2253:
  2455                           
  2456                           ;newmain.c: 161:         state_4(); pulse_gen(1); state_5(); latch_gen();_delay((unsigne
      +                          d long)((200)*(1000000/4000.0)));
  2457  02D1  318D  25E8  3180   	fcall	_state_4
  2458  02D4                     l2255:
  2459  02D4  3001               	movlw	1
  2460  02D5  00F0               	movwf	pulse_gen@n
  2461  02D6  3000               	movlw	0
  2462  02D7  00F1               	movwf	pulse_gen@n+1
  2463  02D8  3180  2007  3180   	fcall	_pulse_gen
  2464  02DB                     l2257:
  2465  02DB  318E  263B  3180   	fcall	_state_5
  2466  02DE                     l2259:
  2467  02DE  318D  2544  3180   	fcall	_latch_gen
  2468  02E1                     l2261:
  2469  02E1  3041               	movlw	65
  2470  02E2  00F7               	movwf	??_main
  2471  02E3  30EE               	movlw	238
  2472  02E4                     u487:
  2473  02E4  0B89               	decfsz	9,f
  2474  02E5  2AE4               	goto	u487
  2475  02E6  0BF7               	decfsz	??_main,f
  2476  02E7  2AE4               	goto	u487
  2477  02E8  3200               	nop2
  2478  02E9                     l2263:
  2479                           
  2480                           ;newmain.c: 162:         state_4(); pulse_gen(1); state_6(); latch_gen();_delay((unsigne
      +                          d long)((200)*(1000000/4000.0)));
  2481  02E9  318D  25E8  3180   	fcall	_state_4
  2482  02EC                     l2265:
  2483  02EC  3001               	movlw	1
  2484  02ED  00F0               	movwf	pulse_gen@n
  2485  02EE  3000               	movlw	0
  2486  02EF  00F1               	movwf	pulse_gen@n+1
  2487  02F0  3180  2007  3180   	fcall	_pulse_gen
  2488  02F3                     l2267:
  2489  02F3  318D  25B0  3180   	fcall	_state_6
  2490  02F6                     l2269:
  2491  02F6  318D  2544  3180   	fcall	_latch_gen
  2492  02F9                     l2271:
  2493  02F9  3041               	movlw	65
  2494  02FA  00F7               	movwf	??_main
  2495  02FB  30EE               	movlw	238
  2496  02FC                     u497:
  2497  02FC  0B89               	decfsz	9,f
  2498  02FD  2AFC               	goto	u497
  2499  02FE  0BF7               	decfsz	??_main,f
  2500  02FF  2AFC               	goto	u497
  2501  0300  3200               	nop2
  2502  0301                     l2273:
  2503                           
  2504                           ;newmain.c: 163:         state_4(); pulse_gen(1); state_7(); latch_gen();_delay((unsigne
      +                          d long)((200)*(1000000/4000.0)));
  2505  0301  318D  25E8  3180   	fcall	_state_4
  2506  0304                     l2275:
  2507  0304  3001               	movlw	1
  2508  0305  00F0               	movwf	pulse_gen@n
  2509  0306  3000               	movlw	0
  2510  0307  00F1               	movwf	pulse_gen@n+1
  2511  0308  3180  2007  3180   	fcall	_pulse_gen
  2512  030B                     l2277:
  2513  030B  318D  2565  3180   	fcall	_state_7
  2514  030E                     l2279:
  2515  030E  318D  2544  3180   	fcall	_latch_gen
  2516  0311                     l2281:
  2517  0311  3041               	movlw	65
  2518  0312  00F7               	movwf	??_main
  2519  0313  30EE               	movlw	238
  2520  0314                     u507:
  2521  0314  0B89               	decfsz	9,f
  2522  0315  2B14               	goto	u507
  2523  0316  0BF7               	decfsz	??_main,f
  2524  0317  2B14               	goto	u507
  2525  0318  3200               	nop2
  2526  0319                     l2283:
  2527                           
  2528                           ;newmain.c: 164:         state_4(); pulse_gen(1); state_8(); latch_gen();_delay((unsigne
      +                          d long)((200)*(1000000/4000.0)));
  2529  0319  318D  25E8  3180   	fcall	_state_4
  2530  031C                     l2285:
  2531  031C  3001               	movlw	1
  2532  031D  00F0               	movwf	pulse_gen@n
  2533  031E  3000               	movlw	0
  2534  031F  00F1               	movwf	pulse_gen@n+1
  2535  0320  3180  2007  3180   	fcall	_pulse_gen
  2536  0323                     l2287:
  2537  0323  318D  2548  3180   	fcall	_state_8
  2538  0326                     l2289:
  2539  0326  318D  2544  3180   	fcall	_latch_gen
  2540  0329                     l2291:
  2541  0329  3041               	movlw	65
  2542  032A  00F7               	movwf	??_main
  2543  032B  30EE               	movlw	238
  2544  032C                     u517:
  2545  032C  0B89               	decfsz	9,f
  2546  032D  2B2C               	goto	u517
  2547  032E  0BF7               	decfsz	??_main,f
  2548  032F  2B2C               	goto	u517
  2549  0330  3200               	nop2
  2550  0331                     l2293:
  2551                           
  2552                           ;newmain.c: 165:         state_4(); pulse_gen(1); state_9(); latch_gen();_delay((unsigne
      +                          d long)((200)*(1000000/4000.0)));
  2553  0331  318D  25E8  3180   	fcall	_state_4
  2554  0334                     l2295:
  2555  0334  3001               	movlw	1
  2556  0335  00F0               	movwf	pulse_gen@n
  2557  0336  3000               	movlw	0
  2558  0337  00F1               	movwf	pulse_gen@n+1
  2559  0338  3180  2007  3180   	fcall	_pulse_gen
  2560  033B                     l2297:
  2561  033B  318D  25CC  3180   	fcall	_state_9
  2562  033E                     l2299:
  2563  033E  318D  2544  3180   	fcall	_latch_gen
  2564  0341                     l2301:
  2565  0341  3041               	movlw	65
  2566  0342  00F7               	movwf	??_main
  2567  0343  30EE               	movlw	238
  2568  0344                     u527:
  2569  0344  0B89               	decfsz	9,f
  2570  0345  2B44               	goto	u527
  2571  0346  0BF7               	decfsz	??_main,f
  2572  0347  2B44               	goto	u527
  2573  0348  3200               	nop2
  2574  0349                     l2303:
  2575                           
  2576                           ;newmain.c: 167:         state_5(); pulse_gen(1); state_0(); latch_gen();_delay((unsigne
      +                          d long)((200)*(1000000/4000.0)));
  2577  0349  318E  263B  3180   	fcall	_state_5
  2578  034C                     l2305:
  2579  034C  3001               	movlw	1
  2580  034D  00F0               	movwf	pulse_gen@n
  2581  034E  3000               	movlw	0
  2582  034F  00F1               	movwf	pulse_gen@n+1
  2583  0350  3180  2007  3180   	fcall	_pulse_gen
  2584  0353                     l2307:
  2585  0353  318D  2552  3180   	fcall	_state_0
  2586  0356                     l2309:
  2587  0356  318D  2544  3180   	fcall	_latch_gen
  2588  0359                     l2311:
  2589  0359  3041               	movlw	65
  2590  035A  00F7               	movwf	??_main
  2591  035B  30EE               	movlw	238
  2592  035C                     u537:
  2593  035C  0B89               	decfsz	9,f
  2594  035D  2B5C               	goto	u537
  2595  035E  0BF7               	decfsz	??_main,f
  2596  035F  2B5C               	goto	u537
  2597  0360  3200               	nop2
  2598  0361                     l2313:
  2599                           
  2600                           ;newmain.c: 168:         state_5(); pulse_gen(1); state_1(); latch_gen();_delay((unsigne
      +                          d long)((200)*(1000000/4000.0)));
  2601  0361  318E  263B  3180   	fcall	_state_5
  2602  0364                     l2315:
  2603  0364  3001               	movlw	1
  2604  0365  00F0               	movwf	pulse_gen@n
  2605  0366  3000               	movlw	0
  2606  0367  00F1               	movwf	pulse_gen@n+1
  2607  0368  3180  2007  3180   	fcall	_pulse_gen
  2608  036B                     l2317:
  2609  036B  318D  2578  3180   	fcall	_state_1
  2610  036E                     l2319:
  2611  036E  318D  2544  3180   	fcall	_latch_gen
  2612  0371                     l2321:
  2613  0371  3041               	movlw	65
  2614  0372  00F7               	movwf	??_main
  2615  0373  30EE               	movlw	238
  2616  0374                     u547:
  2617  0374  0B89               	decfsz	9,f
  2618  0375  2B74               	goto	u547
  2619  0376  0BF7               	decfsz	??_main,f
  2620  0377  2B74               	goto	u547
  2621  0378  3200               	nop2
  2622  0379                     l2323:
  2623                           
  2624                           ;newmain.c: 169:         state_5(); pulse_gen(1); state_2(); latch_gen();_delay((unsigne
      +                          d long)((200)*(1000000/4000.0)));
  2625  0379  318E  263B  3180   	fcall	_state_5
  2626  037C                     l2325:
  2627  037C  3001               	movlw	1
  2628  037D  00F0               	movwf	pulse_gen@n
  2629  037E  3000               	movlw	0
  2630  037F  00F1               	movwf	pulse_gen@n+1
  2631  0380  3180  2007  3180   	fcall	_pulse_gen
  2632  0383                     l2327:
  2633  0383  318E  260D  3180   	fcall	_state_2
  2634  0386                     l2329:
  2635  0386  318D  2544  3180   	fcall	_latch_gen
  2636  0389                     l2331:
  2637  0389  3041               	movlw	65
  2638  038A  00F7               	movwf	??_main
  2639  038B  30EE               	movlw	238
  2640  038C                     u557:
  2641  038C  0B89               	decfsz	9,f
  2642  038D  2B8C               	goto	u557
  2643  038E  0BF7               	decfsz	??_main,f
  2644  038F  2B8C               	goto	u557
  2645  0390  3200               	nop2
  2646  0391                     l2333:
  2647                           
  2648                           ;newmain.c: 170:         state_5(); pulse_gen(1); state_3(); latch_gen();_delay((unsigne
      +                          d long)((200)*(1000000/4000.0)));
  2649  0391  318E  263B  3180   	fcall	_state_5
  2650  0394                     l2335:
  2651  0394  3001               	movlw	1
  2652  0395  00F0               	movwf	pulse_gen@n
  2653  0396  3000               	movlw	0
  2654  0397  00F1               	movwf	pulse_gen@n+1
  2655  0398  3180  2007  3180   	fcall	_pulse_gen
  2656  039B                     l2337:
  2657  039B  318D  2594  3180   	fcall	_state_3
  2658  039E                     l2339:
  2659  039E  318D  2544  3180   	fcall	_latch_gen
  2660  03A1                     l2341:
  2661  03A1  3041               	movlw	65
  2662  03A2  00F7               	movwf	??_main
  2663  03A3  30EE               	movlw	238
  2664  03A4                     u567:
  2665  03A4  0B89               	decfsz	9,f
  2666  03A5  2BA4               	goto	u567
  2667  03A6  0BF7               	decfsz	??_main,f
  2668  03A7  2BA4               	goto	u567
  2669  03A8  3200               	nop2
  2670  03A9                     l2343:
  2671                           
  2672                           ;newmain.c: 171:         state_5(); pulse_gen(1); state_4(); latch_gen();_delay((unsigne
      +                          d long)((200)*(1000000/4000.0)));
  2673  03A9  318E  263B  3180   	fcall	_state_5
  2674  03AC                     l2345:
  2675  03AC  3001               	movlw	1
  2676  03AD  00F0               	movwf	pulse_gen@n
  2677  03AE  3000               	movlw	0
  2678  03AF  00F1               	movwf	pulse_gen@n+1
  2679  03B0  3180  2007  3180   	fcall	_pulse_gen
  2680  03B3                     l2347:
  2681  03B3  318D  25E8  3180   	fcall	_state_4
  2682  03B6                     l2349:
  2683  03B6  318D  2544  3180   	fcall	_latch_gen
  2684  03B9                     l2351:
  2685  03B9  3041               	movlw	65
  2686  03BA  00F7               	movwf	??_main
  2687  03BB  30EE               	movlw	238
  2688  03BC                     u577:
  2689  03BC  0B89               	decfsz	9,f
  2690  03BD  2BBC               	goto	u577
  2691  03BE  0BF7               	decfsz	??_main,f
  2692  03BF  2BBC               	goto	u577
  2693  03C0  3200               	nop2
  2694  03C1                     l2353:
  2695                           
  2696                           ;newmain.c: 172:         state_5(); pulse_gen(1); state_5(); latch_gen();_delay((unsigne
      +                          d long)((200)*(1000000/4000.0)));
  2697  03C1  318E  263B  3180   	fcall	_state_5
  2698  03C4                     l2355:
  2699  03C4  3001               	movlw	1
  2700  03C5  00F0               	movwf	pulse_gen@n
  2701  03C6  3000               	movlw	0
  2702  03C7  00F1               	movwf	pulse_gen@n+1
  2703  03C8  3180  2007  3180   	fcall	_pulse_gen
  2704  03CB                     l2357:
  2705  03CB  318E  263B  3180   	fcall	_state_5
  2706  03CE                     l2359:
  2707  03CE  318D  2544  3180   	fcall	_latch_gen
  2708  03D1                     l2361:
  2709  03D1  3041               	movlw	65
  2710  03D2  00F7               	movwf	??_main
  2711  03D3  30EE               	movlw	238
  2712  03D4                     u587:
  2713  03D4  0B89               	decfsz	9,f
  2714  03D5  2BD4               	goto	u587
  2715  03D6  0BF7               	decfsz	??_main,f
  2716  03D7  2BD4               	goto	u587
  2717  03D8  3200               	nop2
  2718  03D9                     l2363:
  2719                           
  2720                           ;newmain.c: 173:         state_5(); pulse_gen(1); state_6(); latch_gen();_delay((unsigne
      +                          d long)((200)*(1000000/4000.0)));
  2721  03D9  318E  263B  3180   	fcall	_state_5
  2722  03DC                     l2365:
  2723  03DC  3001               	movlw	1
  2724  03DD  00F0               	movwf	pulse_gen@n
  2725  03DE  3000               	movlw	0
  2726  03DF  00F1               	movwf	pulse_gen@n+1
  2727  03E0  3180  2007  3180   	fcall	_pulse_gen
  2728  03E3                     l2367:
  2729  03E3  318D  25B0  3180   	fcall	_state_6
  2730  03E6                     l2369:
  2731  03E6  318D  2544  3180   	fcall	_latch_gen
  2732  03E9                     l2371:
  2733  03E9  3041               	movlw	65
  2734  03EA  00F7               	movwf	??_main
  2735  03EB  30EE               	movlw	238
  2736  03EC                     u597:
  2737  03EC  0B89               	decfsz	9,f
  2738  03ED  2BEC               	goto	u597
  2739  03EE  0BF7               	decfsz	??_main,f
  2740  03EF  2BEC               	goto	u597
  2741  03F0  3200               	nop2
  2742  03F1                     l2373:
  2743                           
  2744                           ;newmain.c: 174:         state_5(); pulse_gen(1); state_7(); latch_gen();_delay((unsigne
      +                          d long)((200)*(1000000/4000.0)));
  2745  03F1  318E  263B  3180   	fcall	_state_5
  2746  03F4                     l2375:
  2747  03F4  3001               	movlw	1
  2748  03F5  00F0               	movwf	pulse_gen@n
  2749  03F6  3000               	movlw	0
  2750  03F7  00F1               	movwf	pulse_gen@n+1
  2751  03F8  3180  2007  3180   	fcall	_pulse_gen
  2752  03FB                     l2377:
  2753  03FB  318D  2565  3180   	fcall	_state_7
  2754  03FE                     l2379:
  2755  03FE  318D  2544  3180   	fcall	_latch_gen
  2756  0401                     l2381:
  2757  0401  3041               	movlw	65
  2758  0402  00F7               	movwf	??_main
  2759  0403  30EE               	movlw	238
  2760  0404                     u607:
  2761  0404  0B89               	decfsz	9,f
  2762  0405  2C04               	goto	u607
  2763  0406  0BF7               	decfsz	??_main,f
  2764  0407  2C04               	goto	u607
  2765  0408  3200               	nop2
  2766  0409                     l2383:
  2767                           
  2768                           ;newmain.c: 175:         state_5(); pulse_gen(1); state_8(); latch_gen();_delay((unsigne
      +                          d long)((200)*(1000000/4000.0)));
  2769  0409  318E  263B  3180   	fcall	_state_5
  2770  040C                     l2385:
  2771  040C  3001               	movlw	1
  2772  040D  00F0               	movwf	pulse_gen@n
  2773  040E  3000               	movlw	0
  2774  040F  00F1               	movwf	pulse_gen@n+1
  2775  0410  3180  2007  3180   	fcall	_pulse_gen
  2776  0413                     l2387:
  2777  0413  318D  2548  3180   	fcall	_state_8
  2778  0416                     l2389:
  2779  0416  318D  2544  3180   	fcall	_latch_gen
  2780  0419                     l2391:
  2781  0419  3041               	movlw	65
  2782  041A  00F7               	movwf	??_main
  2783  041B  30EE               	movlw	238
  2784  041C                     u617:
  2785  041C  0B89               	decfsz	9,f
  2786  041D  2C1C               	goto	u617
  2787  041E  0BF7               	decfsz	??_main,f
  2788  041F  2C1C               	goto	u617
  2789  0420  3200               	nop2
  2790  0421                     l2393:
  2791                           
  2792                           ;newmain.c: 176:         state_5(); pulse_gen(1); state_9(); latch_gen();_delay((unsigne
      +                          d long)((200)*(1000000/4000.0)));
  2793  0421  318E  263B  3180   	fcall	_state_5
  2794  0424                     l2395:
  2795  0424  3001               	movlw	1
  2796  0425  00F0               	movwf	pulse_gen@n
  2797  0426  3000               	movlw	0
  2798  0427  00F1               	movwf	pulse_gen@n+1
  2799  0428  3180  2007  3180   	fcall	_pulse_gen
  2800  042B                     l2397:
  2801  042B  318D  25CC  3180   	fcall	_state_9
  2802  042E                     l2399:
  2803  042E  318D  2544  3180   	fcall	_latch_gen
  2804  0431                     l2401:
  2805  0431  3041               	movlw	65
  2806  0432  00F7               	movwf	??_main
  2807  0433  30EE               	movlw	238
  2808  0434                     u627:
  2809  0434  0B89               	decfsz	9,f
  2810  0435  2C34               	goto	u627
  2811  0436  0BF7               	decfsz	??_main,f
  2812  0437  2C34               	goto	u627
  2813  0438  3200               	nop2
  2814  0439                     l2403:
  2815                           
  2816                           ;newmain.c: 178:         state_6(); pulse_gen(1); state_0(); latch_gen();_delay((unsigne
      +                          d long)((200)*(1000000/4000.0)));
  2817  0439  318D  25B0  3180   	fcall	_state_6
  2818  043C                     l2405:
  2819  043C  3001               	movlw	1
  2820  043D  00F0               	movwf	pulse_gen@n
  2821  043E  3000               	movlw	0
  2822  043F  00F1               	movwf	pulse_gen@n+1
  2823  0440  3180  2007  3180   	fcall	_pulse_gen
  2824  0443                     l2407:
  2825  0443  318D  2552  3180   	fcall	_state_0
  2826  0446                     l2409:
  2827  0446  318D  2544  3180   	fcall	_latch_gen
  2828  0449                     l2411:
  2829  0449  3041               	movlw	65
  2830  044A  00F7               	movwf	??_main
  2831  044B  30EE               	movlw	238
  2832  044C                     u637:
  2833  044C  0B89               	decfsz	9,f
  2834  044D  2C4C               	goto	u637
  2835  044E  0BF7               	decfsz	??_main,f
  2836  044F  2C4C               	goto	u637
  2837  0450  3200               	nop2
  2838  0451                     l2413:
  2839                           
  2840                           ;newmain.c: 179:         state_6(); pulse_gen(1); state_1(); latch_gen();_delay((unsigne
      +                          d long)((200)*(1000000/4000.0)));
  2841  0451  318D  25B0  3180   	fcall	_state_6
  2842  0454                     l2415:
  2843  0454  3001               	movlw	1
  2844  0455  00F0               	movwf	pulse_gen@n
  2845  0456  3000               	movlw	0
  2846  0457  00F1               	movwf	pulse_gen@n+1
  2847  0458  3180  2007  3180   	fcall	_pulse_gen
  2848  045B                     l2417:
  2849  045B  318D  2578  3180   	fcall	_state_1
  2850  045E                     l2419:
  2851  045E  318D  2544  3180   	fcall	_latch_gen
  2852  0461                     l2421:
  2853  0461  3041               	movlw	65
  2854  0462  00F7               	movwf	??_main
  2855  0463  30EE               	movlw	238
  2856  0464                     u647:
  2857  0464  0B89               	decfsz	9,f
  2858  0465  2C64               	goto	u647
  2859  0466  0BF7               	decfsz	??_main,f
  2860  0467  2C64               	goto	u647
  2861  0468  3200               	nop2
  2862  0469                     l2423:
  2863                           
  2864                           ;newmain.c: 180:         state_6(); pulse_gen(1); state_2(); latch_gen();_delay((unsigne
      +                          d long)((200)*(1000000/4000.0)));
  2865  0469  318D  25B0  3180   	fcall	_state_6
  2866  046C                     l2425:
  2867  046C  3001               	movlw	1
  2868  046D  00F0               	movwf	pulse_gen@n
  2869  046E  3000               	movlw	0
  2870  046F  00F1               	movwf	pulse_gen@n+1
  2871  0470  3180  2007  3180   	fcall	_pulse_gen
  2872  0473                     l2427:
  2873  0473  318E  260D  3180   	fcall	_state_2
  2874  0476                     l2429:
  2875  0476  318D  2544  3180   	fcall	_latch_gen
  2876  0479                     l2431:
  2877  0479  3041               	movlw	65
  2878  047A  00F7               	movwf	??_main
  2879  047B  30EE               	movlw	238
  2880  047C                     u657:
  2881  047C  0B89               	decfsz	9,f
  2882  047D  2C7C               	goto	u657
  2883  047E  0BF7               	decfsz	??_main,f
  2884  047F  2C7C               	goto	u657
  2885  0480  3200               	nop2
  2886  0481                     l2433:
  2887                           
  2888                           ;newmain.c: 181:         state_6(); pulse_gen(1); state_3(); latch_gen();_delay((unsigne
      +                          d long)((200)*(1000000/4000.0)));
  2889  0481  318D  25B0  3180   	fcall	_state_6
  2890  0484                     l2435:
  2891  0484  3001               	movlw	1
  2892  0485  00F0               	movwf	pulse_gen@n
  2893  0486  3000               	movlw	0
  2894  0487  00F1               	movwf	pulse_gen@n+1
  2895  0488  3180  2007  3180   	fcall	_pulse_gen
  2896  048B                     l2437:
  2897  048B  318D  2594  3180   	fcall	_state_3
  2898  048E                     l2439:
  2899  048E  318D  2544  3180   	fcall	_latch_gen
  2900  0491                     l2441:
  2901  0491  3041               	movlw	65
  2902  0492  00F7               	movwf	??_main
  2903  0493  30EE               	movlw	238
  2904  0494                     u667:
  2905  0494  0B89               	decfsz	9,f
  2906  0495  2C94               	goto	u667
  2907  0496  0BF7               	decfsz	??_main,f
  2908  0497  2C94               	goto	u667
  2909  0498  3200               	nop2
  2910  0499                     l2443:
  2911                           
  2912                           ;newmain.c: 182:         state_6(); pulse_gen(1); state_4(); latch_gen();_delay((unsigne
      +                          d long)((200)*(1000000/4000.0)));
  2913  0499  318D  25B0  3180   	fcall	_state_6
  2914  049C                     l2445:
  2915  049C  3001               	movlw	1
  2916  049D  00F0               	movwf	pulse_gen@n
  2917  049E  3000               	movlw	0
  2918  049F  00F1               	movwf	pulse_gen@n+1
  2919  04A0  3180  2007  3180   	fcall	_pulse_gen
  2920  04A3                     l2447:
  2921  04A3  318D  25E8  3180   	fcall	_state_4
  2922  04A6                     l2449:
  2923  04A6  318D  2544  3180   	fcall	_latch_gen
  2924  04A9                     l2451:
  2925  04A9  3041               	movlw	65
  2926  04AA  00F7               	movwf	??_main
  2927  04AB  30EE               	movlw	238
  2928  04AC                     u677:
  2929  04AC  0B89               	decfsz	9,f
  2930  04AD  2CAC               	goto	u677
  2931  04AE  0BF7               	decfsz	??_main,f
  2932  04AF  2CAC               	goto	u677
  2933  04B0  3200               	nop2
  2934  04B1                     l2453:
  2935                           
  2936                           ;newmain.c: 183:         state_6(); pulse_gen(1); state_5(); latch_gen();_delay((unsigne
      +                          d long)((200)*(1000000/4000.0)));
  2937  04B1  318D  25B0  3180   	fcall	_state_6
  2938  04B4                     l2455:
  2939  04B4  3001               	movlw	1
  2940  04B5  00F0               	movwf	pulse_gen@n
  2941  04B6  3000               	movlw	0
  2942  04B7  00F1               	movwf	pulse_gen@n+1
  2943  04B8  3180  2007  3180   	fcall	_pulse_gen
  2944  04BB                     l2457:
  2945  04BB  318E  263B  3180   	fcall	_state_5
  2946  04BE                     l2459:
  2947  04BE  318D  2544  3180   	fcall	_latch_gen
  2948  04C1                     l2461:
  2949  04C1  3041               	movlw	65
  2950  04C2  00F7               	movwf	??_main
  2951  04C3  30EE               	movlw	238
  2952  04C4                     u687:
  2953  04C4  0B89               	decfsz	9,f
  2954  04C5  2CC4               	goto	u687
  2955  04C6  0BF7               	decfsz	??_main,f
  2956  04C7  2CC4               	goto	u687
  2957  04C8  3200               	nop2
  2958  04C9                     l2463:
  2959                           
  2960                           ;newmain.c: 184:         state_6(); pulse_gen(1); state_6(); latch_gen();_delay((unsigne
      +                          d long)((200)*(1000000/4000.0)));
  2961  04C9  318D  25B0  3180   	fcall	_state_6
  2962  04CC                     l2465:
  2963  04CC  3001               	movlw	1
  2964  04CD  00F0               	movwf	pulse_gen@n
  2965  04CE  3000               	movlw	0
  2966  04CF  00F1               	movwf	pulse_gen@n+1
  2967  04D0  3180  2007  3180   	fcall	_pulse_gen
  2968  04D3                     l2467:
  2969  04D3  318D  25B0  3180   	fcall	_state_6
  2970  04D6                     l2469:
  2971  04D6  318D  2544  3180   	fcall	_latch_gen
  2972  04D9                     l2471:
  2973  04D9  3041               	movlw	65
  2974  04DA  00F7               	movwf	??_main
  2975  04DB  30EE               	movlw	238
  2976  04DC                     u697:
  2977  04DC  0B89               	decfsz	9,f
  2978  04DD  2CDC               	goto	u697
  2979  04DE  0BF7               	decfsz	??_main,f
  2980  04DF  2CDC               	goto	u697
  2981  04E0  3200               	nop2
  2982  04E1                     l2473:
  2983                           
  2984                           ;newmain.c: 185:         state_6(); pulse_gen(1); state_7(); latch_gen();_delay((unsigne
      +                          d long)((200)*(1000000/4000.0)));
  2985  04E1  318D  25B0  3180   	fcall	_state_6
  2986  04E4                     l2475:
  2987  04E4  3001               	movlw	1
  2988  04E5  00F0               	movwf	pulse_gen@n
  2989  04E6  3000               	movlw	0
  2990  04E7  00F1               	movwf	pulse_gen@n+1
  2991  04E8  3180  2007  3180   	fcall	_pulse_gen
  2992  04EB                     l2477:
  2993  04EB  318D  2565  3180   	fcall	_state_7
  2994  04EE                     l2479:
  2995  04EE  318D  2544  3180   	fcall	_latch_gen
  2996  04F1                     l2481:
  2997  04F1  3041               	movlw	65
  2998  04F2  00F7               	movwf	??_main
  2999  04F3  30EE               	movlw	238
  3000  04F4                     u707:
  3001  04F4  0B89               	decfsz	9,f
  3002  04F5  2CF4               	goto	u707
  3003  04F6  0BF7               	decfsz	??_main,f
  3004  04F7  2CF4               	goto	u707
  3005  04F8  3200               	nop2
  3006  04F9                     l2483:
  3007                           
  3008                           ;newmain.c: 186:         state_6(); pulse_gen(1); state_8(); latch_gen();_delay((unsigne
      +                          d long)((200)*(1000000/4000.0)));
  3009  04F9  318D  25B0  3180   	fcall	_state_6
  3010  04FC                     l2485:
  3011  04FC  3001               	movlw	1
  3012  04FD  00F0               	movwf	pulse_gen@n
  3013  04FE  3000               	movlw	0
  3014  04FF  00F1               	movwf	pulse_gen@n+1
  3015  0500  3180  2007  3180   	fcall	_pulse_gen
  3016  0503                     l2487:
  3017  0503  318D  2548  3180   	fcall	_state_8
  3018  0506                     l2489:
  3019  0506  318D  2544  3180   	fcall	_latch_gen
  3020  0509                     l2491:
  3021  0509  3041               	movlw	65
  3022  050A  00F7               	movwf	??_main
  3023  050B  30EE               	movlw	238
  3024  050C                     u717:
  3025  050C  0B89               	decfsz	9,f
  3026  050D  2D0C               	goto	u717
  3027  050E  0BF7               	decfsz	??_main,f
  3028  050F  2D0C               	goto	u717
  3029  0510  3200               	nop2
  3030  0511                     l2493:
  3031                           
  3032                           ;newmain.c: 187:         state_6(); pulse_gen(1); state_9(); latch_gen();_delay((unsigne
      +                          d long)((200)*(1000000/4000.0)));
  3033  0511  318D  25B0  3180   	fcall	_state_6
  3034  0514                     l2495:
  3035  0514  3001               	movlw	1
  3036  0515  00F0               	movwf	pulse_gen@n
  3037  0516  3000               	movlw	0
  3038  0517  00F1               	movwf	pulse_gen@n+1
  3039  0518  3180  2007  3180   	fcall	_pulse_gen
  3040  051B                     l2497:
  3041  051B  318D  25CC  3180   	fcall	_state_9
  3042  051E                     l2499:
  3043  051E  318D  2544  3180   	fcall	_latch_gen
  3044  0521                     l2501:
  3045  0521  3041               	movlw	65
  3046  0522  00F7               	movwf	??_main
  3047  0523  30EE               	movlw	238
  3048  0524                     u727:
  3049  0524  0B89               	decfsz	9,f
  3050  0525  2D24               	goto	u727
  3051  0526  0BF7               	decfsz	??_main,f
  3052  0527  2D24               	goto	u727
  3053  0528  3200               	nop2
  3054  0529                     l2503:
  3055                           
  3056                           ;newmain.c: 189:         state_7(); pulse_gen(1); state_0(); latch_gen();_delay((unsigne
      +                          d long)((200)*(1000000/4000.0)));
  3057  0529  318D  2565  3180   	fcall	_state_7
  3058  052C                     l2505:
  3059  052C  3001               	movlw	1
  3060  052D  00F0               	movwf	pulse_gen@n
  3061  052E  3000               	movlw	0
  3062  052F  00F1               	movwf	pulse_gen@n+1
  3063  0530  3180  2007  3180   	fcall	_pulse_gen
  3064  0533                     l2507:
  3065  0533  318D  2552  3180   	fcall	_state_0
  3066  0536                     l2509:
  3067  0536  318D  2544  3180   	fcall	_latch_gen
  3068  0539                     l2511:
  3069  0539  3041               	movlw	65
  3070  053A  00F7               	movwf	??_main
  3071  053B  30EE               	movlw	238
  3072  053C                     u737:
  3073  053C  0B89               	decfsz	9,f
  3074  053D  2D3C               	goto	u737
  3075  053E  0BF7               	decfsz	??_main,f
  3076  053F  2D3C               	goto	u737
  3077  0540  3200               	nop2
  3078  0541                     l2513:
  3079                           
  3080                           ;newmain.c: 190:         state_7(); pulse_gen(1); state_1(); latch_gen();_delay((unsigne
      +                          d long)((200)*(1000000/4000.0)));
  3081  0541  318D  2565  3180   	fcall	_state_7
  3082  0544                     l2515:
  3083  0544  3001               	movlw	1
  3084  0545  00F0               	movwf	pulse_gen@n
  3085  0546  3000               	movlw	0
  3086  0547  00F1               	movwf	pulse_gen@n+1
  3087  0548  3180  2007  3180   	fcall	_pulse_gen
  3088  054B                     l2517:
  3089  054B  318D  2578  3180   	fcall	_state_1
  3090  054E                     l2519:
  3091  054E  318D  2544  3180   	fcall	_latch_gen
  3092  0551                     l2521:
  3093  0551  3041               	movlw	65
  3094  0552  00F7               	movwf	??_main
  3095  0553  30EE               	movlw	238
  3096  0554                     u747:
  3097  0554  0B89               	decfsz	9,f
  3098  0555  2D54               	goto	u747
  3099  0556  0BF7               	decfsz	??_main,f
  3100  0557  2D54               	goto	u747
  3101  0558  3200               	nop2
  3102  0559                     l2523:
  3103                           
  3104                           ;newmain.c: 191:         state_7(); pulse_gen(1); state_2(); latch_gen();_delay((unsigne
      +                          d long)((200)*(1000000/4000.0)));
  3105  0559  318D  2565  3180   	fcall	_state_7
  3106  055C                     l2525:
  3107  055C  3001               	movlw	1
  3108  055D  00F0               	movwf	pulse_gen@n
  3109  055E  3000               	movlw	0
  3110  055F  00F1               	movwf	pulse_gen@n+1
  3111  0560  3180  2007  3180   	fcall	_pulse_gen
  3112  0563                     l2527:
  3113  0563  318E  260D  3180   	fcall	_state_2
  3114  0566                     l2529:
  3115  0566  318D  2544  3180   	fcall	_latch_gen
  3116  0569                     l2531:
  3117  0569  3041               	movlw	65
  3118  056A  00F7               	movwf	??_main
  3119  056B  30EE               	movlw	238
  3120  056C                     u757:
  3121  056C  0B89               	decfsz	9,f
  3122  056D  2D6C               	goto	u757
  3123  056E  0BF7               	decfsz	??_main,f
  3124  056F  2D6C               	goto	u757
  3125  0570  3200               	nop2
  3126  0571                     l2533:
  3127                           
  3128                           ;newmain.c: 192:         state_7(); pulse_gen(1); state_3(); latch_gen();_delay((unsigne
      +                          d long)((200)*(1000000/4000.0)));
  3129  0571  318D  2565  3180   	fcall	_state_7
  3130  0574                     l2535:
  3131  0574  3001               	movlw	1
  3132  0575  00F0               	movwf	pulse_gen@n
  3133  0576  3000               	movlw	0
  3134  0577  00F1               	movwf	pulse_gen@n+1
  3135  0578  3180  2007  3180   	fcall	_pulse_gen
  3136  057B                     l2537:
  3137  057B  318D  2594  3180   	fcall	_state_3
  3138  057E                     l2539:
  3139  057E  318D  2544  3180   	fcall	_latch_gen
  3140  0581                     l2541:
  3141  0581  3041               	movlw	65
  3142  0582  00F7               	movwf	??_main
  3143  0583  30EE               	movlw	238
  3144  0584                     u767:
  3145  0584  0B89               	decfsz	9,f
  3146  0585  2D84               	goto	u767
  3147  0586  0BF7               	decfsz	??_main,f
  3148  0587  2D84               	goto	u767
  3149  0588  3200               	nop2
  3150  0589                     l2543:
  3151                           
  3152                           ;newmain.c: 193:         state_7(); pulse_gen(1); state_4(); latch_gen();_delay((unsigne
      +                          d long)((200)*(1000000/4000.0)));
  3153  0589  318D  2565  3180   	fcall	_state_7
  3154  058C                     l2545:
  3155  058C  3001               	movlw	1
  3156  058D  00F0               	movwf	pulse_gen@n
  3157  058E  3000               	movlw	0
  3158  058F  00F1               	movwf	pulse_gen@n+1
  3159  0590  3180  2007  3180   	fcall	_pulse_gen
  3160  0593                     l2547:
  3161  0593  318D  25E8  3180   	fcall	_state_4
  3162  0596                     l2549:
  3163  0596  318D  2544  3180   	fcall	_latch_gen
  3164  0599                     l2551:
  3165  0599  3041               	movlw	65
  3166  059A  00F7               	movwf	??_main
  3167  059B  30EE               	movlw	238
  3168  059C                     u777:
  3169  059C  0B89               	decfsz	9,f
  3170  059D  2D9C               	goto	u777
  3171  059E  0BF7               	decfsz	??_main,f
  3172  059F  2D9C               	goto	u777
  3173  05A0  3200               	nop2
  3174  05A1                     l2553:
  3175                           
  3176                           ;newmain.c: 194:         state_7(); pulse_gen(1); state_5(); latch_gen();_delay((unsigne
      +                          d long)((200)*(1000000/4000.0)));
  3177  05A1  318D  2565  3180   	fcall	_state_7
  3178  05A4                     l2555:
  3179  05A4  3001               	movlw	1
  3180  05A5  00F0               	movwf	pulse_gen@n
  3181  05A6  3000               	movlw	0
  3182  05A7  00F1               	movwf	pulse_gen@n+1
  3183  05A8  3180  2007  3180   	fcall	_pulse_gen
  3184  05AB                     l2557:
  3185  05AB  318E  263B  3180   	fcall	_state_5
  3186  05AE                     l2559:
  3187  05AE  318D  2544  3180   	fcall	_latch_gen
  3188  05B1                     l2561:
  3189  05B1  3041               	movlw	65
  3190  05B2  00F7               	movwf	??_main
  3191  05B3  30EE               	movlw	238
  3192  05B4                     u787:
  3193  05B4  0B89               	decfsz	9,f
  3194  05B5  2DB4               	goto	u787
  3195  05B6  0BF7               	decfsz	??_main,f
  3196  05B7  2DB4               	goto	u787
  3197  05B8  3200               	nop2
  3198  05B9                     l2563:
  3199                           
  3200                           ;newmain.c: 195:         state_7(); pulse_gen(1); state_6(); latch_gen();_delay((unsigne
      +                          d long)((200)*(1000000/4000.0)));
  3201  05B9  318D  2565  3180   	fcall	_state_7
  3202  05BC                     l2565:
  3203  05BC  3001               	movlw	1
  3204  05BD  00F0               	movwf	pulse_gen@n
  3205  05BE  3000               	movlw	0
  3206  05BF  00F1               	movwf	pulse_gen@n+1
  3207  05C0  3180  2007  3180   	fcall	_pulse_gen
  3208  05C3                     l2567:
  3209  05C3  318D  25B0  3180   	fcall	_state_6
  3210  05C6                     l2569:
  3211  05C6  318D  2544  3180   	fcall	_latch_gen
  3212  05C9                     l2571:
  3213  05C9  3041               	movlw	65
  3214  05CA  00F7               	movwf	??_main
  3215  05CB  30EE               	movlw	238
  3216  05CC                     u797:
  3217  05CC  0B89               	decfsz	9,f
  3218  05CD  2DCC               	goto	u797
  3219  05CE  0BF7               	decfsz	??_main,f
  3220  05CF  2DCC               	goto	u797
  3221  05D0  3200               	nop2
  3222  05D1                     l2573:
  3223                           
  3224                           ;newmain.c: 196:         state_7(); pulse_gen(1); state_7(); latch_gen();_delay((unsigne
      +                          d long)((200)*(1000000/4000.0)));
  3225  05D1  318D  2565  3180   	fcall	_state_7
  3226  05D4                     l2575:
  3227  05D4  3001               	movlw	1
  3228  05D5  00F0               	movwf	pulse_gen@n
  3229  05D6  3000               	movlw	0
  3230  05D7  00F1               	movwf	pulse_gen@n+1
  3231  05D8  3180  2007  3180   	fcall	_pulse_gen
  3232  05DB                     l2577:
  3233  05DB  318D  2565  3180   	fcall	_state_7
  3234  05DE                     l2579:
  3235  05DE  318D  2544  3180   	fcall	_latch_gen
  3236  05E1                     l2581:
  3237  05E1  3041               	movlw	65
  3238  05E2  00F7               	movwf	??_main
  3239  05E3  30EE               	movlw	238
  3240  05E4                     u807:
  3241  05E4  0B89               	decfsz	9,f
  3242  05E5  2DE4               	goto	u807
  3243  05E6  0BF7               	decfsz	??_main,f
  3244  05E7  2DE4               	goto	u807
  3245  05E8  3200               	nop2
  3246  05E9                     l2583:
  3247                           
  3248                           ;newmain.c: 197:         state_7(); pulse_gen(1); state_8(); latch_gen();_delay((unsigne
      +                          d long)((200)*(1000000/4000.0)));
  3249  05E9  318D  2565  3180   	fcall	_state_7
  3250  05EC                     l2585:
  3251  05EC  3001               	movlw	1
  3252  05ED  00F0               	movwf	pulse_gen@n
  3253  05EE  3000               	movlw	0
  3254  05EF  00F1               	movwf	pulse_gen@n+1
  3255  05F0  3180  2007  3180   	fcall	_pulse_gen
  3256  05F3                     l2587:
  3257  05F3  318D  2548  3180   	fcall	_state_8
  3258  05F6                     l2589:
  3259  05F6  318D  2544  3180   	fcall	_latch_gen
  3260  05F9                     l2591:
  3261  05F9  3041               	movlw	65
  3262  05FA  00F7               	movwf	??_main
  3263  05FB  30EE               	movlw	238
  3264  05FC                     u817:
  3265  05FC  0B89               	decfsz	9,f
  3266  05FD  2DFC               	goto	u817
  3267  05FE  0BF7               	decfsz	??_main,f
  3268  05FF  2DFC               	goto	u817
  3269  0600  3200               	nop2
  3270  0601                     l2593:
  3271                           
  3272                           ;newmain.c: 198:         state_7(); pulse_gen(1); state_9(); latch_gen();_delay((unsigne
      +                          d long)((200)*(1000000/4000.0)));
  3273  0601  318D  2565  3180   	fcall	_state_7
  3274  0604                     l2595:
  3275  0604  3001               	movlw	1
  3276  0605  00F0               	movwf	pulse_gen@n
  3277  0606  3000               	movlw	0
  3278  0607  00F1               	movwf	pulse_gen@n+1
  3279  0608  3180  2007  3180   	fcall	_pulse_gen
  3280  060B                     l2597:
  3281  060B  318D  25CC  3180   	fcall	_state_9
  3282  060E                     l2599:
  3283  060E  318D  2544  3180   	fcall	_latch_gen
  3284  0611                     l2601:
  3285  0611  3041               	movlw	65
  3286  0612  00F7               	movwf	??_main
  3287  0613  30EE               	movlw	238
  3288  0614                     u827:
  3289  0614  0B89               	decfsz	9,f
  3290  0615  2E14               	goto	u827
  3291  0616  0BF7               	decfsz	??_main,f
  3292  0617  2E14               	goto	u827
  3293  0618  3200               	nop2
  3294  0619                     l2603:
  3295                           
  3296                           ;newmain.c: 200:         state_8(); pulse_gen(1); state_0(); latch_gen();_delay((unsigne
      +                          d long)((200)*(1000000/4000.0)));
  3297  0619  318D  2548  3180   	fcall	_state_8
  3298  061C                     l2605:
  3299  061C  3001               	movlw	1
  3300  061D  00F0               	movwf	pulse_gen@n
  3301  061E  3000               	movlw	0
  3302  061F  00F1               	movwf	pulse_gen@n+1
  3303  0620  3180  2007  3180   	fcall	_pulse_gen
  3304  0623                     l2607:
  3305  0623  318D  2552  3180   	fcall	_state_0
  3306  0626                     l2609:
  3307  0626  318D  2544  3180   	fcall	_latch_gen
  3308  0629                     l2611:
  3309  0629  3041               	movlw	65
  3310  062A  00F7               	movwf	??_main
  3311  062B  30EE               	movlw	238
  3312  062C                     u837:
  3313  062C  0B89               	decfsz	9,f
  3314  062D  2E2C               	goto	u837
  3315  062E  0BF7               	decfsz	??_main,f
  3316  062F  2E2C               	goto	u837
  3317  0630  3200               	nop2
  3318  0631                     l2613:
  3319                           
  3320                           ;newmain.c: 201:         state_8(); pulse_gen(1); state_1(); latch_gen();_delay((unsigne
      +                          d long)((200)*(1000000/4000.0)));
  3321  0631  318D  2548  3180   	fcall	_state_8
  3322  0634                     l2615:
  3323  0634  3001               	movlw	1
  3324  0635  00F0               	movwf	pulse_gen@n
  3325  0636  3000               	movlw	0
  3326  0637  00F1               	movwf	pulse_gen@n+1
  3327  0638  3180  2007  3180   	fcall	_pulse_gen
  3328  063B                     l2617:
  3329  063B  318D  2578  3180   	fcall	_state_1
  3330  063E                     l2619:
  3331  063E  318D  2544  3180   	fcall	_latch_gen
  3332  0641                     l2621:
  3333  0641  3041               	movlw	65
  3334  0642  00F7               	movwf	??_main
  3335  0643  30EE               	movlw	238
  3336  0644                     u847:
  3337  0644  0B89               	decfsz	9,f
  3338  0645  2E44               	goto	u847
  3339  0646  0BF7               	decfsz	??_main,f
  3340  0647  2E44               	goto	u847
  3341  0648  3200               	nop2
  3342  0649                     l2623:
  3343                           
  3344                           ;newmain.c: 202:         state_8(); pulse_gen(1); state_2(); latch_gen();_delay((unsigne
      +                          d long)((200)*(1000000/4000.0)));
  3345  0649  318D  2548  3180   	fcall	_state_8
  3346  064C                     l2625:
  3347  064C  3001               	movlw	1
  3348  064D  00F0               	movwf	pulse_gen@n
  3349  064E  3000               	movlw	0
  3350  064F  00F1               	movwf	pulse_gen@n+1
  3351  0650  3180  2007  3180   	fcall	_pulse_gen
  3352  0653                     l2627:
  3353  0653  318E  260D  3180   	fcall	_state_2
  3354  0656                     l2629:
  3355  0656  318D  2544  3180   	fcall	_latch_gen
  3356  0659                     l2631:
  3357  0659  3041               	movlw	65
  3358  065A  00F7               	movwf	??_main
  3359  065B  30EE               	movlw	238
  3360  065C                     u857:
  3361  065C  0B89               	decfsz	9,f
  3362  065D  2E5C               	goto	u857
  3363  065E  0BF7               	decfsz	??_main,f
  3364  065F  2E5C               	goto	u857
  3365  0660  3200               	nop2
  3366  0661                     l2633:
  3367                           
  3368                           ;newmain.c: 203:         state_8(); pulse_gen(1); state_3(); latch_gen();_delay((unsigne
      +                          d long)((200)*(1000000/4000.0)));
  3369  0661  318D  2548  3180   	fcall	_state_8
  3370  0664                     l2635:
  3371  0664  3001               	movlw	1
  3372  0665  00F0               	movwf	pulse_gen@n
  3373  0666  3000               	movlw	0
  3374  0667  00F1               	movwf	pulse_gen@n+1
  3375  0668  3180  2007  3180   	fcall	_pulse_gen
  3376  066B                     l2637:
  3377  066B  318D  2594  3180   	fcall	_state_3
  3378  066E                     l2639:
  3379  066E  318D  2544  3180   	fcall	_latch_gen
  3380  0671                     l2641:
  3381  0671  3041               	movlw	65
  3382  0672  00F7               	movwf	??_main
  3383  0673  30EE               	movlw	238
  3384  0674                     u867:
  3385  0674  0B89               	decfsz	9,f
  3386  0675  2E74               	goto	u867
  3387  0676  0BF7               	decfsz	??_main,f
  3388  0677  2E74               	goto	u867
  3389  0678  3200               	nop2
  3390  0679                     l2643:
  3391                           
  3392                           ;newmain.c: 204:         state_8(); pulse_gen(1); state_4(); latch_gen();_delay((unsigne
      +                          d long)((200)*(1000000/4000.0)));
  3393  0679  318D  2548  3180   	fcall	_state_8
  3394  067C                     l2645:
  3395  067C  3001               	movlw	1
  3396  067D  00F0               	movwf	pulse_gen@n
  3397  067E  3000               	movlw	0
  3398  067F  00F1               	movwf	pulse_gen@n+1
  3399  0680  3180  2007  3180   	fcall	_pulse_gen
  3400  0683                     l2647:
  3401  0683  318D  25E8  3180   	fcall	_state_4
  3402  0686                     l2649:
  3403  0686  318D  2544  3180   	fcall	_latch_gen
  3404  0689                     l2651:
  3405  0689  3041               	movlw	65
  3406  068A  00F7               	movwf	??_main
  3407  068B  30EE               	movlw	238
  3408  068C                     u877:
  3409  068C  0B89               	decfsz	9,f
  3410  068D  2E8C               	goto	u877
  3411  068E  0BF7               	decfsz	??_main,f
  3412  068F  2E8C               	goto	u877
  3413  0690  3200               	nop2
  3414  0691                     l2653:
  3415                           
  3416                           ;newmain.c: 205:         state_8(); pulse_gen(1); state_5(); latch_gen();_delay((unsigne
      +                          d long)((200)*(1000000/4000.0)));
  3417  0691  318D  2548  3180   	fcall	_state_8
  3418  0694                     l2655:
  3419  0694  3001               	movlw	1
  3420  0695  00F0               	movwf	pulse_gen@n
  3421  0696  3000               	movlw	0
  3422  0697  00F1               	movwf	pulse_gen@n+1
  3423  0698  3180  2007  3180   	fcall	_pulse_gen
  3424  069B                     l2657:
  3425  069B  318E  263B  3180   	fcall	_state_5
  3426  069E                     l2659:
  3427  069E  318D  2544  3180   	fcall	_latch_gen
  3428  06A1                     l2661:
  3429  06A1  3041               	movlw	65
  3430  06A2  00F7               	movwf	??_main
  3431  06A3  30EE               	movlw	238
  3432  06A4                     u887:
  3433  06A4  0B89               	decfsz	9,f
  3434  06A5  2EA4               	goto	u887
  3435  06A6  0BF7               	decfsz	??_main,f
  3436  06A7  2EA4               	goto	u887
  3437  06A8  3200               	nop2
  3438  06A9                     l2663:
  3439                           
  3440                           ;newmain.c: 206:         state_8(); pulse_gen(1); state_6(); latch_gen();_delay((unsigne
      +                          d long)((200)*(1000000/4000.0)));
  3441  06A9  318D  2548  3180   	fcall	_state_8
  3442  06AC                     l2665:
  3443  06AC  3001               	movlw	1
  3444  06AD  00F0               	movwf	pulse_gen@n
  3445  06AE  3000               	movlw	0
  3446  06AF  00F1               	movwf	pulse_gen@n+1
  3447  06B0  3180  2007  3180   	fcall	_pulse_gen
  3448  06B3                     l2667:
  3449  06B3  318D  25B0  3180   	fcall	_state_6
  3450  06B6                     l2669:
  3451  06B6  318D  2544  3180   	fcall	_latch_gen
  3452  06B9                     l2671:
  3453  06B9  3041               	movlw	65
  3454  06BA  00F7               	movwf	??_main
  3455  06BB  30EE               	movlw	238
  3456  06BC                     u897:
  3457  06BC  0B89               	decfsz	9,f
  3458  06BD  2EBC               	goto	u897
  3459  06BE  0BF7               	decfsz	??_main,f
  3460  06BF  2EBC               	goto	u897
  3461  06C0  3200               	nop2
  3462  06C1                     l2673:
  3463                           
  3464                           ;newmain.c: 207:         state_8(); pulse_gen(1); state_7(); latch_gen();_delay((unsigne
      +                          d long)((200)*(1000000/4000.0)));
  3465  06C1  318D  2548  3180   	fcall	_state_8
  3466  06C4                     l2675:
  3467  06C4  3001               	movlw	1
  3468  06C5  00F0               	movwf	pulse_gen@n
  3469  06C6  3000               	movlw	0
  3470  06C7  00F1               	movwf	pulse_gen@n+1
  3471  06C8  3180  2007  3180   	fcall	_pulse_gen
  3472  06CB                     l2677:
  3473  06CB  318D  2565  3180   	fcall	_state_7
  3474  06CE                     l2679:
  3475  06CE  318D  2544  3180   	fcall	_latch_gen
  3476  06D1                     l2681:
  3477  06D1  3041               	movlw	65
  3478  06D2  00F7               	movwf	??_main
  3479  06D3  30EE               	movlw	238
  3480  06D4                     u907:
  3481  06D4  0B89               	decfsz	9,f
  3482  06D5  2ED4               	goto	u907
  3483  06D6  0BF7               	decfsz	??_main,f
  3484  06D7  2ED4               	goto	u907
  3485  06D8  3200               	nop2
  3486  06D9                     l2683:
  3487                           
  3488                           ;newmain.c: 208:         state_8(); pulse_gen(1); state_8(); latch_gen();_delay((unsigne
      +                          d long)((200)*(1000000/4000.0)));
  3489  06D9  318D  2548  3180   	fcall	_state_8
  3490  06DC                     l2685:
  3491  06DC  3001               	movlw	1
  3492  06DD  00F0               	movwf	pulse_gen@n
  3493  06DE  3000               	movlw	0
  3494  06DF  00F1               	movwf	pulse_gen@n+1
  3495  06E0  3180  2007  3180   	fcall	_pulse_gen
  3496  06E3                     l2687:
  3497  06E3  318D  2548  3180   	fcall	_state_8
  3498  06E6                     l2689:
  3499  06E6  318D  2544  3180   	fcall	_latch_gen
  3500  06E9                     l2691:
  3501  06E9  3041               	movlw	65
  3502  06EA  00F7               	movwf	??_main
  3503  06EB  30EE               	movlw	238
  3504  06EC                     u917:
  3505  06EC  0B89               	decfsz	9,f
  3506  06ED  2EEC               	goto	u917
  3507  06EE  0BF7               	decfsz	??_main,f
  3508  06EF  2EEC               	goto	u917
  3509  06F0  3200               	nop2
  3510  06F1                     l2693:
  3511                           
  3512                           ;newmain.c: 209:         state_8(); pulse_gen(1); state_9(); latch_gen();_delay((unsigne
      +                          d long)((200)*(1000000/4000.0)));
  3513  06F1  318D  2548  3180   	fcall	_state_8
  3514  06F4                     l2695:
  3515  06F4  3001               	movlw	1
  3516  06F5  00F0               	movwf	pulse_gen@n
  3517  06F6  3000               	movlw	0
  3518  06F7  00F1               	movwf	pulse_gen@n+1
  3519  06F8  3180  2007  3180   	fcall	_pulse_gen
  3520  06FB                     l2697:
  3521  06FB  318D  25CC  3180   	fcall	_state_9
  3522  06FE                     l2699:
  3523  06FE  318D  2544  3180   	fcall	_latch_gen
  3524  0701                     l2701:
  3525  0701  3041               	movlw	65
  3526  0702  00F7               	movwf	??_main
  3527  0703  30EE               	movlw	238
  3528  0704                     u927:
  3529  0704  0B89               	decfsz	9,f
  3530  0705  2F04               	goto	u927
  3531  0706  0BF7               	decfsz	??_main,f
  3532  0707  2F04               	goto	u927
  3533  0708  3200               	nop2
  3534  0709                     l2703:
  3535                           
  3536                           ;newmain.c: 211:         state_9(); pulse_gen(1); state_0(); latch_gen();_delay((unsigne
      +                          d long)((200)*(1000000/4000.0)));
  3537  0709  318D  25CC  3180   	fcall	_state_9
  3538  070C                     l2705:
  3539  070C  3001               	movlw	1
  3540  070D  00F0               	movwf	pulse_gen@n
  3541  070E  3000               	movlw	0
  3542  070F  00F1               	movwf	pulse_gen@n+1
  3543  0710  3180  2007  3180   	fcall	_pulse_gen
  3544  0713                     l2707:
  3545  0713  318D  2552  3180   	fcall	_state_0
  3546  0716                     l2709:
  3547  0716  318D  2544  3180   	fcall	_latch_gen
  3548  0719                     l2711:
  3549  0719  3041               	movlw	65
  3550  071A  00F7               	movwf	??_main
  3551  071B  30EE               	movlw	238
  3552  071C                     u937:
  3553  071C  0B89               	decfsz	9,f
  3554  071D  2F1C               	goto	u937
  3555  071E  0BF7               	decfsz	??_main,f
  3556  071F  2F1C               	goto	u937
  3557  0720  3200               	nop2
  3558  0721                     l2713:
  3559                           
  3560                           ;newmain.c: 212:         state_9(); pulse_gen(1); state_1(); latch_gen();_delay((unsigne
      +                          d long)((200)*(1000000/4000.0)));
  3561  0721  318D  25CC  3180   	fcall	_state_9
  3562  0724                     l2715:
  3563  0724  3001               	movlw	1
  3564  0725  00F0               	movwf	pulse_gen@n
  3565  0726  3000               	movlw	0
  3566  0727  00F1               	movwf	pulse_gen@n+1
  3567  0728  3180  2007  3180   	fcall	_pulse_gen
  3568  072B                     l2717:
  3569  072B  318D  2578  3180   	fcall	_state_1
  3570  072E                     l2719:
  3571  072E  318D  2544  3180   	fcall	_latch_gen
  3572  0731                     l2721:
  3573  0731  3041               	movlw	65
  3574  0732  00F7               	movwf	??_main
  3575  0733  30EE               	movlw	238
  3576  0734                     u947:
  3577  0734  0B89               	decfsz	9,f
  3578  0735  2F34               	goto	u947
  3579  0736  0BF7               	decfsz	??_main,f
  3580  0737  2F34               	goto	u947
  3581  0738  3200               	nop2
  3582  0739                     l2723:
  3583                           
  3584                           ;newmain.c: 213:         state_9(); pulse_gen(1); state_2(); latch_gen();_delay((unsigne
      +                          d long)((200)*(1000000/4000.0)));
  3585  0739  318D  25CC  3180   	fcall	_state_9
  3586  073C                     l2725:
  3587  073C  3001               	movlw	1
  3588  073D  00F0               	movwf	pulse_gen@n
  3589  073E  3000               	movlw	0
  3590  073F  00F1               	movwf	pulse_gen@n+1
  3591  0740  3180  2007  3180   	fcall	_pulse_gen
  3592  0743                     l2727:
  3593  0743  318E  260D  3180   	fcall	_state_2
  3594  0746                     l2729:
  3595  0746  318D  2544  3180   	fcall	_latch_gen
  3596  0749                     l2731:
  3597  0749  3041               	movlw	65
  3598  074A  00F7               	movwf	??_main
  3599  074B  30EE               	movlw	238
  3600  074C                     u957:
  3601  074C  0B89               	decfsz	9,f
  3602  074D  2F4C               	goto	u957
  3603  074E  0BF7               	decfsz	??_main,f
  3604  074F  2F4C               	goto	u957
  3605  0750  3200               	nop2
  3606  0751                     l2733:
  3607                           
  3608                           ;newmain.c: 214:         state_9(); pulse_gen(1); state_3(); latch_gen();_delay((unsigne
      +                          d long)((200)*(1000000/4000.0)));
  3609  0751  318D  25CC  3180   	fcall	_state_9
  3610  0754                     l2735:
  3611  0754  3001               	movlw	1
  3612  0755  00F0               	movwf	pulse_gen@n
  3613  0756  3000               	movlw	0
  3614  0757  00F1               	movwf	pulse_gen@n+1
  3615  0758  3180  2007  3180   	fcall	_pulse_gen
  3616  075B                     l2737:
  3617  075B  318D  2594  3180   	fcall	_state_3
  3618  075E                     l2739:
  3619  075E  318D  2544  3180   	fcall	_latch_gen
  3620  0761                     l2741:
  3621  0761  3041               	movlw	65
  3622  0762  00F7               	movwf	??_main
  3623  0763  30EE               	movlw	238
  3624  0764                     u967:
  3625  0764  0B89               	decfsz	9,f
  3626  0765  2F64               	goto	u967
  3627  0766  0BF7               	decfsz	??_main,f
  3628  0767  2F64               	goto	u967
  3629  0768  3200               	nop2
  3630  0769                     l2743:
  3631                           
  3632                           ;newmain.c: 215:         state_9(); pulse_gen(1); state_4(); latch_gen();_delay((unsigne
      +                          d long)((200)*(1000000/4000.0)));
  3633  0769  318D  25CC  3180   	fcall	_state_9
  3634  076C                     l2745:
  3635  076C  3001               	movlw	1
  3636  076D  00F0               	movwf	pulse_gen@n
  3637  076E  3000               	movlw	0
  3638  076F  00F1               	movwf	pulse_gen@n+1
  3639  0770  3180  2007  3180   	fcall	_pulse_gen
  3640  0773                     l2747:
  3641  0773  318D  25E8  3180   	fcall	_state_4
  3642  0776                     l2749:
  3643  0776  318D  2544  3180   	fcall	_latch_gen
  3644  0779                     l2751:
  3645  0779  3041               	movlw	65
  3646  077A  00F7               	movwf	??_main
  3647  077B  30EE               	movlw	238
  3648  077C                     u977:
  3649  077C  0B89               	decfsz	9,f
  3650  077D  2F7C               	goto	u977
  3651  077E  0BF7               	decfsz	??_main,f
  3652  077F  2F7C               	goto	u977
  3653  0780  3200               	nop2
  3654  0781                     l2753:
  3655                           
  3656                           ;newmain.c: 216:         state_9(); pulse_gen(1); state_5(); latch_gen();_delay((unsigne
      +                          d long)((200)*(1000000/4000.0)));
  3657  0781  318D  25CC  3180   	fcall	_state_9
  3658  0784                     l2755:
  3659  0784  3001               	movlw	1
  3660  0785  00F0               	movwf	pulse_gen@n
  3661  0786  3000               	movlw	0
  3662  0787  00F1               	movwf	pulse_gen@n+1
  3663  0788  3180  2007  3180   	fcall	_pulse_gen
  3664  078B                     l2757:
  3665  078B  318E  263B  3180   	fcall	_state_5
  3666  078E                     l2759:
  3667  078E  318D  2544  3180   	fcall	_latch_gen
  3668  0791                     l2761:
  3669  0791  3041               	movlw	65
  3670  0792  00F7               	movwf	??_main
  3671  0793  30EE               	movlw	238
  3672  0794                     u987:
  3673  0794  0B89               	decfsz	9,f
  3674  0795  2F94               	goto	u987
  3675  0796  0BF7               	decfsz	??_main,f
  3676  0797  2F94               	goto	u987
  3677  0798  3200               	nop2
  3678  0799                     l2763:
  3679                           
  3680                           ;newmain.c: 217:         state_9(); pulse_gen(1); state_6(); latch_gen();_delay((unsigne
      +                          d long)((200)*(1000000/4000.0)));
  3681  0799  318D  25CC  3180   	fcall	_state_9
  3682  079C                     l2765:
  3683  079C  3001               	movlw	1
  3684  079D  00F0               	movwf	pulse_gen@n
  3685  079E  3000               	movlw	0
  3686  079F  00F1               	movwf	pulse_gen@n+1
  3687  07A0  3180  2007  3180   	fcall	_pulse_gen
  3688  07A3                     l2767:
  3689  07A3  318D  25B0  3180   	fcall	_state_6
  3690  07A6                     l2769:
  3691  07A6  318D  2544  3180   	fcall	_latch_gen
  3692  07A9                     l2771:
  3693  07A9  3041               	movlw	65
  3694  07AA  00F7               	movwf	??_main
  3695  07AB  30EE               	movlw	238
  3696  07AC                     u997:
  3697  07AC  0B89               	decfsz	9,f
  3698  07AD  2FAC               	goto	u997
  3699  07AE  0BF7               	decfsz	??_main,f
  3700  07AF  2FAC               	goto	u997
  3701  07B0  3200               	nop2
  3702  07B1                     l2773:
  3703                           
  3704                           ;newmain.c: 218:         state_9(); pulse_gen(1); state_7(); latch_gen();_delay((unsigne
      +                          d long)((200)*(1000000/4000.0)));
  3705  07B1  318D  25CC  3180   	fcall	_state_9
  3706  07B4                     l2775:
  3707  07B4  3001               	movlw	1
  3708  07B5  00F0               	movwf	pulse_gen@n
  3709  07B6  3000               	movlw	0
  3710  07B7  00F1               	movwf	pulse_gen@n+1
  3711  07B8  3180  2007  3180   	fcall	_pulse_gen
  3712  07BB                     l2777:
  3713  07BB  318D  2565  3180   	fcall	_state_7
  3714  07BE                     l2779:
  3715  07BE  318D  2544  3180   	fcall	_latch_gen
  3716  07C1                     l2781:
  3717  07C1  3041               	movlw	65
  3718  07C2  00F7               	movwf	??_main
  3719  07C3  30EE               	movlw	238
  3720  07C4                     u1007:
  3721  07C4  0B89               	decfsz	9,f
  3722  07C5  2FC4               	goto	u1007
  3723  07C6  0BF7               	decfsz	??_main,f
  3724  07C7  2FC4               	goto	u1007
  3725  07C8  3200               	nop2
  3726  07C9                     l2783:
  3727                           
  3728                           ;newmain.c: 219:         state_9(); pulse_gen(1); state_8(); latch_gen();_delay((unsigne
      +                          d long)((200)*(1000000/4000.0)));
  3729  07C9  318D  25CC  3180   	fcall	_state_9
  3730  07CC                     l2785:
  3731  07CC  3001               	movlw	1
  3732  07CD  00F0               	movwf	pulse_gen@n
  3733  07CE  3000               	movlw	0
  3734  07CF  00F1               	movwf	pulse_gen@n+1
  3735  07D0  3180  2007  3180   	fcall	_pulse_gen
  3736  07D3                     l2787:
  3737  07D3  318D  2548  3180   	fcall	_state_8
  3738  07D6                     l2789:
  3739  07D6  318D  2544  3180   	fcall	_latch_gen
  3740  07D9                     l2791:
  3741  07D9  3041               	movlw	65
  3742  07DA  00F7               	movwf	??_main
  3743  07DB  30EE               	movlw	238
  3744  07DC                     u1017:
  3745  07DC  0B89               	decfsz	9,f
  3746  07DD  2FDC               	goto	u1017
  3747  07DE  0BF7               	decfsz	??_main,f
  3748  07DF  2FDC               	goto	u1017
  3749  07E0  3200               	nop2
  3750  07E1                     l2793:
  3751                           
  3752                           ;newmain.c: 220:         state_9(); pulse_gen(1); state_9(); latch_gen();_delay((unsigne
      +                          d long)((200)*(1000000/4000.0)));
  3753  07E1  318D  25CC  3180   	fcall	_state_9
  3754  07E4                     l2795:
  3755  07E4  3001               	movlw	1
  3756  07E5  00F0               	movwf	pulse_gen@n
  3757  07E6  3000               	movlw	0
  3758  07E7  00F1               	movwf	pulse_gen@n+1
  3759  07E8  3180  2007  3180   	fcall	_pulse_gen
  3760  07EB                     l2797:
  3761  07EB  318D  25CC  3180   	fcall	_state_9
  3762  07EE                     l2799:
  3763  07EE  318D  2544  3180   	fcall	_latch_gen
  3764  07F1                     l2801:
  3765  07F1  3041               	movlw	65
  3766  07F2  00F7               	movwf	??_main
  3767  07F3  30EE               	movlw	238
  3768  07F4                     u1027:
  3769  07F4  0B89               	decfsz	9,f
  3770  07F5  2FF4               	goto	u1027
  3771  07F6  0BF7               	decfsz	??_main,f
  3772  07F7  2FF4               	goto	u1027
  3773  07F8  3200               	nop2
  3774  07F9  318E  2EF1         	goto	l1803
  3775  07FB  3180  2802         	ljmp	start
  3776  07FD                     __end_of_main:

Data Sizes:
    Strings     0
    Constant    0
    Data        0
    BSS         0
    Persistent  32
    Stack       0

Auto Spaces:
    Space          Size  Autos    Used
    COMMON           14      8       8
    BANK0            80      0       0
    BANK1            80      0       0
    BANK2            80      0       0
    BANK3            80      0       0
    BANK4            80      0       0
    BANK5            80      0       0
    BANK6            16      0       0

Pointer List with Targets:

    None.

Critical Paths under _main in COMMON

    _main->_pulse_gen
    _state_9->_pulse_gen
    _state_8->_pulse_gen
    _state_7->_pulse_gen
    _state_6->_pulse_gen
    _state_5->_pulse_gen
    _state_4->_pulse_gen
    _state_3->_pulse_gen
    _state_2->_pulse_gen
    _state_1->_pulse_gen
    _state_0->_pulse_gen

Critical Paths under _main in BANK0

    None.

Critical Paths under _main in BANK1

    None.

Critical Paths under _main in BANK2

    None.

Critical Paths under _main in BANK3

    None.

Critical Paths under _main in BANK4

    None.

Critical Paths under _main in BANK5

    None.

Critical Paths under _main in BANK6

    None.

Call Graph Tables:

 ---------------------------------------------------------------------------------
 (Depth) Function   	        Calls       Base Space   Used Autos Params    Refs
 ---------------------------------------------------------------------------------
 (0) _main                                                 1     1      0  110022
                                              7 COMMON     1     1      0
                          _latch_gen
                          _pulse_gen
                            _state_0
                            _state_1
                            _state_2
                            _state_3
                            _state_4
                            _state_5
                            _state_6
                            _state_7
                            _state_8
                            _state_9
 ---------------------------------------------------------------------------------
 (1) _state_9                                              0     0      0   10002
                          _pulse_gen
 ---------------------------------------------------------------------------------
 (1) _state_8                                              0     0      0   10002
                          _pulse_gen
 ---------------------------------------------------------------------------------
 (1) _state_7                                              0     0      0   10002
                          _pulse_gen
 ---------------------------------------------------------------------------------
 (1) _state_6                                              0     0      0   10002
                          _pulse_gen
 ---------------------------------------------------------------------------------
 (1) _state_5                                              0     0      0   10002
                          _pulse_gen
 ---------------------------------------------------------------------------------
 (1) _state_4                                              0     0      0   10002
                          _pulse_gen
 ---------------------------------------------------------------------------------
 (1) _state_3                                              0     0      0   10002
                          _pulse_gen
 ---------------------------------------------------------------------------------
 (1) _state_2                                              0     0      0   10002
                          _pulse_gen
 ---------------------------------------------------------------------------------
 (1) _state_1                                              0     0      0   10002
                          _pulse_gen
 ---------------------------------------------------------------------------------
 (1) _state_0                                              0     0      0   10002
                          _pulse_gen
 ---------------------------------------------------------------------------------
 (2) _pulse_gen                                            7     5      2   10002
                                              0 COMMON     7     5      2
 ---------------------------------------------------------------------------------
 (1) _latch_gen                                            0     0      0       0
 ---------------------------------------------------------------------------------
 Estimated maximum stack depth 2
 ---------------------------------------------------------------------------------

 Call Graph Graphs:

 _main (ROOT)
   _latch_gen
   _pulse_gen
   _state_0
     _pulse_gen
   _state_1
     _pulse_gen
   _state_2
     _pulse_gen
   _state_3
     _pulse_gen
   _state_4
     _pulse_gen
   _state_5
     _pulse_gen
   _state_6
     _pulse_gen
   _state_7
     _pulse_gen
   _state_8
     _pulse_gen
   _state_9
     _pulse_gen

 Address spaces:
Name               Size   Autos  Total    Cost      Usage
BIGRAM             1F0      0       0       0        0.0%
NULL                 0      0       0       0        0.0%
CODE                 0      0       0       0        0.0%
BITCOMMON            E      0       0       1        0.0%
BITSFR0              0      0       0       1        0.0%
SFR0                 0      0       0       1        0.0%
COMMON               E      8       8       2       57.1%
BITSFR1              0      0       0       2        0.0%
SFR1                 0      0       0       2        0.0%
BITSFR2              0      0       0       3        0.0%
SFR2                 0      0       0       3        0.0%
STACK                0      0       0       3        0.0%
BITSFR3              0      0       0       4        0.0%
SFR3                 0      0       0       4        0.0%
ABS                  0      0       0       4        0.0%
BITBANK0            50      0       0       5        0.0%
BITSFR4              0      0       0       5        0.0%
SFR4                 0      0       0       5        0.0%
BANK0               50      0       0       6        0.0%
BITSFR5              0      0       0       6        0.0%
SFR5                 0      0       0       6        0.0%
BITBANK1            50      0       0       7        0.0%
BITSFR6              0      0       0       7        0.0%
SFR6                 0      0       0       7        0.0%
BANK1               50      0       0       8        0.0%
BITSFR7              0      0       0       8        0.0%
SFR7                 0      0       0       8        0.0%
BITBANK2            50      0       0       9        0.0%
BITSFR8              0      0       0       9        0.0%
SFR8                 0      0       0       9        0.0%
BANK2               50      0       0      10        0.0%
BITSFR9              0      0       0      10        0.0%
SFR9                 0      0       0      10        0.0%
BITBANK3            50      0       0      11        0.0%
BITSFR10             0      0       0      11        0.0%
SFR10                0      0       0      11        0.0%
BANK3               50      0       0      12        0.0%
BITSFR11             0      0       0      12        0.0%
SFR11                0      0       0      12        0.0%
BITBANK4            50      0       0      13        0.0%
BITSFR12             0      0       0      13        0.0%
SFR12                0      0       0      13        0.0%
BANK4               50      0       0      14        0.0%
BITSFR13             0      0       0      14        0.0%
SFR13                0      0       0      14        0.0%
BITBANK5            50      0       0      15        0.0%
BITSFR14             0      0       0      15        0.0%
SFR14                0      0       0      15        0.0%
BANK5               50      0       0      16        0.0%
BITSFR15             0      0       0      16        0.0%
SFR15                0      0       0      16        0.0%
BITBANK6            10      0       0      17        0.0%
BITSFR16             0      0       0      17        0.0%
SFR16                0      0       0      17        0.0%
BANK6               10      0       0      18        0.0%
BITSFR17             0      0       0      18        0.0%
SFR17                0      0       0      18        0.0%
BITSFR18             0      0       0      19        0.0%
SFR18                0      0       0      19        0.0%
DATA                 0      0       0      19        0.0%
BITSFR19             0      0       0      20        0.0%
SFR19                0      0       0      20        0.0%
BITSFR20             0      0       0      21        0.0%
SFR20                0      0       0      21        0.0%
BITSFR21             0      0       0      22        0.0%
SFR21                0      0       0      22        0.0%
BITSFR22             0      0       0      23        0.0%
SFR22                0      0       0      23        0.0%
BITSFR23             0      0       0      24        0.0%
SFR23                0      0       0      24        0.0%
BITSFR24             0      0       0      25        0.0%
SFR24                0      0       0      25        0.0%
BITSFR25             0      0       0      26        0.0%
SFR25                0      0       0      26        0.0%
BITSFR26             0      0       0      27        0.0%
SFR26                0      0       0      27        0.0%
BITSFR27             0      0       0      28        0.0%
SFR27                0      0       0      28        0.0%
BITSFR28             0      0       0      29        0.0%
SFR28                0      0       0      29        0.0%
BITSFR29             0      0       0      30        0.0%
SFR29                0      0       0      30        0.0%
BITSFR30             0      0       0      31        0.0%
SFR30                0      0       0      31        0.0%
BITSFR31             0      0       0      32        0.0%
SFR31                0      0       0      32        0.0%


Microchip Technology PIC Macro Assembler V2.36 build 20220127204148 
Symbol Table                                                                                   Tue Mar 08 14:14:16 2022

                     l12 000A                       l20 0D64                       l14 0025  
                     l23 0D93                       l32 0E0C                       l17 0D47  
                     l41 0D77                       l26 0E3A                       l35 0E68  
                     l44 0D51                       l29 0DAF                       l38 0DCB  
                     l47 0DE7                       u20 0025                       u21 0024  
                     u25 0021                       u37 0F04                       u47 0F1C  
                     u57 0F34                       u67 0F4C                       u77 0F64  
                     u87 0F7E                       u97 0F96                      l587 0D44  
                    u107 0FAE                      u117 0FC6                      u207 0044  
                    u127 0FDE                      u217 005C                      u137 0FF6  
                    u307 0134                      u227 0074                      u147 0E79  
                    u317 014C                      u237 008C                      u157 0E91  
                    u407 0224                      u327 0164                      u247 00A4  
                    u167 0EA9                      u417 023C                      u337 017C  
                    u257 00BC                      u177 0EC1                      u507 0314  
                    u427 0254                      u347 0194                      u267 00D4  
                    u187 0ED9                      u517 032C                      u437 026C  
                    u357 01AC                      u277 00EC                      u197 002C  
                    u607 0404                      u527 0344                      u447 0284  
                    u367 01C4                      u287 0104                      u617 041C  
                    u537 035C                      u457 029C                      u377 01DC  
                    u297 011C                      u707 04F4                      u627 0434  
                    u547 0374                      u467 02B4                      u387 01F4  
                    u717 050C                      u637 044C                      u557 038C  
                    u477 02CC                      u397 020C                      u807 05E4  
                    u727 0524                      u647 0464                      u567 03A4  
                    u487 02E4                      u817 05FC                      u737 053C  
                    u657 047C                      u577 03BC                      u497 02FC  
                    u907 06D4                      u827 0614                      u747 0554  
                    u667 0494                      u587 03D4                      u917 06EC  
                    u837 062C                      u757 056C                      u677 04AC  
                    u597 03EC                      u927 0704                      u847 0644  
                    u767 0584                      u687 04C4                      u937 071C  
                    u857 065C                      u777 059C                      u697 04DC  
                    u947 0734                      u867 0674                      u787 05B4  
                    u957 074C                      u877 068C                      u797 05CC  
                    u967 0764                      u887 06A4                      u977 077C  
                    u897 06BC                      u987 0794                      u997 07AC  
                    wreg 0009                     l2001 0071                     l2011 0089  
                   l2003 0079                     l2101 0161                     l2021 00A1  
                   l2013 0091                     l2005 007C                     l2111 0179  
                   l2103 0169                     l2031 00B9                     l2023 00A9  
                   l2015 0094                     l2007 0083                     l2201 0251  
                   l2121 0191                     l2113 0181                     l2105 016C  
                   l2041 00D1                     l2033 00C1                     l2025 00AC  
                   l2017 009B                     l2009 0086                     l2211 0269  
                   l2203 0259                     l2131 01A9                     l2123 0199  
                   l2115 0184                     l2107 0173                     l2051 00E9  
                   l2043 00D9                     l2035 00C4                     l2027 00B3  
                   l2019 009E                     l2301 0341                     l2221 0281  
                   l2213 0271                     l2205 025C                     l2141 01C1  
                   l2133 01B1                     l2125 019C                     l2117 018B  
                   l2109 0176                     l2061 0101                     l2053 00F1  
                   l2045 00DC                     l2037 00CB                     l2029 00B6  
                   l2311 0359                     l2303 0349                     l2231 0299  
                   l2223 0289                     l2215 0274                     l2207 0263  
                   l2151 01D9                     l2143 01C9                     l2135 01B4  
                   l2127 01A3                     l2119 018E                     l2071 0119  
                   l2063 0109                     l2055 00F4                     l2047 00E3  
                   l2039 00CE                     l2401 0431                     l2321 0371  
                   l2313 0361                     l2305 034C                     l2241 02B1  
                   l2233 02A1                     l2225 028C                     l2217 027B  
                   l2209 0266                     l2161 01F1                     l2153 01E1  
                   l2145 01CC                     l2137 01BB                     l2129 01A6  
                   l2081 0131                     l2073 0121                     l2065 010C  
                   l2057 00FB                     l2049 00E6                     l2411 0449  
                   l2403 0439                     l2331 0389                     l2323 0379  
                   l2315 0364                     l2307 0353                     l2251 02C9  
                   l2243 02B9                     l2235 02A4                     l2227 0293  
                   l2219 027E                     l2171 0209                     l2163 01F9  
                   l2155 01E4                     l2147 01D3                     l2139 01BE  
                   l2091 0149                     l2083 0139                     l2075 0124  
                   l2067 0113                     l2059 00FE                     l1701 0D54  
                   l2501 0521                     l2421 0461                     l2413 0451  
                   l2405 043C                     l2341 03A1                     l2333 0391  
                   l2325 037C                     l2317 036B                     l2309 0356  
                   l2261 02E1                     l2253 02D1                     l2245 02BC  
                   l2237 02AB                     l2229 0296                     l2181 0221  
                   l2173 0211                     l2165 01FC                     l2157 01EB  
                   l2149 01D6                     l2093 0151                     l2085 013C  
                   l2077 012B                     l2069 0116                     l1703 0D5B  
                   l1711 0D81                     l2511 0539                     l2503 0529  
                   l2431 0479                     l2423 0469                     l2415 0454  
                   l2407 0443                     l2351 03B9                     l2343 03A9  
                   l2335 0394                     l2327 0383                     l2319 036E  
                   l2271 02F9                     l2263 02E9                     l2255 02D4  
                   l2247 02C3                     l2239 02AE                     l2191 0239  
                   l2183 0229                     l2175 0214                     l2167 0203  
                   l2159 01EE                     l2095 0154                     l2087 0143  
                   l2079 012E                     l1713 0D8A                     l1721 0E16  
                   l2601 0611                     l2521 0551                     l2513 0541  
                   l2505 052C                     l2441 0491                     l2433 0481  
                   l2425 046C                     l2417 045B                     l2409 0446  
                   l2361 03D1                     l2353 03C1                     l2345 03AC  
                   l2337 039B                     l2329 0386                     l2281 0311  
                   l2273 0301                     l2265 02EC                     l2257 02DB  
                   l2249 02C6                     l2193 0241                     l2185 022C  
                   l2177 021B                     l2169 0206                     l2097 015B  
                   l2089 0146                     l1801 0EED                     l1707 0D78  
                   l1723 0E1F                     l1731 0D94                     l2611 0629  
                   l2603 0619                     l2531 0569                     l2523 0559  
                   l2515 0544                     l2507 0533                     l2451 04A9  
                   l2443 0499                     l2435 0484                     l2427 0473  
                   l2419 045E                     l2371 03E9                     l2363 03D9  
                   l2355 03C4                     l2347 03B3                     l2339 039E  
                   l2291 0329                     l2283 0319                     l2275 0304  
                   l2267 02F3                     l2259 02DE                     l2195 0244  
                   l2187 0233                     l2179 021E                     l2099 015E  
                   l1811 0F01                     l1803 0EF1                     l1709 0D7A  
                   l1725 0E28                     l1717 0E0D                     l1733 0D96  
                   l1741 0DE8                     l2701 0701                     l2621 0641  
                   l2613 0631                     l2605 061C                     l2541 0581  
                   l2533 0571                     l2525 055C                     l2517 054B  
                   l2509 0536                     l2461 04C1                     l2453 04B1  
                   l2445 049C                     l2437 048B                     l2429 0476  
                   l2381 0401                     l2373 03F1                     l2365 03DC  
                   l2357 03CB                     l2349 03B6                     l2293 0331  
                   l2285 031C                     l2277 030B                     l2269 02F6  
                   l2197 024B                     l2189 0236                     l1901 0FDB  
                   l1821 0F19                     l1813 0F09                     l1805 0EF4  
                   l1727 0E31                     l1719 0E0F                     l1735 0D9D  
                   l1743 0DEA                     l2711 0719                     l2703 0709  
                   l2631 0659                     l2623 0649                     l2615 0634  
                   l2607 0623                     l2551 0599                     l2543 0589  
                   l2535 0574                     l2527 0563                     l2519 054E  
                   l2471 04D9                     l2463 04C9                     l2455 04B4  
                   l2447 04A3                     l2439 048E                     l2391 0419  
                   l2383 0409                     l2375 03F4                     l2367 03E3  
                   l2359 03CE                     l2295 0334                     l2287 0323  
                   l2279 030E                     l2199 024E                     l1911 0FF3  
                   l1903 0FE3                     l1831 0F31                     l1823 0F21  
                   l1815 0F0C                     l1807 0EFB                     l1737 0DA6  
                   l1745 0DF1                     l1761 0E56                     l1753 0E3B  
                   l2801 07F1                     l2721 0731                     l2713 0721  
                   l2705 070C                     l2641 0671                     l2633 0661  
                   l2625 064C                     l2617 063B                     l2609 0626  
                   l2561 05B1                     l2553 05A1                     l2545 058C  
                   l2537 057B                     l2529 0566                     l2481 04F1  
                   l2473 04E1                     l2465 04CC                     l2457 04BB  
                   l2449 04A6                     l2393 0421                     l2385 040C  
                   l2377 03FB                     l2369 03E6                     l2297 033B  
                   l2289 0326                     l1921 0E76                     l1913 0FFB  
                   l1905 0FE6                     l1841 0F49                     l1833 0F39  
                   l1825 0F24                     l1817 0F13                     l1809 0EFE  
                   l1747 0DFA                     l1763 0E5F                     l1755 0E3D  
                   l1771 0DB9                     l2731 0749                     l2723 0739  
                   l2715 0724                     l2707 0713                     l2651 0689  
                   l2643 0679                     l2635 0664                     l2627 0653  
                   l2619 063E                     l2571 05C9                     l2563 05B9  
                   l2555 05A4                     l2547 0593                     l2539 057E  
                   l2491 0509                     l2483 04F9                     l2475 04E4  
                   l2467 04D3                     l2459 04BE                     l2395 0424  
                   l2387 0413                     l2379 03FE                     l2299 033E  
                   l1931 0E8E                     l1923 0E7E                     l1915 0FFE  
                   l1907 0FED                     l1851 0F61                     l1843 0F51  
                   l1835 0F3C                     l1827 0F2B                     l1819 0F16  
                   l1693 0007                     l1749 0E03                     l1757 0E44  
                   l1773 0DC2                     l1781 0D6E                     l2741 0761  
                   l2733 0751                     l2725 073C                     l2717 072B  
                   l2709 0716                     l2661 06A1                     l2653 0691  
                   l2645 067C                     l2637 066B                     l2629 0656  
                   l2581 05E1                     l2573 05D1                     l2565 05BC  
                   l2557 05AB                     l2549 0596                     l2493 0511  
                   l2485 04FC                     l2477 04EB                     l2469 04D6  
                   l2397 042B                     l2389 0416                     l1941 0EA6  
                   l1933 0E96                     l1925 0E81                     l1917 0E70  
                   l1909 0FF0                     l1861 0F7B                     l1853 0F69  
                   l1845 0F54                     l1837 0F43                     l1829 0F2E  
                   l1695 000D                     l1759 0E4D                     l1767 0DB0  
                   l1791 0DCC                     l2751 0779                     l2743 0769  
                   l2735 0754                     l2727 0743                     l2719 072E  
                   l2671 06B9                     l2663 06A9                     l2655 0694  
                   l2647 0683                     l2639 066E                     l2591 05F9  
                   l2583 05E9                     l2575 05D4                     l2567 05C3  
                   l2559 05AE                     l2495 0514                     l2487 0503  
                   l2479 04EE                     l2399 042E                     l1951 0EBE  
                   l1943 0EAE                     l1935 0E99                     l1927 0E88  
                   l1919 0E73                     l1871 0F93                     l1863 0F83  
                   l1855 0F6C                     l1847 0F5B                     l1839 0F46  
                   l1697 0011                     l1769 0DB2                     l1777 0D65  
                   l1785 0D48                     l1793 0DCE                     l2761 0791  
                   l2753 0781                     l2745 076C                     l2737 075B  
                   l2729 0746                     l2681 06D1                     l2673 06C1  
                   l2665 06AC                     l2657 069B                     l2649 0686  
                   l2593 0601                     l2585 05EC                     l2577 05DB  
                   l2569 05C6                     l2497 051B                     l2489 0506  
                   l1961 0ED6                     l1953 0EC6                     l1945 0EB1  
                   l1937 0EA0                     l1929 0E8B                     l1881 0FAB  
                   l1873 0F9B                     l1865 0F86                     l1857 0F73  
                   l1849 0F5E                     l1699 0D52                     l1779 0D67  
                   l1787 0D4A                     l1795 0DD5                     l2771 07A9  
                   l2763 0799                     l2755 0784                     l2747 0773  
                   l2739 075E                     l2691 06E9                     l2683 06D9  
                   l2675 06C4                     l2667 06B3                     l2659 069E  
                   l2595 0604                     l2587 05F3                     l2579 05DE  
                   l2499 051E                     l1971 0029                     l1963 0EDE  
                   l1955 0EC9                     l1947 0EB8                     l1939 0EA3  
                   l1891 0FC3                     l1883 0FB3                     l1875 0F9E  
                   l1867 0F8D                     l1859 0F78                     l1797 0DDE  
                   l2781 07C1                     l2773 07B1                     l2765 079C  
                   l2757 078B                     l2749 0776                     l2693 06F1  
                   l2685 06DC                     l2677 06CB                     l2669 06B6  
                   l2597 060B                     l2589 05F6                     l1981 0041  
                   l1973 0031                     l1965 0EE1                     l1957 0ED0  
                   l1949 0EBB                     l1893 0FCB                     l1885 0FB6  
                   l1877 0FA5                     l1869 0F90                     l2791 07D9  
                   l2783 07C9                     l2775 07B4                     l2767 07A3  
                   l2759 078E                     l2695 06F4                     l2687 06E3  
                   l2679 06CE                     l2599 060E                     l1991 0059  
                   l1983 0049                     l1975 0034                     l1967 0EE8  
                   l1959 0ED3                     l1895 0FCE                     l1887 0FBD  
                   l1879 0FA8                     l2793 07E1                     l2785 07CC  
                   l2777 07BB                     l2769 07A6                     l2697 06FB  
                   l2689 06E6                     l1993 0061                     l1985 004C  
                   l1977 003B                     l1969 0EEB                     l1897 0FD5  
                   l1889 0FC0                     l2795 07E4                     l2787 07D3  
                   l2779 07BE                     l2699 06FE                     l1995 0064  
                   l1987 0053                     l1979 003E                     l1899 0FD8  
                   l2797 07EB                     l2789 07D6                     l1997 006B  
                   l1989 0056                     l2799 07EE                     l1999 006E  
                   u1007 07C4                     u1017 07DC                     u1027 07F4  
                   _main 0EED                     btemp 007E                     start 0002  
                  ?_main 0070                    _TRISC 008E          __end_of_state_0 0D65  
        __end_of_state_1 0D94          __end_of_state_2 0E3B          __end_of_state_3 0DB0  
        __end_of_state_4 0E0D          __end_of_state_5 0E69          __end_of_state_6 0DCC  
        __end_of_state_7 0D78          __end_of_state_8 0D52          __end_of_state_9 0DE8  
                  wtemp0 007E          __initialization 07FD             __end_of_main 07FD  
                 ??_main 0077                   _ANSELC 018E                ??_state_0 0077  
              ??_state_1 0077                ??_state_2 0077                ??_state_3 0077  
              ??_state_4 0077                ??_state_5 0077                ??_state_6 0077  
              ??_state_7 0077                ??_state_8 0077                ??_state_9 0077  
__end_of__initialization 07FD           __pcstackCOMMON 0070               __pmaintext 0EED  
      __end_of_latch_gen 0D48                  __ptext1 0DCC                  __ptext2 0D48  
                __ptext3 0D65                  __ptext4 0DB0                  __ptext5 0E3B  
                __ptext6 0DE8                  __ptext7 0D94                  __ptext8 0E0D  
                __ptext9 0D78                  _state_0 0D52                  _state_1 0D78  
                _state_2 0E0D                  _state_3 0D94                  _state_4 0DE8  
                _state_5 0E3B                  _state_6 0DB0                  _state_7 0D65  
                _state_8 0D48                  _state_9 0DCC     end_of_initialization 07FD  
                psplit$0 40013                  psplit$1 130014                  psplit$2 140015  
      __end_of_pulse_gen 0026     pnum$maintext_split_1 0013     pnum$maintext_split_2 0014  
   pnum$maintext_split_3 0015      start_initialization 07FD                ___latbits 0002  
              _latch_gen 0D44                 ?_state_0 0070                 ?_state_1 0070  
               ?_state_2 0070                 ?_state_3 0070                 ?_state_4 0070  
               ?_state_5 0070                 ?_state_6 0070                 ?_state_7 0070  
               ?_state_8 0070                 ?_state_9 0070                 _LATCbits 010E  
              _pulse_gen 0007               ?_latch_gen 0070               pulse_gen@i 0075  
             pulse_gen@n 0070             pnum$maintext 0004               ?_pulse_gen 0070  
               __ptext10 0D52                 __ptext11 0007                 __ptext12 0D44  
            ??_latch_gen 0070              ??_pulse_gen 0072  
