

Microchip MPLAB XC8 Assembler V2.36 build 20220127204148 
                                                                                               Sat May 28 21:55:59 2022

Microchip MPLAB XC8 C Compiler v2.36 (Free license) build 20220127204148 Og1 
     1                           	processor	16F1509
     2                           	pagewidth 120
     3                           	opt	flic
     4                           	psect	nvBANK1,global,class=BANK1,space=1,delta=1,noexec
     5                           	psect	stringtext1,global,class=STRCODE,delta=2,noexec
     6                           	psect	stringtext2,global,class=STRCODE,delta=2,noexec
     7                           	psect	stringtext3,global,class=STRCODE,delta=2,noexec
     8                           	psect	stringtext4,global,class=STRCODE,delta=2,noexec
     9                           	psect	cinit,global,class=CODE,merge=1,delta=2
    10                           	psect	bssBANK1,global,class=BANK1,space=1,delta=1,noexec
    11                           	psect	clrtext,global,class=CODE,delta=2
    12                           	psect	cstackBANK1,global,class=BANK1,space=1,delta=1,noexec
    13                           	psect	cstackCOMMON,global,class=COMMON,space=1,delta=1,noexec
    14                           	psect	cstackBANK0,global,class=BANK0,space=1,delta=1,noexec
    15                           	psect	maintext,global,class=CODE,merge=1,split=1,delta=2
    16                           	psect	text1,local,class=CODE,merge=1,delta=2,group=3
    17                           	psect	text2,local,class=CODE,merge=1,delta=2,group=1
    18                           	psect	text3,local,class=CODE,merge=1,delta=2,group=1
    19                           	psect	text4,local,class=CODE,merge=1,delta=2,group=1
    20                           	psect	text5,local,class=CODE,merge=1,delta=2,group=1
    21                           	psect	text6,local,class=CODE,merge=1,delta=2,group=3
    22                           	psect	text7,local,class=CODE,merge=1,delta=2,group=3
    23                           	psect	text8,local,class=CODE,merge=1,delta=2,group=3
    24                           	psect	text9,local,class=CODE,merge=1,delta=2,group=3
    25                           	psect	text10,local,class=CODE,merge=1,delta=2,group=2
    26                           	psect	text11,local,class=CODE,merge=1,delta=2,group=2
    27                           	psect	text12,local,class=CODE,merge=1,delta=2,group=2
    28                           	psect	text13,local,class=CODE,merge=1,delta=2,group=2
    29                           	psect	text14,local,class=CODE,merge=1,delta=2,group=2
    30                           	psect	text15,local,class=CODE,merge=1,delta=2,group=2
    31                           	psect	text16,local,class=CODE,merge=1,delta=2,group=2
    32                           	psect	text17,local,class=CODE,merge=1,delta=2
    33                           	psect	text18,local,class=CODE,merge=1,delta=2
    34                           	psect	text19,local,class=CODE,merge=1,delta=2
    35                           	psect	text20,local,class=CODE,merge=1,delta=2
    36                           	psect	text21,local,class=CODE,merge=1,delta=2
    37                           	psect	text22,local,class=CODE,merge=1,delta=2
    38                           	psect	text23,local,class=CODE,merge=1,delta=2
    39                           	psect	text24,local,class=CODE,merge=1,delta=2
    40                           	psect	text25,local,class=CODE,merge=1,delta=2
    41                           	psect	text26,local,class=CODE,merge=1,delta=2
    42                           	psect	text27,local,class=CODE,merge=1,delta=2
    43                           	psect	text28,local,class=CODE,merge=1,delta=2
    44                           	psect	idloc,global,abs,ovrld,class=IDLOC,space=5,delta=2,noexec
    45                           	psect	config,global,abs,ovrld,class=CONFIG,space=4,delta=2,noexec
    46                           	dabs	1,0x7E,2
    47  0000                     
    48                           ; Version 2.40
    49                           ; Generated 17/11/2021 GMT
    50                           ; 
    51                           ; Copyright © 2021, Microchip Technology Inc. and its subsidiaries ("Microchip")
    52                           ; All rights reserved.
    53                           ; 
    54                           ; This software is developed by Microchip Technology Inc. and its subsidiaries ("Microch
      +                          ip").
    55                           ; 
    56                           ; Redistribution and use in source and binary forms, with or without modification, are
    57                           ; permitted provided that the following conditions are met:
    58                           ; 
    59                           ;     1. Redistributions of source code must retain the above copyright notice, this lis
      +                          t of
    60                           ;        conditions and the following disclaimer.
    61                           ; 
    62                           ;     2. Redistributions in binary form must reproduce the above copyright notice, this 
      +                          list
    63                           ;        of conditions and the following disclaimer in the documentation and/or other
    64                           ;        materials provided with the distribution. Publication is not required when
    65                           ;        this file is used in an embedded application.
    66                           ; 
    67                           ;     3. Microchip's name may not be used to endorse or promote products derived from th
      +                          is
    68                           ;        software without specific prior written permission.
    69                           ; 
    70                           ; THIS SOFTWARE IS PROVIDED BY MICROCHIP "AS IS" AND ANY EXPRESS OR IMPLIED WARRANTIES,
    71                           ; INCLUDING, BUT NOT LIMITED TO, THE IMPLIED WARRANTIES OF MERCHANTABILITY AND FITNESS F
      +                          OR
    72                           ; PURPOSE ARE DISCLAIMED.  IN NO EVENT SHALL MICROCHIP BE LIABLE FOR ANY DIRECT, INDIREC
      +                          T,
    73                           ; INCIDENTAL, SPECIAL, EXEMPLARY, OR CONSEQUENTIAL DAMAGES (INCLUDING BUT NOT LIMITED TO
    74                           ; PROCUREMENT OF SUBSTITUTE GOODS OR SERVICES; LOSS OF USE, DATA OR PROFITS; OR BUSINESS
    75                           ; INTERRUPTION) HOWSOEVER CAUSED AND ON ANY THEORY OF LIABILITY, WHETHER IN CONTRACT, ST
      +                          RICT
    76                           ; LIABILITY, OR TORT (INCLUDING NEGLIGENCE OR OTHERWISE) ARISING IN ANY WAY OUT OF THE U
      +                          SE OF
    77                           ; THIS SOFTWARE, EVEN IF ADVISED OF THE POSSIBILITY OF SUCH DAMAGE.
    78                           ; 
    79                           ; 
    80                           ; Code-generator required, PIC16F1509 Definitions
    81                           ; 
    82                           ; SFR Addresses
    83  0000                     	;# 
    84  0001                     	;# 
    85  0002                     	;# 
    86  0003                     	;# 
    87  0004                     	;# 
    88  0005                     	;# 
    89  0006                     	;# 
    90  0007                     	;# 
    91  0008                     	;# 
    92  0009                     	;# 
    93  000A                     	;# 
    94  000B                     	;# 
    95  000C                     	;# 
    96  000D                     	;# 
    97  000E                     	;# 
    98  0011                     	;# 
    99  0012                     	;# 
   100  0013                     	;# 
   101  0015                     	;# 
   102  0016                     	;# 
   103  0016                     	;# 
   104  0017                     	;# 
   105  0018                     	;# 
   106  0019                     	;# 
   107  001A                     	;# 
   108  001B                     	;# 
   109  001C                     	;# 
   110  008C                     	;# 
   111  008D                     	;# 
   112  008E                     	;# 
   113  0091                     	;# 
   114  0092                     	;# 
   115  0093                     	;# 
   116  0095                     	;# 
   117  0096                     	;# 
   118  0097                     	;# 
   119  0099                     	;# 
   120  009A                     	;# 
   121  009B                     	;# 
   122  009B                     	;# 
   123  009C                     	;# 
   124  009D                     	;# 
   125  009E                     	;# 
   126  009F                     	;# 
   127  010C                     	;# 
   128  010D                     	;# 
   129  010E                     	;# 
   130  0111                     	;# 
   131  0112                     	;# 
   132  0113                     	;# 
   133  0114                     	;# 
   134  0115                     	;# 
   135  0116                     	;# 
   136  0117                     	;# 
   137  0118                     	;# 
   138  0119                     	;# 
   139  011D                     	;# 
   140  018C                     	;# 
   141  018D                     	;# 
   142  018E                     	;# 
   143  0191                     	;# 
   144  0191                     	;# 
   145  0192                     	;# 
   146  0193                     	;# 
   147  0193                     	;# 
   148  0194                     	;# 
   149  0195                     	;# 
   150  0196                     	;# 
   151  0197                     	;# 
   152  0199                     	;# 
   153  019A                     	;# 
   154  019B                     	;# 
   155  019B                     	;# 
   156  019C                     	;# 
   157  019D                     	;# 
   158  019E                     	;# 
   159  019F                     	;# 
   160  020C                     	;# 
   161  020D                     	;# 
   162  0211                     	;# 
   163  0211                     	;# 
   164  0212                     	;# 
   165  0212                     	;# 
   166  0213                     	;# 
   167  0213                     	;# 
   168  0214                     	;# 
   169  0214                     	;# 
   170  0215                     	;# 
   171  0215                     	;# 
   172  0215                     	;# 
   173  0216                     	;# 
   174  0216                     	;# 
   175  0217                     	;# 
   176  0217                     	;# 
   177  0391                     	;# 
   178  0392                     	;# 
   179  0393                     	;# 
   180  0394                     	;# 
   181  0395                     	;# 
   182  0396                     	;# 
   183  0498                     	;# 
   184  0498                     	;# 
   185  0499                     	;# 
   186  049A                     	;# 
   187  049B                     	;# 
   188  049B                     	;# 
   189  049C                     	;# 
   190  049D                     	;# 
   191  049E                     	;# 
   192  049F                     	;# 
   193  0611                     	;# 
   194  0612                     	;# 
   195  0613                     	;# 
   196  0613                     	;# 
   197  0614                     	;# 
   198  0615                     	;# 
   199  0616                     	;# 
   200  0616                     	;# 
   201  0617                     	;# 
   202  0618                     	;# 
   203  0619                     	;# 
   204  0619                     	;# 
   205  061A                     	;# 
   206  061B                     	;# 
   207  061C                     	;# 
   208  061C                     	;# 
   209  0691                     	;# 
   210  0692                     	;# 
   211  0693                     	;# 
   212  0694                     	;# 
   213  0695                     	;# 
   214  0F0F                     	;# 
   215  0F10                     	;# 
   216  0F11                     	;# 
   217  0F12                     	;# 
   218  0F13                     	;# 
   219  0F14                     	;# 
   220  0F15                     	;# 
   221  0F16                     	;# 
   222  0F17                     	;# 
   223  0F18                     	;# 
   224  0F19                     	;# 
   225  0F1A                     	;# 
   226  0F1B                     	;# 
   227  0F1C                     	;# 
   228  0F1D                     	;# 
   229  0F1E                     	;# 
   230  0F1F                     	;# 
   231  0F20                     	;# 
   232  0F21                     	;# 
   233  0F22                     	;# 
   234  0F23                     	;# 
   235  0F24                     	;# 
   236  0F25                     	;# 
   237  0F26                     	;# 
   238  0F27                     	;# 
   239  0F28                     	;# 
   240  0F29                     	;# 
   241  0F2A                     	;# 
   242  0F2B                     	;# 
   243  0F2C                     	;# 
   244  0F2D                     	;# 
   245  0F2E                     	;# 
   246  0F2F                     	;# 
   247  0F8C                     	;# 
   248  0F8D                     	;# 
   249  0F91                     	;# 
   250  0F95                     	;# 
   251  0F96                     	;# 
   252  0F97                     	;# 
   253  0F9C                     	;# 
   254  0F9D                     	;# 
   255  0F9E                     	;# 
   256  0FE3                     	;# 
   257  0FE4                     	;# 
   258  0FE5                     	;# 
   259  0FE6                     	;# 
   260  0FE7                     	;# 
   261  0FE8                     	;# 
   262  0FE9                     	;# 
   263  0FEA                     	;# 
   264  0FEB                     	;# 
   265  0FED                     	;# 
   266  0FEE                     	;# 
   267  0FEF                     	;# 
   268  0000                     	;# 
   269  0001                     	;# 
   270  0002                     	;# 
   271  0003                     	;# 
   272  0004                     	;# 
   273  0005                     	;# 
   274  0006                     	;# 
   275  0007                     	;# 
   276  0008                     	;# 
   277  0009                     	;# 
   278  000A                     	;# 
   279  000B                     	;# 
   280  000C                     	;# 
   281  000D                     	;# 
   282  000E                     	;# 
   283  0011                     	;# 
   284  0012                     	;# 
   285  0013                     	;# 
   286  0015                     	;# 
   287  0016                     	;# 
   288  0016                     	;# 
   289  0017                     	;# 
   290  0018                     	;# 
   291  0019                     	;# 
   292  001A                     	;# 
   293  001B                     	;# 
   294  001C                     	;# 
   295  008C                     	;# 
   296  008D                     	;# 
   297  008E                     	;# 
   298  0091                     	;# 
   299  0092                     	;# 
   300  0093                     	;# 
   301  0095                     	;# 
   302  0096                     	;# 
   303  0097                     	;# 
   304  0099                     	;# 
   305  009A                     	;# 
   306  009B                     	;# 
   307  009B                     	;# 
   308  009C                     	;# 
   309  009D                     	;# 
   310  009E                     	;# 
   311  009F                     	;# 
   312  010C                     	;# 
   313  010D                     	;# 
   314  010E                     	;# 
   315  0111                     	;# 
   316  0112                     	;# 
   317  0113                     	;# 
   318  0114                     	;# 
   319  0115                     	;# 
   320  0116                     	;# 
   321  0117                     	;# 
   322  0118                     	;# 
   323  0119                     	;# 
   324  011D                     	;# 
   325  018C                     	;# 
   326  018D                     	;# 
   327  018E                     	;# 
   328  0191                     	;# 
   329  0191                     	;# 
   330  0192                     	;# 
   331  0193                     	;# 
   332  0193                     	;# 
   333  0194                     	;# 
   334  0195                     	;# 
   335  0196                     	;# 
   336  0197                     	;# 
   337  0199                     	;# 
   338  019A                     	;# 
   339  019B                     	;# 
   340  019B                     	;# 
   341  019C                     	;# 
   342  019D                     	;# 
   343  019E                     	;# 
   344  019F                     	;# 
   345  020C                     	;# 
   346  020D                     	;# 
   347  0211                     	;# 
   348  0211                     	;# 
   349  0212                     	;# 
   350  0212                     	;# 
   351  0213                     	;# 
   352  0213                     	;# 
   353  0214                     	;# 
   354  0214                     	;# 
   355  0215                     	;# 
   356  0215                     	;# 
   357  0215                     	;# 
   358  0216                     	;# 
   359  0216                     	;# 
   360  0217                     	;# 
   361  0217                     	;# 
   362  0391                     	;# 
   363  0392                     	;# 
   364  0393                     	;# 
   365  0394                     	;# 
   366  0395                     	;# 
   367  0396                     	;# 
   368  0498                     	;# 
   369  0498                     	;# 
   370  0499                     	;# 
   371  049A                     	;# 
   372  049B                     	;# 
   373  049B                     	;# 
   374  049C                     	;# 
   375  049D                     	;# 
   376  049E                     	;# 
   377  049F                     	;# 
   378  0611                     	;# 
   379  0612                     	;# 
   380  0613                     	;# 
   381  0613                     	;# 
   382  0614                     	;# 
   383  0615                     	;# 
   384  0616                     	;# 
   385  0616                     	;# 
   386  0617                     	;# 
   387  0618                     	;# 
   388  0619                     	;# 
   389  0619                     	;# 
   390  061A                     	;# 
   391  061B                     	;# 
   392  061C                     	;# 
   393  061C                     	;# 
   394  0691                     	;# 
   395  0692                     	;# 
   396  0693                     	;# 
   397  0694                     	;# 
   398  0695                     	;# 
   399  0F0F                     	;# 
   400  0F10                     	;# 
   401  0F11                     	;# 
   402  0F12                     	;# 
   403  0F13                     	;# 
   404  0F14                     	;# 
   405  0F15                     	;# 
   406  0F16                     	;# 
   407  0F17                     	;# 
   408  0F18                     	;# 
   409  0F19                     	;# 
   410  0F1A                     	;# 
   411  0F1B                     	;# 
   412  0F1C                     	;# 
   413  0F1D                     	;# 
   414  0F1E                     	;# 
   415  0F1F                     	;# 
   416  0F20                     	;# 
   417  0F21                     	;# 
   418  0F22                     	;# 
   419  0F23                     	;# 
   420  0F24                     	;# 
   421  0F25                     	;# 
   422  0F26                     	;# 
   423  0F27                     	;# 
   424  0F28                     	;# 
   425  0F29                     	;# 
   426  0F2A                     	;# 
   427  0F2B                     	;# 
   428  0F2C                     	;# 
   429  0F2D                     	;# 
   430  0F2E                     	;# 
   431  0F2F                     	;# 
   432  0F8C                     	;# 
   433  0F8D                     	;# 
   434  0F91                     	;# 
   435  0F95                     	;# 
   436  0F96                     	;# 
   437  0F97                     	;# 
   438  0F9C                     	;# 
   439  0F9D                     	;# 
   440  0F9E                     	;# 
   441  0FE3                     	;# 
   442  0FE4                     	;# 
   443  0FE5                     	;# 
   444  0FE6                     	;# 
   445  0FE7                     	;# 
   446  0FE8                     	;# 
   447  0FE9                     	;# 
   448  0FEA                     	;# 
   449  0FEB                     	;# 
   450  0FED                     	;# 
   451  0FEE                     	;# 
   452  0FEF                     	;# 
   453  0000                     	;# 
   454  0001                     	;# 
   455  0002                     	;# 
   456  0003                     	;# 
   457  0004                     	;# 
   458  0005                     	;# 
   459  0006                     	;# 
   460  0007                     	;# 
   461  0008                     	;# 
   462  0009                     	;# 
   463  000A                     	;# 
   464  000B                     	;# 
   465  000C                     	;# 
   466  000D                     	;# 
   467  000E                     	;# 
   468  0011                     	;# 
   469  0012                     	;# 
   470  0013                     	;# 
   471  0015                     	;# 
   472  0016                     	;# 
   473  0016                     	;# 
   474  0017                     	;# 
   475  0018                     	;# 
   476  0019                     	;# 
   477  001A                     	;# 
   478  001B                     	;# 
   479  001C                     	;# 
   480  008C                     	;# 
   481  008D                     	;# 
   482  008E                     	;# 
   483  0091                     	;# 
   484  0092                     	;# 
   485  0093                     	;# 
   486  0095                     	;# 
   487  0096                     	;# 
   488  0097                     	;# 
   489  0099                     	;# 
   490  009A                     	;# 
   491  009B                     	;# 
   492  009B                     	;# 
   493  009C                     	;# 
   494  009D                     	;# 
   495  009E                     	;# 
   496  009F                     	;# 
   497  010C                     	;# 
   498  010D                     	;# 
   499  010E                     	;# 
   500  0111                     	;# 
   501  0112                     	;# 
   502  0113                     	;# 
   503  0114                     	;# 
   504  0115                     	;# 
   505  0116                     	;# 
   506  0117                     	;# 
   507  0118                     	;# 
   508  0119                     	;# 
   509  011D                     	;# 
   510  018C                     	;# 
   511  018D                     	;# 
   512  018E                     	;# 
   513  0191                     	;# 
   514  0191                     	;# 
   515  0192                     	;# 
   516  0193                     	;# 
   517  0193                     	;# 
   518  0194                     	;# 
   519  0195                     	;# 
   520  0196                     	;# 
   521  0197                     	;# 
   522  0199                     	;# 
   523  019A                     	;# 
   524  019B                     	;# 
   525  019B                     	;# 
   526  019C                     	;# 
   527  019D                     	;# 
   528  019E                     	;# 
   529  019F                     	;# 
   530  020C                     	;# 
   531  020D                     	;# 
   532  0211                     	;# 
   533  0211                     	;# 
   534  0212                     	;# 
   535  0212                     	;# 
   536  0213                     	;# 
   537  0213                     	;# 
   538  0214                     	;# 
   539  0214                     	;# 
   540  0215                     	;# 
   541  0215                     	;# 
   542  0215                     	;# 
   543  0216                     	;# 
   544  0216                     	;# 
   545  0217                     	;# 
   546  0217                     	;# 
   547  0391                     	;# 
   548  0392                     	;# 
   549  0393                     	;# 
   550  0394                     	;# 
   551  0395                     	;# 
   552  0396                     	;# 
   553  0498                     	;# 
   554  0498                     	;# 
   555  0499                     	;# 
   556  049A                     	;# 
   557  049B                     	;# 
   558  049B                     	;# 
   559  049C                     	;# 
   560  049D                     	;# 
   561  049E                     	;# 
   562  049F                     	;# 
   563  0611                     	;# 
   564  0612                     	;# 
   565  0613                     	;# 
   566  0613                     	;# 
   567  0614                     	;# 
   568  0615                     	;# 
   569  0616                     	;# 
   570  0616                     	;# 
   571  0617                     	;# 
   572  0618                     	;# 
   573  0619                     	;# 
   574  0619                     	;# 
   575  061A                     	;# 
   576  061B                     	;# 
   577  061C                     	;# 
   578  061C                     	;# 
   579  0691                     	;# 
   580  0692                     	;# 
   581  0693                     	;# 
   582  0694                     	;# 
   583  0695                     	;# 
   584  0F0F                     	;# 
   585  0F10                     	;# 
   586  0F11                     	;# 
   587  0F12                     	;# 
   588  0F13                     	;# 
   589  0F14                     	;# 
   590  0F15                     	;# 
   591  0F16                     	;# 
   592  0F17                     	;# 
   593  0F18                     	;# 
   594  0F19                     	;# 
   595  0F1A                     	;# 
   596  0F1B                     	;# 
   597  0F1C                     	;# 
   598  0F1D                     	;# 
   599  0F1E                     	;# 
   600  0F1F                     	;# 
   601  0F20                     	;# 
   602  0F21                     	;# 
   603  0F22                     	;# 
   604  0F23                     	;# 
   605  0F24                     	;# 
   606  0F25                     	;# 
   607  0F26                     	;# 
   608  0F27                     	;# 
   609  0F28                     	;# 
   610  0F29                     	;# 
   611  0F2A                     	;# 
   612  0F2B                     	;# 
   613  0F2C                     	;# 
   614  0F2D                     	;# 
   615  0F2E                     	;# 
   616  0F2F                     	;# 
   617  0F8C                     	;# 
   618  0F8D                     	;# 
   619  0F91                     	;# 
   620  0F95                     	;# 
   621  0F96                     	;# 
   622  0F97                     	;# 
   623  0F9C                     	;# 
   624  0F9D                     	;# 
   625  0F9E                     	;# 
   626  0FE3                     	;# 
   627  0FE4                     	;# 
   628  0FE5                     	;# 
   629  0FE6                     	;# 
   630  0FE7                     	;# 
   631  0FE8                     	;# 
   632  0FE9                     	;# 
   633  0FEA                     	;# 
   634  0FEB                     	;# 
   635  0FED                     	;# 
   636  0FEE                     	;# 
   637  0FEF                     	;# 
   638  0000                     	;# 
   639  0001                     	;# 
   640  0002                     	;# 
   641  0003                     	;# 
   642  0004                     	;# 
   643  0005                     	;# 
   644  0006                     	;# 
   645  0007                     	;# 
   646  0008                     	;# 
   647  0009                     	;# 
   648  000A                     	;# 
   649  000B                     	;# 
   650  000C                     	;# 
   651  000D                     	;# 
   652  000E                     	;# 
   653  0011                     	;# 
   654  0012                     	;# 
   655  0013                     	;# 
   656  0015                     	;# 
   657  0016                     	;# 
   658  0016                     	;# 
   659  0017                     	;# 
   660  0018                     	;# 
   661  0019                     	;# 
   662  001A                     	;# 
   663  001B                     	;# 
   664  001C                     	;# 
   665  008C                     	;# 
   666  008D                     	;# 
   667  008E                     	;# 
   668  0091                     	;# 
   669  0092                     	;# 
   670  0093                     	;# 
   671  0095                     	;# 
   672  0096                     	;# 
   673  0097                     	;# 
   674  0099                     	;# 
   675  009A                     	;# 
   676  009B                     	;# 
   677  009B                     	;# 
   678  009C                     	;# 
   679  009D                     	;# 
   680  009E                     	;# 
   681  009F                     	;# 
   682  010C                     	;# 
   683  010D                     	;# 
   684  010E                     	;# 
   685  0111                     	;# 
   686  0112                     	;# 
   687  0113                     	;# 
   688  0114                     	;# 
   689  0115                     	;# 
   690  0116                     	;# 
   691  0117                     	;# 
   692  0118                     	;# 
   693  0119                     	;# 
   694  011D                     	;# 
   695  018C                     	;# 
   696  018D                     	;# 
   697  018E                     	;# 
   698  0191                     	;# 
   699  0191                     	;# 
   700  0192                     	;# 
   701  0193                     	;# 
   702  0193                     	;# 
   703  0194                     	;# 
   704  0195                     	;# 
   705  0196                     	;# 
   706  0197                     	;# 
   707  0199                     	;# 
   708  019A                     	;# 
   709  019B                     	;# 
   710  019B                     	;# 
   711  019C                     	;# 
   712  019D                     	;# 
   713  019E                     	;# 
   714  019F                     	;# 
   715  020C                     	;# 
   716  020D                     	;# 
   717  0211                     	;# 
   718  0211                     	;# 
   719  0212                     	;# 
   720  0212                     	;# 
   721  0213                     	;# 
   722  0213                     	;# 
   723  0214                     	;# 
   724  0214                     	;# 
   725  0215                     	;# 
   726  0215                     	;# 
   727  0215                     	;# 
   728  0216                     	;# 
   729  0216                     	;# 
   730  0217                     	;# 
   731  0217                     	;# 
   732  0391                     	;# 
   733  0392                     	;# 
   734  0393                     	;# 
   735  0394                     	;# 
   736  0395                     	;# 
   737  0396                     	;# 
   738  0498                     	;# 
   739  0498                     	;# 
   740  0499                     	;# 
   741  049A                     	;# 
   742  049B                     	;# 
   743  049B                     	;# 
   744  049C                     	;# 
   745  049D                     	;# 
   746  049E                     	;# 
   747  049F                     	;# 
   748  0611                     	;# 
   749  0612                     	;# 
   750  0613                     	;# 
   751  0613                     	;# 
   752  0614                     	;# 
   753  0615                     	;# 
   754  0616                     	;# 
   755  0616                     	;# 
   756  0617                     	;# 
   757  0618                     	;# 
   758  0619                     	;# 
   759  0619                     	;# 
   760  061A                     	;# 
   761  061B                     	;# 
   762  061C                     	;# 
   763  061C                     	;# 
   764  0691                     	;# 
   765  0692                     	;# 
   766  0693                     	;# 
   767  0694                     	;# 
   768  0695                     	;# 
   769  0F0F                     	;# 
   770  0F10                     	;# 
   771  0F11                     	;# 
   772  0F12                     	;# 
   773  0F13                     	;# 
   774  0F14                     	;# 
   775  0F15                     	;# 
   776  0F16                     	;# 
   777  0F17                     	;# 
   778  0F18                     	;# 
   779  0F19                     	;# 
   780  0F1A                     	;# 
   781  0F1B                     	;# 
   782  0F1C                     	;# 
   783  0F1D                     	;# 
   784  0F1E                     	;# 
   785  0F1F                     	;# 
   786  0F20                     	;# 
   787  0F21                     	;# 
   788  0F22                     	;# 
   789  0F23                     	;# 
   790  0F24                     	;# 
   791  0F25                     	;# 
   792  0F26                     	;# 
   793  0F27                     	;# 
   794  0F28                     	;# 
   795  0F29                     	;# 
   796  0F2A                     	;# 
   797  0F2B                     	;# 
   798  0F2C                     	;# 
   799  0F2D                     	;# 
   800  0F2E                     	;# 
   801  0F2F                     	;# 
   802  0F8C                     	;# 
   803  0F8D                     	;# 
   804  0F91                     	;# 
   805  0F95                     	;# 
   806  0F96                     	;# 
   807  0F97                     	;# 
   808  0F9C                     	;# 
   809  0F9D                     	;# 
   810  0F9E                     	;# 
   811  0FE3                     	;# 
   812  0FE4                     	;# 
   813  0FE5                     	;# 
   814  0FE6                     	;# 
   815  0FE7                     	;# 
   816  0FE8                     	;# 
   817  0FE9                     	;# 
   818  0FEA                     	;# 
   819  0FEB                     	;# 
   820  0FED                     	;# 
   821  0FEE                     	;# 
   822  0FEF                     	;# 
   823  0000                     	;# 
   824  0001                     	;# 
   825  0002                     	;# 
   826  0003                     	;# 
   827  0004                     	;# 
   828  0005                     	;# 
   829  0006                     	;# 
   830  0007                     	;# 
   831  0008                     	;# 
   832  0009                     	;# 
   833  000A                     	;# 
   834  000B                     	;# 
   835  000C                     	;# 
   836  000D                     	;# 
   837  000E                     	;# 
   838  0011                     	;# 
   839  0012                     	;# 
   840  0013                     	;# 
   841  0015                     	;# 
   842  0016                     	;# 
   843  0016                     	;# 
   844  0017                     	;# 
   845  0018                     	;# 
   846  0019                     	;# 
   847  001A                     	;# 
   848  001B                     	;# 
   849  001C                     	;# 
   850  008C                     	;# 
   851  008D                     	;# 
   852  008E                     	;# 
   853  0091                     	;# 
   854  0092                     	;# 
   855  0093                     	;# 
   856  0095                     	;# 
   857  0096                     	;# 
   858  0097                     	;# 
   859  0099                     	;# 
   860  009A                     	;# 
   861  009B                     	;# 
   862  009B                     	;# 
   863  009C                     	;# 
   864  009D                     	;# 
   865  009E                     	;# 
   866  009F                     	;# 
   867  010C                     	;# 
   868  010D                     	;# 
   869  010E                     	;# 
   870  0111                     	;# 
   871  0112                     	;# 
   872  0113                     	;# 
   873  0114                     	;# 
   874  0115                     	;# 
   875  0116                     	;# 
   876  0117                     	;# 
   877  0118                     	;# 
   878  0119                     	;# 
   879  011D                     	;# 
   880  018C                     	;# 
   881  018D                     	;# 
   882  018E                     	;# 
   883  0191                     	;# 
   884  0191                     	;# 
   885  0192                     	;# 
   886  0193                     	;# 
   887  0193                     	;# 
   888  0194                     	;# 
   889  0195                     	;# 
   890  0196                     	;# 
   891  0197                     	;# 
   892  0199                     	;# 
   893  019A                     	;# 
   894  019B                     	;# 
   895  019B                     	;# 
   896  019C                     	;# 
   897  019D                     	;# 
   898  019E                     	;# 
   899  019F                     	;# 
   900  020C                     	;# 
   901  020D                     	;# 
   902  0211                     	;# 
   903  0211                     	;# 
   904  0212                     	;# 
   905  0212                     	;# 
   906  0213                     	;# 
   907  0213                     	;# 
   908  0214                     	;# 
   909  0214                     	;# 
   910  0215                     	;# 
   911  0215                     	;# 
   912  0215                     	;# 
   913  0216                     	;# 
   914  0216                     	;# 
   915  0217                     	;# 
   916  0217                     	;# 
   917  0391                     	;# 
   918  0392                     	;# 
   919  0393                     	;# 
   920  0394                     	;# 
   921  0395                     	;# 
   922  0396                     	;# 
   923  0498                     	;# 
   924  0498                     	;# 
   925  0499                     	;# 
   926  049A                     	;# 
   927  049B                     	;# 
   928  049B                     	;# 
   929  049C                     	;# 
   930  049D                     	;# 
   931  049E                     	;# 
   932  049F                     	;# 
   933  0611                     	;# 
   934  0612                     	;# 
   935  0613                     	;# 
   936  0613                     	;# 
   937  0614                     	;# 
   938  0615                     	;# 
   939  0616                     	;# 
   940  0616                     	;# 
   941  0617                     	;# 
   942  0618                     	;# 
   943  0619                     	;# 
   944  0619                     	;# 
   945  061A                     	;# 
   946  061B                     	;# 
   947  061C                     	;# 
   948  061C                     	;# 
   949  0691                     	;# 
   950  0692                     	;# 
   951  0693                     	;# 
   952  0694                     	;# 
   953  0695                     	;# 
   954  0F0F                     	;# 
   955  0F10                     	;# 
   956  0F11                     	;# 
   957  0F12                     	;# 
   958  0F13                     	;# 
   959  0F14                     	;# 
   960  0F15                     	;# 
   961  0F16                     	;# 
   962  0F17                     	;# 
   963  0F18                     	;# 
   964  0F19                     	;# 
   965  0F1A                     	;# 
   966  0F1B                     	;# 
   967  0F1C                     	;# 
   968  0F1D                     	;# 
   969  0F1E                     	;# 
   970  0F1F                     	;# 
   971  0F20                     	;# 
   972  0F21                     	;# 
   973  0F22                     	;# 
   974  0F23                     	;# 
   975  0F24                     	;# 
   976  0F25                     	;# 
   977  0F26                     	;# 
   978  0F27                     	;# 
   979  0F28                     	;# 
   980  0F29                     	;# 
   981  0F2A                     	;# 
   982  0F2B                     	;# 
   983  0F2C                     	;# 
   984  0F2D                     	;# 
   985  0F2E                     	;# 
   986  0F2F                     	;# 
   987  0F8C                     	;# 
   988  0F8D                     	;# 
   989  0F91                     	;# 
   990  0F95                     	;# 
   991  0F96                     	;# 
   992  0F97                     	;# 
   993  0F9C                     	;# 
   994  0F9D                     	;# 
   995  0F9E                     	;# 
   996  0FE3                     	;# 
   997  0FE4                     	;# 
   998  0FE5                     	;# 
   999  0FE6                     	;# 
  1000  0FE7                     	;# 
  1001  0FE8                     	;# 
  1002  0FE9                     	;# 
  1003  0FEA                     	;# 
  1004  0FEB                     	;# 
  1005  0FED                     	;# 
  1006  0FEE                     	;# 
  1007  0FEF                     	;# 
  1008  0000                     	;# 
  1009  0001                     	;# 
  1010  0002                     	;# 
  1011  0003                     	;# 
  1012  0004                     	;# 
  1013  0005                     	;# 
  1014  0006                     	;# 
  1015  0007                     	;# 
  1016  0008                     	;# 
  1017  0009                     	;# 
  1018  000A                     	;# 
  1019  000B                     	;# 
  1020  000C                     	;# 
  1021  000D                     	;# 
  1022  000E                     	;# 
  1023  0011                     	;# 
  1024  0012                     	;# 
  1025  0013                     	;# 
  1026  0015                     	;# 
  1027  0016                     	;# 
  1028  0016                     	;# 
  1029  0017                     	;# 
  1030  0018                     	;# 
  1031  0019                     	;# 
  1032  001A                     	;# 
  1033  001B                     	;# 
  1034  001C                     	;# 
  1035  008C                     	;# 
  1036  008D                     	;# 
  1037  008E                     	;# 
  1038  0091                     	;# 
  1039  0092                     	;# 
  1040  0093                     	;# 
  1041  0095                     	;# 
  1042  0096                     	;# 
  1043  0097                     	;# 
  1044  0099                     	;# 
  1045  009A                     	;# 
  1046  009B                     	;# 
  1047  009B                     	;# 
  1048  009C                     	;# 
  1049  009D                     	;# 
  1050  009E                     	;# 
  1051  009F                     	;# 
  1052  010C                     	;# 
  1053  010D                     	;# 
  1054  010E                     	;# 
  1055  0111                     	;# 
  1056  0112                     	;# 
  1057  0113                     	;# 
  1058  0114                     	;# 
  1059  0115                     	;# 
  1060  0116                     	;# 
  1061  0117                     	;# 
  1062  0118                     	;# 
  1063  0119                     	;# 
  1064  011D                     	;# 
  1065  018C                     	;# 
  1066  018D                     	;# 
  1067  018E                     	;# 
  1068  0191                     	;# 
  1069  0191                     	;# 
  1070  0192                     	;# 
  1071  0193                     	;# 
  1072  0193                     	;# 
  1073  0194                     	;# 
  1074  0195                     	;# 
  1075  0196                     	;# 
  1076  0197                     	;# 
  1077  0199                     	;# 
  1078  019A                     	;# 
  1079  019B                     	;# 
  1080  019B                     	;# 
  1081  019C                     	;# 
  1082  019D                     	;# 
  1083  019E                     	;# 
  1084  019F                     	;# 
  1085  020C                     	;# 
  1086  020D                     	;# 
  1087  0211                     	;# 
  1088  0211                     	;# 
  1089  0212                     	;# 
  1090  0212                     	;# 
  1091  0213                     	;# 
  1092  0213                     	;# 
  1093  0214                     	;# 
  1094  0214                     	;# 
  1095  0215                     	;# 
  1096  0215                     	;# 
  1097  0215                     	;# 
  1098  0216                     	;# 
  1099  0216                     	;# 
  1100  0217                     	;# 
  1101  0217                     	;# 
  1102  0391                     	;# 
  1103  0392                     	;# 
  1104  0393                     	;# 
  1105  0394                     	;# 
  1106  0395                     	;# 
  1107  0396                     	;# 
  1108  0498                     	;# 
  1109  0498                     	;# 
  1110  0499                     	;# 
  1111  049A                     	;# 
  1112  049B                     	;# 
  1113  049B                     	;# 
  1114  049C                     	;# 
  1115  049D                     	;# 
  1116  049E                     	;# 
  1117  049F                     	;# 
  1118  0611                     	;# 
  1119  0612                     	;# 
  1120  0613                     	;# 
  1121  0613                     	;# 
  1122  0614                     	;# 
  1123  0615                     	;# 
  1124  0616                     	;# 
  1125  0616                     	;# 
  1126  0617                     	;# 
  1127  0618                     	;# 
  1128  0619                     	;# 
  1129  0619                     	;# 
  1130  061A                     	;# 
  1131  061B                     	;# 
  1132  061C                     	;# 
  1133  061C                     	;# 
  1134  0691                     	;# 
  1135  0692                     	;# 
  1136  0693                     	;# 
  1137  0694                     	;# 
  1138  0695                     	;# 
  1139  0F0F                     	;# 
  1140  0F10                     	;# 
  1141  0F11                     	;# 
  1142  0F12                     	;# 
  1143  0F13                     	;# 
  1144  0F14                     	;# 
  1145  0F15                     	;# 
  1146  0F16                     	;# 
  1147  0F17                     	;# 
  1148  0F18                     	;# 
  1149  0F19                     	;# 
  1150  0F1A                     	;# 
  1151  0F1B                     	;# 
  1152  0F1C                     	;# 
  1153  0F1D                     	;# 
  1154  0F1E                     	;# 
  1155  0F1F                     	;# 
  1156  0F20                     	;# 
  1157  0F21                     	;# 
  1158  0F22                     	;# 
  1159  0F23                     	;# 
  1160  0F24                     	;# 
  1161  0F25                     	;# 
  1162  0F26                     	;# 
  1163  0F27                     	;# 
  1164  0F28                     	;# 
  1165  0F29                     	;# 
  1166  0F2A                     	;# 
  1167  0F2B                     	;# 
  1168  0F2C                     	;# 
  1169  0F2D                     	;# 
  1170  0F2E                     	;# 
  1171  0F2F                     	;# 
  1172  0F8C                     	;# 
  1173  0F8D                     	;# 
  1174  0F91                     	;# 
  1175  0F95                     	;# 
  1176  0F96                     	;# 
  1177  0F97                     	;# 
  1178  0F9C                     	;# 
  1179  0F9D                     	;# 
  1180  0F9E                     	;# 
  1181  0FE3                     	;# 
  1182  0FE4                     	;# 
  1183  0FE5                     	;# 
  1184  0FE6                     	;# 
  1185  0FE7                     	;# 
  1186  0FE8                     	;# 
  1187  0FE9                     	;# 
  1188  0FEA                     	;# 
  1189  0FEB                     	;# 
  1190  0FED                     	;# 
  1191  0FEE                     	;# 
  1192  0FEF                     	;# 
  1193                           
  1194                           	psect	nvBANK1
  1195  00E3                     __pnvBANK1:
  1196  00E3                     _timer1ReloadVal:
  1197  00E3                     	ds	2
  1198  000B                     _INTCONbits	set	11
  1199  0015                     _TMR0	set	21
  1200  0019                     _T1GCONbits	set	25
  1201  0018                     _T1CONbits	set	24
  1202  0018                     _T1CON	set	24
  1203  0011                     _PIR1bits	set	17
  1204  0016                     _TMR1L	set	22
  1205  0017                     _TMR1H	set	23
  1206  0019                     _T1GCON	set	25
  1207  0095                     _OPTION_REGbits	set	149
  1208  008E                     _TRISC	set	142
  1209  008D                     _TRISB	set	141
  1210  008C                     _TRISA	set	140
  1211  0095                     _OPTION_REG	set	149
  1212  0097                     _WDTCON	set	151
  1213  0099                     _OSCCON	set	153
  1214  010E                     _LATCbits	set	270
  1215  010D                     _LATBbits	set	269
  1216  011D                     _APFCON	set	285
  1217  010E                     _LATC	set	270
  1218  010D                     _LATB	set	269
  1219  010C                     _LATA	set	268
  1220  0116                     _BORCON	set	278
  1221  018C                     _ANSELA	set	396
  1222  018D                     _ANSELB	set	397
  1223  018E                     _ANSELC	set	398
  1224  020C                     _WPUA	set	524
  1225  020D                     _WPUB	set	525
  1226                           
  1227                           	psect	stringtext1
  1228  1000                     __pstringtext1:
  1229  1000                     STR_2:
  1230  1000  3453               	retlw	83	;'S'
  1231  1001  3450               	retlw	80	;'P'
  1232  1002  3445               	retlw	69	;'E'
  1233  1003  3445               	retlw	69	;'E'
  1234  1004  3444               	retlw	68	;'D'
  1235  1005  3420               	retlw	32	;' '
  1236  1006  3452               	retlw	82	;'R'
  1237  1007  3450               	retlw	80	;'P'
  1238  1008  344D               	retlw	77	;'M'
  1239  1009  343A               	retlw	58	;':'
  1240  100A  3420               	retlw	32	;' '
  1241  100B  3400               	retlw	0
  1242                           
  1243                           	psect	stringtext2
  1244  100C                     __pstringtext2:
  1245  100C                     STR_1:
  1246  100C  344E               	retlw	78	;'N'
  1247  100D  342E               	retlw	46	;'.'
  1248  100E  344F               	retlw	79	;'O'
  1249  100F  3420               	retlw	32	;' '
  1250  1010  3452               	retlw	82	;'R'
  1251  1011  3445               	retlw	69	;'E'
  1252  1012  3456               	retlw	86	;'V'
  1253  1013  3453               	retlw	83	;'S'
  1254  1014  343A               	retlw	58	;':'
  1255  1015  3420               	retlw	32	;' '
  1256  1016  3400               	retlw	0
  1257                           
  1258                           	psect	stringtext3
  1259  1017                     __pstringtext3:
  1260  1017                     STR_3:
  1261  1017  3425               	retlw	37	;'%'
  1262  1018  3475               	retlw	117	;'u'
  1263  1019  3400               	retlw	0
  1264                           
  1265                           	psect	stringtext4
  1266  0000                     __pstringtext4:
  1267  1017                     
  1268                           	psect	cinit
  1269  07F5                     start_initialization:	
  1270                           ; #config settings
  1271                           
  1272  07F5                     __initialization:
  1273                           
  1274                           ; Clear objects allocated to BANK1
  1275  07F5  30A0               	movlw	low __pbssBANK1
  1276  07F6  0084               	movwf	4
  1277  07F7  3000               	movlw	high __pbssBANK1
  1278  07F8  0085               	movwf	5
  1279  07F9  3029               	movlw	41
  1280  07FA  318D  25E4  3187   	fcall	clear_ram0
  1281  07FD                     end_of_initialization:	
  1282                           ;End of C runtime variable initialization code
  1283                           
  1284  07FD                     __end_of__initialization:
  1285  07FD  0020               	movlb	0
  1286  07FE  3184  2CC0         	ljmp	_main	;jump to C main() function
  1287                           
  1288                           	psect	bssBANK1
  1289  00A0                     __pbssBANK1:
  1290  00A0                     _nout:
  1291  00A0                     	ds	2
  1292  00A2                     _width:
  1293  00A2                     	ds	2
  1294  00A4                     _prec:
  1295  00A4                     	ds	2
  1296  00A6                     _flags:
  1297  00A6                     	ds	2
  1298  00A8                     _timer0ReloadVal:
  1299  00A8                     	ds	1
  1300  00A9                     _dbuf:
  1301  00A9                     	ds	32
  1302                           
  1303                           	psect	clrtext
  1304  0DE4                     clear_ram0:	
  1305                           ;	Called with FSR0 containing the base address, and
  1306                           ;	WREG with the size to clear
  1307                           
  1308  0DE4  0064               	clrwdt	;clear the watchdog before getting into this loop
  1309  0DE5                     clrloop0:
  1310  0DE5  0180               	clrf	0	;clear RAM location pointed to by FSR
  1311  0DE6  3101               	addfsr 0,1
  1312  0DE7  0B89               	decfsz	9,f	;Have we reached the end of clearing yet?
  1313  0DE8  2DE5               	goto	clrloop0	;have we reached the end yet?
  1314  0DE9  3400               	retlw	0	;all done for this memory range, return
  1315                           
  1316                           	psect	cstackBANK1
  1317  00C9                     __pcstackBANK1:
  1318  00C9                     ??_main:
  1319                           
  1320                           ; 1 bytes @ 0x0
  1321  00C9                     	ds	2
  1322  00CB                     main@revs_Str:
  1323                           
  1324                           ; 10 bytes @ 0x2
  1325  00CB                     	ds	10
  1326  00D5                     main@speed_Str:
  1327                           
  1328                           ; 10 bytes @ 0xC
  1329  00D5                     	ds	10
  1330  00DF                     main@speed_rpm:
  1331                           
  1332                           ; 2 bytes @ 0x16
  1333  00DF                     	ds	2
  1334  00E1                     main@num_of_revs:
  1335                           
  1336                           ; 2 bytes @ 0x18
  1337  00E1                     	ds	2
  1338                           
  1339                           	psect	cstackCOMMON
  1340  0070                     __pcstackCOMMON:
  1341  0070                     ?_PIN_MANAGER_Initialize:
  1342  0070                     ??_PIN_MANAGER_Initialize:	
  1343                           ; 1 bytes @ 0x0
  1344                           
  1345  0070                     ?_OSCILLATOR_Initialize:	
  1346                           ; 1 bytes @ 0x0
  1347                           
  1348  0070                     ??_OSCILLATOR_Initialize:	
  1349                           ; 1 bytes @ 0x0
  1350                           
  1351  0070                     ?_WDT_Initialize:	
  1352                           ; 1 bytes @ 0x0
  1353                           
  1354  0070                     ??_WDT_Initialize:	
  1355                           ; 1 bytes @ 0x0
  1356                           
  1357  0070                     ?_TMR1_Initialize:	
  1358                           ; 1 bytes @ 0x0
  1359                           
  1360  0070                     ??_TMR1_Initialize:	
  1361                           ; 1 bytes @ 0x0
  1362                           
  1363  0070                     ?_TMR0_Initialize:	
  1364                           ; 1 bytes @ 0x0
  1365                           
  1366  0070                     ??_TMR0_Initialize:	
  1367                           ; 1 bytes @ 0x0
  1368                           
  1369  0070                     ?_LCD_Initialize:	
  1370                           ; 1 bytes @ 0x0
  1371                           
  1372  0070                     ?_LCDPutCmd:	
  1373                           ; 1 bytes @ 0x0
  1374                           
  1375  0070                     ?_putch:	
  1376                           ; 1 bytes @ 0x0
  1377                           
  1378  0070                     ??_putch:	
  1379                           ; 1 bytes @ 0x0
  1380                           
  1381  0070                     ?_SYSTEM_Initialize:	
  1382                           ; 1 bytes @ 0x0
  1383                           
  1384  0070                     ??_SYSTEM_Initialize:	
  1385                           ; 1 bytes @ 0x0
  1386                           
  1387  0070                     ?_main:	
  1388                           ; 1 bytes @ 0x0
  1389                           
  1390  0070                     ?_LCDWriteNibble:	
  1391                           ; 1 bytes @ 0x0
  1392                           
  1393  0070                     ?_LCDPutChar:	
  1394                           ; 1 bytes @ 0x0
  1395                           
  1396  0070                     ??___lodiv:	
  1397                           ; 1 bytes @ 0x0
  1398                           
  1399  0070                     ??___lomod:	
  1400                           ; 1 bytes @ 0x0
  1401                           
  1402  0070                     ?_fputc:	
  1403                           ; 1 bytes @ 0x0
  1404                           
  1405  0070                     ?_strlen:	
  1406                           ; 2 bytes @ 0x0
  1407                           
  1408  0070                     ?___wmul:	
  1409                           ; 2 bytes @ 0x0
  1410                           
  1411  0070                     LCDWriteNibble@rs:	
  1412                           ; 2 bytes @ 0x0
  1413                           
  1414  0070                     putch@c:	
  1415                           ; 1 bytes @ 0x0
  1416                           
  1417  0070                     ___wmul@multiplier:	
  1418                           ; 1 bytes @ 0x0
  1419                           
  1420  0070                     fputc@c:	
  1421                           ; 2 bytes @ 0x0
  1422                           
  1423                           
  1424                           ; 2 bytes @ 0x0
  1425  0070                     	ds	1
  1426  0071                     ??_LCDWriteNibble:
  1427  0071                     ___lomod@counter:	
  1428                           ; 1 bytes @ 0x1
  1429                           
  1430  0071                     ___lodiv@quotient:	
  1431                           ; 1 bytes @ 0x1
  1432                           
  1433                           
  1434                           ; 8 bytes @ 0x1
  1435  0071                     	ds	1
  1436  0072                     ??_strlen:
  1437  0072                     LCDWriteNibble@ch:	
  1438                           ; 1 bytes @ 0x2
  1439                           
  1440  0072                     fputc@fp:	
  1441                           ; 1 bytes @ 0x2
  1442                           
  1443  0072                     ___wmul@multiplicand:	
  1444                           ; 1 bytes @ 0x2
  1445                           
  1446                           
  1447                           ; 2 bytes @ 0x2
  1448  0072                     	ds	1
  1449  0073                     ??_LCDPutCmd:
  1450  0073                     ??_fputc:	
  1451                           ; 1 bytes @ 0x3
  1452                           
  1453  0073                     ??_LCDPutChar:	
  1454                           ; 1 bytes @ 0x3
  1455                           
  1456  0073                     strlen@a:	
  1457                           ; 1 bytes @ 0x3
  1458                           
  1459                           
  1460                           ; 1 bytes @ 0x3
  1461  0073                     	ds	1
  1462  0074                     ??___wmul:
  1463  0074                     strlen@s:	
  1464                           ; 1 bytes @ 0x4
  1465                           
  1466  0074                     ___wmul@product:	
  1467                           ; 1 bytes @ 0x4
  1468                           
  1469                           
  1470                           ; 2 bytes @ 0x4
  1471  0074                     	ds	1
  1472  0075                     LCDPutChar@ch:
  1473  0075                     LCDPutCmd@ch:	
  1474                           ; 1 bytes @ 0x5
  1475                           
  1476                           
  1477                           ; 1 bytes @ 0x5
  1478  0075                     	ds	1
  1479  0076                     ??_LCD_Initialize:
  1480  0076                     ?_LCDGoto:	
  1481                           ; 1 bytes @ 0x6
  1482                           
  1483  0076                     ?___awdiv:	
  1484                           ; 1 bytes @ 0x6
  1485                           
  1486  0076                     LCDGoto@ln:	
  1487                           ; 2 bytes @ 0x6
  1488                           
  1489  0076                     ___awdiv@divisor:	
  1490                           ; 1 bytes @ 0x6
  1491                           
  1492                           
  1493                           ; 2 bytes @ 0x6
  1494  0076                     	ds	1
  1495  0077                     ??_LCDGoto:
  1496  0077                     _LCDGoto$380:	
  1497                           ; 1 bytes @ 0x7
  1498                           
  1499                           
  1500                           ; 2 bytes @ 0x7
  1501  0077                     	ds	1
  1502  0078                     ?_fputs:
  1503  0078                     fputs@fp:	
  1504                           ; 2 bytes @ 0x8
  1505                           
  1506  0078                     ___awdiv@dividend:	
  1507                           ; 1 bytes @ 0x8
  1508                           
  1509                           
  1510                           ; 2 bytes @ 0x8
  1511  0078                     	ds	1
  1512  0079                     ??_fputs:
  1513  0079                     LCDGoto@pos:	
  1514                           ; 1 bytes @ 0x9
  1515                           
  1516  0079                     ___lodiv@counter:	
  1517                           ; 1 bytes @ 0x9
  1518                           
  1519                           
  1520                           ; 1 bytes @ 0x9
  1521  0079                     	ds	1
  1522  007A                     ?_LCDPutStr2:
  1523  007A                     ??___awdiv:	
  1524                           ; 1 bytes @ 0xA
  1525                           
  1526  007A                     LCDPutStr2@str:	
  1527                           ; 1 bytes @ 0xA
  1528                           
  1529                           
  1530                           ; 2 bytes @ 0xA
  1531  007A                     	ds	1
  1532  007B                     ___fltol@sign1:
  1533                           
  1534                           ; 1 bytes @ 0xB
  1535  007B                     	ds	1
  1536  007C                     ??_pad:
  1537  007C                     LCDPutStr2@_pos:	
  1538                           ; 1 bytes @ 0xC
  1539                           
  1540  007C                     ___fltol@exp1:	
  1541                           ; 1 bytes @ 0xC
  1542                           
  1543                           
  1544                           ; 1 bytes @ 0xC
  1545  007C                     	ds	1
  1546  007D                     ??_utoa:
  1547  007D                     LCDPutStr2@_line:	
  1548                           ; 1 bytes @ 0xD
  1549                           
  1550                           
  1551                           ; 1 bytes @ 0xD
  1552  007D                     	ds	1
  1553                           
  1554                           	psect	cstackBANK0
  1555  0020                     __pcstackBANK0:
  1556  0020                     ??_LCDPutStr2:
  1557  0020                     ?___lodiv:	
  1558                           ; 1 bytes @ 0x0
  1559                           
  1560  0020                     ?___lomod:	
  1561                           ; 8 bytes @ 0x0
  1562                           
  1563  0020                     ___awdiv@counter:	
  1564                           ; 8 bytes @ 0x0
  1565                           
  1566  0020                     fputs@c:	
  1567                           ; 1 bytes @ 0x0
  1568                           
  1569  0020                     ___lodiv@divisor:	
  1570                           ; 1 bytes @ 0x0
  1571                           
  1572  0020                     ___lomod@divisor:	
  1573                           ; 8 bytes @ 0x0
  1574                           
  1575                           
  1576                           ; 8 bytes @ 0x0
  1577  0020                     	ds	1
  1578  0021                     ___awdiv@sign:
  1579  0021                     fputs@i:	
  1580                           ; 1 bytes @ 0x1
  1581                           
  1582                           
  1583                           ; 2 bytes @ 0x1
  1584  0021                     	ds	1
  1585  0022                     ___awdiv@quotient:
  1586                           
  1587                           ; 2 bytes @ 0x2
  1588  0022                     	ds	1
  1589  0023                     LCDPutStr2@i:
  1590  0023                     fputs@s:	
  1591                           ; 1 bytes @ 0x3
  1592                           
  1593                           
  1594                           ; 1 bytes @ 0x3
  1595  0023                     	ds	1
  1596  0024                     ?_pad:
  1597  0024                     ?___xxtofl:	
  1598                           ; 2 bytes @ 0x4
  1599                           
  1600  0024                     pad@buf:	
  1601                           ; 4 bytes @ 0x4
  1602                           
  1603  0024                     ___xxtofl@val:	
  1604                           ; 1 bytes @ 0x4
  1605                           
  1606                           
  1607                           ; 4 bytes @ 0x4
  1608  0024                     	ds	1
  1609  0025                     pad@p:
  1610                           
  1611                           ; 2 bytes @ 0x5
  1612  0025                     	ds	2
  1613  0027                     pad@i:
  1614                           
  1615                           ; 2 bytes @ 0x7
  1616  0027                     	ds	1
  1617  0028                     ??___xxtofl:
  1618  0028                     ___lodiv@dividend:	
  1619                           ; 1 bytes @ 0x8
  1620                           
  1621  0028                     ___lomod@dividend:	
  1622                           ; 8 bytes @ 0x8
  1623                           
  1624                           
  1625                           ; 8 bytes @ 0x8
  1626  0028                     	ds	1
  1627  0029                     pad@w:
  1628                           
  1629                           ; 2 bytes @ 0x9
  1630  0029                     	ds	2
  1631  002B                     pad@fp:
  1632                           
  1633                           ; 1 bytes @ 0xB
  1634  002B                     	ds	1
  1635  002C                     ___xxtofl@sign:
  1636                           
  1637                           ; 1 bytes @ 0xC
  1638  002C                     	ds	1
  1639  002D                     ___xxtofl@exp:
  1640                           
  1641                           ; 1 bytes @ 0xD
  1642  002D                     	ds	1
  1643  002E                     ___xxtofl@arg:
  1644                           
  1645                           ; 4 bytes @ 0xE
  1646  002E                     	ds	2
  1647  0030                     ?_utoa:
  1648  0030                     utoa@d:	
  1649                           ; 2 bytes @ 0x10
  1650                           
  1651                           
  1652                           ; 8 bytes @ 0x10
  1653  0030                     	ds	2
  1654  0032                     ?___fladd:
  1655  0032                     ___fladd@b:	
  1656                           ; 4 bytes @ 0x12
  1657                           
  1658                           
  1659                           ; 4 bytes @ 0x12
  1660  0032                     	ds	4
  1661  0036                     ___fladd@a:
  1662                           
  1663                           ; 4 bytes @ 0x16
  1664  0036                     	ds	2
  1665  0038                     utoa@fp:
  1666                           
  1667                           ; 1 bytes @ 0x18
  1668  0038                     	ds	1
  1669  0039                     utoa@p:
  1670                           
  1671                           ; 2 bytes @ 0x19
  1672  0039                     	ds	1
  1673  003A                     ??___fladd:
  1674                           
  1675                           ; 1 bytes @ 0x1A
  1676  003A                     	ds	1
  1677  003B                     utoa@w:
  1678                           
  1679                           ; 2 bytes @ 0x1B
  1680  003B                     	ds	2
  1681  003D                     utoa@n:
  1682                           
  1683                           ; 8 bytes @ 0x1D
  1684  003D                     	ds	5
  1685  0042                     ___fladd@signs:
  1686                           
  1687                           ; 1 bytes @ 0x22
  1688  0042                     	ds	1
  1689  0043                     ___fladd@aexp:
  1690                           
  1691                           ; 1 bytes @ 0x23
  1692  0043                     	ds	1
  1693  0044                     ___fladd@bexp:
  1694                           
  1695                           ; 1 bytes @ 0x24
  1696  0044                     	ds	1
  1697  0045                     ___fladd@grs:
  1698  0045                     utoa@i:	
  1699                           ; 1 bytes @ 0x25
  1700                           
  1701                           
  1702                           ; 2 bytes @ 0x25
  1703  0045                     	ds	1
  1704  0046                     ?___fltol:
  1705  0046                     ___fltol@f1:	
  1706                           ; 4 bytes @ 0x26
  1707                           
  1708                           
  1709                           ; 4 bytes @ 0x26
  1710  0046                     	ds	1
  1711  0047                     ?_vfpfcnvrt:
  1712  0047                     vfpfcnvrt@fmt:	
  1713                           ; 2 bytes @ 0x27
  1714                           
  1715                           
  1716                           ; 1 bytes @ 0x27
  1717  0047                     	ds	1
  1718  0048                     vfpfcnvrt@ap:
  1719                           
  1720                           ; 1 bytes @ 0x28
  1721  0048                     	ds	1
  1722  0049                     ??_vfpfcnvrt:
  1723                           
  1724                           ; 1 bytes @ 0x29
  1725  0049                     	ds	1
  1726  004A                     ??___fltol:
  1727                           
  1728                           ; 1 bytes @ 0x2A
  1729  004A                     	ds	4
  1730  004E                     vfpfcnvrt@llu:
  1731                           
  1732                           ; 8 bytes @ 0x2E
  1733  004E                     	ds	8
  1734  0056                     vfpfcnvrt@fp:
  1735                           
  1736                           ; 1 bytes @ 0x36
  1737  0056                     	ds	1
  1738  0057                     ?_vfprintf:
  1739  0057                     vfprintf@fmt:	
  1740                           ; 2 bytes @ 0x37
  1741                           
  1742                           
  1743                           ; 2 bytes @ 0x37
  1744  0057                     	ds	2
  1745  0059                     vfprintf@ap:
  1746                           
  1747                           ; 1 bytes @ 0x39
  1748  0059                     	ds	1
  1749  005A                     ??_vfprintf:
  1750                           
  1751                           ; 1 bytes @ 0x3A
  1752  005A                     	ds	2
  1753  005C                     vfprintf@fp:
  1754                           
  1755                           ; 1 bytes @ 0x3C
  1756  005C                     	ds	1
  1757  005D                     vfprintf@cfmt:
  1758                           
  1759                           ; 2 bytes @ 0x3D
  1760  005D                     	ds	2
  1761  005F                     ?_sprintf:
  1762  005F                     sprintf@fmt:	
  1763                           ; 2 bytes @ 0x3F
  1764                           
  1765                           
  1766                           ; 2 bytes @ 0x3F
  1767  005F                     	ds	4
  1768  0063                     ??_sprintf:
  1769                           
  1770                           ; 1 bytes @ 0x43
  1771  0063                     	ds	1
  1772  0064                     sprintf@ap:
  1773                           
  1774                           ; 1 bytes @ 0x44
  1775  0064                     	ds	1
  1776  0065                     sprintf@s:
  1777                           
  1778                           ; 1 bytes @ 0x45
  1779  0065                     	ds	1
  1780  0066                     sprintf@f:
  1781                           
  1782                           ; 10 bytes @ 0x46
  1783  0066                     	ds	10
  1784                           
  1785                           	psect	maintext
  1786  04C0                     __pmaintext:	
  1787 ;;
  1788 ;;Main: autosize = 0, tempsize = 2, incstack = 0, save=0
  1789 ;;
  1790 ;; *************** function _main *****************
  1791 ;; Defined at:
  1792 ;;		line 63 in file "main.c"
  1793 ;; Parameters:    Size  Location     Type
  1794 ;;		None
  1795 ;; Auto vars:     Size  Location     Type
  1796 ;;  speed_Str      10   12[BANK1 ] unsigned char [10]
  1797 ;;  revs_Str       10    2[BANK1 ] unsigned char [10]
  1798 ;;  num_of_revs     2   24[BANK1 ] unsigned int 
  1799 ;;  speed_rpm       2   22[BANK1 ] unsigned int 
  1800 ;; Return value:  Size  Location     Type
  1801 ;;                  1    wreg      void 
  1802 ;; Registers used:
  1803 ;;		wreg, fsr0l, fsr0h, fsr1l, fsr1h, status,2, status,0, pclath, cstack
  1804 ;; Tracked objects:
  1805 ;;		On entry : B1F/0
  1806 ;;		On exit  : 0/0
  1807 ;;		Unchanged: 0/0
  1808 ;; Data sizes:     COMMON   BANK0   BANK1   BANK2   BANK3   BANK4   BANK5   BANK6
  1809 ;;      Params:         0       0       0       0       0       0       0       0
  1810 ;;      Locals:         0       0      24       0       0       0       0       0
  1811 ;;      Temps:          0       0       2       0       0       0       0       0
  1812 ;;      Totals:         0       0      26       0       0       0       0       0
  1813 ;;Total ram usage:       26 bytes
  1814 ;; Hardware stack levels required when called: 8
  1815 ;; This function calls:
  1816 ;;		_LCDPutStr2
  1817 ;;		_LCD_Initialize
  1818 ;;		_SYSTEM_Initialize
  1819 ;;		___awdiv
  1820 ;;		___fladd
  1821 ;;		___fltol
  1822 ;;		___wmul
  1823 ;;		___xxtofl
  1824 ;;		_sprintf
  1825 ;; This function is called by:
  1826 ;;		Startup code after reset
  1827 ;; This function uses a non-reentrant model
  1828 ;;
  1829                           
  1830  04C0                     _main:	
  1831                           ;psect for function _main
  1832                           
  1833  04C0                     l2236:	
  1834                           ;incstack = 0
  1835                           ; Regs used in _main: [wreg-fsr1h+status,2+status,0+pclath+cstack]
  1836                           
  1837                           
  1838                           ;main.c: 66:     SYSTEM_Initialize();
  1839  04C0  318E  2605  3184   	fcall	_SYSTEM_Initialize
  1840                           
  1841                           ;main.c: 67:     LCD_Initialize();
  1842  04C3  318E  2682  3184   	fcall	_LCD_Initialize
  1843  04C6                     l2238:
  1844                           
  1845                           ;main.c: 70:     TMR0 = 0;
  1846  04C6  0020               	movlb	0	; select bank0
  1847  04C7  0195               	clrf	21	;volatile
  1848  04C8                     l2240:
  1849                           
  1850                           ;main.c: 73:     unsigned int num_of_revs = 0;
  1851  04C8  0021               	movlb	1	; select bank1
  1852  04C9  01E1               	clrf	main@num_of_revs^(0+128)
  1853  04CA  01E2               	clrf	(main@num_of_revs+1)^(0+128)
  1854  04CB                     l2242:
  1855  04CB                     l2244:
  1856                           
  1857                           ;main.c: 75:     char revs_Str[10] ;;main.c: 76:     char speed_Str[10] ;;main.c: 81:   
      +                            LCDPutStr2("N.O REVS: ", 0, 0);
  1858  04CB  300C               	movlw	low (STR_1| (0+32768))
  1859  04CC  00FA               	movwf	LCDPutStr2@str
  1860  04CD  3090               	movlw	high (STR_1| (0+32768))
  1861  04CE  00FB               	movwf	LCDPutStr2@str+1
  1862  04CF  01FC               	clrf	LCDPutStr2@_pos
  1863  04D0  01FD               	clrf	LCDPutStr2@_line
  1864  04D1  3180  2004  3184   	fcall	_LCDPutStr2
  1865  04D4                     l2246:
  1866                           
  1867                           ;main.c: 82:     LCDPutStr2("SPEED RPM: ", 0, 1);
  1868  04D4  3000               	movlw	low (STR_2| (0+32768))
  1869  04D5  00FA               	movwf	LCDPutStr2@str
  1870  04D6  3090               	movlw	high (STR_2| (0+32768))
  1871  04D7  00FB               	movwf	LCDPutStr2@str+1
  1872  04D8  01FC               	clrf	LCDPutStr2@_pos
  1873  04D9  01FD               	clrf	LCDPutStr2@_line
  1874  04DA  0AFD               	incf	LCDPutStr2@_line,f
  1875  04DB  3180  2004  3184   	fcall	_LCDPutStr2
  1876  04DE                     l2248:
  1877                           
  1878                           ;main.c: 120:         _delay((unsigned long)((1000)*(1000000/4000.0)));
  1879  04DE  3002               	movlw	2
  1880  04DF  0021               	movlb	1	; select bank1
  1881  04E0  00CA               	movwf	(??_main^(0+128)+1)
  1882  04E1  3045               	movlw	69
  1883  04E2  00C9               	movwf	??_main^(0+128)
  1884  04E3  30A9               	movlw	169
  1885  04E4                     u2597:
  1886  04E4  0B89               	decfsz	9,f
  1887  04E5  2CE4               	goto	u2597
  1888  04E6  0BC9               	decfsz	??_main^(0+128),f
  1889  04E7  2CE4               	goto	u2597
  1890  04E8  0BCA               	decfsz	(??_main^(0+128)+1),f
  1891  04E9  2CE4               	goto	u2597
  1892  04EA  3200               	nop2
  1893  04EB                     l2250:
  1894                           
  1895                           ;main.c: 123:         speed_rpm = (float)((TMR0*60)/24);
  1896  04EB  303C               	movlw	60
  1897  04EC  00F2               	movwf	___wmul@multiplicand
  1898  04ED  3000               	movlw	0
  1899  04EE  00F3               	movwf	___wmul@multiplicand+1
  1900  04EF  0020               	movlb	0	; select bank0
  1901  04F0  0815               	movf	21,w	;volatile
  1902  04F1  0021               	movlb	1	; select bank1
  1903  04F2  00C9               	movwf	??_main^(0+128)
  1904  04F3  01CA               	clrf	(??_main^(0+128)+1)
  1905  04F4  0849               	movf	??_main^(0+128),w
  1906  04F5  00F0               	movwf	___wmul@multiplier
  1907  04F6  084A               	movf	(??_main+1)^(0+128),w
  1908  04F7  00F1               	movwf	___wmul@multiplier+1
  1909  04F8  318E  26A1  3184   	fcall	___wmul
  1910  04FB  0871               	movf	?___wmul+1,w
  1911  04FC  00F9               	movwf	___awdiv@dividend+1
  1912  04FD  0870               	movf	?___wmul,w
  1913  04FE  00F8               	movwf	___awdiv@dividend
  1914  04FF  3018               	movlw	24
  1915  0500  00F6               	movwf	___awdiv@divisor
  1916  0501  3000               	movlw	0
  1917  0502  00F7               	movwf	___awdiv@divisor+1
  1918  0503  3180  209A  3184   	fcall	___awdiv
  1919  0506  0876               	movf	?___awdiv,w
  1920  0507  0020               	movlb	0	; select bank0
  1921  0508  00A4               	movwf	___xxtofl@val
  1922  0509  0877               	movf	?___awdiv+1,w
  1923  050A  00A5               	movwf	___xxtofl@val+1
  1924  050B  0D89               	rlf	9,f
  1925  050C  3B89               	subwfb	9,f
  1926  050D  0989               	comf	9,f
  1927  050E  00A6               	movwf	___xxtofl@val+2
  1928  050F  00A7               	movwf	___xxtofl@val+3
  1929  0510  3001               	movlw	1
  1930  0511  3182  2264  3184   	fcall	___xxtofl
  1931  0514  0020               	movlb	0	; select bank0
  1932  0515  0827               	movf	?___xxtofl+3,w
  1933  0516  00C9               	movwf	___fltol@f1+3
  1934  0517  0826               	movf	?___xxtofl+2,w
  1935  0518  00C8               	movwf	___fltol@f1+2
  1936  0519  0825               	movf	?___xxtofl+1,w
  1937  051A  00C7               	movwf	___fltol@f1+1
  1938  051B  0824               	movf	?___xxtofl,w
  1939  051C  00C6               	movwf	___fltol@f1
  1940  051D  3181  216B  3184   	fcall	___fltol
  1941  0520  0020               	movlb	0	; select bank0
  1942  0521  0847               	movf	?___fltol+1,w
  1943  0522  0021               	movlb	1	; select bank1
  1944  0523  00E0               	movwf	(main@speed_rpm+1)^(0+128)
  1945  0524  0020               	movlb	0	; select bank0
  1946  0525  0846               	movf	?___fltol,w
  1947  0526  0021               	movlb	1	; select bank1
  1948  0527  00DF               	movwf	main@speed_rpm^(0+128)
  1949  0528                     l2252:
  1950                           
  1951                           ;main.c: 126:         num_of_revs = num_of_revs + (float)(TMR0/24);
  1952  0528  0861               	movf	main@num_of_revs^(0+128),w
  1953  0529  0020               	movlb	0	; select bank0
  1954  052A  00A4               	movwf	___xxtofl@val
  1955  052B  0021               	movlb	1	; select bank1
  1956  052C  0862               	movf	(main@num_of_revs+1)^(0+128),w
  1957  052D  0020               	movlb	0	; select bank0
  1958  052E  00A5               	movwf	___xxtofl@val+1
  1959  052F  01A6               	clrf	___xxtofl@val+2
  1960  0530  01A7               	clrf	___xxtofl@val+3
  1961  0531  3000               	movlw	0
  1962  0532  3182  2264  3184   	fcall	___xxtofl
  1963  0535  0020               	movlb	0	; select bank0
  1964  0536  0827               	movf	?___xxtofl+3,w
  1965  0537  00B9               	movwf	___fladd@a+3
  1966  0538  0826               	movf	?___xxtofl+2,w
  1967  0539  00B8               	movwf	___fladd@a+2
  1968  053A  0825               	movf	?___xxtofl+1,w
  1969  053B  00B7               	movwf	___fladd@a+1
  1970  053C  0824               	movf	?___xxtofl,w
  1971  053D  00B6               	movwf	___fladd@a
  1972  053E  0815               	movf	21,w	;volatile
  1973  053F  0021               	movlb	1	; select bank1
  1974  0540  00C9               	movwf	??_main^(0+128)
  1975  0541  01CA               	clrf	(??_main^(0+128)+1)
  1976  0542  0849               	movf	??_main^(0+128),w
  1977  0543  00F8               	movwf	___awdiv@dividend
  1978  0544  084A               	movf	(??_main+1)^(0+128),w
  1979  0545  00F9               	movwf	___awdiv@dividend+1
  1980  0546  3018               	movlw	24
  1981  0547  00F6               	movwf	___awdiv@divisor
  1982  0548  3000               	movlw	0
  1983  0549  00F7               	movwf	___awdiv@divisor+1
  1984  054A  3180  209A  3184   	fcall	___awdiv
  1985  054D  0876               	movf	?___awdiv,w
  1986  054E  0020               	movlb	0	; select bank0
  1987  054F  00A4               	movwf	___xxtofl@val
  1988  0550  0877               	movf	?___awdiv+1,w
  1989  0551  00A5               	movwf	___xxtofl@val+1
  1990  0552  0D89               	rlf	9,f
  1991  0553  3B89               	subwfb	9,f
  1992  0554  0989               	comf	9,f
  1993  0555  00A6               	movwf	___xxtofl@val+2
  1994  0556  00A7               	movwf	___xxtofl@val+3
  1995  0557  3001               	movlw	1
  1996  0558  3182  2264  3184   	fcall	___xxtofl
  1997  055B  0020               	movlb	0	; select bank0
  1998  055C  0827               	movf	?___xxtofl+3,w
  1999  055D  00B5               	movwf	___fladd@b+3
  2000  055E  0826               	movf	?___xxtofl+2,w
  2001  055F  00B4               	movwf	___fladd@b+2
  2002  0560  0825               	movf	?___xxtofl+1,w
  2003  0561  00B3               	movwf	___fladd@b+1
  2004  0562  0824               	movf	?___xxtofl,w
  2005  0563  00B2               	movwf	___fladd@b
  2006  0564  3185  25BD  3184   	fcall	___fladd
  2007  0567  0020               	movlb	0	; select bank0
  2008  0568  0835               	movf	?___fladd+3,w
  2009  0569  00C9               	movwf	___fltol@f1+3
  2010  056A  0834               	movf	?___fladd+2,w
  2011  056B  00C8               	movwf	___fltol@f1+2
  2012  056C  0833               	movf	?___fladd+1,w
  2013  056D  00C7               	movwf	___fltol@f1+1
  2014  056E  0832               	movf	?___fladd,w
  2015  056F  00C6               	movwf	___fltol@f1
  2016  0570  3181  216B  3184   	fcall	___fltol
  2017  0573  0020               	movlb	0	; select bank0
  2018  0574  0847               	movf	?___fltol+1,w
  2019  0575  0021               	movlb	1	; select bank1
  2020  0576  00E2               	movwf	(main@num_of_revs+1)^(0+128)
  2021  0577  0020               	movlb	0	; select bank0
  2022  0578  0846               	movf	?___fltol,w
  2023  0579  0021               	movlb	1	; select bank1
  2024  057A  00E1               	movwf	main@num_of_revs^(0+128)
  2025  057B                     l2254:
  2026                           
  2027                           ;main.c: 129:         sprintf(revs_Str, "%u", num_of_revs);
  2028  057B  3017               	movlw	low (STR_3| (0+32768))
  2029  057C  0020               	movlb	0	; select bank0
  2030  057D  00DF               	movwf	sprintf@fmt
  2031  057E  3090               	movlw	high (STR_3| (0+32768))
  2032  057F  00E0               	movwf	sprintf@fmt+1
  2033  0580  0021               	movlb	1	; select bank1
  2034  0581  0862               	movf	(main@num_of_revs+1)^(0+128),w
  2035  0582  0020               	movlb	0	; select bank0
  2036  0583  00E2               	movwf	?_sprintf+3
  2037  0584  0021               	movlb	1	; select bank1
  2038  0585  0861               	movf	main@num_of_revs^(0+128),w
  2039  0586  0020               	movlb	0	; select bank0
  2040  0587  00E1               	movwf	?_sprintf+2
  2041  0588  30CB               	movlw	(low (main@revs_Str| 0))& (0+255)
  2042  0589  318E  26C0  3184   	fcall	_sprintf
  2043  058C                     l2256:
  2044                           
  2045                           ;main.c: 130:         LCDPutStr2(revs_Str, 10, 0);
  2046  058C  30CB               	movlw	low main@revs_Str
  2047  058D  00FA               	movwf	LCDPutStr2@str
  2048  058E  3000               	movlw	high main@revs_Str
  2049  058F  00FB               	movwf	LCDPutStr2@str+1
  2050  0590  300A               	movlw	10
  2051  0591  0021               	movlb	1	; select bank1
  2052  0592  00C9               	movwf	??_main^(0+128)
  2053  0593  0849               	movf	??_main^(0+128),w
  2054  0594  00FC               	movwf	LCDPutStr2@_pos
  2055  0595  01FD               	clrf	LCDPutStr2@_line
  2056  0596  3180  2004  3184   	fcall	_LCDPutStr2
  2057  0599                     l2258:
  2058                           
  2059                           ;main.c: 133:         sprintf(speed_Str, "%u", speed_rpm);
  2060  0599  3017               	movlw	low (STR_3| (0+32768))
  2061  059A  0020               	movlb	0	; select bank0
  2062  059B  00DF               	movwf	sprintf@fmt
  2063  059C  3090               	movlw	high (STR_3| (0+32768))
  2064  059D  00E0               	movwf	sprintf@fmt+1
  2065  059E  0021               	movlb	1	; select bank1
  2066  059F  0860               	movf	(main@speed_rpm+1)^(0+128),w
  2067  05A0  0020               	movlb	0	; select bank0
  2068  05A1  00E2               	movwf	?_sprintf+3
  2069  05A2  0021               	movlb	1	; select bank1
  2070  05A3  085F               	movf	main@speed_rpm^(0+128),w
  2071  05A4  0020               	movlb	0	; select bank0
  2072  05A5  00E1               	movwf	?_sprintf+2
  2073  05A6  30D5               	movlw	(low (main@speed_Str| 0))& (0+255)
  2074  05A7  318E  26C0  3184   	fcall	_sprintf
  2075  05AA                     l2260:
  2076                           
  2077                           ;main.c: 134:         LCDPutStr2(speed_Str, 11, 1);
  2078  05AA  30D5               	movlw	low main@speed_Str
  2079  05AB  00FA               	movwf	LCDPutStr2@str
  2080  05AC  3000               	movlw	high main@speed_Str
  2081  05AD  00FB               	movwf	LCDPutStr2@str+1
  2082  05AE  300B               	movlw	11
  2083  05AF  0021               	movlb	1	; select bank1
  2084  05B0  00C9               	movwf	??_main^(0+128)
  2085  05B1  0849               	movf	??_main^(0+128),w
  2086  05B2  00FC               	movwf	LCDPutStr2@_pos
  2087  05B3  01FD               	clrf	LCDPutStr2@_line
  2088  05B4  0AFD               	incf	LCDPutStr2@_line,f
  2089  05B5  3180  2004  3184   	fcall	_LCDPutStr2
  2090  05B8                     l2262:
  2091                           
  2092                           ;main.c: 137:         TMR0 = 0;
  2093  05B8  0020               	movlb	0	; select bank0
  2094  05B9  0195               	clrf	21	;volatile
  2095  05BA  2CDE               	goto	l2248
  2096  05BB  3180  2802         	ljmp	start
  2097  05BD                     __end_of_main:
  2098                           
  2099                           	psect	text1
  2100  0EC0                     __ptext1:	
  2101 ;; *************** function _sprintf *****************
  2102 ;; Defined at:
  2103 ;;		line 9 in file "C:\Program Files\Microchip\xc8\v2.36\pic\sources\c99\common\nf_sprintf.c"
  2104 ;; Parameters:    Size  Location     Type
  2105 ;;  s               1    wreg     PTR unsigned char 
  2106 ;;		 -> main@speed_Str(10), main@revs_Str(10), 
  2107 ;;  fmt             2   63[BANK0 ] PTR const unsigned char 
  2108 ;;		 -> STR_4(3), STR_3(3), 
  2109 ;; Auto vars:     Size  Location     Type
  2110 ;;  s               1   69[BANK0 ] PTR unsigned char 
  2111 ;;		 -> main@speed_Str(10), main@revs_Str(10), 
  2112 ;;  f              10   70[BANK0 ] struct _IO_FILE
  2113 ;;  ret             2    0        int 
  2114 ;;  ap              1   68[BANK0 ] PTR void [1]
  2115 ;;		 -> ?_sprintf(2), 
  2116 ;; Return value:  Size  Location     Type
  2117 ;;                  2   63[BANK0 ] int 
  2118 ;; Registers used:
  2119 ;;		wreg, fsr0l, fsr0h, fsr1l, fsr1h, status,2, status,0, pclath, cstack
  2120 ;; Tracked objects:
  2121 ;;		On entry : 0/0
  2122 ;;		On exit  : 0/0
  2123 ;;		Unchanged: 0/0
  2124 ;; Data sizes:     COMMON   BANK0   BANK1   BANK2   BANK3   BANK4   BANK5   BANK6
  2125 ;;      Params:         0       4       0       0       0       0       0       0
  2126 ;;      Locals:         0      12       0       0       0       0       0       0
  2127 ;;      Temps:          0       1       0       0       0       0       0       0
  2128 ;;      Totals:         0      17       0       0       0       0       0       0
  2129 ;;Total ram usage:       17 bytes
  2130 ;; Hardware stack levels used: 1
  2131 ;; Hardware stack levels required when called: 7
  2132 ;; This function calls:
  2133 ;;		_vfprintf
  2134 ;; This function is called by:
  2135 ;;		_main
  2136 ;; This function uses a non-reentrant model
  2137 ;;
  2138                           
  2139  0EC0                     _sprintf:	
  2140                           ;psect for function _sprintf
  2141                           
  2142                           
  2143                           ;incstack = 0
  2144                           ; Regs used in _sprintf: [wreg-fsr1h+status,2+status,0+pclath+cstack]
  2145                           ;sprintf@s stored from wreg
  2146  0EC0  0020               	movlb	0	; select bank0
  2147  0EC1  00E5               	movwf	sprintf@s
  2148  0EC2                     l1888:
  2149  0EC2  3061               	movlw	(low ((?_sprintf| 0+2)))& (0+255)
  2150  0EC3  00E3               	movwf	??_sprintf
  2151  0EC4  0863               	movf	??_sprintf,w
  2152  0EC5  00E4               	movwf	sprintf@ap
  2153  0EC6  0865               	movf	sprintf@s,w
  2154  0EC7  00E3               	movwf	??_sprintf
  2155  0EC8  0863               	movf	??_sprintf,w
  2156  0EC9  00E6               	movwf	sprintf@f
  2157  0ECA                     l1890:
  2158  0ECA  01E8               	clrf	sprintf@f+2
  2159  0ECB  01E9               	clrf	sprintf@f+3
  2160  0ECC                     l1892:
  2161  0ECC  01EE               	clrf	sprintf@f+8
  2162  0ECD  01EF               	clrf	sprintf@f+9
  2163  0ECE                     l1894:
  2164  0ECE  0860               	movf	sprintf@fmt+1,w
  2165  0ECF  00D8               	movwf	vfprintf@fmt+1
  2166  0ED0  085F               	movf	sprintf@fmt,w
  2167  0ED1  00D7               	movwf	vfprintf@fmt
  2168  0ED2  3064               	movlw	(low (sprintf@ap| 0))& (0+255)
  2169  0ED3  00E3               	movwf	??_sprintf
  2170  0ED4  0863               	movf	??_sprintf,w
  2171  0ED5  00D9               	movwf	vfprintf@ap
  2172  0ED6  3066               	movlw	(low (sprintf@f| 0))& (0+255)
  2173  0ED7  318F  2732  318E   	fcall	_vfprintf
  2174  0EDA                     l1896:
  2175  0EDA  0020               	movlb	0	; select bank0
  2176  0EDB  0868               	movf	sprintf@f+2,w
  2177  0EDC  0765               	addwf	sprintf@s,w
  2178  0EDD  00E3               	movwf	??_sprintf
  2179  0EDE  0863               	movf	??_sprintf,w
  2180  0EDF  0086               	movwf	6
  2181  0EE0  0187               	clrf	7
  2182  0EE1  0181               	clrf	1
  2183  0EE2                     l732:
  2184  0EE2  0008               	return
  2185  0EE3                     __end_of_sprintf:
  2186                           
  2187                           	psect	text2
  2188  0F32                     __ptext2:	
  2189 ;; *************** function _vfprintf *****************
  2190 ;; Defined at:
  2191 ;;		line 1390 in file "C:\Program Files\Microchip\xc8\v2.36\pic\sources\c99\common\doprnt.c"
  2192 ;; Parameters:    Size  Location     Type
  2193 ;;  fp              1    wreg     PTR struct _IO_FILE
  2194 ;;		 -> sprintf@f(10), 
  2195 ;;  fmt             2   55[BANK0 ] PTR const unsigned char 
  2196 ;;		 -> STR_4(3), STR_3(3), 
  2197 ;;  ap              1   57[BANK0 ] PTR PTR void 
  2198 ;;		 -> sprintf@ap(1), 
  2199 ;; Auto vars:     Size  Location     Type
  2200 ;;  fp              1   60[BANK0 ] PTR struct _IO_FILE
  2201 ;;		 -> sprintf@f(10), 
  2202 ;;  cfmt            2   61[BANK0 ] PTR unsigned char 
  2203 ;;		 -> STR_4(3), STR_3(3), 
  2204 ;; Return value:  Size  Location     Type
  2205 ;;                  2   55[BANK0 ] int 
  2206 ;; Registers used:
  2207 ;;		wreg, fsr0l, fsr0h, fsr1l, fsr1h, status,2, status,0, pclath, cstack
  2208 ;; Tracked objects:
  2209 ;;		On entry : 0/0
  2210 ;;		On exit  : 0/0
  2211 ;;		Unchanged: 0/0
  2212 ;; Data sizes:     COMMON   BANK0   BANK1   BANK2   BANK3   BANK4   BANK5   BANK6
  2213 ;;      Params:         0       3       0       0       0       0       0       0
  2214 ;;      Locals:         0       3       0       0       0       0       0       0
  2215 ;;      Temps:          0       2       0       0       0       0       0       0
  2216 ;;      Totals:         0       8       0       0       0       0       0       0
  2217 ;;Total ram usage:        8 bytes
  2218 ;; Hardware stack levels used: 1
  2219 ;; Hardware stack levels required when called: 6
  2220 ;; This function calls:
  2221 ;;		_vfpfcnvrt
  2222 ;; This function is called by:
  2223 ;;		_sprintf
  2224 ;; This function uses a non-reentrant model
  2225 ;;
  2226                           
  2227  0F32                     _vfprintf:	
  2228                           ;psect for function _vfprintf
  2229                           
  2230                           
  2231                           ;incstack = 0
  2232                           ; Regs used in _vfprintf: [wreg-fsr1h+status,2+status,0+pclath+cstack]
  2233                           ;vfprintf@fp stored from wreg
  2234  0F32  0020               	movlb	0	; select bank0
  2235  0F33  00DC               	movwf	vfprintf@fp
  2236  0F34                     l1832:
  2237                           
  2238                           ;C:\Program Files\Microchip\xc8\v2.36\pic\sources\c99\common\doprnt.c: 1390: int vfprint
      +                          f(FILE *fp, const char *fmt, va_list ap);C:\Program Files\Microchip\xc8\v2.36\pic\source
      +                          s\c99\common\doprnt.c: 1391: {;C:\Program Files\Microchip\xc8\v2.36\pic\sources\c99\comm
      +                          on\doprnt.c: 1393:     char *cfmt;;C:\Program Files\Microchip\xc8\v2.36\pic\sources\c99\
      +                          common\doprnt.c: 1395:     cfmt = (char *)fmt;
  2239  0F34  0858               	movf	vfprintf@fmt+1,w
  2240  0F35  00DE               	movwf	vfprintf@cfmt+1
  2241  0F36  0857               	movf	vfprintf@fmt,w
  2242  0F37  00DD               	movwf	vfprintf@cfmt
  2243  0F38                     l1834:
  2244                           
  2245                           ;C:\Program Files\Microchip\xc8\v2.36\pic\sources\c99\common\doprnt.c: 1396:     nout = 
      +                          0;
  2246  0F38  0021               	movlb	1	; select bank1
  2247  0F39  01A0               	clrf	_nout^(0+128)
  2248  0F3A  01A1               	clrf	(_nout+1)^(0+128)
  2249                           
  2250                           ;C:\Program Files\Microchip\xc8\v2.36\pic\sources\c99\common\doprnt.c: 1397:     while (
      +                          *cfmt) {
  2251  0F3B  2F50               	goto	l1838
  2252  0F3C                     l1836:
  2253                           
  2254                           ;C:\Program Files\Microchip\xc8\v2.36\pic\sources\c99\common\doprnt.c: 1398:         nou
      +                          t += vfpfcnvrt(fp, &cfmt, ap);
  2255  0F3C  305D               	movlw	(low (vfprintf@cfmt| 0))& (0+255)
  2256  0F3D  00DA               	movwf	??_vfprintf
  2257  0F3E  085A               	movf	??_vfprintf,w
  2258  0F3F  00C7               	movwf	vfpfcnvrt@fmt
  2259  0F40  0859               	movf	vfprintf@ap,w
  2260  0F41  00DB               	movwf	??_vfprintf+1
  2261  0F42  085B               	movf	??_vfprintf+1,w
  2262  0F43  00C8               	movwf	vfpfcnvrt@ap
  2263  0F44  085C               	movf	vfprintf@fp,w
  2264  0F45  3183  2311  318F   	fcall	_vfpfcnvrt
  2265  0F48  0020               	movlb	0	; select bank0
  2266  0F49  0847               	movf	?_vfpfcnvrt,w
  2267  0F4A  0021               	movlb	1	; select bank1
  2268  0F4B  07A0               	addwf	_nout^(0+128),f
  2269  0F4C  0020               	movlb	0	; select bank0
  2270  0F4D  0848               	movf	?_vfpfcnvrt+1,w
  2271  0F4E  0021               	movlb	1	; select bank1
  2272  0F4F  3DA1               	addwfc	(_nout+1)^(0+128),f
  2273  0F50                     l1838:
  2274                           
  2275                           ;C:\Program Files\Microchip\xc8\v2.36\pic\sources\c99\common\doprnt.c: 1397:     while (
      +                          *cfmt) {
  2276  0F50  0020               	movlb	0	; select bank0
  2277  0F51  085D               	movf	vfprintf@cfmt,w
  2278  0F52  0084               	movwf	4
  2279  0F53  085E               	movf	vfprintf@cfmt+1,w
  2280  0F54  0085               	movwf	5
  2281  0F55  0012               	moviw fsr0++
  2282  0F56  1D03               	btfss	3,2
  2283  0F57  2F59               	goto	u1721
  2284  0F58  2F5A               	goto	u1720
  2285  0F59                     u1721:
  2286  0F59  2F3C               	goto	l1836
  2287  0F5A                     u1720:
  2288  0F5A                     l1840:
  2289                           
  2290                           ;C:\Program Files\Microchip\xc8\v2.36\pic\sources\c99\common\doprnt.c: 1400:     return 
      +                          nout;
  2291  0F5A  0021               	movlb	1	; select bank1
  2292  0F5B  0821               	movf	(_nout+1)^(0+128),w
  2293  0F5C  0020               	movlb	0	; select bank0
  2294  0F5D  00D8               	movwf	?_vfprintf+1
  2295  0F5E  0021               	movlb	1	; select bank1
  2296  0F5F  0820               	movf	_nout^(0+128),w
  2297  0F60  0020               	movlb	0	; select bank0
  2298  0F61  00D7               	movwf	?_vfprintf
  2299  0F62                     l789:
  2300  0F62  0008               	return
  2301  0F63                     __end_of_vfprintf:
  2302                           
  2303                           	psect	text3
  2304  0311                     __ptext3:	
  2305 ;; *************** function _vfpfcnvrt *****************
  2306 ;; Defined at:
  2307 ;;		line 692 in file "C:\Program Files\Microchip\xc8\v2.36\pic\sources\c99\common\doprnt.c"
  2308 ;; Parameters:    Size  Location     Type
  2309 ;;  fp              1    wreg     PTR struct _IO_FILE
  2310 ;;		 -> sprintf@f(10), 
  2311 ;;  fmt             1   39[BANK0 ] PTR PTR unsigned char 
  2312 ;;		 -> vfprintf@cfmt(2), 
  2313 ;;  ap              1   40[BANK0 ] PTR PTR void 
  2314 ;;		 -> sprintf@ap(1), 
  2315 ;; Auto vars:     Size  Location     Type
  2316 ;;  fp              1   54[BANK0 ] PTR struct _IO_FILE
  2317 ;;		 -> sprintf@f(10), 
  2318 ;;  llu             8   46[BANK0 ] unsigned long long 
  2319 ;;  ll              8    0        long long 
  2320 ;;  f               4    0        long long 
  2321 ;;  ct              3    0        unsigned char [3]
  2322 ;;  vp              2    0        PTR void 
  2323 ;;  i               2    0        int 
  2324 ;;  done            2    0        int 
  2325 ;;  cp              2    0        PTR unsigned char 
  2326 ;;  c               1    0        unsigned char 
  2327 ;; Return value:  Size  Location     Type
  2328 ;;                  2   39[BANK0 ] int 
  2329 ;; Registers used:
  2330 ;;		wreg, fsr0l, fsr0h, fsr1l, fsr1h, status,2, status,0, pclath, cstack
  2331 ;; Tracked objects:
  2332 ;;		On entry : 0/0
  2333 ;;		On exit  : 0/0
  2334 ;;		Unchanged: 0/0
  2335 ;; Data sizes:     COMMON   BANK0   BANK1   BANK2   BANK3   BANK4   BANK5   BANK6
  2336 ;;      Params:         0       2       0       0       0       0       0       0
  2337 ;;      Locals:         0       9       0       0       0       0       0       0
  2338 ;;      Temps:          0       5       0       0       0       0       0       0
  2339 ;;      Totals:         0      16       0       0       0       0       0       0
  2340 ;;Total ram usage:       16 bytes
  2341 ;; Hardware stack levels used: 1
  2342 ;; Hardware stack levels required when called: 5
  2343 ;; This function calls:
  2344 ;;		_fputc
  2345 ;;		_utoa
  2346 ;; This function is called by:
  2347 ;;		_vfprintf
  2348 ;; This function uses a non-reentrant model
  2349 ;;
  2350                           
  2351  0311                     _vfpfcnvrt:	
  2352                           ;psect for function _vfpfcnvrt
  2353                           
  2354                           
  2355                           ;incstack = 0
  2356                           ; Regs used in _vfpfcnvrt: [wreg-fsr1h+status,2+status,0+pclath+cstack]
  2357                           ;vfpfcnvrt@fp stored from wreg
  2358  0311  0020               	movlb	0	; select bank0
  2359  0312  00D6               	movwf	vfpfcnvrt@fp
  2360  0313                     l1734:
  2361                           
  2362                           ;C:\Program Files\Microchip\xc8\v2.36\pic\sources\c99\common\doprnt.c: 692: static int v
      +                          fpfcnvrt(FILE *fp, char *fmt[], va_list ap);C:\Program Files\Microchip\xc8\v2.36\pic\sou
      +                          rces\c99\common\doprnt.c: 693: {;C:\Program Files\Microchip\xc8\v2.36\pic\sources\c99\co
      +                          mmon\doprnt.c: 694:     char c, *cp, ct[3];;C:\Program Files\Microchip\xc8\v2.36\pic\sou
      +                          rces\c99\common\doprnt.c: 695:     int done, i;;C:\Program Files\Microchip\xc8\v2.36\pic
      +                          \sources\c99\common\doprnt.c: 696:     long long ll;;C:\Program Files\Microchip\xc8\v2.3
      +                          6\pic\sources\c99\common\doprnt.c: 697:     unsigned long long llu;
  2363  0313  0847               	movf	vfpfcnvrt@fmt,w
  2364  0314  0086               	movwf	6
  2365  0315  0187               	clrf	7
  2366  0316  3F40               	moviw [0]fsr1
  2367  0317  00C9               	movwf	??_vfpfcnvrt
  2368  0318  3F41               	moviw [1]fsr1
  2369  0319  00CA               	movwf	??_vfpfcnvrt+1
  2370  031A  0849               	movf	??_vfpfcnvrt,w
  2371  031B  0084               	movwf	4
  2372  031C  084A               	movf	??_vfpfcnvrt+1,w
  2373  031D  0085               	movwf	5
  2374  031E  0012               	moviw fsr0++
  2375  031F  3A25               	xorlw	37
  2376  0320  1D03               	btfss	3,2
  2377  0321  2B23               	goto	u1651
  2378  0322  2B24               	goto	u1650
  2379  0323                     u1651:
  2380  0323  2BB0               	goto	l1768
  2381  0324                     u1650:
  2382  0324                     l1736:
  2383                           
  2384                           ;C:\Program Files\Microchip\xc8\v2.36\pic\sources\c99\common\doprnt.c: 703:         ++*f
      +                          mt;
  2385  0324  0847               	movf	vfpfcnvrt@fmt,w
  2386  0325  0086               	movwf	6
  2387  0326  0187               	clrf	7
  2388  0327  3001               	movlw	1
  2389  0328  0781               	addwf	1,f
  2390  0329  3141               	addfsr 1,1
  2391  032A  1803               	skipnc
  2392  032B  0A81               	incf	1,f
  2393  032C                     l1738:
  2394                           
  2395                           ;C:\Program Files\Microchip\xc8\v2.36\pic\sources\c99\common\doprnt.c: 705:         flag
      +                          s = width = 0;
  2396  032C  0021               	movlb	1	; select bank1
  2397  032D  01A2               	clrf	_width^(0+128)
  2398  032E  01A3               	clrf	(_width+1)^(0+128)
  2399  032F  01A6               	clrf	_flags^(0+128)
  2400  0330  01A7               	clrf	(_flags+1)^(0+128)
  2401  0331                     l1740:
  2402                           
  2403                           ;C:\Program Files\Microchip\xc8\v2.36\pic\sources\c99\common\doprnt.c: 706:         prec
      +                           = -1;
  2404  0331  30FF               	movlw	255
  2405  0332  00A4               	movwf	_prec^(0+128)
  2406  0333  30FF               	movlw	255
  2407  0334  00A5               	movwf	(_prec^(0+128)+1)
  2408  0335                     l1742:
  2409                           
  2410                           ;C:\Program Files\Microchip\xc8\v2.36\pic\sources\c99\common\doprnt.c: 1204:         if 
      +                          (*fmt[0] == 'u') {
  2411  0335  0020               	movlb	0	; select bank0
  2412  0336  0847               	movf	vfpfcnvrt@fmt,w
  2413  0337  0086               	movwf	6
  2414  0338  0187               	clrf	7
  2415  0339  3F40               	moviw [0]fsr1
  2416  033A  00C9               	movwf	??_vfpfcnvrt
  2417  033B  3F41               	moviw [1]fsr1
  2418  033C  00CA               	movwf	??_vfpfcnvrt+1
  2419  033D  0849               	movf	??_vfpfcnvrt,w
  2420  033E  0084               	movwf	4
  2421  033F  084A               	movf	??_vfpfcnvrt+1,w
  2422  0340  0085               	movwf	5
  2423  0341  0012               	moviw fsr0++
  2424  0342  3A75               	xorlw	117
  2425  0343  1D03               	btfss	3,2
  2426  0344  2B46               	goto	u1661
  2427  0345  2B47               	goto	u1660
  2428  0346                     u1661:
  2429  0346  2B7B               	goto	l1752
  2430  0347                     u1660:
  2431  0347                     l1744:
  2432                           
  2433                           ;C:\Program Files\Microchip\xc8\v2.36\pic\sources\c99\common\doprnt.c: 1206:            
      +                           ++*fmt;
  2434  0347  0847               	movf	vfpfcnvrt@fmt,w
  2435  0348  0086               	movwf	6
  2436  0349  0187               	clrf	7
  2437  034A  3001               	movlw	1
  2438  034B  0781               	addwf	1,f
  2439  034C  3141               	addfsr 1,1
  2440  034D  1803               	skipnc
  2441  034E  0A81               	incf	1,f
  2442  034F                     l1746:
  2443                           
  2444                           ;C:\Program Files\Microchip\xc8\v2.36\pic\sources\c99\common\doprnt.c: 1207:            
      +                           llu = (unsigned long long)(*(unsigned int *)__va_arg(*(unsigned int **)ap, (unsigned in
      +                          t)0));
  2445  034F  0848               	movf	vfpfcnvrt@ap,w
  2446  0350  0086               	movwf	6
  2447  0351  0187               	clrf	7
  2448  0352  0801               	movf	1,w
  2449  0353  0084               	movwf	4
  2450  0354  0185               	clrf	5
  2451  0355  3002               	movlw	2
  2452  0356  0781               	addwf	1,f
  2453  0357  3F00               	moviw [0]fsr0
  2454  0358  00CE               	movwf	vfpfcnvrt@llu
  2455  0359  3F01               	moviw [1]fsr0
  2456  035A  00CF               	movwf	vfpfcnvrt@llu+1
  2457  035B  01D0               	clrf	vfpfcnvrt@llu+2
  2458  035C  01D1               	clrf	vfpfcnvrt@llu+3
  2459  035D  01D2               	clrf	vfpfcnvrt@llu+4
  2460  035E  01D3               	clrf	vfpfcnvrt@llu+5
  2461  035F  01D4               	clrf	vfpfcnvrt@llu+6
  2462  0360  01D5               	clrf	vfpfcnvrt@llu+7
  2463  0361                     l1748:
  2464                           
  2465                           ;C:\Program Files\Microchip\xc8\v2.36\pic\sources\c99\common\doprnt.c: 1209:            
      +                           return utoa(fp, llu);
  2466  0361  084E               	movf	vfpfcnvrt@llu,w
  2467  0362  00B0               	movwf	utoa@d
  2468  0363  084F               	movf	vfpfcnvrt@llu+1,w
  2469  0364  00B1               	movwf	utoa@d+1
  2470  0365  0850               	movf	vfpfcnvrt@llu+2,w
  2471  0366  00B2               	movwf	utoa@d+2
  2472  0367  0851               	movf	vfpfcnvrt@llu+3,w
  2473  0368  00B3               	movwf	utoa@d+3
  2474  0369  0852               	movf	vfpfcnvrt@llu+4,w
  2475  036A  00B4               	movwf	utoa@d+4
  2476  036B  0853               	movf	vfpfcnvrt@llu+5,w
  2477  036C  00B5               	movwf	utoa@d+5
  2478  036D  0854               	movf	vfpfcnvrt@llu+6,w
  2479  036E  00B6               	movwf	utoa@d+6
  2480  036F  0855               	movf	vfpfcnvrt@llu+7,w
  2481  0370  00B7               	movwf	utoa@d+7
  2482  0371  0856               	movf	vfpfcnvrt@fp,w
  2483  0372  3183  23D4  3183   	fcall	_utoa
  2484  0375  0020               	movlb	0	; select bank0
  2485  0376  0831               	movf	?_utoa+1,w
  2486  0377  00C8               	movwf	?_vfpfcnvrt+1
  2487  0378  0830               	movf	?_utoa,w
  2488  0379  00C7               	movwf	?_vfpfcnvrt
  2489  037A  2BD3               	goto	l782
  2490  037B                     l1752:
  2491                           
  2492                           ;C:\Program Files\Microchip\xc8\v2.36\pic\sources\c99\common\doprnt.c: 1372:         if 
      +                          ((*fmt)[0] == '%') {
  2493  037B  0847               	movf	vfpfcnvrt@fmt,w
  2494  037C  0086               	movwf	6
  2495  037D  0187               	clrf	7
  2496  037E  3F40               	moviw [0]fsr1
  2497  037F  00C9               	movwf	??_vfpfcnvrt
  2498  0380  3F41               	moviw [1]fsr1
  2499  0381  00CA               	movwf	??_vfpfcnvrt+1
  2500  0382  0849               	movf	??_vfpfcnvrt,w
  2501  0383  0084               	movwf	4
  2502  0384  084A               	movf	??_vfpfcnvrt+1,w
  2503  0385  0085               	movwf	5
  2504  0386  0012               	moviw fsr0++
  2505  0387  3A25               	xorlw	37
  2506  0388  1D03               	btfss	3,2
  2507  0389  2B8B               	goto	u1671
  2508  038A  2B8C               	goto	u1670
  2509  038B                     u1671:
  2510  038B  2BA5               	goto	l1762
  2511  038C                     u1670:
  2512  038C                     l1754:
  2513                           
  2514                           ;C:\Program Files\Microchip\xc8\v2.36\pic\sources\c99\common\doprnt.c: 1373:            
      +                           ++*fmt;
  2515  038C  0847               	movf	vfpfcnvrt@fmt,w
  2516  038D  0086               	movwf	6
  2517  038E  0187               	clrf	7
  2518  038F  3001               	movlw	1
  2519  0390  0781               	addwf	1,f
  2520  0391  3141               	addfsr 1,1
  2521  0392  1803               	skipnc
  2522  0393  0A81               	incf	1,f
  2523  0394                     l1756:
  2524                           
  2525                           ;C:\Program Files\Microchip\xc8\v2.36\pic\sources\c99\common\doprnt.c: 1374:            
      +                           fputc((int)'%', fp);
  2526  0394  3025               	movlw	37
  2527  0395  00F0               	movwf	fputc@c
  2528  0396  3000               	movlw	0
  2529  0397  00F1               	movwf	fputc@c+1
  2530  0398  0856               	movf	vfpfcnvrt@fp,w
  2531  0399  00C9               	movwf	??_vfpfcnvrt
  2532  039A  0849               	movf	??_vfpfcnvrt,w
  2533  039B  00F2               	movwf	fputc@fp
  2534  039C  318F  27AE  3183   	fcall	_fputc
  2535  039F                     l1758:
  2536                           
  2537                           ;C:\Program Files\Microchip\xc8\v2.36\pic\sources\c99\common\doprnt.c: 1375:            
      +                           return 1;
  2538  039F  3001               	movlw	1
  2539  03A0  0020               	movlb	0	; select bank0
  2540  03A1  00C7               	movwf	?_vfpfcnvrt
  2541  03A2  3000               	movlw	0
  2542  03A3  00C8               	movwf	?_vfpfcnvrt+1
  2543  03A4  2BD3               	goto	l782
  2544  03A5                     l1762:
  2545                           
  2546                           ;C:\Program Files\Microchip\xc8\v2.36\pic\sources\c99\common\doprnt.c: 1379:         ++*
      +                          fmt;
  2547  03A5  0847               	movf	vfpfcnvrt@fmt,w
  2548  03A6  0086               	movwf	6
  2549  03A7  0187               	clrf	7
  2550  03A8  3001               	movlw	1
  2551  03A9  0781               	addwf	1,f
  2552  03AA  3141               	addfsr 1,1
  2553  03AB  1803               	skipnc
  2554  03AC  0A81               	incf	1,f
  2555  03AD                     l1764:
  2556                           
  2557                           ;C:\Program Files\Microchip\xc8\v2.36\pic\sources\c99\common\doprnt.c: 1380:         ret
      +                          urn 0;
  2558  03AD  01C7               	clrf	?_vfpfcnvrt
  2559  03AE  01C8               	clrf	?_vfpfcnvrt+1
  2560  03AF  2BD3               	goto	l782
  2561  03B0                     l1768:
  2562                           
  2563                           ;C:\Program Files\Microchip\xc8\v2.36\pic\sources\c99\common\doprnt.c: 1384:     fputc((
      +                          int)(*fmt)[0], fp);
  2564  03B0  0847               	movf	vfpfcnvrt@fmt,w
  2565  03B1  0086               	movwf	6
  2566  03B2  0187               	clrf	7
  2567  03B3  3F40               	moviw [0]fsr1
  2568  03B4  00C9               	movwf	??_vfpfcnvrt
  2569  03B5  3F41               	moviw [1]fsr1
  2570  03B6  00CA               	movwf	??_vfpfcnvrt+1
  2571  03B7  0849               	movf	??_vfpfcnvrt,w
  2572  03B8  0084               	movwf	4
  2573  03B9  084A               	movf	??_vfpfcnvrt+1,w
  2574  03BA  0085               	movwf	5
  2575  03BB  0800               	movf	0,w	;code access
  2576  03BC  00CB               	movwf	??_vfpfcnvrt+2
  2577  03BD  01CC               	clrf	??_vfpfcnvrt+3
  2578  03BE  084B               	movf	??_vfpfcnvrt+2,w
  2579  03BF  00F0               	movwf	fputc@c
  2580  03C0  084C               	movf	??_vfpfcnvrt+3,w
  2581  03C1  00F1               	movwf	fputc@c+1
  2582  03C2  0856               	movf	vfpfcnvrt@fp,w
  2583  03C3  00CD               	movwf	??_vfpfcnvrt+4
  2584  03C4  084D               	movf	??_vfpfcnvrt+4,w
  2585  03C5  00F2               	movwf	fputc@fp
  2586  03C6  318F  27AE  3183   	fcall	_fputc
  2587  03C9                     l1770:
  2588                           
  2589                           ;C:\Program Files\Microchip\xc8\v2.36\pic\sources\c99\common\doprnt.c: 1385:     ++*fmt;
  2590  03C9  0020               	movlb	0	; select bank0
  2591  03CA  0847               	movf	vfpfcnvrt@fmt,w
  2592  03CB  0086               	movwf	6
  2593  03CC  0187               	clrf	7
  2594  03CD  3001               	movlw	1
  2595  03CE  0781               	addwf	1,f
  2596  03CF  3141               	addfsr 1,1
  2597  03D0  1803               	skipnc
  2598  03D1  0A81               	incf	1,f
  2599  03D2  2B9F               	goto	l1758
  2600  03D3                     l782:
  2601  03D3  0008               	return
  2602  03D4                     __end_of_vfpfcnvrt:
  2603                           
  2604                           	psect	text4
  2605  03D4                     __ptext4:	
  2606 ;; *************** function _utoa *****************
  2607 ;; Defined at:
  2608 ;;		line 615 in file "C:\Program Files\Microchip\xc8\v2.36\pic\sources\c99\common\doprnt.c"
  2609 ;; Parameters:    Size  Location     Type
  2610 ;;  fp              1    wreg     PTR struct _IO_FILE
  2611 ;;		 -> sprintf@f(10), 
  2612 ;;  d               8   16[BANK0 ] unsigned long long 
  2613 ;; Auto vars:     Size  Location     Type
  2614 ;;  fp              1   24[BANK0 ] PTR struct _IO_FILE
  2615 ;;		 -> sprintf@f(10), 
  2616 ;;  n               8   29[BANK0 ] unsigned long long 
  2617 ;;  i               2   37[BANK0 ] int 
  2618 ;;  w               2   27[BANK0 ] int 
  2619 ;;  p               2   25[BANK0 ] int 
  2620 ;; Return value:  Size  Location     Type
  2621 ;;                  2   16[BANK0 ] int 
  2622 ;; Registers used:
  2623 ;;		wreg, fsr0l, fsr0h, fsr1l, fsr1h, status,2, status,0, pclath, cstack
  2624 ;; Tracked objects:
  2625 ;;		On entry : 0/0
  2626 ;;		On exit  : 0/0
  2627 ;;		Unchanged: 0/0
  2628 ;; Data sizes:     COMMON   BANK0   BANK1   BANK2   BANK3   BANK4   BANK5   BANK6
  2629 ;;      Params:         0       8       0       0       0       0       0       0
  2630 ;;      Locals:         0      15       0       0       0       0       0       0
  2631 ;;      Temps:          1       0       0       0       0       0       0       0
  2632 ;;      Totals:         1      23       0       0       0       0       0       0
  2633 ;;Total ram usage:       24 bytes
  2634 ;; Hardware stack levels used: 1
  2635 ;; Hardware stack levels required when called: 4
  2636 ;; This function calls:
  2637 ;;		___lodiv
  2638 ;;		___lomod
  2639 ;;		_pad
  2640 ;; This function is called by:
  2641 ;;		_vfpfcnvrt
  2642 ;; This function uses a non-reentrant model
  2643 ;;
  2644                           
  2645  03D4                     _utoa:	
  2646                           ;psect for function _utoa
  2647                           
  2648                           
  2649                           ;incstack = 0
  2650                           ; Regs used in _utoa: [wreg-fsr1h+status,2+status,0+pclath+cstack]
  2651                           ;utoa@fp stored from wreg
  2652  03D4  0020               	movlb	0	; select bank0
  2653  03D5  00B8               	movwf	utoa@fp
  2654  03D6                     l1688:
  2655                           
  2656                           ;C:\Program Files\Microchip\xc8\v2.36\pic\sources\c99\common\doprnt.c: 615: static int u
      +                          toa(FILE *fp, unsigned long long d);C:\Program Files\Microchip\xc8\v2.36\pic\sources\c99
      +                          \common\doprnt.c: 616: {;C:\Program Files\Microchip\xc8\v2.36\pic\sources\c99\common\dop
      +                          rnt.c: 617:     int i, p, w;;C:\Program Files\Microchip\xc8\v2.36\pic\sources\c99\common
      +                          \doprnt.c: 618:     unsigned long long n;;C:\Program Files\Microchip\xc8\v2.36\pic\sourc
      +                          es\c99\common\doprnt.c: 621:     if (!(prec < 0)) {
  2657  03D6  0021               	movlb	1	; select bank1
  2658  03D7  1BA5               	btfsc	(_prec+1)^(0+128),7
  2659  03D8  2BDA               	goto	u1571
  2660  03D9  2BDB               	goto	u1570
  2661  03DA                     u1571:
  2662  03DA  2BDF               	goto	l765
  2663  03DB                     u1570:
  2664  03DB                     l1690:
  2665                           
  2666                           ;C:\Program Files\Microchip\xc8\v2.36\pic\sources\c99\common\doprnt.c: 622:         flag
      +                          s &= ~(1 << 1);
  2667  03DB  30FD               	movlw	253
  2668  03DC  05A6               	andwf	_flags^(0+128),f
  2669  03DD  30FF               	movlw	255
  2670  03DE  05A7               	andwf	(_flags+1)^(0+128),f
  2671  03DF                     l765:	
  2672                           ;C:\Program Files\Microchip\xc8\v2.36\pic\sources\c99\common\doprnt.c: 623:     }
  2673                           
  2674                           
  2675                           ;C:\Program Files\Microchip\xc8\v2.36\pic\sources\c99\common\doprnt.c: 624:     p = (0 <
      +                           prec) ? prec : 1;
  2676  03DF  0825               	movf	(_prec+1)^(0+128),w
  2677  03E0  3A80               	xorlw	128
  2678  03E1  00FD               	movwf	??_utoa
  2679  03E2  3080               	movlw	128
  2680  03E3  027D               	subwf	??_utoa,w
  2681  03E4  1D03               	skipz
  2682  03E5  2BE8               	goto	u1585
  2683  03E6  3001               	movlw	1
  2684  03E7  0224               	subwf	_prec^(0+128),w
  2685  03E8                     u1585:
  2686  03E8  1803               	skipnc
  2687  03E9  2BEB               	goto	u1581
  2688  03EA  2BEC               	goto	u1580
  2689  03EB                     u1581:
  2690  03EB  2BF2               	goto	l1694
  2691  03EC                     u1580:
  2692  03EC                     l1692:
  2693  03EC  3001               	movlw	1
  2694  03ED  0020               	movlb	0	; select bank0
  2695  03EE  00B9               	movwf	utoa@p
  2696  03EF  3000               	movlw	0
  2697  03F0  00BA               	movwf	utoa@p+1
  2698  03F1  2BFA               	goto	l769
  2699  03F2                     l1694:
  2700  03F2  0021               	movlb	1	; select bank1
  2701  03F3  0825               	movf	(_prec+1)^(0+128),w
  2702  03F4  0020               	movlb	0	; select bank0
  2703  03F5  00BA               	movwf	utoa@p+1
  2704  03F6  0021               	movlb	1	; select bank1
  2705  03F7  0824               	movf	_prec^(0+128),w
  2706  03F8  0020               	movlb	0	; select bank0
  2707  03F9  00B9               	movwf	utoa@p
  2708  03FA                     l769:
  2709                           
  2710                           ;C:\Program Files\Microchip\xc8\v2.36\pic\sources\c99\common\doprnt.c: 625:     w = widt
      +                          h;
  2711  03FA  0021               	movlb	1	; select bank1
  2712  03FB  0823               	movf	(_width+1)^(0+128),w
  2713  03FC  0020               	movlb	0	; select bank0
  2714  03FD  00BC               	movwf	utoa@w+1
  2715  03FE  0021               	movlb	1	; select bank1
  2716  03FF  0822               	movf	_width^(0+128),w
  2717  0400  0020               	movlb	0	; select bank0
  2718  0401  00BB               	movwf	utoa@w
  2719  0402                     l1696:
  2720                           
  2721                           ;C:\Program Files\Microchip\xc8\v2.36\pic\sources\c99\common\doprnt.c: 628:     n = d;
  2722  0402  0830               	movf	utoa@d,w
  2723  0403  00BD               	movwf	utoa@n
  2724  0404  0831               	movf	utoa@d+1,w
  2725  0405  00BE               	movwf	utoa@n+1
  2726  0406  0832               	movf	utoa@d+2,w
  2727  0407  00BF               	movwf	utoa@n+2
  2728  0408  0833               	movf	utoa@d+3,w
  2729  0409  00C0               	movwf	utoa@n+3
  2730  040A  0834               	movf	utoa@d+4,w
  2731  040B  00C1               	movwf	utoa@n+4
  2732  040C  0835               	movf	utoa@d+5,w
  2733  040D  00C2               	movwf	utoa@n+5
  2734  040E  0836               	movf	utoa@d+6,w
  2735  040F  00C3               	movwf	utoa@n+6
  2736  0410  0837               	movf	utoa@d+7,w
  2737  0411  00C4               	movwf	utoa@n+7
  2738                           
  2739                           ;C:\Program Files\Microchip\xc8\v2.36\pic\sources\c99\common\doprnt.c: 629:     i = size
      +                          of(dbuf) - 1;
  2740  0412  301F               	movlw	31
  2741  0413  00C5               	movwf	utoa@i
  2742  0414  3000               	movlw	0
  2743  0415  00C6               	movwf	utoa@i+1
  2744  0416                     l1698:
  2745                           
  2746                           ;C:\Program Files\Microchip\xc8\v2.36\pic\sources\c99\common\doprnt.c: 630:     dbuf[i] 
      +                          = '\0';
  2747  0416  0021               	movlb	1	; select bank1
  2748  0417  01C8               	clrf	(_dbuf^(0+128)+31)
  2749                           
  2750                           ;C:\Program Files\Microchip\xc8\v2.36\pic\sources\c99\common\doprnt.c: 631:     while (i
      +                           && (n || (0 < p) || ((0 < w) && (flags & (1 << 1))))) {
  2751  0418  2C79               	goto	l1710
  2752  0419                     l1700:
  2753                           
  2754                           ;C:\Program Files\Microchip\xc8\v2.36\pic\sources\c99\common\doprnt.c: 632:         --i;
  2755  0419  30FF               	movlw	255
  2756  041A  0020               	movlb	0	; select bank0
  2757  041B  07C5               	addwf	utoa@i,f
  2758  041C  30FF               	movlw	255
  2759  041D  3DC6               	addwfc	utoa@i+1,f
  2760  041E                     l1702:
  2761                           
  2762                           ;C:\Program Files\Microchip\xc8\v2.36\pic\sources\c99\common\doprnt.c: 633:         dbuf
      +                          [i] = '0' + (n % 10);
  2763  041E  300A               	movlw	10
  2764  041F  00A0               	movwf	___lomod@divisor
  2765  0420  01A1               	clrf	___lomod@divisor+1
  2766  0421  01A2               	clrf	___lomod@divisor+2
  2767  0422  01A3               	clrf	___lomod@divisor+3
  2768  0423  01A4               	clrf	___lomod@divisor+4
  2769  0424  01A5               	clrf	___lomod@divisor+5
  2770  0425  01A6               	clrf	___lomod@divisor+6
  2771  0426  01A7               	clrf	___lomod@divisor+7
  2772  0427  083D               	movf	utoa@n,w
  2773  0428  00A8               	movwf	___lomod@dividend
  2774  0429  083E               	movf	utoa@n+1,w
  2775  042A  00A9               	movwf	___lomod@dividend+1
  2776  042B  083F               	movf	utoa@n+2,w
  2777  042C  00AA               	movwf	___lomod@dividend+2
  2778  042D  0840               	movf	utoa@n+3,w
  2779  042E  00AB               	movwf	___lomod@dividend+3
  2780  042F  0841               	movf	utoa@n+4,w
  2781  0430  00AC               	movwf	___lomod@dividend+4
  2782  0431  0842               	movf	utoa@n+5,w
  2783  0432  00AD               	movwf	___lomod@dividend+5
  2784  0433  0843               	movf	utoa@n+6,w
  2785  0434  00AE               	movwf	___lomod@dividend+6
  2786  0435  0844               	movf	utoa@n+7,w
  2787  0436  00AF               	movwf	___lomod@dividend+7
  2788  0437  3180  20FA  3183   	fcall	___lomod
  2789  043A  0020               	movlb	0	; select bank0
  2790  043B  0820               	movf	?___lomod,w
  2791  043C  3E30               	addlw	48
  2792  043D  00FD               	movwf	??_utoa
  2793  043E  0845               	movf	utoa@i,w
  2794  043F  3EA9               	addlw	(low (_dbuf| 0))& (0+255)
  2795  0440  0086               	movwf	6
  2796  0441  0187               	clrf	7
  2797  0442  087D               	movf	??_utoa,w
  2798  0443  0081               	movwf	1
  2799  0444                     l1704:
  2800                           
  2801                           ;C:\Program Files\Microchip\xc8\v2.36\pic\sources\c99\common\doprnt.c: 634:         --p;
  2802  0444  30FF               	movlw	255
  2803  0445  07B9               	addwf	utoa@p,f
  2804  0446  30FF               	movlw	255
  2805  0447  3DBA               	addwfc	utoa@p+1,f
  2806  0448                     l1706:
  2807                           
  2808                           ;C:\Program Files\Microchip\xc8\v2.36\pic\sources\c99\common\doprnt.c: 635:         --w;
  2809  0448  30FF               	movlw	255
  2810  0449  07BB               	addwf	utoa@w,f
  2811  044A  30FF               	movlw	255
  2812  044B  3DBC               	addwfc	utoa@w+1,f
  2813  044C                     l1708:
  2814                           
  2815                           ;C:\Program Files\Microchip\xc8\v2.36\pic\sources\c99\common\doprnt.c: 636:         n = 
      +                          n / 10;
  2816  044C  300A               	movlw	10
  2817  044D  00A0               	movwf	___lodiv@divisor
  2818  044E  01A1               	clrf	___lodiv@divisor+1
  2819  044F  01A2               	clrf	___lodiv@divisor+2
  2820  0450  01A3               	clrf	___lodiv@divisor+3
  2821  0451  01A4               	clrf	___lodiv@divisor+4
  2822  0452  01A5               	clrf	___lodiv@divisor+5
  2823  0453  01A6               	clrf	___lodiv@divisor+6
  2824  0454  01A7               	clrf	___lodiv@divisor+7
  2825  0455  083D               	movf	utoa@n,w
  2826  0456  00A8               	movwf	___lodiv@dividend
  2827  0457  083E               	movf	utoa@n+1,w
  2828  0458  00A9               	movwf	___lodiv@dividend+1
  2829  0459  083F               	movf	utoa@n+2,w
  2830  045A  00AA               	movwf	___lodiv@dividend+2
  2831  045B  0840               	movf	utoa@n+3,w
  2832  045C  00AB               	movwf	___lodiv@dividend+3
  2833  045D  0841               	movf	utoa@n+4,w
  2834  045E  00AC               	movwf	___lodiv@dividend+4
  2835  045F  0842               	movf	utoa@n+5,w
  2836  0460  00AD               	movwf	___lodiv@dividend+5
  2837  0461  0843               	movf	utoa@n+6,w
  2838  0462  00AE               	movwf	___lodiv@dividend+6
  2839  0463  0844               	movf	utoa@n+7,w
  2840  0464  00AF               	movwf	___lodiv@dividend+7
  2841  0465  3181  21E0  3183   	fcall	___lodiv
  2842  0468  0020               	movlb	0	; select bank0
  2843  0469  0820               	movf	?___lodiv,w
  2844  046A  00BD               	movwf	utoa@n
  2845  046B  0821               	movf	?___lodiv+1,w
  2846  046C  00BE               	movwf	utoa@n+1
  2847  046D  0822               	movf	?___lodiv+2,w
  2848  046E  00BF               	movwf	utoa@n+2
  2849  046F  0823               	movf	?___lodiv+3,w
  2850  0470  00C0               	movwf	utoa@n+3
  2851  0471  0824               	movf	?___lodiv+4,w
  2852  0472  00C1               	movwf	utoa@n+4
  2853  0473  0825               	movf	?___lodiv+5,w
  2854  0474  00C2               	movwf	utoa@n+5
  2855  0475  0826               	movf	?___lodiv+6,w
  2856  0476  00C3               	movwf	utoa@n+6
  2857  0477  0827               	movf	?___lodiv+7,w
  2858  0478  00C4               	movwf	utoa@n+7
  2859  0479                     l1710:
  2860                           
  2861                           ;C:\Program Files\Microchip\xc8\v2.36\pic\sources\c99\common\doprnt.c: 631:     while (i
      +                           && (n || (0 < p) || ((0 < w) && (flags & (1 << 1))))) {
  2862  0479  0020               	movlb	0	; select bank0
  2863  047A  0845               	movf	utoa@i,w
  2864  047B  0446               	iorwf	utoa@i+1,w
  2865  047C  1903               	btfsc	3,2
  2866  047D  2C7F               	goto	u1591
  2867  047E  2C80               	goto	u1590
  2868  047F                     u1591:
  2869  047F  2CAC               	goto	l1720
  2870  0480                     u1590:
  2871  0480                     l1712:
  2872  0480  083D               	movf	utoa@n,w
  2873  0481  043E               	iorwf	utoa@n+1,w
  2874  0482  043F               	iorwf	utoa@n+2,w
  2875  0483  0440               	iorwf	utoa@n+3,w
  2876  0484  0441               	iorwf	utoa@n+4,w
  2877  0485  0442               	iorwf	utoa@n+5,w
  2878  0486  0443               	iorwf	utoa@n+6,w
  2879  0487  0444               	iorwf	utoa@n+7,w
  2880  0488  1D03               	skipz
  2881  0489  2C8B               	goto	u1601
  2882  048A  2C8C               	goto	u1600
  2883  048B                     u1601:
  2884  048B  2C19               	goto	l1700
  2885  048C                     u1600:
  2886  048C                     l1714:
  2887  048C  083A               	movf	utoa@p+1,w
  2888  048D  3A80               	xorlw	128
  2889  048E  00FD               	movwf	??_utoa
  2890  048F  3080               	movlw	128
  2891  0490  027D               	subwf	??_utoa,w
  2892  0491  1D03               	skipz
  2893  0492  2C95               	goto	u1615
  2894  0493  3001               	movlw	1
  2895  0494  0239               	subwf	utoa@p,w
  2896  0495                     u1615:
  2897  0495  1803               	skipnc
  2898  0496  2C98               	goto	u1611
  2899  0497  2C99               	goto	u1610
  2900  0498                     u1611:
  2901  0498  2C19               	goto	l1700
  2902  0499                     u1610:
  2903  0499                     l1716:
  2904  0499  0020               	movlb	0	; select bank0
  2905  049A  083C               	movf	utoa@w+1,w
  2906  049B  3A80               	xorlw	128
  2907  049C  00FD               	movwf	??_utoa
  2908  049D  3080               	movlw	128
  2909  049E  027D               	subwf	??_utoa,w
  2910  049F  1D03               	skipz
  2911  04A0  2CA3               	goto	u1625
  2912  04A1  3001               	movlw	1
  2913  04A2  023B               	subwf	utoa@w,w
  2914  04A3                     u1625:
  2915  04A3  1C03               	skipc
  2916  04A4  2CA6               	goto	u1621
  2917  04A5  2CA7               	goto	u1620
  2918  04A6                     u1621:
  2919  04A6  2CAC               	goto	l1720
  2920  04A7                     u1620:
  2921  04A7                     l1718:
  2922  04A7  0021               	movlb	1	; select bank1
  2923  04A8  18A6               	btfsc	_flags^(0+128),1
  2924  04A9  2CAB               	goto	u1631
  2925  04AA  2CAC               	goto	u1630
  2926  04AB                     u1631:
  2927  04AB  2C19               	goto	l1700
  2928  04AC                     u1630:
  2929  04AC                     l1720:
  2930                           
  2931                           ;C:\Program Files\Microchip\xc8\v2.36\pic\sources\c99\common\doprnt.c: 640:     return p
      +                          ad(fp, &dbuf[i], w);
  2932  04AC  0020               	movlb	0	; select bank0
  2933  04AD  0845               	movf	utoa@i,w
  2934  04AE  3EA9               	addlw	(low (_dbuf| 0))& (0+255)
  2935  04AF  00FD               	movwf	??_utoa
  2936  04B0  087D               	movf	??_utoa,w
  2937  04B1  00A4               	movwf	pad@buf
  2938  04B2  083C               	movf	utoa@w+1,w
  2939  04B3  00A6               	movwf	pad@p+1
  2940  04B4  083B               	movf	utoa@w,w
  2941  04B5  00A5               	movwf	pad@p
  2942  04B6  0838               	movf	utoa@fp,w
  2943  04B7  3180  2041  3183   	fcall	_pad
  2944  04BA  0020               	movlb	0	; select bank0
  2945  04BB  0825               	movf	?_pad+1,w
  2946  04BC  00B1               	movwf	?_utoa+1
  2947  04BD  0824               	movf	?_pad,w
  2948  04BE  00B0               	movwf	?_utoa
  2949  04BF                     l777:
  2950  04BF  0008               	return
  2951  04C0                     __end_of_utoa:
  2952                           
  2953                           	psect	text5
  2954  0041                     __ptext5:	
  2955 ;; *************** function _pad *****************
  2956 ;; Defined at:
  2957 ;;		line 72 in file "C:\Program Files\Microchip\xc8\v2.36\pic\sources\c99\common\doprnt.c"
  2958 ;; Parameters:    Size  Location     Type
  2959 ;;  fp              1    wreg     PTR struct _IO_FILE
  2960 ;;		 -> sprintf@f(10), 
  2961 ;;  buf             1    4[BANK0 ] PTR unsigned char 
  2962 ;;		 -> dbuf(32), 
  2963 ;;  p               2    5[BANK0 ] int 
  2964 ;; Auto vars:     Size  Location     Type
  2965 ;;  fp              1   11[BANK0 ] PTR struct _IO_FILE
  2966 ;;		 -> sprintf@f(10), 
  2967 ;;  w               2    9[BANK0 ] int 
  2968 ;;  i               2    7[BANK0 ] int 
  2969 ;; Return value:  Size  Location     Type
  2970 ;;                  2    4[BANK0 ] int 
  2971 ;; Registers used:
  2972 ;;		wreg, fsr0l, fsr0h, fsr1l, fsr1h, status,2, status,0, pclath, cstack
  2973 ;; Tracked objects:
  2974 ;;		On entry : 0/0
  2975 ;;		On exit  : 0/0
  2976 ;;		Unchanged: 0/0
  2977 ;; Data sizes:     COMMON   BANK0   BANK1   BANK2   BANK3   BANK4   BANK5   BANK6
  2978 ;;      Params:         0       3       0       0       0       0       0       0
  2979 ;;      Locals:         0       5       0       0       0       0       0       0
  2980 ;;      Temps:          1       0       0       0       0       0       0       0
  2981 ;;      Totals:         1       8       0       0       0       0       0       0
  2982 ;;Total ram usage:        9 bytes
  2983 ;; Hardware stack levels used: 1
  2984 ;; Hardware stack levels required when called: 3
  2985 ;; This function calls:
  2986 ;;		_fputc
  2987 ;;		_fputs
  2988 ;;		_strlen
  2989 ;; This function is called by:
  2990 ;;		_utoa
  2991 ;; This function uses a non-reentrant model
  2992 ;;
  2993                           
  2994  0041                     _pad:	
  2995                           ;psect for function _pad
  2996                           
  2997                           
  2998                           ;incstack = 0
  2999                           ; Regs used in _pad: [wreg-fsr1h+status,2+status,0+pclath+cstack]
  3000                           ;pad@fp stored from wreg
  3001  0041  0020               	movlb	0	; select bank0
  3002  0042  00AB               	movwf	pad@fp
  3003  0043                     l1632:
  3004                           
  3005                           ;C:\Program Files\Microchip\xc8\v2.36\pic\sources\c99\common\doprnt.c: 72: static int pa
      +                          d(FILE *fp, char *buf, int p);C:\Program Files\Microchip\xc8\v2.36\pic\sources\c99\commo
      +                          n\doprnt.c: 73: {;C:\Program Files\Microchip\xc8\v2.36\pic\sources\c99\common\doprnt.c: 
      +                          74:     int i, w;;C:\Program Files\Microchip\xc8\v2.36\pic\sources\c99\common\doprnt.c: 
      +                          77:     if (flags & (1 << 0)) {
  3006  0043  0021               	movlb	1	; select bank1
  3007  0044  1C26               	btfss	_flags^(0+128),0
  3008  0045  2847               	goto	u1451
  3009  0046  2848               	goto	u1450
  3010  0047                     u1451:
  3011  0047  2851               	goto	l1636
  3012  0048                     u1450:
  3013  0048                     l1634:
  3014                           
  3015                           ;C:\Program Files\Microchip\xc8\v2.36\pic\sources\c99\common\doprnt.c: 78:         fputs
      +                          ((const char *)buf, fp);
  3016  0048  0020               	movlb	0	; select bank0
  3017  0049  082B               	movf	pad@fp,w
  3018  004A  00FC               	movwf	??_pad
  3019  004B  087C               	movf	??_pad,w
  3020  004C  00F8               	movwf	fputs@fp
  3021  004D  0824               	movf	pad@buf,w
  3022  004E  318F  270A  3180   	fcall	_fputs
  3023  0051                     l1636:
  3024                           
  3025                           ;C:\Program Files\Microchip\xc8\v2.36\pic\sources\c99\common\doprnt.c: 82:     w = (p < 
      +                          0) ? 0 : p;
  3026  0051  0020               	movlb	0	; select bank0
  3027  0052  1BA6               	btfsc	pad@p+1,7
  3028  0053  2855               	goto	u1461
  3029  0054  2856               	goto	u1460
  3030  0055                     u1461:
  3031  0055  285B               	goto	l1640
  3032  0056                     u1460:
  3033  0056                     l1638:
  3034  0056  0826               	movf	pad@p+1,w
  3035  0057  00AA               	movwf	pad@w+1
  3036  0058  0825               	movf	pad@p,w
  3037  0059  00A9               	movwf	pad@w
  3038  005A  285D               	goto	l757
  3039  005B                     l1640:
  3040  005B  01A9               	clrf	pad@w
  3041  005C  01AA               	clrf	pad@w+1
  3042  005D                     l757:
  3043                           
  3044                           ;C:\Program Files\Microchip\xc8\v2.36\pic\sources\c99\common\doprnt.c: 83:     i = 0;
  3045  005D  01A7               	clrf	pad@i
  3046  005E  01A8               	clrf	pad@i+1
  3047                           
  3048                           ;C:\Program Files\Microchip\xc8\v2.36\pic\sources\c99\common\doprnt.c: 84:     while (i 
      +                          < w) {
  3049  005F  2871               	goto	l1646
  3050  0060                     l1642:
  3051                           
  3052                           ;C:\Program Files\Microchip\xc8\v2.36\pic\sources\c99\common\doprnt.c: 85:         fputc
      +                          (' ', fp);
  3053  0060  3020               	movlw	32
  3054  0061  00F0               	movwf	fputc@c
  3055  0062  3000               	movlw	0
  3056  0063  00F1               	movwf	fputc@c+1
  3057  0064  0020               	movlb	0	; select bank0
  3058  0065  082B               	movf	pad@fp,w
  3059  0066  00FC               	movwf	??_pad
  3060  0067  087C               	movf	??_pad,w
  3061  0068  00F2               	movwf	fputc@fp
  3062  0069  318F  27AE  3180   	fcall	_fputc
  3063  006C                     l1644:
  3064                           
  3065                           ;C:\Program Files\Microchip\xc8\v2.36\pic\sources\c99\common\doprnt.c: 86:         ++i;
  3066  006C  3001               	movlw	1
  3067  006D  0020               	movlb	0	; select bank0
  3068  006E  07A7               	addwf	pad@i,f
  3069  006F  3000               	movlw	0
  3070  0070  3DA8               	addwfc	pad@i+1,f
  3071  0071                     l1646:
  3072                           
  3073                           ;C:\Program Files\Microchip\xc8\v2.36\pic\sources\c99\common\doprnt.c: 84:     while (i 
      +                          < w) {
  3074  0071  0828               	movf	pad@i+1,w
  3075  0072  3A80               	xorlw	128
  3076  0073  00FC               	movwf	??_pad
  3077  0074  082A               	movf	pad@w+1,w
  3078  0075  3A80               	xorlw	128
  3079  0076  027C               	subwf	??_pad,w
  3080  0077  1D03               	skipz
  3081  0078  287B               	goto	u1475
  3082  0079  0829               	movf	pad@w,w
  3083  007A  0227               	subwf	pad@i,w
  3084  007B                     u1475:
  3085  007B  1C03               	skipc
  3086  007C  287E               	goto	u1471
  3087  007D  287F               	goto	u1470
  3088  007E                     u1471:
  3089  007E  2860               	goto	l1642
  3090  007F                     u1470:
  3091  007F                     l760:
  3092                           
  3093                           ;C:\Program Files\Microchip\xc8\v2.36\pic\sources\c99\common\doprnt.c: 90:     if (!(fla
      +                          gs & (1 << 0))) {
  3094  007F  0021               	movlb	1	; select bank1
  3095  0080  1826               	btfsc	_flags^(0+128),0
  3096  0081  2883               	goto	u1481
  3097  0082  2884               	goto	u1480
  3098  0083                     u1481:
  3099  0083  288D               	goto	l1650
  3100  0084                     u1480:
  3101  0084                     l1648:
  3102                           
  3103                           ;C:\Program Files\Microchip\xc8\v2.36\pic\sources\c99\common\doprnt.c: 91:         fputs
      +                          ((const char *)buf, fp);
  3104  0084  0020               	movlb	0	; select bank0
  3105  0085  082B               	movf	pad@fp,w
  3106  0086  00FC               	movwf	??_pad
  3107  0087  087C               	movf	??_pad,w
  3108  0088  00F8               	movwf	fputs@fp
  3109  0089  0824               	movf	pad@buf,w
  3110  008A  318F  270A  3180   	fcall	_fputs
  3111  008D                     l1650:
  3112                           
  3113                           ;C:\Program Files\Microchip\xc8\v2.36\pic\sources\c99\common\doprnt.c: 94:     return (i
      +                          nt)(strlen(buf) + (size_t)w);
  3114  008D  0020               	movlb	0	; select bank0
  3115  008E  0824               	movf	pad@buf,w
  3116  008F  318E  262D  3180   	fcall	_strlen
  3117  0092  0020               	movlb	0	; select bank0
  3118  0093  0829               	movf	pad@w,w
  3119  0094  0770               	addwf	?_strlen,w
  3120  0095  00A4               	movwf	?_pad
  3121  0096  082A               	movf	pad@w+1,w
  3122  0097  3D71               	addwfc	?_strlen+1,w
  3123  0098  00A5               	movwf	?_pad+1
  3124  0099                     l762:
  3125  0099  0008               	return
  3126  009A                     __end_of_pad:
  3127                           
  3128                           	psect	text6
  3129  0E2D                     __ptext6:	
  3130 ;; *************** function _strlen *****************
  3131 ;; Defined at:
  3132 ;;		line 5 in file "C:\Program Files\Microchip\xc8\v2.36\pic\sources\c99\common\strlen.c"
  3133 ;; Parameters:    Size  Location     Type
  3134 ;;  s               1    wreg     PTR const unsigned char 
  3135 ;;		 -> dbuf(32), 
  3136 ;; Auto vars:     Size  Location     Type
  3137 ;;  s               1    4[COMMON] PTR const unsigned char 
  3138 ;;		 -> dbuf(32), 
  3139 ;;  a               1    3[COMMON] PTR const unsigned char 
  3140 ;;		 -> dbuf(32), 
  3141 ;; Return value:  Size  Location     Type
  3142 ;;                  2    0[COMMON] unsigned int 
  3143 ;; Registers used:
  3144 ;;		wreg, fsr1l, fsr1h, status,2, status,0
  3145 ;; Tracked objects:
  3146 ;;		On entry : 0/0
  3147 ;;		On exit  : 0/0
  3148 ;;		Unchanged: 0/0
  3149 ;; Data sizes:     COMMON   BANK0   BANK1   BANK2   BANK3   BANK4   BANK5   BANK6
  3150 ;;      Params:         2       0       0       0       0       0       0       0
  3151 ;;      Locals:         2       0       0       0       0       0       0       0
  3152 ;;      Temps:          1       0       0       0       0       0       0       0
  3153 ;;      Totals:         5       0       0       0       0       0       0       0
  3154 ;;Total ram usage:        5 bytes
  3155 ;; Hardware stack levels used: 1
  3156 ;; This function calls:
  3157 ;;		Nothing
  3158 ;; This function is called by:
  3159 ;;		_pad
  3160 ;; This function uses a non-reentrant model
  3161 ;;
  3162                           
  3163  0E2D                     _strlen:	
  3164                           ;psect for function _strlen
  3165                           
  3166                           
  3167                           ;incstack = 0
  3168                           ; Regs used in _strlen: [wreg+fsr1l+fsr1h+status,2+status,0]
  3169                           ;strlen@s stored from wreg
  3170  0E2D  00F4               	movwf	strlen@s
  3171  0E2E                     l1584:
  3172  0E2E  0874               	movf	strlen@s,w
  3173  0E2F  00F2               	movwf	??_strlen
  3174  0E30  0872               	movf	??_strlen,w
  3175  0E31  00F3               	movwf	strlen@a
  3176  0E32  2E37               	goto	l1588
  3177  0E33                     l1586:
  3178  0E33  3001               	movlw	1
  3179  0E34  00F2               	movwf	??_strlen
  3180  0E35  0872               	movf	??_strlen,w
  3181  0E36  07F4               	addwf	strlen@s,f
  3182  0E37                     l1588:
  3183  0E37  0874               	movf	strlen@s,w
  3184  0E38  0086               	movwf	6
  3185  0E39  0187               	clrf	7
  3186  0E3A  0801               	movf	1,w
  3187  0E3B  1D03               	btfss	3,2
  3188  0E3C  2E3E               	goto	u1351
  3189  0E3D  2E3F               	goto	u1350
  3190  0E3E                     u1351:
  3191  0E3E  2E33               	goto	l1586
  3192  0E3F                     u1350:
  3193  0E3F                     l1590:
  3194  0E3F  0873               	movf	strlen@a,w
  3195  0E40  0274               	subwf	strlen@s,w
  3196  0E41  00F0               	movwf	?_strlen
  3197  0E42  01F1               	clrf	?_strlen+1
  3198  0E43  1BF0               	btfsc	?_strlen,7
  3199  0E44  03F1               	decf	?_strlen+1,f
  3200  0E45                     l818:
  3201  0E45  0008               	return
  3202  0E46                     __end_of_strlen:
  3203                           
  3204                           	psect	text7
  3205  0F0A                     __ptext7:	
  3206 ;; *************** function _fputs *****************
  3207 ;; Defined at:
  3208 ;;		line 8 in file "C:\Program Files\Microchip\xc8\v2.36\pic\sources\c99\common\nf_fputs.c"
  3209 ;; Parameters:    Size  Location     Type
  3210 ;;  s               1    wreg     PTR const unsigned char 
  3211 ;;		 -> dbuf(32), 
  3212 ;;  fp              1    8[COMMON] PTR struct _IO_FILE
  3213 ;;		 -> sprintf@f(10), 
  3214 ;; Auto vars:     Size  Location     Type
  3215 ;;  s               1    3[BANK0 ] PTR const unsigned char 
  3216 ;;		 -> dbuf(32), 
  3217 ;;  i               2    1[BANK0 ] int 
  3218 ;;  c               1    0[BANK0 ] unsigned char 
  3219 ;; Return value:  Size  Location     Type
  3220 ;;                  2    8[COMMON] int 
  3221 ;; Registers used:
  3222 ;;		wreg, fsr0l, fsr0h, fsr1l, fsr1h, status,2, status,0, pclath, cstack
  3223 ;; Tracked objects:
  3224 ;;		On entry : 0/0
  3225 ;;		On exit  : 0/0
  3226 ;;		Unchanged: 0/0
  3227 ;; Data sizes:     COMMON   BANK0   BANK1   BANK2   BANK3   BANK4   BANK5   BANK6
  3228 ;;      Params:         1       0       0       0       0       0       0       0
  3229 ;;      Locals:         0       4       0       0       0       0       0       0
  3230 ;;      Temps:          3       0       0       0       0       0       0       0
  3231 ;;      Totals:         4       4       0       0       0       0       0       0
  3232 ;;Total ram usage:        8 bytes
  3233 ;; Hardware stack levels used: 1
  3234 ;; Hardware stack levels required when called: 2
  3235 ;; This function calls:
  3236 ;;		_fputc
  3237 ;; This function is called by:
  3238 ;;		_pad
  3239 ;; This function uses a non-reentrant model
  3240 ;;
  3241                           
  3242  0F0A                     _fputs:	
  3243                           ;psect for function _fputs
  3244                           
  3245                           
  3246                           ;incstack = 0
  3247                           ; Regs used in _fputs: [wreg-fsr1h+status,2+status,0+pclath+cstack]
  3248                           ;fputs@s stored from wreg
  3249  0F0A  0020               	movlb	0	; select bank0
  3250  0F0B  00A3               	movwf	fputs@s
  3251  0F0C                     l1576:
  3252  0F0C  01A1               	clrf	fputs@i
  3253  0F0D  01A2               	clrf	fputs@i+1
  3254  0F0E  2F22               	goto	l1582
  3255  0F0F                     l1578:
  3256  0F0F  0820               	movf	fputs@c,w
  3257  0F10  00F9               	movwf	??_fputs
  3258  0F11  01FA               	clrf	??_fputs+1
  3259  0F12  0879               	movf	??_fputs,w
  3260  0F13  00F0               	movwf	fputc@c
  3261  0F14  087A               	movf	??_fputs+1,w
  3262  0F15  00F1               	movwf	fputc@c+1
  3263  0F16  0878               	movf	fputs@fp,w
  3264  0F17  00FB               	movwf	??_fputs+2
  3265  0F18  087B               	movf	??_fputs+2,w
  3266  0F19  00F2               	movwf	fputc@fp
  3267  0F1A  318F  27AE  318F   	fcall	_fputc
  3268  0F1D                     l1580:
  3269  0F1D  3001               	movlw	1
  3270  0F1E  0020               	movlb	0	; select bank0
  3271  0F1F  07A1               	addwf	fputs@i,f
  3272  0F20  3000               	movlw	0
  3273  0F21  3DA2               	addwfc	fputs@i+1,f
  3274  0F22                     l1582:
  3275  0F22  0821               	movf	fputs@i,w
  3276  0F23  0723               	addwf	fputs@s,w
  3277  0F24  00F9               	movwf	??_fputs
  3278  0F25  0879               	movf	??_fputs,w
  3279  0F26  0086               	movwf	6
  3280  0F27  0187               	clrf	7
  3281  0F28  0801               	movf	1,w
  3282  0F29  00FA               	movwf	??_fputs+1
  3283  0F2A  087A               	movf	??_fputs+1,w
  3284  0F2B  00A0               	movwf	fputs@c
  3285  0F2C  0820               	movf	fputs@c,w
  3286  0F2D  1D03               	btfss	3,2
  3287  0F2E  2F30               	goto	u1341
  3288  0F2F  2F31               	goto	u1340
  3289  0F30                     u1341:
  3290  0F30  2F0F               	goto	l1578
  3291  0F31                     u1340:
  3292  0F31                     l809:
  3293  0F31  0008               	return
  3294  0F32                     __end_of_fputs:
  3295                           
  3296                           	psect	text8
  3297  0FAE                     __ptext8:	
  3298 ;; *************** function _fputc *****************
  3299 ;; Defined at:
  3300 ;;		line 8 in file "C:\Program Files\Microchip\xc8\v2.36\pic\sources\c99\common\nf_fputc.c"
  3301 ;; Parameters:    Size  Location     Type
  3302 ;;  c               2    0[COMMON] int 
  3303 ;;  fp              1    2[COMMON] PTR struct _IO_FILE
  3304 ;;		 -> sprintf@f(10), 
  3305 ;; Auto vars:     Size  Location     Type
  3306 ;;		None
  3307 ;; Return value:  Size  Location     Type
  3308 ;;                  2    0[COMMON] int 
  3309 ;; Registers used:
  3310 ;;		wreg, fsr0l, fsr0h, fsr1l, fsr1h, status,2, status,0, pclath, cstack
  3311 ;; Tracked objects:
  3312 ;;		On entry : 0/0
  3313 ;;		On exit  : 0/0
  3314 ;;		Unchanged: 0/0
  3315 ;; Data sizes:     COMMON   BANK0   BANK1   BANK2   BANK3   BANK4   BANK5   BANK6
  3316 ;;      Params:         3       0       0       0       0       0       0       0
  3317 ;;      Locals:         0       0       0       0       0       0       0       0
  3318 ;;      Temps:          5       0       0       0       0       0       0       0
  3319 ;;      Totals:         8       0       0       0       0       0       0       0
  3320 ;;Total ram usage:        8 bytes
  3321 ;; Hardware stack levels used: 1
  3322 ;; Hardware stack levels required when called: 1
  3323 ;; This function calls:
  3324 ;;		_putch
  3325 ;; This function is called by:
  3326 ;;		_pad
  3327 ;;		_vfpfcnvrt
  3328 ;;		_fputs
  3329 ;; This function uses a non-reentrant model
  3330 ;;
  3331                           
  3332  0FAE                     _fputc:	
  3333                           ;psect for function _fputc
  3334                           
  3335  0FAE                     l1560:	
  3336                           ;incstack = 0
  3337                           ; Regs used in _fputc: [wreg-fsr1h+status,2+status,0+pclath+cstack]
  3338                           
  3339  0FAE  0872               	movf	fputc@fp,w
  3340  0FAF  1903               	btfsc	3,2
  3341  0FB0  2FB2               	goto	u1301
  3342  0FB1  2FB3               	goto	u1300
  3343  0FB2                     u1301:
  3344  0FB2  2FB8               	goto	l1564
  3345  0FB3                     u1300:
  3346  0FB3                     l1562:
  3347  0FB3  0872               	movf	fputc@fp,w
  3348  0FB4  1D03               	btfss	3,2
  3349  0FB5  2FB7               	goto	u1311
  3350  0FB6  2FB8               	goto	u1310
  3351  0FB7                     u1311:
  3352  0FB7  2FBD               	goto	l1566
  3353  0FB8                     u1310:
  3354  0FB8                     l1564:
  3355  0FB8  0870               	movf	fputc@c,w
  3356  0FB9  318D  25D9  318F   	fcall	_putch
  3357  0FBC  2FFF               	goto	l801
  3358  0FBD                     l1566:
  3359  0FBD  0872               	movf	fputc@fp,w
  3360  0FBE  3E08               	addlw	8
  3361  0FBF  0086               	movwf	6
  3362  0FC0  0187               	clrf	7
  3363  0FC1  0016               	moviw fsr1++
  3364  0FC2  0401               	iorwf	1,w
  3365  0FC3  1903               	btfsc	3,2
  3366  0FC4  2FC6               	goto	u1321
  3367  0FC5  2FC7               	goto	u1320
  3368  0FC6                     u1321:
  3369  0FC6  2FE5               	goto	l1570
  3370  0FC7                     u1320:
  3371  0FC7                     l1568:
  3372  0FC7  0872               	movf	fputc@fp,w
  3373  0FC8  3E08               	addlw	8
  3374  0FC9  0086               	movwf	6
  3375  0FCA  0187               	clrf	7
  3376  0FCB  3F40               	moviw [0]fsr1
  3377  0FCC  00F3               	movwf	??_fputc
  3378  0FCD  3F41               	moviw [1]fsr1
  3379  0FCE  00F4               	movwf	??_fputc+1
  3380  0FCF  0872               	movf	fputc@fp,w
  3381  0FD0  3E02               	addlw	2
  3382  0FD1  0086               	movwf	6
  3383  0FD2  0187               	clrf	7
  3384  0FD3  3F40               	moviw [0]fsr1
  3385  0FD4  00F5               	movwf	??_fputc+2
  3386  0FD5  3F41               	moviw [1]fsr1
  3387  0FD6  00F6               	movwf	??_fputc+3
  3388  0FD7  0876               	movf	??_fputc+3,w
  3389  0FD8  3A80               	xorlw	128
  3390  0FD9  00F7               	movwf	??_fputc+4
  3391  0FDA  0874               	movf	??_fputc+1,w
  3392  0FDB  3A80               	xorlw	128
  3393  0FDC  0277               	subwf	??_fputc+4,w
  3394  0FDD  1D03               	skipz
  3395  0FDE  2FE1               	goto	u1335
  3396  0FDF  0873               	movf	??_fputc,w
  3397  0FE0  0275               	subwf	??_fputc+2,w
  3398  0FE1                     u1335:
  3399  0FE1  1803               	skipnc
  3400  0FE2  2FE4               	goto	u1331
  3401  0FE3  2FE5               	goto	u1330
  3402  0FE4                     u1331:
  3403  0FE4  2FFF               	goto	l801
  3404  0FE5                     u1330:
  3405  0FE5                     l1570:
  3406  0FE5  0870               	movf	fputc@c,w
  3407  0FE6  00F3               	movwf	??_fputc
  3408  0FE7  0872               	movf	fputc@fp,w
  3409  0FE8  0086               	movwf	6
  3410  0FE9  0187               	clrf	7
  3411  0FEA  0872               	movf	fputc@fp,w
  3412  0FEB  3E02               	addlw	2
  3413  0FEC  0084               	movwf	4
  3414  0FED  0185               	clrf	5
  3415  0FEE  0800               	movf	0,w
  3416  0FEF  0701               	addwf	1,w
  3417  0FF0  00F4               	movwf	??_fputc+1
  3418  0FF1  0874               	movf	??_fputc+1,w
  3419  0FF2  0086               	movwf	6
  3420  0FF3  0187               	clrf	7
  3421  0FF4  0873               	movf	??_fputc,w
  3422  0FF5  0081               	movwf	1
  3423  0FF6                     l1572:
  3424  0FF6  0872               	movf	fputc@fp,w
  3425  0FF7  3E02               	addlw	2
  3426  0FF8  0086               	movwf	6
  3427  0FF9  0187               	clrf	7
  3428  0FFA  3001               	movlw	1
  3429  0FFB  0781               	addwf	1,f
  3430  0FFC  3141               	addfsr 1,1
  3431  0FFD  1803               	skipnc
  3432  0FFE  0A81               	incf	1,f
  3433  0FFF                     l801:
  3434  0FFF  0008               	return
  3435  1000                     __end_of_fputc:
  3436                           
  3437                           	psect	text9
  3438  0DD9                     __ptext9:	
  3439 ;; *************** function _putch *****************
  3440 ;; Defined at:
  3441 ;;		line 7 in file "C:\Program Files\Microchip\xc8\v2.36\pic\sources\c99\common\putch.c"
  3442 ;; Parameters:    Size  Location     Type
  3443 ;;  c               1    wreg     unsigned char 
  3444 ;; Auto vars:     Size  Location     Type
  3445 ;;  c               1    0[COMMON] unsigned char 
  3446 ;; Return value:  Size  Location     Type
  3447 ;;                  1    wreg      void 
  3448 ;; Registers used:
  3449 ;;		wreg
  3450 ;; Tracked objects:
  3451 ;;		On entry : 0/0
  3452 ;;		On exit  : 0/0
  3453 ;;		Unchanged: 0/0
  3454 ;; Data sizes:     COMMON   BANK0   BANK1   BANK2   BANK3   BANK4   BANK5   BANK6
  3455 ;;      Params:         0       0       0       0       0       0       0       0
  3456 ;;      Locals:         0       0       0       0       0       0       0       0
  3457 ;;      Temps:          0       0       0       0       0       0       0       0
  3458 ;;      Totals:         0       0       0       0       0       0       0       0
  3459 ;;Total ram usage:        0 bytes
  3460 ;; Hardware stack levels used: 1
  3461 ;; This function calls:
  3462 ;;		Nothing
  3463 ;; This function is called by:
  3464 ;;		_fputc
  3465 ;; This function uses a non-reentrant model
  3466 ;;
  3467                           
  3468  0DD9                     _putch:	
  3469                           ;psect for function _putch
  3470                           
  3471  0DD9                     l812:	
  3472                           ;incstack = 0
  3473                           ; Regs used in _putch: [wreg]
  3474                           
  3475  0DD9  0008               	return
  3476  0DDA                     __end_of_putch:
  3477                           
  3478                           	psect	text10
  3479  00FA                     __ptext10:	
  3480 ;; *************** function ___lomod *****************
  3481 ;; Defined at:
  3482 ;;		line 7 in file "C:\Program Files\Microchip\xc8\v2.36\pic\sources\c99\common\lomod.c"
  3483 ;; Parameters:    Size  Location     Type
  3484 ;;  divisor         8    0[BANK0 ] unsigned long long 
  3485 ;;  dividend        8    8[BANK0 ] unsigned long long 
  3486 ;; Auto vars:     Size  Location     Type
  3487 ;;  counter         1    1[COMMON] unsigned char 
  3488 ;; Return value:  Size  Location     Type
  3489 ;;                  8    0[BANK0 ] unsigned long long 
  3490 ;; Registers used:
  3491 ;;		wreg, status,2, status,0
  3492 ;; Tracked objects:
  3493 ;;		On entry : 0/0
  3494 ;;		On exit  : 0/0
  3495 ;;		Unchanged: 0/0
  3496 ;; Data sizes:     COMMON   BANK0   BANK1   BANK2   BANK3   BANK4   BANK5   BANK6
  3497 ;;      Params:         0      16       0       0       0       0       0       0
  3498 ;;      Locals:         1       0       0       0       0       0       0       0
  3499 ;;      Temps:          1       0       0       0       0       0       0       0
  3500 ;;      Totals:         2      16       0       0       0       0       0       0
  3501 ;;Total ram usage:       18 bytes
  3502 ;; Hardware stack levels used: 1
  3503 ;; This function calls:
  3504 ;;		Nothing
  3505 ;; This function is called by:
  3506 ;;		_utoa
  3507 ;; This function uses a non-reentrant model
  3508 ;;
  3509                           
  3510  00FA                     ___lomod:	
  3511                           ;psect for function ___lomod
  3512                           
  3513  00FA                     l1616:	
  3514                           ;incstack = 0
  3515                           ; Regs used in ___lomod: [wreg+status,2+status,0]
  3516                           
  3517  00FA  0020               	movlb	0	; select bank0
  3518  00FB  0820               	movf	___lomod@divisor,w
  3519  00FC  0421               	iorwf	___lomod@divisor+1,w
  3520  00FD  0422               	iorwf	___lomod@divisor+2,w
  3521  00FE  0423               	iorwf	___lomod@divisor+3,w
  3522  00FF  0424               	iorwf	___lomod@divisor+4,w
  3523  0100  0425               	iorwf	___lomod@divisor+5,w
  3524  0101  0426               	iorwf	___lomod@divisor+6,w
  3525  0102  0427               	iorwf	___lomod@divisor+7,w
  3526  0103  1903               	skipnz
  3527  0104  2906               	goto	u1411
  3528  0105  2907               	goto	u1410
  3529  0106                     u1411:
  3530  0106  295A               	goto	l512
  3531  0107                     u1410:
  3532  0107                     l1618:
  3533  0107  01F1               	clrf	___lomod@counter
  3534  0108  0AF1               	incf	___lomod@counter,f
  3535  0109  2916               	goto	l1624
  3536  010A                     l1620:
  3537  010A  35A0               	lslf	___lomod@divisor,f
  3538  010B  0DA1               	rlf	___lomod@divisor+1,f
  3539  010C  0DA2               	rlf	___lomod@divisor+2,f
  3540  010D  0DA3               	rlf	___lomod@divisor+3,f
  3541  010E  0DA4               	rlf	___lomod@divisor+4,f
  3542  010F  0DA5               	rlf	___lomod@divisor+5,f
  3543  0110  0DA6               	rlf	___lomod@divisor+6,f
  3544  0111  0DA7               	rlf	___lomod@divisor+7,f
  3545  0112                     l1622:
  3546  0112  3001               	movlw	1
  3547  0113  00F0               	movwf	??___lomod
  3548  0114  0870               	movf	??___lomod,w
  3549  0115  07F1               	addwf	___lomod@counter,f
  3550  0116                     l1624:
  3551  0116  1FA7               	btfss	___lomod@divisor+7,7
  3552  0117  2919               	goto	u1421
  3553  0118  291A               	goto	u1420
  3554  0119                     u1421:
  3555  0119  290A               	goto	l1620
  3556  011A                     u1420:
  3557  011A                     l1626:
  3558  011A  0827               	movf	___lomod@divisor+7,w
  3559  011B  022F               	subwf	___lomod@dividend+7,w
  3560  011C  1D03               	skipz
  3561  011D  2938               	goto	u1435
  3562  011E  0826               	movf	___lomod@divisor+6,w
  3563  011F  022E               	subwf	___lomod@dividend+6,w
  3564  0120  1D03               	skipz
  3565  0121  2938               	goto	u1435
  3566  0122  0825               	movf	___lomod@divisor+5,w
  3567  0123  022D               	subwf	___lomod@dividend+5,w
  3568  0124  1D03               	skipz
  3569  0125  2938               	goto	u1435
  3570  0126  0824               	movf	___lomod@divisor+4,w
  3571  0127  022C               	subwf	___lomod@dividend+4,w
  3572  0128  1D03               	skipz
  3573  0129  2938               	goto	u1435
  3574  012A  0823               	movf	___lomod@divisor+3,w
  3575  012B  022B               	subwf	___lomod@dividend+3,w
  3576  012C  1D03               	skipz
  3577  012D  2938               	goto	u1435
  3578  012E  0822               	movf	___lomod@divisor+2,w
  3579  012F  022A               	subwf	___lomod@dividend+2,w
  3580  0130  1D03               	skipz
  3581  0131  2938               	goto	u1435
  3582  0132  0821               	movf	___lomod@divisor+1,w
  3583  0133  0229               	subwf	___lomod@dividend+1,w
  3584  0134  1D03               	skipz
  3585  0135  2938               	goto	u1435
  3586  0136  0820               	movf	___lomod@divisor,w
  3587  0137  0228               	subwf	___lomod@dividend,w
  3588  0138                     u1435:
  3589  0138  1C03               	skipc
  3590  0139  293B               	goto	u1431
  3591  013A  293C               	goto	u1430
  3592  013B                     u1431:
  3593  013B  294C               	goto	l1630
  3594  013C                     u1430:
  3595  013C                     l1628:
  3596  013C  0820               	movf	___lomod@divisor,w
  3597  013D  02A8               	subwf	___lomod@dividend,f
  3598  013E  0821               	movf	___lomod@divisor+1,w
  3599  013F  3BA9               	subwfb	___lomod@dividend+1,f
  3600  0140  0822               	movf	___lomod@divisor+2,w
  3601  0141  3BAA               	subwfb	___lomod@dividend+2,f
  3602  0142  0823               	movf	___lomod@divisor+3,w
  3603  0143  3BAB               	subwfb	___lomod@dividend+3,f
  3604  0144  0824               	movf	___lomod@divisor+4,w
  3605  0145  3BAC               	subwfb	___lomod@dividend+4,f
  3606  0146  0825               	movf	___lomod@divisor+5,w
  3607  0147  3BAD               	subwfb	___lomod@dividend+5,f
  3608  0148  0826               	movf	___lomod@divisor+6,w
  3609  0149  3BAE               	subwfb	___lomod@dividend+6,f
  3610  014A  0827               	movf	___lomod@divisor+7,w
  3611  014B  3BAF               	subwfb	___lomod@dividend+7,f
  3612  014C                     l1630:
  3613  014C  36A7               	lsrf	___lomod@divisor+7,f
  3614  014D  0CA6               	rrf	___lomod@divisor+6,f
  3615  014E  0CA5               	rrf	___lomod@divisor+5,f
  3616  014F  0CA4               	rrf	___lomod@divisor+4,f
  3617  0150  0CA3               	rrf	___lomod@divisor+3,f
  3618  0151  0CA2               	rrf	___lomod@divisor+2,f
  3619  0152  0CA1               	rrf	___lomod@divisor+1,f
  3620  0153  0CA0               	rrf	___lomod@divisor,f
  3621  0154  3001               	movlw	1
  3622  0155  02F1               	subwf	___lomod@counter,f
  3623  0156  1D03               	btfss	3,2
  3624  0157  2959               	goto	u1441
  3625  0158  295A               	goto	u1440
  3626  0159                     u1441:
  3627  0159  291A               	goto	l1626
  3628  015A                     u1440:
  3629  015A                     l512:
  3630  015A  0828               	movf	___lomod@dividend,w
  3631  015B  00A0               	movwf	?___lomod
  3632  015C  0829               	movf	___lomod@dividend+1,w
  3633  015D  00A1               	movwf	?___lomod+1
  3634  015E  082A               	movf	___lomod@dividend+2,w
  3635  015F  00A2               	movwf	?___lomod+2
  3636  0160  082B               	movf	___lomod@dividend+3,w
  3637  0161  00A3               	movwf	?___lomod+3
  3638  0162  082C               	movf	___lomod@dividend+4,w
  3639  0163  00A4               	movwf	?___lomod+4
  3640  0164  082D               	movf	___lomod@dividend+5,w
  3641  0165  00A5               	movwf	?___lomod+5
  3642  0166  082E               	movf	___lomod@dividend+6,w
  3643  0167  00A6               	movwf	?___lomod+6
  3644  0168  082F               	movf	___lomod@dividend+7,w
  3645  0169  00A7               	movwf	?___lomod+7
  3646  016A                     l519:
  3647  016A  0008               	return
  3648  016B                     __end_of___lomod:
  3649                           
  3650                           	psect	text11
  3651  01E0                     __ptext11:	
  3652 ;; *************** function ___lodiv *****************
  3653 ;; Defined at:
  3654 ;;		line 7 in file "C:\Program Files\Microchip\xc8\v2.36\pic\sources\c99\common\lodiv.c"
  3655 ;; Parameters:    Size  Location     Type
  3656 ;;  divisor         8    0[BANK0 ] unsigned long long 
  3657 ;;  dividend        8    8[BANK0 ] unsigned long long 
  3658 ;; Auto vars:     Size  Location     Type
  3659 ;;  quotient        8    1[COMMON] unsigned long long 
  3660 ;;  counter         1    9[COMMON] unsigned char 
  3661 ;; Return value:  Size  Location     Type
  3662 ;;                  8    0[BANK0 ] unsigned long long 
  3663 ;; Registers used:
  3664 ;;		wreg, fsr1l, fsr1h, status,2, status,0
  3665 ;; Tracked objects:
  3666 ;;		On entry : 0/0
  3667 ;;		On exit  : 0/0
  3668 ;;		Unchanged: 0/0
  3669 ;; Data sizes:     COMMON   BANK0   BANK1   BANK2   BANK3   BANK4   BANK5   BANK6
  3670 ;;      Params:         0      16       0       0       0       0       0       0
  3671 ;;      Locals:         9       0       0       0       0       0       0       0
  3672 ;;      Temps:          1       0       0       0       0       0       0       0
  3673 ;;      Totals:        10      16       0       0       0       0       0       0
  3674 ;;Total ram usage:       26 bytes
  3675 ;; Hardware stack levels used: 1
  3676 ;; This function calls:
  3677 ;;		Nothing
  3678 ;; This function is called by:
  3679 ;;		_utoa
  3680 ;; This function uses a non-reentrant model
  3681 ;;
  3682                           
  3683  01E0                     ___lodiv:	
  3684                           ;psect for function ___lodiv
  3685                           
  3686  01E0                     l1594:	
  3687                           ;incstack = 0
  3688                           ; Regs used in ___lodiv: [wreg+fsr1l+fsr1h+status,2+status,0]
  3689                           
  3690  01E0  3071               	movlw	low ___lodiv@quotient
  3691  01E1  0086               	movwf	6
  3692  01E2  3000               	movlw	high ___lodiv@quotient
  3693  01E3  0087               	movwf	7
  3694  01E4  3008               	movlw	8
  3695  01E5  00F0               	movwf	??___lodiv
  3696  01E6  3000               	movlw	0
  3697  01E7                     u1360:
  3698  01E7  001E               	movwi fsr1++
  3699  01E8  0BF0               	decfsz	??___lodiv,f
  3700  01E9  29E7               	goto	u1360
  3701  01EA                     l1596:
  3702  01EA  0020               	movlb	0	; select bank0
  3703  01EB  0820               	movf	___lodiv@divisor,w
  3704  01EC  0421               	iorwf	___lodiv@divisor+1,w
  3705  01ED  0422               	iorwf	___lodiv@divisor+2,w
  3706  01EE  0423               	iorwf	___lodiv@divisor+3,w
  3707  01EF  0424               	iorwf	___lodiv@divisor+4,w
  3708  01F0  0425               	iorwf	___lodiv@divisor+5,w
  3709  01F1  0426               	iorwf	___lodiv@divisor+6,w
  3710  01F2  0427               	iorwf	___lodiv@divisor+7,w
  3711  01F3  1903               	skipnz
  3712  01F4  29F6               	goto	u1371
  3713  01F5  29F7               	goto	u1370
  3714  01F6                     u1371:
  3715  01F6  2A53               	goto	l502
  3716  01F7                     u1370:
  3717  01F7                     l1598:
  3718  01F7  01F9               	clrf	___lodiv@counter
  3719  01F8  0AF9               	incf	___lodiv@counter,f
  3720  01F9  2A06               	goto	l1604
  3721  01FA                     l1600:
  3722  01FA  35A0               	lslf	___lodiv@divisor,f
  3723  01FB  0DA1               	rlf	___lodiv@divisor+1,f
  3724  01FC  0DA2               	rlf	___lodiv@divisor+2,f
  3725  01FD  0DA3               	rlf	___lodiv@divisor+3,f
  3726  01FE  0DA4               	rlf	___lodiv@divisor+4,f
  3727  01FF  0DA5               	rlf	___lodiv@divisor+5,f
  3728  0200  0DA6               	rlf	___lodiv@divisor+6,f
  3729  0201  0DA7               	rlf	___lodiv@divisor+7,f
  3730  0202                     l1602:
  3731  0202  3001               	movlw	1
  3732  0203  00F0               	movwf	??___lodiv
  3733  0204  0870               	movf	??___lodiv,w
  3734  0205  07F9               	addwf	___lodiv@counter,f
  3735  0206                     l1604:
  3736  0206  1FA7               	btfss	___lodiv@divisor+7,7
  3737  0207  2A09               	goto	u1381
  3738  0208  2A0A               	goto	u1380
  3739  0209                     u1381:
  3740  0209  29FA               	goto	l1600
  3741  020A                     u1380:
  3742  020A                     l1606:
  3743  020A  35F1               	lslf	___lodiv@quotient,f
  3744  020B  0DF2               	rlf	___lodiv@quotient+1,f
  3745  020C  0DF3               	rlf	___lodiv@quotient+2,f
  3746  020D  0DF4               	rlf	___lodiv@quotient+3,f
  3747  020E  0DF5               	rlf	___lodiv@quotient+4,f
  3748  020F  0DF6               	rlf	___lodiv@quotient+5,f
  3749  0210  0DF7               	rlf	___lodiv@quotient+6,f
  3750  0211  0DF8               	rlf	___lodiv@quotient+7,f
  3751  0212                     l1608:
  3752  0212  0827               	movf	___lodiv@divisor+7,w
  3753  0213  022F               	subwf	___lodiv@dividend+7,w
  3754  0214  1D03               	skipz
  3755  0215  2A30               	goto	u1395
  3756  0216  0826               	movf	___lodiv@divisor+6,w
  3757  0217  022E               	subwf	___lodiv@dividend+6,w
  3758  0218  1D03               	skipz
  3759  0219  2A30               	goto	u1395
  3760  021A  0825               	movf	___lodiv@divisor+5,w
  3761  021B  022D               	subwf	___lodiv@dividend+5,w
  3762  021C  1D03               	skipz
  3763  021D  2A30               	goto	u1395
  3764  021E  0824               	movf	___lodiv@divisor+4,w
  3765  021F  022C               	subwf	___lodiv@dividend+4,w
  3766  0220  1D03               	skipz
  3767  0221  2A30               	goto	u1395
  3768  0222  0823               	movf	___lodiv@divisor+3,w
  3769  0223  022B               	subwf	___lodiv@dividend+3,w
  3770  0224  1D03               	skipz
  3771  0225  2A30               	goto	u1395
  3772  0226  0822               	movf	___lodiv@divisor+2,w
  3773  0227  022A               	subwf	___lodiv@dividend+2,w
  3774  0228  1D03               	skipz
  3775  0229  2A30               	goto	u1395
  3776  022A  0821               	movf	___lodiv@divisor+1,w
  3777  022B  0229               	subwf	___lodiv@dividend+1,w
  3778  022C  1D03               	skipz
  3779  022D  2A30               	goto	u1395
  3780  022E  0820               	movf	___lodiv@divisor,w
  3781  022F  0228               	subwf	___lodiv@dividend,w
  3782  0230                     u1395:
  3783  0230  1C03               	skipc
  3784  0231  2A33               	goto	u1391
  3785  0232  2A34               	goto	u1390
  3786  0233                     u1391:
  3787  0233  2A45               	goto	l1614
  3788  0234                     u1390:
  3789  0234                     l1610:
  3790  0234  0820               	movf	___lodiv@divisor,w
  3791  0235  02A8               	subwf	___lodiv@dividend,f
  3792  0236  0821               	movf	___lodiv@divisor+1,w
  3793  0237  3BA9               	subwfb	___lodiv@dividend+1,f
  3794  0238  0822               	movf	___lodiv@divisor+2,w
  3795  0239  3BAA               	subwfb	___lodiv@dividend+2,f
  3796  023A  0823               	movf	___lodiv@divisor+3,w
  3797  023B  3BAB               	subwfb	___lodiv@dividend+3,f
  3798  023C  0824               	movf	___lodiv@divisor+4,w
  3799  023D  3BAC               	subwfb	___lodiv@dividend+4,f
  3800  023E  0825               	movf	___lodiv@divisor+5,w
  3801  023F  3BAD               	subwfb	___lodiv@dividend+5,f
  3802  0240  0826               	movf	___lodiv@divisor+6,w
  3803  0241  3BAE               	subwfb	___lodiv@dividend+6,f
  3804  0242  0827               	movf	___lodiv@divisor+7,w
  3805  0243  3BAF               	subwfb	___lodiv@dividend+7,f
  3806  0244                     l1612:
  3807  0244  1471               	bsf	___lodiv@quotient,0
  3808  0245                     l1614:
  3809  0245  36A7               	lsrf	___lodiv@divisor+7,f
  3810  0246  0CA6               	rrf	___lodiv@divisor+6,f
  3811  0247  0CA5               	rrf	___lodiv@divisor+5,f
  3812  0248  0CA4               	rrf	___lodiv@divisor+4,f
  3813  0249  0CA3               	rrf	___lodiv@divisor+3,f
  3814  024A  0CA2               	rrf	___lodiv@divisor+2,f
  3815  024B  0CA1               	rrf	___lodiv@divisor+1,f
  3816  024C  0CA0               	rrf	___lodiv@divisor,f
  3817  024D  3001               	movlw	1
  3818  024E  02F9               	subwf	___lodiv@counter,f
  3819  024F  1D03               	btfss	3,2
  3820  0250  2A52               	goto	u1401
  3821  0251  2A53               	goto	u1400
  3822  0252                     u1401:
  3823  0252  2A0A               	goto	l1606
  3824  0253                     u1400:
  3825  0253                     l502:
  3826  0253  0871               	movf	___lodiv@quotient,w
  3827  0254  00A0               	movwf	?___lodiv
  3828  0255  0872               	movf	___lodiv@quotient+1,w
  3829  0256  00A1               	movwf	?___lodiv+1
  3830  0257  0873               	movf	___lodiv@quotient+2,w
  3831  0258  00A2               	movwf	?___lodiv+2
  3832  0259  0874               	movf	___lodiv@quotient+3,w
  3833  025A  00A3               	movwf	?___lodiv+3
  3834  025B  0875               	movf	___lodiv@quotient+4,w
  3835  025C  00A4               	movwf	?___lodiv+4
  3836  025D  0876               	movf	___lodiv@quotient+5,w
  3837  025E  00A5               	movwf	?___lodiv+5
  3838  025F  0877               	movf	___lodiv@quotient+6,w
  3839  0260  00A6               	movwf	?___lodiv+6
  3840  0261  0878               	movf	___lodiv@quotient+7,w
  3841  0262  00A7               	movwf	?___lodiv+7
  3842  0263                     l509:
  3843  0263  0008               	return
  3844  0264                     __end_of___lodiv:
  3845                           
  3846                           	psect	text12
  3847  0264                     __ptext12:	
  3848 ;; *************** function ___xxtofl *****************
  3849 ;; Defined at:
  3850 ;;		line 10 in file "C:\Program Files\Microchip\xc8\v2.36\pic\sources\c99\common\xxtofl.c"
  3851 ;; Parameters:    Size  Location     Type
  3852 ;;  sign            1    wreg     unsigned char 
  3853 ;;  val             4    4[BANK0 ] long 
  3854 ;; Auto vars:     Size  Location     Type
  3855 ;;  sign            1   12[BANK0 ] unsigned char 
  3856 ;;  arg             4   14[BANK0 ] unsigned long 
  3857 ;;  exp             1   13[BANK0 ] unsigned char 
  3858 ;; Return value:  Size  Location     Type
  3859 ;;                  4    4[BANK0 ] unsigned char 
  3860 ;; Registers used:
  3861 ;;		wreg, status,2, status,0
  3862 ;; Tracked objects:
  3863 ;;		On entry : 0/0
  3864 ;;		On exit  : 0/0
  3865 ;;		Unchanged: 0/0
  3866 ;; Data sizes:     COMMON   BANK0   BANK1   BANK2   BANK3   BANK4   BANK5   BANK6
  3867 ;;      Params:         0       4       0       0       0       0       0       0
  3868 ;;      Locals:         0       6       0       0       0       0       0       0
  3869 ;;      Temps:          0       4       0       0       0       0       0       0
  3870 ;;      Totals:         0      14       0       0       0       0       0       0
  3871 ;;Total ram usage:       14 bytes
  3872 ;; Hardware stack levels used: 1
  3873 ;; This function calls:
  3874 ;;		Nothing
  3875 ;; This function is called by:
  3876 ;;		_main
  3877 ;; This function uses a non-reentrant model
  3878 ;;
  3879                           
  3880  0264                     ___xxtofl:	
  3881                           ;psect for function ___xxtofl
  3882                           
  3883                           
  3884                           ;incstack = 0
  3885                           ; Regs used in ___xxtofl: [wreg+status,2+status,0]
  3886                           ;___xxtofl@sign stored from wreg
  3887  0264  0020               	movlb	0	; select bank0
  3888  0265  00AC               	movwf	___xxtofl@sign
  3889  0266                     l2188:
  3890  0266  082C               	movf	___xxtofl@sign,w
  3891  0267  1903               	btfsc	3,2
  3892  0268  2A6A               	goto	u2441
  3893  0269  2A6B               	goto	u2440
  3894  026A                     u2441:
  3895  026A  2A7F               	goto	l2194
  3896  026B                     u2440:
  3897  026B                     l2190:
  3898  026B  1FA7               	btfss	___xxtofl@val+3,7
  3899  026C  2A6E               	goto	u2451
  3900  026D  2A6F               	goto	u2450
  3901  026E                     u2451:
  3902  026E  2A7F               	goto	l2194
  3903  026F                     u2450:
  3904  026F                     l2192:
  3905  026F  0924               	comf	___xxtofl@val,w
  3906  0270  00AE               	movwf	___xxtofl@arg
  3907  0271  0925               	comf	___xxtofl@val+1,w
  3908  0272  00AF               	movwf	___xxtofl@arg+1
  3909  0273  0926               	comf	___xxtofl@val+2,w
  3910  0274  00B0               	movwf	___xxtofl@arg+2
  3911  0275  0927               	comf	___xxtofl@val+3,w
  3912  0276  00B1               	movwf	___xxtofl@arg+3
  3913  0277  0AAE               	incf	___xxtofl@arg,f
  3914  0278  1903               	skipnz
  3915  0279  0AAF               	incf	___xxtofl@arg+1,f
  3916  027A  1903               	skipnz
  3917  027B  0AB0               	incf	___xxtofl@arg+2,f
  3918  027C  1903               	skipnz
  3919  027D  0AB1               	incf	___xxtofl@arg+3,f
  3920  027E  2A87               	goto	l710
  3921  027F                     l2194:
  3922  027F  0827               	movf	___xxtofl@val+3,w
  3923  0280  00B1               	movwf	___xxtofl@arg+3
  3924  0281  0826               	movf	___xxtofl@val+2,w
  3925  0282  00B0               	movwf	___xxtofl@arg+2
  3926  0283  0825               	movf	___xxtofl@val+1,w
  3927  0284  00AF               	movwf	___xxtofl@arg+1
  3928  0285  0824               	movf	___xxtofl@val,w
  3929  0286  00AE               	movwf	___xxtofl@arg
  3930  0287                     l710:
  3931  0287  0827               	movf	___xxtofl@val+3,w
  3932  0288  0426               	iorwf	___xxtofl@val+2,w
  3933  0289  0425               	iorwf	___xxtofl@val+1,w
  3934  028A  0424               	iorwf	___xxtofl@val,w
  3935  028B  1D03               	skipz
  3936  028C  2A8E               	goto	u2461
  3937  028D  2A8F               	goto	u2460
  3938  028E                     u2461:
  3939  028E  2A98               	goto	l2200
  3940  028F                     u2460:
  3941  028F                     l2196:
  3942  028F  3000               	movlw	0
  3943  0290  00A7               	movwf	?___xxtofl+3
  3944  0291  3000               	movlw	0
  3945  0292  00A6               	movwf	?___xxtofl+2
  3946  0293  3000               	movlw	0
  3947  0294  00A5               	movwf	?___xxtofl+1
  3948  0295  3000               	movlw	0
  3949  0296  00A4               	movwf	?___xxtofl
  3950  0297  2B10               	goto	l712
  3951  0298                     l2200:
  3952  0298  3096               	movlw	150
  3953  0299  00A8               	movwf	??___xxtofl
  3954  029A  0828               	movf	??___xxtofl,w
  3955  029B  00AD               	movwf	___xxtofl@exp
  3956  029C  2AA8               	goto	l2204
  3957  029D                     l2202:
  3958  029D  3001               	movlw	1
  3959  029E  00A8               	movwf	??___xxtofl
  3960  029F  0828               	movf	??___xxtofl,w
  3961  02A0  07AD               	addwf	___xxtofl@exp,f
  3962  02A1  3001               	movlw	1
  3963  02A2                     u2475:
  3964  02A2  36B1               	lsrf	___xxtofl@arg+3,f
  3965  02A3  0CB0               	rrf	___xxtofl@arg+2,f
  3966  02A4  0CAF               	rrf	___xxtofl@arg+1,f
  3967  02A5  0CAE               	rrf	___xxtofl@arg,f
  3968  02A6  0B89               	decfsz	9,f
  3969  02A7  2AA2               	goto	u2475
  3970  02A8                     l2204:
  3971  02A8  30FE               	movlw	254
  3972  02A9  0531               	andwf	___xxtofl@arg+3,w
  3973  02AA  1D03               	btfss	3,2
  3974  02AB  2AAD               	goto	u2481
  3975  02AC  2AAE               	goto	u2480
  3976  02AD                     u2481:
  3977  02AD  2A9D               	goto	l2202
  3978  02AE                     u2480:
  3979  02AE  2AC2               	goto	l716
  3980  02AF                     l2206:
  3981  02AF  3001               	movlw	1
  3982  02B0  00A8               	movwf	??___xxtofl
  3983  02B1  0828               	movf	??___xxtofl,w
  3984  02B2  07AD               	addwf	___xxtofl@exp,f
  3985  02B3                     l2208:
  3986  02B3  3001               	movlw	1
  3987  02B4  07AE               	addwf	___xxtofl@arg,f
  3988  02B5  3000               	movlw	0
  3989  02B6  3DAF               	addwfc	___xxtofl@arg+1,f
  3990  02B7  3000               	movlw	0
  3991  02B8  3DB0               	addwfc	___xxtofl@arg+2,f
  3992  02B9  3000               	movlw	0
  3993  02BA  3DB1               	addwfc	___xxtofl@arg+3,f
  3994  02BB                     l2210:
  3995  02BB  3001               	movlw	1
  3996  02BC                     u2495:
  3997  02BC  36B1               	lsrf	___xxtofl@arg+3,f
  3998  02BD  0CB0               	rrf	___xxtofl@arg+2,f
  3999  02BE  0CAF               	rrf	___xxtofl@arg+1,f
  4000  02BF  0CAE               	rrf	___xxtofl@arg,f
  4001  02C0  0B89               	decfsz	9,f
  4002  02C1  2ABC               	goto	u2495
  4003  02C2                     l716:
  4004  02C2  30FF               	movlw	255
  4005  02C3  0531               	andwf	___xxtofl@arg+3,w
  4006  02C4  1D03               	btfss	3,2
  4007  02C5  2AC7               	goto	u2501
  4008  02C6  2AC8               	goto	u2500
  4009  02C7                     u2501:
  4010  02C7  2AAF               	goto	l2206
  4011  02C8                     u2500:
  4012  02C8  2AD2               	goto	l2214
  4013  02C9                     l2212:
  4014  02C9  3001               	movlw	1
  4015  02CA  02AD               	subwf	___xxtofl@exp,f
  4016  02CB  3001               	movlw	1
  4017  02CC                     u2515:
  4018  02CC  35AE               	lslf	___xxtofl@arg,f
  4019  02CD  0DAF               	rlf	___xxtofl@arg+1,f
  4020  02CE  0DB0               	rlf	___xxtofl@arg+2,f
  4021  02CF  0DB1               	rlf	___xxtofl@arg+3,f
  4022  02D0  0B89               	decfsz	9,f
  4023  02D1  2ACC               	goto	u2515
  4024  02D2                     l2214:
  4025  02D2  1BB0               	btfsc	___xxtofl@arg+2,7
  4026  02D3  2AD5               	goto	u2521
  4027  02D4  2AD6               	goto	u2520
  4028  02D5                     u2521:
  4029  02D5  2ADC               	goto	l723
  4030  02D6                     u2520:
  4031  02D6                     l2216:
  4032  02D6  3002               	movlw	2
  4033  02D7  022D               	subwf	___xxtofl@exp,w
  4034  02D8  1803               	skipnc
  4035  02D9  2ADB               	goto	u2531
  4036  02DA  2ADC               	goto	u2530
  4037  02DB                     u2531:
  4038  02DB  2AC9               	goto	l2212
  4039  02DC                     u2530:
  4040  02DC                     l723:
  4041  02DC  182D               	btfsc	___xxtofl@exp,0
  4042  02DD  2ADF               	goto	u2541
  4043  02DE  2AE0               	goto	u2540
  4044  02DF                     u2541:
  4045  02DF  2AE8               	goto	l724
  4046  02E0                     u2540:
  4047  02E0                     l2218:
  4048  02E0  30FF               	movlw	255
  4049  02E1  05AE               	andwf	___xxtofl@arg,f
  4050  02E2  30FF               	movlw	255
  4051  02E3  05AF               	andwf	___xxtofl@arg+1,f
  4052  02E4  307F               	movlw	127
  4053  02E5  05B0               	andwf	___xxtofl@arg+2,f
  4054  02E6  30FF               	movlw	255
  4055  02E7  05B1               	andwf	___xxtofl@arg+3,f
  4056  02E8                     l724:
  4057  02E8  1003               	clrc
  4058  02E9  0CAD               	rrf	___xxtofl@exp,f
  4059  02EA                     l2220:
  4060  02EA  082D               	movf	___xxtofl@exp,w
  4061  02EB  00A8               	movwf	??___xxtofl
  4062  02EC  01A9               	clrf	??___xxtofl+1
  4063  02ED  01AA               	clrf	??___xxtofl+2
  4064  02EE  01AB               	clrf	??___xxtofl+3
  4065  02EF  3018               	movlw	24
  4066  02F0                     u2555:
  4067  02F0  35A8               	lslf	??___xxtofl,f
  4068  02F1  0DA9               	rlf	??___xxtofl+1,f
  4069  02F2  0DAA               	rlf	??___xxtofl+2,f
  4070  02F3  0DAB               	rlf	??___xxtofl+3,f
  4071  02F4                     u2550:
  4072  02F4  0B89               	decfsz	9,f
  4073  02F5  2AF0               	goto	u2555
  4074  02F6  0828               	movf	??___xxtofl,w
  4075  02F7  04AE               	iorwf	___xxtofl@arg,f
  4076  02F8  0829               	movf	??___xxtofl+1,w
  4077  02F9  04AF               	iorwf	___xxtofl@arg+1,f
  4078  02FA  082A               	movf	??___xxtofl+2,w
  4079  02FB  04B0               	iorwf	___xxtofl@arg+2,f
  4080  02FC  082B               	movf	??___xxtofl+3,w
  4081  02FD  04B1               	iorwf	___xxtofl@arg+3,f
  4082  02FE                     l2222:
  4083  02FE  082C               	movf	___xxtofl@sign,w
  4084  02FF  1903               	btfsc	3,2
  4085  0300  2B02               	goto	u2561
  4086  0301  2B03               	goto	u2560
  4087  0302                     u2561:
  4088  0302  2B08               	goto	l2228
  4089  0303                     u2560:
  4090  0303                     l2224:
  4091  0303  1FA7               	btfss	___xxtofl@val+3,7
  4092  0304  2B06               	goto	u2571
  4093  0305  2B07               	goto	u2570
  4094  0306                     u2571:
  4095  0306  2B08               	goto	l2228
  4096  0307                     u2570:
  4097  0307                     l2226:
  4098  0307  17B1               	bsf	___xxtofl@arg+3,7
  4099  0308                     l2228:
  4100  0308  0831               	movf	___xxtofl@arg+3,w
  4101  0309  00A7               	movwf	?___xxtofl+3
  4102  030A  0830               	movf	___xxtofl@arg+2,w
  4103  030B  00A6               	movwf	?___xxtofl+2
  4104  030C  082F               	movf	___xxtofl@arg+1,w
  4105  030D  00A5               	movwf	?___xxtofl+1
  4106  030E  082E               	movf	___xxtofl@arg,w
  4107  030F  00A4               	movwf	?___xxtofl
  4108  0310                     l712:
  4109  0310  0008               	return
  4110  0311                     __end_of___xxtofl:
  4111                           
  4112                           	psect	text13
  4113  0EA1                     __ptext13:	
  4114 ;; *************** function ___wmul *****************
  4115 ;; Defined at:
  4116 ;;		line 15 in file "C:\Program Files\Microchip\xc8\v2.36\pic\sources\c99\common\Umul16.c"
  4117 ;; Parameters:    Size  Location     Type
  4118 ;;  multiplier      2    0[COMMON] unsigned int 
  4119 ;;  multiplicand    2    2[COMMON] unsigned int 
  4120 ;; Auto vars:     Size  Location     Type
  4121 ;;  product         2    4[COMMON] unsigned int 
  4122 ;; Return value:  Size  Location     Type
  4123 ;;                  2    0[COMMON] unsigned int 
  4124 ;; Registers used:
  4125 ;;		wreg, status,2, status,0
  4126 ;; Tracked objects:
  4127 ;;		On entry : 0/0
  4128 ;;		On exit  : 0/0
  4129 ;;		Unchanged: 0/0
  4130 ;; Data sizes:     COMMON   BANK0   BANK1   BANK2   BANK3   BANK4   BANK5   BANK6
  4131 ;;      Params:         4       0       0       0       0       0       0       0
  4132 ;;      Locals:         2       0       0       0       0       0       0       0
  4133 ;;      Temps:          0       0       0       0       0       0       0       0
  4134 ;;      Totals:         6       0       0       0       0       0       0       0
  4135 ;;Total ram usage:        6 bytes
  4136 ;; Hardware stack levels used: 1
  4137 ;; This function calls:
  4138 ;;		Nothing
  4139 ;; This function is called by:
  4140 ;;		_main
  4141 ;; This function uses a non-reentrant model
  4142 ;;
  4143                           
  4144  0EA1                     ___wmul:	
  4145                           ;psect for function ___wmul
  4146                           
  4147  0EA1                     l1900:	
  4148                           ;incstack = 0
  4149                           ; Regs used in ___wmul: [wreg+status,2+status,0]
  4150                           
  4151  0EA1  01F4               	clrf	___wmul@product
  4152  0EA2  01F5               	clrf	___wmul@product+1
  4153  0EA3                     l1902:
  4154  0EA3  1C70               	btfss	___wmul@multiplier,0
  4155  0EA4  2EA6               	goto	u1771
  4156  0EA5  2EA7               	goto	u1770
  4157  0EA6                     u1771:
  4158  0EA6  2EAB               	goto	l269
  4159  0EA7                     u1770:
  4160  0EA7                     l1904:
  4161  0EA7  0872               	movf	___wmul@multiplicand,w
  4162  0EA8  07F4               	addwf	___wmul@product,f
  4163  0EA9  0873               	movf	___wmul@multiplicand+1,w
  4164  0EAA  3DF5               	addwfc	___wmul@product+1,f
  4165  0EAB                     l269:
  4166  0EAB  3001               	movlw	1
  4167  0EAC                     u1785:
  4168  0EAC  35F2               	lslf	___wmul@multiplicand,f
  4169  0EAD  0DF3               	rlf	___wmul@multiplicand+1,f
  4170  0EAE  0B89               	decfsz	9,f
  4171  0EAF  2EAC               	goto	u1785
  4172  0EB0                     l1906:
  4173  0EB0  3001               	movlw	1
  4174  0EB1                     u1795:
  4175  0EB1  36F1               	lsrf	___wmul@multiplier+1,f
  4176  0EB2  0CF0               	rrf	___wmul@multiplier,f
  4177  0EB3  0B89               	decfsz	9,f
  4178  0EB4  2EB1               	goto	u1795
  4179  0EB5                     l1908:
  4180  0EB5  0870               	movf	___wmul@multiplier,w
  4181  0EB6  0471               	iorwf	___wmul@multiplier+1,w
  4182  0EB7  1D03               	btfss	3,2
  4183  0EB8  2EBA               	goto	u1801
  4184  0EB9  2EBB               	goto	u1800
  4185  0EBA                     u1801:
  4186  0EBA  2EA3               	goto	l1902
  4187  0EBB                     u1800:
  4188  0EBB                     l1910:
  4189  0EBB  0875               	movf	___wmul@product+1,w
  4190  0EBC  00F1               	movwf	?___wmul+1
  4191  0EBD  0874               	movf	___wmul@product,w
  4192  0EBE  00F0               	movwf	?___wmul
  4193  0EBF                     l271:
  4194  0EBF  0008               	return
  4195  0EC0                     __end_of___wmul:
  4196                           
  4197                           	psect	text14
  4198  016B                     __ptext14:	
  4199 ;; *************** function ___fltol *****************
  4200 ;; Defined at:
  4201 ;;		line 43 in file "C:\Program Files\Microchip\xc8\v2.36\pic\sources\c99\common\fltol.c"
  4202 ;; Parameters:    Size  Location     Type
  4203 ;;  f1              4   38[BANK0 ] unsigned int 
  4204 ;; Auto vars:     Size  Location     Type
  4205 ;;  exp1            1   12[COMMON] unsigned char 
  4206 ;;  sign1           1   11[COMMON] unsigned char 
  4207 ;; Return value:  Size  Location     Type
  4208 ;;                  4   38[BANK0 ] long 
  4209 ;; Registers used:
  4210 ;;		wreg, status,2, status,0
  4211 ;; Tracked objects:
  4212 ;;		On entry : 0/0
  4213 ;;		On exit  : 0/0
  4214 ;;		Unchanged: 0/0
  4215 ;; Data sizes:     COMMON   BANK0   BANK1   BANK2   BANK3   BANK4   BANK5   BANK6
  4216 ;;      Params:         0       4       0       0       0       0       0       0
  4217 ;;      Locals:         2       0       0       0       0       0       0       0
  4218 ;;      Temps:          0       5       0       0       0       0       0       0
  4219 ;;      Totals:         2       9       0       0       0       0       0       0
  4220 ;;Total ram usage:       11 bytes
  4221 ;; Hardware stack levels used: 1
  4222 ;; This function calls:
  4223 ;;		Nothing
  4224 ;; This function is called by:
  4225 ;;		_main
  4226 ;; This function uses a non-reentrant model
  4227 ;;
  4228                           
  4229  016B                     ___fltol:	
  4230                           ;psect for function ___fltol
  4231                           
  4232  016B                     l1958:	
  4233                           ;incstack = 0
  4234                           ; Regs used in ___fltol: [wreg+status,2+status,0]
  4235                           
  4236  016B  1003               	clrc
  4237  016C  0020               	movlb	0	; select bank0
  4238  016D  0D48               	rlf	___fltol@f1+2,w
  4239  016E  0D49               	rlf	___fltol@f1+3,w
  4240  016F  00CA               	movwf	??___fltol
  4241  0170  084A               	movf	??___fltol,w
  4242  0171  00FC               	movwf	___fltol@exp1
  4243  0172  087C               	movf	___fltol@exp1,w
  4244  0173  1D03               	btfss	3,2
  4245  0174  2976               	goto	u1911
  4246  0175  2977               	goto	u1910
  4247  0176                     u1911:
  4248  0176  2980               	goto	l1964
  4249  0177                     u1910:
  4250  0177                     l1960:
  4251  0177  3000               	movlw	0
  4252  0178  00C9               	movwf	?___fltol+3
  4253  0179  3000               	movlw	0
  4254  017A  00C8               	movwf	?___fltol+2
  4255  017B  3000               	movlw	0
  4256  017C  00C7               	movwf	?___fltol+1
  4257  017D  3000               	movlw	0
  4258  017E  00C6               	movwf	?___fltol
  4259  017F  29DF               	goto	l463
  4260  0180                     l1964:
  4261  0180  0846               	movf	___fltol@f1,w
  4262  0181  00CA               	movwf	??___fltol
  4263  0182  0847               	movf	___fltol@f1+1,w
  4264  0183  00CB               	movwf	??___fltol+1
  4265  0184  0848               	movf	___fltol@f1+2,w
  4266  0185  00CC               	movwf	??___fltol+2
  4267  0186  0849               	movf	___fltol@f1+3,w
  4268  0187  00CD               	movwf	??___fltol+3
  4269  0188  301F               	movlw	31
  4270  0189                     u1925:
  4271  0189  36CD               	lsrf	??___fltol+3,f
  4272  018A  0CCC               	rrf	??___fltol+2,f
  4273  018B  0CCB               	rrf	??___fltol+1,f
  4274  018C  0CCA               	rrf	??___fltol,f
  4275  018D                     u1920:
  4276  018D  0B89               	decfsz	9,f
  4277  018E  2989               	goto	u1925
  4278  018F  084A               	movf	??___fltol,w
  4279  0190  00CE               	movwf	??___fltol+4
  4280  0191  084E               	movf	??___fltol+4,w
  4281  0192  00FB               	movwf	___fltol@sign1
  4282  0193                     l1966:
  4283  0193  17C8               	bsf	___fltol@f1+2,7
  4284  0194                     l1968:
  4285  0194  30FF               	movlw	255
  4286  0195  05C6               	andwf	___fltol@f1,f
  4287  0196  30FF               	movlw	255
  4288  0197  05C7               	andwf	___fltol@f1+1,f
  4289  0198  30FF               	movlw	255
  4290  0199  05C8               	andwf	___fltol@f1+2,f
  4291  019A  3000               	movlw	0
  4292  019B  05C9               	andwf	___fltol@f1+3,f
  4293  019C                     l1970:
  4294  019C  3096               	movlw	150
  4295  019D  02FC               	subwf	___fltol@exp1,f
  4296  019E                     l1972:
  4297  019E  1FFC               	btfss	___fltol@exp1,7
  4298  019F  29A1               	goto	u1931
  4299  01A0  29A2               	goto	u1930
  4300  01A1                     u1931:
  4301  01A1  29BA               	goto	l1982
  4302  01A2                     u1930:
  4303  01A2                     l1974:
  4304  01A2  087C               	movf	___fltol@exp1,w
  4305  01A3  3A80               	xorlw	128
  4306  01A4  3E97               	addlw	151
  4307  01A5  1803               	skipnc
  4308  01A6  29A8               	goto	u1941
  4309  01A7  29A9               	goto	u1940
  4310  01A8                     u1941:
  4311  01A8  29AA               	goto	l1980
  4312  01A9                     u1940:
  4313  01A9  2977               	goto	l1960
  4314  01AA                     l1980:
  4315  01AA  3001               	movlw	1
  4316  01AB                     u1955:
  4317  01AB  36C9               	lsrf	___fltol@f1+3,f
  4318  01AC  0CC8               	rrf	___fltol@f1+2,f
  4319  01AD  0CC7               	rrf	___fltol@f1+1,f
  4320  01AE  0CC6               	rrf	___fltol@f1,f
  4321  01AF  0B89               	decfsz	9,f
  4322  01B0  29AB               	goto	u1955
  4323  01B1  3001               	movlw	1
  4324  01B2  00CA               	movwf	??___fltol
  4325  01B3  084A               	movf	??___fltol,w
  4326  01B4  07FC               	addwf	___fltol@exp1,f
  4327  01B5  1D03               	btfss	3,2
  4328  01B6  29B8               	goto	u1961
  4329  01B7  29B9               	goto	u1960
  4330  01B8                     u1961:
  4331  01B8  29AA               	goto	l1980
  4332  01B9                     u1960:
  4333  01B9  29CF               	goto	l1990
  4334  01BA                     l1982:
  4335  01BA  3020               	movlw	32
  4336  01BB  027C               	subwf	___fltol@exp1,w
  4337  01BC  1C03               	skipc
  4338  01BD  29BF               	goto	u1971
  4339  01BE  29C0               	goto	u1970
  4340  01BF                     u1971:
  4341  01BF  29CA               	goto	l470
  4342  01C0                     u1970:
  4343  01C0  2977               	goto	l1960
  4344  01C1                     l1988:
  4345  01C1  3001               	movlw	1
  4346  01C2                     u1985:
  4347  01C2  35C6               	lslf	___fltol@f1,f
  4348  01C3  0DC7               	rlf	___fltol@f1+1,f
  4349  01C4  0DC8               	rlf	___fltol@f1+2,f
  4350  01C5  0DC9               	rlf	___fltol@f1+3,f
  4351  01C6  0B89               	decfsz	9,f
  4352  01C7  29C2               	goto	u1985
  4353  01C8  3001               	movlw	1
  4354  01C9  02FC               	subwf	___fltol@exp1,f
  4355  01CA                     l470:
  4356  01CA  087C               	movf	___fltol@exp1,w
  4357  01CB  1D03               	btfss	3,2
  4358  01CC  29CE               	goto	u1991
  4359  01CD  29CF               	goto	u1990
  4360  01CE                     u1991:
  4361  01CE  29C1               	goto	l1988
  4362  01CF                     u1990:
  4363  01CF                     l1990:
  4364  01CF  087B               	movf	___fltol@sign1,w
  4365  01D0  1903               	btfsc	3,2
  4366  01D1  29D3               	goto	u2001
  4367  01D2  29D4               	goto	u2000
  4368  01D3                     u2001:
  4369  01D3  29DF               	goto	l473
  4370  01D4                     u2000:
  4371  01D4                     l1992:
  4372  01D4  09C6               	comf	___fltol@f1,f
  4373  01D5  09C7               	comf	___fltol@f1+1,f
  4374  01D6  09C8               	comf	___fltol@f1+2,f
  4375  01D7  09C9               	comf	___fltol@f1+3,f
  4376  01D8  0AC6               	incf	___fltol@f1,f
  4377  01D9  1903               	skipnz
  4378  01DA  0AC7               	incf	___fltol@f1+1,f
  4379  01DB  1903               	skipnz
  4380  01DC  0AC8               	incf	___fltol@f1+2,f
  4381  01DD  1903               	skipnz
  4382  01DE  0AC9               	incf	___fltol@f1+3,f
  4383  01DF                     l473:
  4384  01DF                     l463:
  4385  01DF  0008               	return
  4386  01E0                     __end_of___fltol:
  4387                           
  4388                           	psect	text15
  4389  05BD                     __ptext15:	
  4390 ;; *************** function ___fladd *****************
  4391 ;; Defined at:
  4392 ;;		line 10 in file "C:\Program Files\Microchip\xc8\v2.36\pic\sources\c99\common\sprcadd.c"
  4393 ;; Parameters:    Size  Location     Type
  4394 ;;  b               4   18[BANK0 ] long 
  4395 ;;  a               4   22[BANK0 ] long 
  4396 ;; Auto vars:     Size  Location     Type
  4397 ;;  grs             1   37[BANK0 ] unsigned char 
  4398 ;;  bexp            1   36[BANK0 ] unsigned char 
  4399 ;;  aexp            1   35[BANK0 ] unsigned char 
  4400 ;;  signs           1   34[BANK0 ] unsigned char 
  4401 ;; Return value:  Size  Location     Type
  4402 ;;                  4   18[BANK0 ] unsigned char 
  4403 ;; Registers used:
  4404 ;;		wreg, status,2, status,0
  4405 ;; Tracked objects:
  4406 ;;		On entry : 0/0
  4407 ;;		On exit  : 0/0
  4408 ;;		Unchanged: 0/0
  4409 ;; Data sizes:     COMMON   BANK0   BANK1   BANK2   BANK3   BANK4   BANK5   BANK6
  4410 ;;      Params:         0       8       0       0       0       0       0       0
  4411 ;;      Locals:         0       4       0       0       0       0       0       0
  4412 ;;      Temps:          0       8       0       0       0       0       0       0
  4413 ;;      Totals:         0      20       0       0       0       0       0       0
  4414 ;;Total ram usage:       20 bytes
  4415 ;; Hardware stack levels used: 1
  4416 ;; This function calls:
  4417 ;;		Nothing
  4418 ;; This function is called by:
  4419 ;;		_main
  4420 ;; This function uses a non-reentrant model
  4421 ;;
  4422                           
  4423  05BD                     ___fladd:	
  4424                           ;psect for function ___fladd
  4425                           
  4426  05BD                     l1994:	
  4427                           ;incstack = 0
  4428                           ; Regs used in ___fladd: [wreg+status,2+status,0]
  4429                           
  4430  05BD  0020               	movlb	0	; select bank0
  4431  05BE  0835               	movf	___fladd@b+3,w
  4432  05BF  3980               	andlw	128
  4433  05C0  00BA               	movwf	??___fladd
  4434  05C1  083A               	movf	??___fladd,w
  4435  05C2  00C2               	movwf	___fladd@signs
  4436  05C3                     l1996:
  4437  05C3  3535               	lslf	___fladd@b+3,w
  4438  05C4  00BA               	movwf	??___fladd
  4439  05C5  083A               	movf	??___fladd,w
  4440  05C6  00C4               	movwf	___fladd@bexp
  4441  05C7                     l1998:
  4442  05C7  1FB4               	btfss	___fladd@b+2,7
  4443  05C8  2DCA               	goto	u2011
  4444  05C9  2DCB               	goto	u2010
  4445  05CA                     u2011:
  4446  05CA  2DCC               	goto	l2002
  4447  05CB                     u2010:
  4448  05CB                     l2000:
  4449  05CB  1444               	bsf	___fladd@bexp,0
  4450  05CC                     l2002:
  4451  05CC  0844               	movf	___fladd@bexp,w
  4452  05CD  1903               	btfsc	3,2
  4453  05CE  2DD0               	goto	u2021
  4454  05CF  2DD1               	goto	u2020
  4455  05D0                     u2021:
  4456  05D0  2DE1               	goto	l2012
  4457  05D1                     u2020:
  4458  05D1                     l2004:
  4459  05D1  0A44               	incf	___fladd@bexp,w
  4460  05D2  1D03               	btfss	3,2
  4461  05D3  2DD5               	goto	u2031
  4462  05D4  2DD6               	goto	u2030
  4463  05D5                     u2031:
  4464  05D5  2DDE               	goto	l2008
  4465  05D6                     u2030:
  4466  05D6                     l2006:
  4467  05D6  3000               	movlw	0
  4468  05D7  00B5               	movwf	___fladd@b+3
  4469  05D8  3000               	movlw	0
  4470  05D9  00B4               	movwf	___fladd@b+2
  4471  05DA  3000               	movlw	0
  4472  05DB  00B3               	movwf	___fladd@b+1
  4473  05DC  3000               	movlw	0
  4474  05DD  00B2               	movwf	___fladd@b
  4475  05DE                     l2008:
  4476  05DE  17B4               	bsf	___fladd@b+2,7
  4477  05DF                     l2010:
  4478  05DF  01B5               	clrf	___fladd@b+3
  4479  05E0  2DE9               	goto	l2014
  4480  05E1                     l2012:
  4481  05E1  3000               	movlw	0
  4482  05E2  00B5               	movwf	___fladd@b+3
  4483  05E3  3000               	movlw	0
  4484  05E4  00B4               	movwf	___fladd@b+2
  4485  05E5  3000               	movlw	0
  4486  05E6  00B3               	movwf	___fladd@b+1
  4487  05E7  3000               	movlw	0
  4488  05E8  00B2               	movwf	___fladd@b
  4489  05E9                     l2014:
  4490  05E9  0839               	movf	___fladd@a+3,w
  4491  05EA  3980               	andlw	128
  4492  05EB  00BA               	movwf	??___fladd
  4493  05EC  083A               	movf	??___fladd,w
  4494  05ED  00C3               	movwf	___fladd@aexp
  4495  05EE                     l2016:
  4496  05EE  0843               	movf	___fladd@aexp,w
  4497  05EF  0642               	xorwf	___fladd@signs,w
  4498  05F0  1903               	skipnz
  4499  05F1  2DF3               	goto	u2041
  4500  05F2  2DF4               	goto	u2040
  4501  05F3                     u2041:
  4502  05F3  2DF5               	goto	l2020
  4503  05F4                     u2040:
  4504  05F4                     l2018:
  4505  05F4  1742               	bsf	___fladd@signs,6
  4506  05F5                     l2020:
  4507  05F5  3539               	lslf	___fladd@a+3,w
  4508  05F6  00BA               	movwf	??___fladd
  4509  05F7  083A               	movf	??___fladd,w
  4510  05F8  00C3               	movwf	___fladd@aexp
  4511  05F9                     l2022:
  4512  05F9  1FB8               	btfss	___fladd@a+2,7
  4513  05FA  2DFC               	goto	u2051
  4514  05FB  2DFD               	goto	u2050
  4515  05FC                     u2051:
  4516  05FC  2DFE               	goto	l2026
  4517  05FD                     u2050:
  4518  05FD                     l2024:
  4519  05FD  1443               	bsf	___fladd@aexp,0
  4520  05FE                     l2026:
  4521  05FE  0843               	movf	___fladd@aexp,w
  4522  05FF  1903               	btfsc	3,2
  4523  0600  2E02               	goto	u2061
  4524  0601  2E03               	goto	u2060
  4525  0602                     u2061:
  4526  0602  2E13               	goto	l2036
  4527  0603                     u2060:
  4528  0603                     l2028:
  4529  0603  0A43               	incf	___fladd@aexp,w
  4530  0604  1D03               	btfss	3,2
  4531  0605  2E07               	goto	u2071
  4532  0606  2E08               	goto	u2070
  4533  0607                     u2071:
  4534  0607  2E10               	goto	l2032
  4535  0608                     u2070:
  4536  0608                     l2030:
  4537  0608  3000               	movlw	0
  4538  0609  00B9               	movwf	___fladd@a+3
  4539  060A  3000               	movlw	0
  4540  060B  00B8               	movwf	___fladd@a+2
  4541  060C  3000               	movlw	0
  4542  060D  00B7               	movwf	___fladd@a+1
  4543  060E  3000               	movlw	0
  4544  060F  00B6               	movwf	___fladd@a
  4545  0610                     l2032:
  4546  0610  17B8               	bsf	___fladd@a+2,7
  4547  0611                     l2034:
  4548  0611  01B9               	clrf	___fladd@a+3
  4549  0612  2E1B               	goto	l570
  4550  0613                     l2036:
  4551  0613  3000               	movlw	0
  4552  0614  00B9               	movwf	___fladd@a+3
  4553  0615  3000               	movlw	0
  4554  0616  00B8               	movwf	___fladd@a+2
  4555  0617  3000               	movlw	0
  4556  0618  00B7               	movwf	___fladd@a+1
  4557  0619  3000               	movlw	0
  4558  061A  00B6               	movwf	___fladd@a
  4559  061B                     l570:
  4560  061B  0844               	movf	___fladd@bexp,w
  4561  061C  0243               	subwf	___fladd@aexp,w
  4562  061D  1803               	skipnc
  4563  061E  2E20               	goto	u2081
  4564  061F  2E21               	goto	u2080
  4565  0620                     u2081:
  4566  0620  2E65               	goto	l2072
  4567  0621                     u2080:
  4568  0621                     l2038:
  4569  0621  1F42               	btfss	___fladd@signs,6
  4570  0622  2E24               	goto	u2091
  4571  0623  2E25               	goto	u2090
  4572  0624                     u2091:
  4573  0624  2E29               	goto	l2042
  4574  0625                     u2090:
  4575  0625                     l2040:
  4576  0625  3080               	movlw	128
  4577  0626  00BA               	movwf	??___fladd
  4578  0627  083A               	movf	??___fladd,w
  4579  0628  06C2               	xorwf	___fladd@signs,f
  4580  0629                     l2042:
  4581  0629  0844               	movf	___fladd@bexp,w
  4582  062A  00BA               	movwf	??___fladd
  4583  062B  083A               	movf	??___fladd,w
  4584  062C  00C5               	movwf	___fladd@grs
  4585  062D                     l2044:
  4586  062D  0843               	movf	___fladd@aexp,w
  4587  062E  00BA               	movwf	??___fladd
  4588  062F  083A               	movf	??___fladd,w
  4589  0630  00C4               	movwf	___fladd@bexp
  4590  0631                     l2046:
  4591  0631  0845               	movf	___fladd@grs,w
  4592  0632  00BA               	movwf	??___fladd
  4593  0633  083A               	movf	??___fladd,w
  4594  0634  00C3               	movwf	___fladd@aexp
  4595  0635                     l2048:
  4596  0635  0832               	movf	___fladd@b,w
  4597  0636  00BA               	movwf	??___fladd
  4598  0637  083A               	movf	??___fladd,w
  4599  0638  00C5               	movwf	___fladd@grs
  4600  0639                     l2050:
  4601  0639  0836               	movf	___fladd@a,w
  4602  063A  00BA               	movwf	??___fladd
  4603  063B  083A               	movf	??___fladd,w
  4604  063C  00B2               	movwf	___fladd@b
  4605  063D                     l2052:
  4606  063D  0845               	movf	___fladd@grs,w
  4607  063E  00BA               	movwf	??___fladd
  4608  063F  083A               	movf	??___fladd,w
  4609  0640  00B6               	movwf	___fladd@a
  4610  0641                     l2054:
  4611  0641  0833               	movf	___fladd@b+1,w
  4612  0642  00BA               	movwf	??___fladd
  4613  0643  083A               	movf	??___fladd,w
  4614  0644  00C5               	movwf	___fladd@grs
  4615  0645                     l2056:
  4616  0645  0837               	movf	___fladd@a+1,w
  4617  0646  00BA               	movwf	??___fladd
  4618  0647  083A               	movf	??___fladd,w
  4619  0648  00B3               	movwf	___fladd@b+1
  4620  0649                     l2058:
  4621  0649  0845               	movf	___fladd@grs,w
  4622  064A  00BA               	movwf	??___fladd
  4623  064B  083A               	movf	??___fladd,w
  4624  064C  00B7               	movwf	___fladd@a+1
  4625  064D                     l2060:
  4626  064D  0834               	movf	___fladd@b+2,w
  4627  064E  00BA               	movwf	??___fladd
  4628  064F  083A               	movf	??___fladd,w
  4629  0650  00C5               	movwf	___fladd@grs
  4630  0651                     l2062:
  4631  0651  0838               	movf	___fladd@a+2,w
  4632  0652  00BA               	movwf	??___fladd
  4633  0653  083A               	movf	??___fladd,w
  4634  0654  00B4               	movwf	___fladd@b+2
  4635  0655                     l2064:
  4636  0655  0845               	movf	___fladd@grs,w
  4637  0656  00BA               	movwf	??___fladd
  4638  0657  083A               	movf	??___fladd,w
  4639  0658  00B8               	movwf	___fladd@a+2
  4640  0659                     l2066:
  4641  0659  0835               	movf	___fladd@b+3,w
  4642  065A  00BA               	movwf	??___fladd
  4643  065B  083A               	movf	??___fladd,w
  4644  065C  00C5               	movwf	___fladd@grs
  4645  065D                     l2068:
  4646  065D  0839               	movf	___fladd@a+3,w
  4647  065E  00BA               	movwf	??___fladd
  4648  065F  083A               	movf	??___fladd,w
  4649  0660  00B5               	movwf	___fladd@b+3
  4650  0661                     l2070:
  4651  0661  0845               	movf	___fladd@grs,w
  4652  0662  00BA               	movwf	??___fladd
  4653  0663  083A               	movf	??___fladd,w
  4654  0664  00B9               	movwf	___fladd@a+3
  4655  0665                     l2072:
  4656  0665  01C5               	clrf	___fladd@grs
  4657  0666                     l2074:
  4658  0666  0843               	movf	___fladd@aexp,w
  4659  0667  00BA               	movwf	??___fladd
  4660  0668  01BB               	clrf	??___fladd+1
  4661  0669  083B               	movf	??___fladd+1,w
  4662  066A  00BD               	movwf	??___fladd+3
  4663  066B  0844               	movf	___fladd@bexp,w
  4664  066C  023A               	subwf	??___fladd,w
  4665  066D  00BC               	movwf	??___fladd+2
  4666  066E  1C03               	skipc
  4667  066F  03BD               	decf	??___fladd+3,f
  4668  0670  083D               	movf	??___fladd+3,w
  4669  0671  3A80               	xorlw	128
  4670  0672  00BE               	movwf	??___fladd+4
  4671  0673  3080               	movlw	128
  4672  0674  023E               	subwf	??___fladd+4,w
  4673  0675  1D03               	skipz
  4674  0676  2E79               	goto	u2105
  4675  0677  301A               	movlw	26
  4676  0678  023C               	subwf	??___fladd+2,w
  4677  0679                     u2105:
  4678  0679  1C03               	skipc
  4679  067A  2E7C               	goto	u2101
  4680  067B  2E7D               	goto	u2100
  4681  067C                     u2101:
  4682  067C  2EB5               	goto	l2090
  4683  067D                     u2100:
  4684  067D                     l2076:
  4685  067D  0020               	movlb	0	; select bank0
  4686  067E  0835               	movf	___fladd@b+3,w
  4687  067F  0434               	iorwf	___fladd@b+2,w
  4688  0680  0433               	iorwf	___fladd@b+1,w
  4689  0681  0432               	iorwf	___fladd@b,w
  4690  0682  1D03               	skipz
  4691  0683  2E85               	goto	u2111
  4692  0684  2E87               	goto	u2110
  4693  0685                     u2111:
  4694  0685  3001               	movlw	1
  4695  0686  2E88               	goto	u2120
  4696  0687                     u2110:
  4697  0687  3000               	movlw	0
  4698  0688                     u2120:
  4699  0688  00BA               	movwf	??___fladd
  4700  0689  083A               	movf	??___fladd,w
  4701  068A  00C5               	movwf	___fladd@grs
  4702  068B  3000               	movlw	0
  4703  068C  00B5               	movwf	___fladd@b+3
  4704  068D  3000               	movlw	0
  4705  068E  00B4               	movwf	___fladd@b+2
  4706  068F  3000               	movlw	0
  4707  0690  00B3               	movwf	___fladd@b+1
  4708  0691  3000               	movlw	0
  4709  0692  00B2               	movwf	___fladd@b
  4710  0693  0843               	movf	___fladd@aexp,w
  4711  0694  00BA               	movwf	??___fladd
  4712  0695  083A               	movf	??___fladd,w
  4713  0696  00C4               	movwf	___fladd@bexp
  4714  0697  2EBC               	goto	l574
  4715  0698                     l576:
  4716  0698  1C45               	btfss	___fladd@grs,0
  4717  0699  2E9B               	goto	u2131
  4718  069A  2E9C               	goto	u2130
  4719  069B                     u2131:
  4720  069B  2EA2               	goto	l2080
  4721  069C                     u2130:
  4722  069C                     l2078:
  4723  069C  3645               	lsrf	___fladd@grs,w
  4724  069D  3801               	iorlw	1
  4725  069E  00BA               	movwf	??___fladd
  4726  069F  083A               	movf	??___fladd,w
  4727  06A0  00C5               	movwf	___fladd@grs
  4728  06A1  2EA4               	goto	l2082
  4729  06A2                     l2080:
  4730  06A2  1003               	clrc
  4731  06A3  0CC5               	rrf	___fladd@grs,f
  4732  06A4                     l2082:
  4733  06A4  1C32               	btfss	___fladd@b,0
  4734  06A5  2EA7               	goto	u2141
  4735  06A6  2EA8               	goto	u2140
  4736  06A7                     u2141:
  4737  06A7  2EA9               	goto	l2086
  4738  06A8                     u2140:
  4739  06A8                     l2084:
  4740  06A8  17C5               	bsf	___fladd@grs,7
  4741  06A9                     l2086:
  4742  06A9  3001               	movlw	1
  4743  06AA  00BA               	movwf	??___fladd
  4744  06AB                     u2155:
  4745  06AB  37B5               	asrf	___fladd@b+3,f
  4746  06AC  0CB4               	rrf	___fladd@b+2,f
  4747  06AD  0CB3               	rrf	___fladd@b+1,f
  4748  06AE  0CB2               	rrf	___fladd@b,f
  4749  06AF  0BBA               	decfsz	??___fladd& (0+127),f
  4750  06B0  2EAB               	goto	u2155
  4751  06B1                     l2088:
  4752  06B1  3001               	movlw	1
  4753  06B2  00BA               	movwf	??___fladd
  4754  06B3  083A               	movf	??___fladd,w
  4755  06B4  07C4               	addwf	___fladd@bexp,f
  4756  06B5                     l2090:
  4757  06B5  0020               	movlb	0	; select bank0
  4758  06B6  0843               	movf	___fladd@aexp,w
  4759  06B7  0244               	subwf	___fladd@bexp,w
  4760  06B8  1C03               	skipc
  4761  06B9  2EBB               	goto	u2161
  4762  06BA  2EBC               	goto	u2160
  4763  06BB                     u2161:
  4764  06BB  2E98               	goto	l576
  4765  06BC                     u2160:
  4766  06BC                     l574:
  4767  06BC  1B42               	btfsc	___fladd@signs,6
  4768  06BD  2EBF               	goto	u2171
  4769  06BE  2EC0               	goto	u2170
  4770  06BF                     u2171:
  4771  06BF  2EF8               	goto	l2116
  4772  06C0                     u2170:
  4773  06C0                     l2092:
  4774  06C0  0844               	movf	___fladd@bexp,w
  4775  06C1  1D03               	btfss	3,2
  4776  06C2  2EC4               	goto	u2181
  4777  06C3  2EC5               	goto	u2180
  4778  06C4                     u2181:
  4779  06C4  2ECE               	goto	l2098
  4780  06C5                     u2180:
  4781  06C5                     l2094:
  4782  06C5  3000               	movlw	0
  4783  06C6  00B5               	movwf	?___fladd+3
  4784  06C7  3000               	movlw	0
  4785  06C8  00B4               	movwf	?___fladd+2
  4786  06C9  3000               	movlw	0
  4787  06CA  00B3               	movwf	?___fladd+1
  4788  06CB  3000               	movlw	0
  4789  06CC  00B2               	movwf	?___fladd
  4790  06CD  2FF4               	goto	l583
  4791  06CE                     l2098:
  4792  06CE  0836               	movf	___fladd@a,w
  4793  06CF  07B2               	addwf	___fladd@b,f
  4794  06D0  0837               	movf	___fladd@a+1,w
  4795  06D1  3DB3               	addwfc	___fladd@b+1,f
  4796  06D2  0838               	movf	___fladd@a+2,w
  4797  06D3  3DB4               	addwfc	___fladd@b+2,f
  4798  06D4  0839               	movf	___fladd@a+3,w
  4799  06D5  3DB5               	addwfc	___fladd@b+3,f
  4800  06D6                     l2100:
  4801  06D6  1C35               	btfss	___fladd@b+3,0
  4802  06D7  2ED9               	goto	u2191
  4803  06D8  2EDA               	goto	u2190
  4804  06D9                     u2191:
  4805  06D9  2F84               	goto	l2150
  4806  06DA                     u2190:
  4807  06DA                     l2102:
  4808  06DA  1C45               	btfss	___fladd@grs,0
  4809  06DB  2EDD               	goto	u2201
  4810  06DC  2EDE               	goto	u2200
  4811  06DD                     u2201:
  4812  06DD  2EE4               	goto	l2106
  4813  06DE                     u2200:
  4814  06DE                     l2104:
  4815  06DE  3645               	lsrf	___fladd@grs,w
  4816  06DF  3801               	iorlw	1
  4817  06E0  00BA               	movwf	??___fladd
  4818  06E1  083A               	movf	??___fladd,w
  4819  06E2  00C5               	movwf	___fladd@grs
  4820  06E3  2EE6               	goto	l2108
  4821  06E4                     l2106:
  4822  06E4  1003               	clrc
  4823  06E5  0CC5               	rrf	___fladd@grs,f
  4824  06E6                     l2108:
  4825  06E6  1C32               	btfss	___fladd@b,0
  4826  06E7  2EE9               	goto	u2211
  4827  06E8  2EEA               	goto	u2210
  4828  06E9                     u2211:
  4829  06E9  2EEB               	goto	l2112
  4830  06EA                     u2210:
  4831  06EA                     l2110:
  4832  06EA  17C5               	bsf	___fladd@grs,7
  4833  06EB                     l2112:
  4834  06EB  3001               	movlw	1
  4835  06EC  00BA               	movwf	??___fladd
  4836  06ED                     u2225:
  4837  06ED  37B5               	asrf	___fladd@b+3,f
  4838  06EE  0CB4               	rrf	___fladd@b+2,f
  4839  06EF  0CB3               	rrf	___fladd@b+1,f
  4840  06F0  0CB2               	rrf	___fladd@b,f
  4841  06F1  0BBA               	decfsz	??___fladd& (0+127),f
  4842  06F2  2EED               	goto	u2225
  4843  06F3                     l2114:
  4844  06F3  3001               	movlw	1
  4845  06F4  00BA               	movwf	??___fladd
  4846  06F5  083A               	movf	??___fladd,w
  4847  06F6  07C4               	addwf	___fladd@bexp,f
  4848  06F7  2F84               	goto	l2150
  4849  06F8                     l2116:
  4850  06F8  0835               	movf	___fladd@b+3,w
  4851  06F9  3A80               	xorlw	128
  4852  06FA  00BA               	movwf	??___fladd
  4853  06FB  0839               	movf	___fladd@a+3,w
  4854  06FC  3A80               	xorlw	128
  4855  06FD  023A               	subwf	??___fladd,w
  4856  06FE  1D03               	skipz
  4857  06FF  2F0A               	goto	u2233
  4858  0700  0838               	movf	___fladd@a+2,w
  4859  0701  0234               	subwf	___fladd@b+2,w
  4860  0702  1D03               	skipz
  4861  0703  2F0A               	goto	u2233
  4862  0704  0837               	movf	___fladd@a+1,w
  4863  0705  0233               	subwf	___fladd@b+1,w
  4864  0706  1D03               	skipz
  4865  0707  2F0A               	goto	u2233
  4866  0708  0836               	movf	___fladd@a,w
  4867  0709  0232               	subwf	___fladd@b,w
  4868  070A                     u2233:
  4869  070A  1803               	skipnc
  4870  070B  2F0D               	goto	u2231
  4871  070C  2F0E               	goto	u2230
  4872  070D                     u2231:
  4873  070D  2F46               	goto	l2126
  4874  070E                     u2230:
  4875  070E                     l2118:
  4876  070E  30FF               	movlw	255
  4877  070F  00BA               	movwf	??___fladd
  4878  0710  30FF               	movlw	255
  4879  0711  00BB               	movwf	??___fladd+1
  4880  0712  30FF               	movlw	255
  4881  0713  00BC               	movwf	??___fladd+2
  4882  0714  30FF               	movlw	255
  4883  0715  00BD               	movwf	??___fladd+3
  4884  0716  0832               	movf	___fladd@b,w
  4885  0717  0236               	subwf	___fladd@a,w
  4886  0718  00BE               	movwf	??___fladd+4
  4887  0719  0833               	movf	___fladd@b+1,w
  4888  071A  3B37               	subwfb	___fladd@a+1,w
  4889  071B  00BF               	movwf	??___fladd+5
  4890  071C  0834               	movf	___fladd@b+2,w
  4891  071D  3B38               	subwfb	___fladd@a+2,w
  4892  071E  00C0               	movwf	??___fladd+6
  4893  071F  0835               	movf	___fladd@b+3,w
  4894  0720  3B39               	subwfb	___fladd@a+3,w
  4895  0721  00C1               	movwf	??___fladd+7
  4896  0722  083E               	movf	??___fladd+4,w
  4897  0723  07BA               	addwf	??___fladd,f
  4898  0724  083F               	movf	??___fladd+5,w
  4899  0725  3DBB               	addwfc	??___fladd+1,f
  4900  0726  0840               	movf	??___fladd+6,w
  4901  0727  3DBC               	addwfc	??___fladd+2,f
  4902  0728  0841               	movf	??___fladd+7,w
  4903  0729  3DBD               	addwfc	??___fladd+3,f
  4904  072A  083D               	movf	??___fladd+3,w
  4905  072B  00B5               	movwf	___fladd@b+3
  4906  072C  083C               	movf	??___fladd+2,w
  4907  072D  00B4               	movwf	___fladd@b+2
  4908  072E  083B               	movf	??___fladd+1,w
  4909  072F  00B3               	movwf	___fladd@b+1
  4910  0730  083A               	movf	??___fladd,w
  4911  0731  00B2               	movwf	___fladd@b
  4912  0732                     l2120:
  4913  0732  3080               	movlw	128
  4914  0733  00BA               	movwf	??___fladd
  4915  0734  083A               	movf	??___fladd,w
  4916  0735  06C2               	xorwf	___fladd@signs,f
  4917  0736  09C5               	comf	___fladd@grs,f
  4918  0737  0AC5               	incf	___fladd@grs,f
  4919  0738                     l2122:
  4920  0738  0845               	movf	___fladd@grs,w
  4921  0739  1D03               	btfss	3,2
  4922  073A  2F3C               	goto	u2241
  4923  073B  2F3D               	goto	u2240
  4924  073C                     u2241:
  4925  073C  2F4E               	goto	l591
  4926  073D                     u2240:
  4927  073D                     l2124:
  4928  073D  3001               	movlw	1
  4929  073E  07B2               	addwf	___fladd@b,f
  4930  073F  3000               	movlw	0
  4931  0740  3DB3               	addwfc	___fladd@b+1,f
  4932  0741  3000               	movlw	0
  4933  0742  3DB4               	addwfc	___fladd@b+2,f
  4934  0743  3000               	movlw	0
  4935  0744  3DB5               	addwfc	___fladd@b+3,f
  4936  0745  2F4E               	goto	l591
  4937  0746                     l2126:
  4938  0746  0836               	movf	___fladd@a,w
  4939  0747  02B2               	subwf	___fladd@b,f
  4940  0748  0837               	movf	___fladd@a+1,w
  4941  0749  3BB3               	subwfb	___fladd@b+1,f
  4942  074A  0838               	movf	___fladd@a+2,w
  4943  074B  3BB4               	subwfb	___fladd@b+2,f
  4944  074C  0839               	movf	___fladd@a+3,w
  4945  074D  3BB5               	subwfb	___fladd@b+3,f
  4946  074E                     l591:
  4947  074E  0835               	movf	___fladd@b+3,w
  4948  074F  0434               	iorwf	___fladd@b+2,w
  4949  0750  0433               	iorwf	___fladd@b+1,w
  4950  0751  0432               	iorwf	___fladd@b,w
  4951  0752  1D03               	skipz
  4952  0753  2F55               	goto	u2251
  4953  0754  2F56               	goto	u2250
  4954  0755                     u2251:
  4955  0755  2F80               	goto	l2148
  4956  0756                     u2250:
  4957  0756                     l2128:
  4958  0756  0845               	movf	___fladd@grs,w
  4959  0757  1D03               	btfss	3,2
  4960  0758  2F5A               	goto	u2261
  4961  0759  2F5B               	goto	u2260
  4962  075A                     u2261:
  4963  075A  2F80               	goto	l2148
  4964  075B                     u2260:
  4965  075B                     l2130:
  4966  075B  3000               	movlw	0
  4967  075C  00B5               	movwf	?___fladd+3
  4968  075D  3000               	movlw	0
  4969  075E  00B4               	movwf	?___fladd+2
  4970  075F  3000               	movlw	0
  4971  0760  00B3               	movwf	?___fladd+1
  4972  0761  3000               	movlw	0
  4973  0762  00B2               	movwf	?___fladd
  4974  0763  2FF4               	goto	l583
  4975  0764                     l2134:
  4976  0764  3001               	movlw	1
  4977  0765                     u2275:
  4978  0765  35B2               	lslf	___fladd@b,f
  4979  0766  0DB3               	rlf	___fladd@b+1,f
  4980  0767  0DB4               	rlf	___fladd@b+2,f
  4981  0768  0DB5               	rlf	___fladd@b+3,f
  4982  0769  0B89               	decfsz	9,f
  4983  076A  2F65               	goto	u2275
  4984  076B                     l2136:
  4985  076B  1FC5               	btfss	___fladd@grs,7
  4986  076C  2F6E               	goto	u2281
  4987  076D  2F6F               	goto	u2280
  4988  076E                     u2281:
  4989  076E  2F70               	goto	l595
  4990  076F                     u2280:
  4991  076F                     l2138:
  4992  076F  1432               	bsf	___fladd@b,0
  4993  0770                     l595:
  4994  0770  1C45               	btfss	___fladd@grs,0
  4995  0771  2F73               	goto	u2291
  4996  0772  2F74               	goto	u2290
  4997  0773                     u2291:
  4998  0773  2F77               	goto	l2142
  4999  0774                     u2290:
  5000  0774                     l2140:
  5001  0774  1403               	setc
  5002  0775  0DC5               	rlf	___fladd@grs,f
  5003  0776  2F79               	goto	l2144
  5004  0777                     l2142:
  5005  0777  1003               	clrc
  5006  0778  0DC5               	rlf	___fladd@grs,f
  5007  0779                     l2144:
  5008  0779  0844               	movf	___fladd@bexp,w
  5009  077A  1903               	btfsc	3,2
  5010  077B  2F7D               	goto	u2301
  5011  077C  2F7E               	goto	u2300
  5012  077D                     u2301:
  5013  077D  2F80               	goto	l2148
  5014  077E                     u2300:
  5015  077E                     l2146:
  5016  077E  3001               	movlw	1
  5017  077F  02C4               	subwf	___fladd@bexp,f
  5018  0780                     l2148:
  5019  0780  1FB4               	btfss	___fladd@b+2,7
  5020  0781  2F83               	goto	u2311
  5021  0782  2F84               	goto	u2310
  5022  0783                     u2311:
  5023  0783  2F64               	goto	l2134
  5024  0784                     u2310:
  5025  0784                     l2150:
  5026  0784  01C3               	clrf	___fladd@aexp
  5027  0785                     l2152:
  5028  0785  1FC5               	btfss	___fladd@grs,7
  5029  0786  2F88               	goto	u2321
  5030  0787  2F89               	goto	u2320
  5031  0788                     u2321:
  5032  0788  2F97               	goto	l2160
  5033  0789                     u2320:
  5034  0789                     l2154:
  5035  0789  0845               	movf	___fladd@grs,w
  5036  078A  397F               	andlw	127
  5037  078B  1903               	btfsc	3,2
  5038  078C  2F8E               	goto	u2331
  5039  078D  2F8F               	goto	u2330
  5040  078E                     u2331:
  5041  078E  2F92               	goto	l601
  5042  078F                     u2330:
  5043  078F                     l2156:
  5044  078F  01C3               	clrf	___fladd@aexp
  5045  0790  0AC3               	incf	___fladd@aexp,f
  5046  0791  2F97               	goto	l2160
  5047  0792                     l601:
  5048  0792  1C32               	btfss	___fladd@b,0
  5049  0793  2F95               	goto	u2341
  5050  0794  2F96               	goto	u2340
  5051  0795                     u2341:
  5052  0795  2F97               	goto	l2160
  5053  0796                     u2340:
  5054  0796  2F8F               	goto	l2156
  5055  0797                     l2160:
  5056  0797  0843               	movf	___fladd@aexp,w
  5057  0798  1903               	btfsc	3,2
  5058  0799  2F9B               	goto	u2351
  5059  079A  2F9C               	goto	u2350
  5060  079B                     u2351:
  5061  079B  2FC9               	goto	l604
  5062  079C                     u2350:
  5063  079C                     l2162:
  5064  079C  3001               	movlw	1
  5065  079D  07B2               	addwf	___fladd@b,f
  5066  079E  3000               	movlw	0
  5067  079F  3DB3               	addwfc	___fladd@b+1,f
  5068  07A0  3000               	movlw	0
  5069  07A1  3DB4               	addwfc	___fladd@b+2,f
  5070  07A2  3000               	movlw	0
  5071  07A3  3DB5               	addwfc	___fladd@b+3,f
  5072  07A4                     l2164:
  5073  07A4  1C35               	btfss	___fladd@b+3,0
  5074  07A5  2FA7               	goto	u2361
  5075  07A6  2FA8               	goto	u2360
  5076  07A7                     u2361:
  5077  07A7  2FC9               	goto	l604
  5078  07A8                     u2360:
  5079  07A8                     l2166:
  5080  07A8  0832               	movf	___fladd@b,w
  5081  07A9  00BA               	movwf	??___fladd
  5082  07AA  0833               	movf	___fladd@b+1,w
  5083  07AB  00BB               	movwf	??___fladd+1
  5084  07AC  0834               	movf	___fladd@b+2,w
  5085  07AD  00BC               	movwf	??___fladd+2
  5086  07AE  0835               	movf	___fladd@b+3,w
  5087  07AF  00BD               	movwf	??___fladd+3
  5088  07B0  3001               	movlw	1
  5089  07B1  00BE               	movwf	??___fladd+4
  5090  07B2                     u2375:
  5091  07B2  37BD               	asrf	??___fladd+3,f
  5092  07B3  0CBC               	rrf	??___fladd+2,f
  5093  07B4  0CBB               	rrf	??___fladd+1,f
  5094  07B5  0CBA               	rrf	??___fladd,f
  5095  07B6                     u2370:
  5096  07B6  0BBE               	decfsz	??___fladd+4,f
  5097  07B7  2FB2               	goto	u2375
  5098  07B8  083D               	movf	??___fladd+3,w
  5099  07B9  00B5               	movwf	___fladd@b+3
  5100  07BA  083C               	movf	??___fladd+2,w
  5101  07BB  00B4               	movwf	___fladd@b+2
  5102  07BC  083B               	movf	??___fladd+1,w
  5103  07BD  00B3               	movwf	___fladd@b+1
  5104  07BE  083A               	movf	??___fladd,w
  5105  07BF  00B2               	movwf	___fladd@b
  5106  07C0  0A44               	incf	___fladd@bexp,w
  5107  07C1  1903               	btfsc	3,2
  5108  07C2  2FC4               	goto	u2381
  5109  07C3  2FC5               	goto	u2380
  5110  07C4                     u2381:
  5111  07C4  2FC9               	goto	l604
  5112  07C5                     u2380:
  5113  07C5                     l2168:
  5114  07C5  3001               	movlw	1
  5115  07C6  00BA               	movwf	??___fladd
  5116  07C7  083A               	movf	??___fladd,w
  5117  07C8  07C4               	addwf	___fladd@bexp,f
  5118  07C9                     l604:
  5119  07C9  0A44               	incf	___fladd@bexp,w
  5120  07CA  1903               	btfsc	3,2
  5121  07CB  2FCD               	goto	u2391
  5122  07CC  2FCE               	goto	u2390
  5123  07CD                     u2391:
  5124  07CD  2FD3               	goto	l2172
  5125  07CE                     u2390:
  5126  07CE                     l2170:
  5127  07CE  0844               	movf	___fladd@bexp,w
  5128  07CF  1D03               	btfss	3,2
  5129  07D0  2FD2               	goto	u2401
  5130  07D1  2FD3               	goto	u2400
  5131  07D2                     u2401:
  5132  07D2  2FE1               	goto	l2178
  5133  07D3                     u2400:
  5134  07D3                     l2172:
  5135  07D3  3000               	movlw	0
  5136  07D4  00B5               	movwf	___fladd@b+3
  5137  07D5  3000               	movlw	0
  5138  07D6  00B4               	movwf	___fladd@b+2
  5139  07D7  3000               	movlw	0
  5140  07D8  00B3               	movwf	___fladd@b+1
  5141  07D9  3000               	movlw	0
  5142  07DA  00B2               	movwf	___fladd@b
  5143  07DB                     l2174:
  5144  07DB  0844               	movf	___fladd@bexp,w
  5145  07DC  1D03               	btfss	3,2
  5146  07DD  2FDF               	goto	u2411
  5147  07DE  2FE0               	goto	u2410
  5148  07DF                     u2411:
  5149  07DF  2FE1               	goto	l2178
  5150  07E0                     u2410:
  5151  07E0                     l2176:
  5152  07E0  01C2               	clrf	___fladd@signs
  5153  07E1                     l2178:
  5154  07E1  1C44               	btfss	___fladd@bexp,0
  5155  07E2  2FE4               	goto	u2421
  5156  07E3  2FE5               	goto	u2420
  5157  07E4                     u2421:
  5158  07E4  2FE7               	goto	l2182
  5159  07E5                     u2420:
  5160  07E5                     l2180:
  5161  07E5  17B4               	bsf	___fladd@b+2,7
  5162  07E6  2FEB               	goto	l612
  5163  07E7                     l2182:
  5164  07E7  307F               	movlw	127
  5165  07E8  00BA               	movwf	??___fladd
  5166  07E9  083A               	movf	??___fladd,w
  5167  07EA  05B4               	andwf	___fladd@b+2,f
  5168  07EB                     l612:
  5169  07EB  3644               	lsrf	___fladd@bexp,w
  5170  07EC  00BA               	movwf	??___fladd
  5171  07ED  083A               	movf	??___fladd,w
  5172  07EE  00B5               	movwf	___fladd@b+3
  5173  07EF                     l2184:
  5174  07EF  1FC2               	btfss	___fladd@signs,7
  5175  07F0  2FF2               	goto	u2431
  5176  07F1  2FF3               	goto	u2430
  5177  07F2                     u2431:
  5178  07F2  2FF4               	goto	l613
  5179  07F3                     u2430:
  5180  07F3                     l2186:
  5181  07F3  17B5               	bsf	___fladd@b+3,7
  5182  07F4                     l613:
  5183  07F4                     l583:
  5184  07F4  0008               	return
  5185  07F5                     __end_of___fladd:
  5186                           
  5187                           	psect	text16
  5188  009A                     __ptext16:	
  5189 ;; *************** function ___awdiv *****************
  5190 ;; Defined at:
  5191 ;;		line 5 in file "C:\Program Files\Microchip\xc8\v2.36\pic\sources\c99\common\awdiv.c"
  5192 ;; Parameters:    Size  Location     Type
  5193 ;;  divisor         2    6[COMMON] int 
  5194 ;;  dividend        2    8[COMMON] int 
  5195 ;; Auto vars:     Size  Location     Type
  5196 ;;  quotient        2    2[BANK0 ] int 
  5197 ;;  sign            1    1[BANK0 ] unsigned char 
  5198 ;;  counter         1    0[BANK0 ] unsigned char 
  5199 ;; Return value:  Size  Location     Type
  5200 ;;                  2    6[COMMON] int 
  5201 ;; Registers used:
  5202 ;;		wreg, status,2, status,0
  5203 ;; Tracked objects:
  5204 ;;		On entry : 0/0
  5205 ;;		On exit  : 0/0
  5206 ;;		Unchanged: 0/0
  5207 ;; Data sizes:     COMMON   BANK0   BANK1   BANK2   BANK3   BANK4   BANK5   BANK6
  5208 ;;      Params:         4       0       0       0       0       0       0       0
  5209 ;;      Locals:         0       4       0       0       0       0       0       0
  5210 ;;      Temps:          1       0       0       0       0       0       0       0
  5211 ;;      Totals:         5       4       0       0       0       0       0       0
  5212 ;;Total ram usage:        9 bytes
  5213 ;; Hardware stack levels used: 1
  5214 ;; This function calls:
  5215 ;;		Nothing
  5216 ;; This function is called by:
  5217 ;;		_main
  5218 ;; This function uses a non-reentrant model
  5219 ;;
  5220                           
  5221  009A                     ___awdiv:	
  5222                           ;psect for function ___awdiv
  5223                           
  5224  009A                     l1914:	
  5225                           ;incstack = 0
  5226                           ; Regs used in ___awdiv: [wreg+status,2+status,0]
  5227                           
  5228  009A  0020               	movlb	0	; select bank0
  5229  009B  01A1               	clrf	___awdiv@sign
  5230  009C                     l1916:
  5231  009C  1FF7               	btfss	___awdiv@divisor+1,7
  5232  009D  289F               	goto	u1811
  5233  009E  28A0               	goto	u1810
  5234  009F                     u1811:
  5235  009F  28A7               	goto	l1922
  5236  00A0                     u1810:
  5237  00A0                     l1918:
  5238  00A0  09F6               	comf	___awdiv@divisor,f
  5239  00A1  09F7               	comf	___awdiv@divisor+1,f
  5240  00A2  0AF6               	incf	___awdiv@divisor,f
  5241  00A3  1903               	skipnz
  5242  00A4  0AF7               	incf	___awdiv@divisor+1,f
  5243  00A5                     l1920:
  5244  00A5  01A1               	clrf	___awdiv@sign
  5245  00A6  0AA1               	incf	___awdiv@sign,f
  5246  00A7                     l1922:
  5247  00A7  1FF9               	btfss	___awdiv@dividend+1,7
  5248  00A8  28AA               	goto	u1821
  5249  00A9  28AB               	goto	u1820
  5250  00AA                     u1821:
  5251  00AA  28B4               	goto	l1928
  5252  00AB                     u1820:
  5253  00AB                     l1924:
  5254  00AB  09F8               	comf	___awdiv@dividend,f
  5255  00AC  09F9               	comf	___awdiv@dividend+1,f
  5256  00AD  0AF8               	incf	___awdiv@dividend,f
  5257  00AE  1903               	skipnz
  5258  00AF  0AF9               	incf	___awdiv@dividend+1,f
  5259  00B0                     l1926:
  5260  00B0  3001               	movlw	1
  5261  00B1  00FA               	movwf	??___awdiv
  5262  00B2  087A               	movf	??___awdiv,w
  5263  00B3  06A1               	xorwf	___awdiv@sign,f
  5264  00B4                     l1928:
  5265  00B4  01A2               	clrf	___awdiv@quotient
  5266  00B5  01A3               	clrf	___awdiv@quotient+1
  5267  00B6                     l1930:
  5268  00B6  0876               	movf	___awdiv@divisor,w
  5269  00B7  0477               	iorwf	___awdiv@divisor+1,w
  5270  00B8  1903               	btfsc	3,2
  5271  00B9  28BB               	goto	u1831
  5272  00BA  28BC               	goto	u1830
  5273  00BB                     u1831:
  5274  00BB  28EB               	goto	l1950
  5275  00BC                     u1830:
  5276  00BC                     l1932:
  5277  00BC  01A0               	clrf	___awdiv@counter
  5278  00BD  0AA0               	incf	___awdiv@counter,f
  5279  00BE  28C8               	goto	l1938
  5280  00BF                     l1934:
  5281  00BF  3001               	movlw	1
  5282  00C0                     u1845:
  5283  00C0  35F6               	lslf	___awdiv@divisor,f
  5284  00C1  0DF7               	rlf	___awdiv@divisor+1,f
  5285  00C2  0B89               	decfsz	9,f
  5286  00C3  28C0               	goto	u1845
  5287  00C4                     l1936:
  5288  00C4  3001               	movlw	1
  5289  00C5  00FA               	movwf	??___awdiv
  5290  00C6  087A               	movf	??___awdiv,w
  5291  00C7  07A0               	addwf	___awdiv@counter,f
  5292  00C8                     l1938:
  5293  00C8  1FF7               	btfss	___awdiv@divisor+1,7
  5294  00C9  28CB               	goto	u1851
  5295  00CA  28CC               	goto	u1850
  5296  00CB                     u1851:
  5297  00CB  28BF               	goto	l1934
  5298  00CC                     u1850:
  5299  00CC                     l1940:
  5300  00CC  3001               	movlw	1
  5301  00CD                     u1865:
  5302  00CD  35A2               	lslf	___awdiv@quotient,f
  5303  00CE  0DA3               	rlf	___awdiv@quotient+1,f
  5304  00CF  0B89               	decfsz	9,f
  5305  00D0  28CD               	goto	u1865
  5306  00D1  0877               	movf	___awdiv@divisor+1,w
  5307  00D2  0279               	subwf	___awdiv@dividend+1,w
  5308  00D3  1D03               	skipz
  5309  00D4  28D7               	goto	u1875
  5310  00D5  0876               	movf	___awdiv@divisor,w
  5311  00D6  0278               	subwf	___awdiv@dividend,w
  5312  00D7                     u1875:
  5313  00D7  1C03               	skipc
  5314  00D8  28DA               	goto	u1871
  5315  00D9  28DB               	goto	u1870
  5316  00DA                     u1871:
  5317  00DA  28E0               	goto	l1946
  5318  00DB                     u1870:
  5319  00DB                     l1942:
  5320  00DB  0876               	movf	___awdiv@divisor,w
  5321  00DC  02F8               	subwf	___awdiv@dividend,f
  5322  00DD  0877               	movf	___awdiv@divisor+1,w
  5323  00DE  3BF9               	subwfb	___awdiv@dividend+1,f
  5324  00DF                     l1944:
  5325  00DF  1422               	bsf	___awdiv@quotient,0
  5326  00E0                     l1946:
  5327  00E0  3001               	movlw	1
  5328  00E1                     u1885:
  5329  00E1  36F7               	lsrf	___awdiv@divisor+1,f
  5330  00E2  0CF6               	rrf	___awdiv@divisor,f
  5331  00E3  0B89               	decfsz	9,f
  5332  00E4  28E1               	goto	u1885
  5333  00E5                     l1948:
  5334  00E5  3001               	movlw	1
  5335  00E6  02A0               	subwf	___awdiv@counter,f
  5336  00E7  1D03               	btfss	3,2
  5337  00E8  28EA               	goto	u1891
  5338  00E9  28EB               	goto	u1890
  5339  00EA                     u1891:
  5340  00EA  28CC               	goto	l1940
  5341  00EB                     u1890:
  5342  00EB                     l1950:
  5343  00EB  0821               	movf	___awdiv@sign,w
  5344  00EC  1903               	btfsc	3,2
  5345  00ED  28EF               	goto	u1901
  5346  00EE  28F0               	goto	u1900
  5347  00EF                     u1901:
  5348  00EF  28F5               	goto	l1954
  5349  00F0                     u1900:
  5350  00F0                     l1952:
  5351  00F0  09A2               	comf	___awdiv@quotient,f
  5352  00F1  09A3               	comf	___awdiv@quotient+1,f
  5353  00F2  0AA2               	incf	___awdiv@quotient,f
  5354  00F3  1903               	skipnz
  5355  00F4  0AA3               	incf	___awdiv@quotient+1,f
  5356  00F5                     l1954:
  5357  00F5  0823               	movf	___awdiv@quotient+1,w
  5358  00F6  00F7               	movwf	?___awdiv+1
  5359  00F7  0822               	movf	___awdiv@quotient,w
  5360  00F8  00F6               	movwf	?___awdiv
  5361  00F9                     l422:
  5362  00F9  0008               	return
  5363  00FA                     __end_of___awdiv:
  5364                           
  5365                           	psect	text17
  5366  0E05                     __ptext17:	
  5367 ;; *************** function _SYSTEM_Initialize *****************
  5368 ;; Defined at:
  5369 ;;		line 50 in file "mcc_generated_files/mcc.c"
  5370 ;; Parameters:    Size  Location     Type
  5371 ;;		None
  5372 ;; Auto vars:     Size  Location     Type
  5373 ;;		None
  5374 ;; Return value:  Size  Location     Type
  5375 ;;                  1    wreg      void 
  5376 ;; Registers used:
  5377 ;;		wreg, status,2, status,0, pclath, cstack
  5378 ;; Tracked objects:
  5379 ;;		On entry : 0/0
  5380 ;;		On exit  : 0/0
  5381 ;;		Unchanged: 0/0
  5382 ;; Data sizes:     COMMON   BANK0   BANK1   BANK2   BANK3   BANK4   BANK5   BANK6
  5383 ;;      Params:         0       0       0       0       0       0       0       0
  5384 ;;      Locals:         0       0       0       0       0       0       0       0
  5385 ;;      Temps:          0       0       0       0       0       0       0       0
  5386 ;;      Totals:         0       0       0       0       0       0       0       0
  5387 ;;Total ram usage:        0 bytes
  5388 ;; Hardware stack levels used: 1
  5389 ;; Hardware stack levels required when called: 1
  5390 ;; This function calls:
  5391 ;;		_OSCILLATOR_Initialize
  5392 ;;		_PIN_MANAGER_Initialize
  5393 ;;		_TMR0_Initialize
  5394 ;;		_TMR1_Initialize
  5395 ;;		_WDT_Initialize
  5396 ;; This function is called by:
  5397 ;;		_main
  5398 ;; This function uses a non-reentrant model
  5399 ;;
  5400                           
  5401  0E05                     _SYSTEM_Initialize:	
  5402                           ;psect for function _SYSTEM_Initialize
  5403                           
  5404  0E05                     l1844:	
  5405                           ;incstack = 0
  5406                           ; Regs used in _SYSTEM_Initialize: [wreg+status,2+status,0+pclath+cstack]
  5407                           
  5408                           
  5409                           ;mcc_generated_files/mcc.c: 53:     PIN_MANAGER_Initialize();
  5410  0E05  318E  2615  318E   	fcall	_PIN_MANAGER_Initialize
  5411                           
  5412                           ;mcc_generated_files/mcc.c: 54:     OSCILLATOR_Initialize();
  5413  0E08  318D  25DE  318E   	fcall	_OSCILLATOR_Initialize
  5414                           
  5415                           ;mcc_generated_files/mcc.c: 55:     WDT_Initialize();
  5416  0E0B  318D  25DA  318E   	fcall	_WDT_Initialize
  5417                           
  5418                           ;mcc_generated_files/mcc.c: 56:     TMR1_Initialize();
  5419  0E0E  318D  25F5  318E   	fcall	_TMR1_Initialize
  5420                           
  5421                           ;mcc_generated_files/mcc.c: 57:     TMR0_Initialize();
  5422  0E11  318D  25EA  318E   	fcall	_TMR0_Initialize
  5423  0E14                     l19:
  5424  0E14  0008               	return
  5425  0E15                     __end_of_SYSTEM_Initialize:
  5426                           
  5427                           	psect	text18
  5428  0DDA                     __ptext18:	
  5429 ;; *************** function _WDT_Initialize *****************
  5430 ;; Defined at:
  5431 ;;		line 68 in file "mcc_generated_files/mcc.c"
  5432 ;; Parameters:    Size  Location     Type
  5433 ;;		None
  5434 ;; Auto vars:     Size  Location     Type
  5435 ;;		None
  5436 ;; Return value:  Size  Location     Type
  5437 ;;                  1    wreg      void 
  5438 ;; Registers used:
  5439 ;;		wreg
  5440 ;; Tracked objects:
  5441 ;;		On entry : 0/0
  5442 ;;		On exit  : 0/0
  5443 ;;		Unchanged: 0/0
  5444 ;; Data sizes:     COMMON   BANK0   BANK1   BANK2   BANK3   BANK4   BANK5   BANK6
  5445 ;;      Params:         0       0       0       0       0       0       0       0
  5446 ;;      Locals:         0       0       0       0       0       0       0       0
  5447 ;;      Temps:          0       0       0       0       0       0       0       0
  5448 ;;      Totals:         0       0       0       0       0       0       0       0
  5449 ;;Total ram usage:        0 bytes
  5450 ;; Hardware stack levels used: 1
  5451 ;; This function calls:
  5452 ;;		Nothing
  5453 ;; This function is called by:
  5454 ;;		_SYSTEM_Initialize
  5455 ;; This function uses a non-reentrant model
  5456 ;;
  5457                           
  5458  0DDA                     _WDT_Initialize:	
  5459                           ;psect for function _WDT_Initialize
  5460                           
  5461  0DDA                     l1792:	
  5462                           ;incstack = 0
  5463                           ; Regs used in _WDT_Initialize: [wreg]
  5464                           
  5465                           
  5466                           ;mcc_generated_files/mcc.c: 71:     WDTCON = 0x16;
  5467  0DDA  3016               	movlw	22
  5468  0DDB  0021               	movlb	1	; select bank1
  5469  0DDC  0097               	movwf	23	;volatile
  5470  0DDD                     l25:
  5471  0DDD  0008               	return
  5472  0DDE                     __end_of_WDT_Initialize:
  5473                           
  5474                           	psect	text19
  5475  0DF5                     __ptext19:	
  5476 ;; *************** function _TMR1_Initialize *****************
  5477 ;; Defined at:
  5478 ;;		line 63 in file "mcc_generated_files/tmr1.c"
  5479 ;; Parameters:    Size  Location     Type
  5480 ;;		None
  5481 ;; Auto vars:     Size  Location     Type
  5482 ;;		None
  5483 ;; Return value:  Size  Location     Type
  5484 ;;                  1    wreg      void 
  5485 ;; Registers used:
  5486 ;;		wreg, status,2
  5487 ;; Tracked objects:
  5488 ;;		On entry : 0/0
  5489 ;;		On exit  : 0/0
  5490 ;;		Unchanged: 0/0
  5491 ;; Data sizes:     COMMON   BANK0   BANK1   BANK2   BANK3   BANK4   BANK5   BANK6
  5492 ;;      Params:         0       0       0       0       0       0       0       0
  5493 ;;      Locals:         0       0       0       0       0       0       0       0
  5494 ;;      Temps:          0       0       0       0       0       0       0       0
  5495 ;;      Totals:         0       0       0       0       0       0       0       0
  5496 ;;Total ram usage:        0 bytes
  5497 ;; Hardware stack levels used: 1
  5498 ;; This function calls:
  5499 ;;		Nothing
  5500 ;; This function is called by:
  5501 ;;		_SYSTEM_Initialize
  5502 ;; This function uses a non-reentrant model
  5503 ;;
  5504                           
  5505  0DF5                     _TMR1_Initialize:	
  5506                           ;psect for function _TMR1_Initialize
  5507                           
  5508  0DF5                     l1794:	
  5509                           ;incstack = 0
  5510                           ; Regs used in _TMR1_Initialize: [wreg+status,2]
  5511                           
  5512                           
  5513                           ;mcc_generated_files/tmr1.c: 68:     T1GCON = 0x00;
  5514  0DF5  0020               	movlb	0	; select bank0
  5515  0DF6  0199               	clrf	25	;volatile
  5516                           
  5517                           ;mcc_generated_files/tmr1.c: 71:     TMR1H = 0x00;
  5518  0DF7  0197               	clrf	23	;volatile
  5519                           
  5520                           ;mcc_generated_files/tmr1.c: 74:     TMR1L = 0x00;
  5521  0DF8  0196               	clrf	22	;volatile
  5522  0DF9                     l1796:
  5523                           
  5524                           ;mcc_generated_files/tmr1.c: 77:     PIR1bits.TMR1IF = 0;
  5525  0DF9  1011               	bcf	17,0	;volatile
  5526  0DFA                     l1798:
  5527                           
  5528                           ;mcc_generated_files/tmr1.c: 80:     timer1ReloadVal=(uint16_t)((TMR1H << 8) | TMR1L);
  5529  0DFA  0817               	movf	23,w	;volatile
  5530  0DFB  0021               	movlb	1	; select bank1
  5531  0DFC  00E4               	movwf	(_timer1ReloadVal+1)^(0+128)	;volatile
  5532  0DFD  0020               	movlb	0	; select bank0
  5533  0DFE  0816               	movf	22,w	;volatile
  5534  0DFF  0021               	movlb	1	; select bank1
  5535  0E00  00E3               	movwf	_timer1ReloadVal^(0+128)	;volatile
  5536  0E01                     l1800:
  5537                           
  5538                           ;mcc_generated_files/tmr1.c: 83:     T1CON = 0x01;
  5539  0E01  3001               	movlw	1
  5540  0E02  0020               	movlb	0	; select bank0
  5541  0E03  0098               	movwf	24	;volatile
  5542  0E04                     l44:
  5543  0E04  0008               	return
  5544  0E05                     __end_of_TMR1_Initialize:
  5545                           
  5546                           	psect	text20
  5547  0DEA                     __ptext20:	
  5548 ;; *************** function _TMR0_Initialize *****************
  5549 ;; Defined at:
  5550 ;;		line 63 in file "mcc_generated_files/tmr0.c"
  5551 ;; Parameters:    Size  Location     Type
  5552 ;;		None
  5553 ;; Auto vars:     Size  Location     Type
  5554 ;;		None
  5555 ;; Return value:  Size  Location     Type
  5556 ;;                  1    wreg      void 
  5557 ;; Registers used:
  5558 ;;		wreg, status,2
  5559 ;; Tracked objects:
  5560 ;;		On entry : 0/0
  5561 ;;		On exit  : 0/0
  5562 ;;		Unchanged: 0/0
  5563 ;; Data sizes:     COMMON   BANK0   BANK1   BANK2   BANK3   BANK4   BANK5   BANK6
  5564 ;;      Params:         0       0       0       0       0       0       0       0
  5565 ;;      Locals:         0       0       0       0       0       0       0       0
  5566 ;;      Temps:          0       0       0       0       0       0       0       0
  5567 ;;      Totals:         0       0       0       0       0       0       0       0
  5568 ;;Total ram usage:        0 bytes
  5569 ;; Hardware stack levels used: 1
  5570 ;; This function calls:
  5571 ;;		Nothing
  5572 ;; This function is called by:
  5573 ;;		_SYSTEM_Initialize
  5574 ;; This function uses a non-reentrant model
  5575 ;;
  5576                           
  5577  0DEA                     _TMR0_Initialize:	
  5578                           ;psect for function _TMR0_Initialize
  5579                           
  5580  0DEA                     l1802:	
  5581                           ;incstack = 0
  5582                           ; Regs used in _TMR0_Initialize: [wreg+status,2]
  5583                           
  5584                           
  5585                           ;mcc_generated_files/tmr0.c: 68:     OPTION_REG = (uint8_t)((OPTION_REG & 0xC0) | (0xFF 
      +                          & 0x3F));
  5586  0DEA  0021               	movlb	1	; select bank1
  5587  0DEB  0815               	movf	21,w	;volatile
  5588  0DEC  39C0               	andlw	192
  5589  0DED  383F               	iorlw	63
  5590  0DEE  0095               	movwf	21	;volatile
  5591  0DEF                     l1804:
  5592                           
  5593                           ;mcc_generated_files/tmr0.c: 71:     TMR0 = 0x00;
  5594  0DEF  0020               	movlb	0	; select bank0
  5595  0DF0  0195               	clrf	21	;volatile
  5596  0DF1                     l1806:
  5597                           
  5598                           ;mcc_generated_files/tmr0.c: 74:     timer0ReloadVal= 0;
  5599  0DF1  0021               	movlb	1	; select bank1
  5600  0DF2  01A8               	clrf	_timer0ReloadVal^(0+128)	;volatile
  5601  0DF3                     l1808:
  5602                           
  5603                           ;mcc_generated_files/tmr0.c: 77:     INTCONbits.TMR0IF = 0;
  5604  0DF3  110B               	bcf	11,2	;volatile
  5605  0DF4                     l81:
  5606  0DF4  0008               	return
  5607  0DF5                     __end_of_TMR0_Initialize:
  5608                           
  5609                           	psect	text21
  5610  0E15                     __ptext21:	
  5611 ;; *************** function _PIN_MANAGER_Initialize *****************
  5612 ;; Defined at:
  5613 ;;		line 55 in file "mcc_generated_files/pin_manager.c"
  5614 ;; Parameters:    Size  Location     Type
  5615 ;;		None
  5616 ;; Auto vars:     Size  Location     Type
  5617 ;;		None
  5618 ;; Return value:  Size  Location     Type
  5619 ;;                  1    wreg      void 
  5620 ;; Registers used:
  5621 ;;		wreg, status,2
  5622 ;; Tracked objects:
  5623 ;;		On entry : 0/0
  5624 ;;		On exit  : 0/0
  5625 ;;		Unchanged: 0/0
  5626 ;; Data sizes:     COMMON   BANK0   BANK1   BANK2   BANK3   BANK4   BANK5   BANK6
  5627 ;;      Params:         0       0       0       0       0       0       0       0
  5628 ;;      Locals:         0       0       0       0       0       0       0       0
  5629 ;;      Temps:          0       0       0       0       0       0       0       0
  5630 ;;      Totals:         0       0       0       0       0       0       0       0
  5631 ;;Total ram usage:        0 bytes
  5632 ;; Hardware stack levels used: 1
  5633 ;; This function calls:
  5634 ;;		Nothing
  5635 ;; This function is called by:
  5636 ;;		_SYSTEM_Initialize
  5637 ;; This function uses a non-reentrant model
  5638 ;;
  5639                           
  5640  0E15                     _PIN_MANAGER_Initialize:	
  5641                           ;psect for function _PIN_MANAGER_Initialize
  5642                           
  5643  0E15                     l1776:	
  5644                           ;incstack = 0
  5645                           ; Regs used in _PIN_MANAGER_Initialize: [wreg+status,2]
  5646                           
  5647                           
  5648                           ;mcc_generated_files/pin_manager.c: 60:     LATA = 0x00;
  5649  0E15  0022               	movlb	2	; select bank2
  5650  0E16  018C               	clrf	12	;volatile
  5651                           
  5652                           ;mcc_generated_files/pin_manager.c: 61:     LATB = 0x00;
  5653  0E17  018D               	clrf	13	;volatile
  5654                           
  5655                           ;mcc_generated_files/pin_manager.c: 62:     LATC = 0x00;
  5656  0E18  018E               	clrf	14	;volatile
  5657  0E19                     l1778:
  5658                           
  5659                           ;mcc_generated_files/pin_manager.c: 67:     TRISA = 0x3F;
  5660  0E19  303F               	movlw	63
  5661  0E1A  0021               	movlb	1	; select bank1
  5662  0E1B  008C               	movwf	12	;volatile
  5663  0E1C                     l1780:
  5664                           
  5665                           ;mcc_generated_files/pin_manager.c: 68:     TRISB = 0x00;
  5666  0E1C  018D               	clrf	13	;volatile
  5667                           
  5668                           ;mcc_generated_files/pin_manager.c: 69:     TRISC = 0xF8;
  5669  0E1D  30F8               	movlw	248
  5670  0E1E  008E               	movwf	14	;volatile
  5671                           
  5672                           ;mcc_generated_files/pin_manager.c: 74:     ANSELC = 0xC8;
  5673  0E1F  30C8               	movlw	200
  5674  0E20  0023               	movlb	3	; select bank3
  5675  0E21  008E               	movwf	14	;volatile
  5676  0E22                     l1782:
  5677                           
  5678                           ;mcc_generated_files/pin_manager.c: 75:     ANSELB = 0x00;
  5679  0E22  018D               	clrf	13	;volatile
  5680  0E23                     l1784:
  5681                           
  5682                           ;mcc_generated_files/pin_manager.c: 76:     ANSELA = 0x13;
  5683  0E23  3013               	movlw	19
  5684  0E24  008C               	movwf	12	;volatile
  5685                           
  5686                           ;mcc_generated_files/pin_manager.c: 81:     WPUB = 0x00;
  5687  0E25  0024               	movlb	4	; select bank4
  5688  0E26  018D               	clrf	13	;volatile
  5689                           
  5690                           ;mcc_generated_files/pin_manager.c: 82:     WPUA = 0x00;
  5691  0E27  018C               	clrf	12	;volatile
  5692  0E28                     l1786:
  5693                           
  5694                           ;mcc_generated_files/pin_manager.c: 83:     OPTION_REGbits.nWPUEN = 1;
  5695  0E28  0021               	movlb	1	; select bank1
  5696  0E29  1795               	bsf	21,7	;volatile
  5697                           
  5698                           ;mcc_generated_files/pin_manager.c: 89:     APFCON = 0x00;
  5699  0E2A  0022               	movlb	2	; select bank2
  5700  0E2B  019D               	clrf	29	;volatile
  5701  0E2C                     l122:
  5702  0E2C  0008               	return
  5703  0E2D                     __end_of_PIN_MANAGER_Initialize:
  5704                           
  5705                           	psect	text22
  5706  0DDE                     __ptext22:	
  5707 ;; *************** function _OSCILLATOR_Initialize *****************
  5708 ;; Defined at:
  5709 ;;		line 60 in file "mcc_generated_files/mcc.c"
  5710 ;; Parameters:    Size  Location     Type
  5711 ;;		None
  5712 ;; Auto vars:     Size  Location     Type
  5713 ;;		None
  5714 ;; Return value:  Size  Location     Type
  5715 ;;                  1    wreg      void 
  5716 ;; Registers used:
  5717 ;;		wreg, status,2
  5718 ;; Tracked objects:
  5719 ;;		On entry : 0/0
  5720 ;;		On exit  : 0/0
  5721 ;;		Unchanged: 0/0
  5722 ;; Data sizes:     COMMON   BANK0   BANK1   BANK2   BANK3   BANK4   BANK5   BANK6
  5723 ;;      Params:         0       0       0       0       0       0       0       0
  5724 ;;      Locals:         0       0       0       0       0       0       0       0
  5725 ;;      Temps:          0       0       0       0       0       0       0       0
  5726 ;;      Totals:         0       0       0       0       0       0       0       0
  5727 ;;Total ram usage:        0 bytes
  5728 ;; Hardware stack levels used: 1
  5729 ;; This function calls:
  5730 ;;		Nothing
  5731 ;; This function is called by:
  5732 ;;		_SYSTEM_Initialize
  5733 ;; This function uses a non-reentrant model
  5734 ;;
  5735                           
  5736  0DDE                     _OSCILLATOR_Initialize:	
  5737                           ;psect for function _OSCILLATOR_Initialize
  5738                           
  5739  0DDE                     l1788:	
  5740                           ;incstack = 0
  5741                           ; Regs used in _OSCILLATOR_Initialize: [wreg+status,2]
  5742                           
  5743                           
  5744                           ;mcc_generated_files/mcc.c: 63:     OSCCON = 0x58;
  5745  0DDE  3058               	movlw	88
  5746  0DDF  0021               	movlb	1	; select bank1
  5747  0DE0  0099               	movwf	25	;volatile
  5748  0DE1                     l1790:
  5749                           
  5750                           ;mcc_generated_files/mcc.c: 65:     BORCON = 0x00;
  5751  0DE1  0022               	movlb	2	; select bank2
  5752  0DE2  0196               	clrf	22	;volatile
  5753  0DE3                     l22:
  5754  0DE3  0008               	return
  5755  0DE4                     __end_of_OSCILLATOR_Initialize:
  5756                           
  5757                           	psect	text23
  5758  0E82                     __ptext23:	
  5759 ;; *************** function _LCD_Initialize *****************
  5760 ;; Defined at:
  5761 ;;		line 46 in file "lcd.c"
  5762 ;; Parameters:    Size  Location     Type
  5763 ;;		None
  5764 ;; Auto vars:     Size  Location     Type
  5765 ;;		None
  5766 ;; Return value:  Size  Location     Type
  5767 ;;                  1    wreg      void 
  5768 ;; Registers used:
  5769 ;;		wreg, status,2, status,0, pclath, cstack
  5770 ;; Tracked objects:
  5771 ;;		On entry : 0/0
  5772 ;;		On exit  : 0/0
  5773 ;;		Unchanged: 0/0
  5774 ;; Data sizes:     COMMON   BANK0   BANK1   BANK2   BANK3   BANK4   BANK5   BANK6
  5775 ;;      Params:         0       0       0       0       0       0       0       0
  5776 ;;      Locals:         0       0       0       0       0       0       0       0
  5777 ;;      Temps:          1       0       0       0       0       0       0       0
  5778 ;;      Totals:         1       0       0       0       0       0       0       0
  5779 ;;Total ram usage:        1 bytes
  5780 ;; Hardware stack levels used: 1
  5781 ;; Hardware stack levels required when called: 2
  5782 ;; This function calls:
  5783 ;;		_LCDPutCmd
  5784 ;; This function is called by:
  5785 ;;		_main
  5786 ;; This function uses a non-reentrant model
  5787 ;;
  5788                           
  5789  0E82                     _LCD_Initialize:	
  5790                           ;psect for function _LCD_Initialize
  5791                           
  5792  0E82                     l1860:	
  5793                           ;incstack = 0
  5794                           ; Regs used in _LCD_Initialize: [wreg+status,2+status,0+pclath+cstack]
  5795                           
  5796                           
  5797                           ;lcd.c: 49:     LATC = 0x00;
  5798  0E82  0022               	movlb	2	; select bank2
  5799  0E83  018E               	clrf	14	;volatile
  5800                           
  5801                           ;lcd.c: 50:     LATB = 0x00;
  5802  0E84  018D               	clrf	13	;volatile
  5803  0E85                     l1862:
  5804                           
  5805                           ;lcd.c: 56:     _delay((unsigned long)((15)*(1000000/4000.0)));
  5806  0E85  3005               	movlw	5
  5807  0E86  00F6               	movwf	??_LCD_Initialize
  5808  0E87  30DE               	movlw	222
  5809  0E88                     u2607:
  5810  0E88  0B89               	decfsz	9,f
  5811  0E89  2E88               	goto	u2607
  5812  0E8A  0BF6               	decfsz	??_LCD_Initialize,f
  5813  0E8B  2E88               	goto	u2607
  5814  0E8C                     l1864:
  5815                           
  5816                           ;lcd.c: 59:     LCDPutCmd(0x32);
  5817  0E8C  3032               	movlw	50
  5818  0E8D  318E  2663  318E   	fcall	_LCDPutCmd
  5819  0E90                     l1866:
  5820                           
  5821                           ;lcd.c: 62:     LCDPutCmd(0x28);
  5822  0E90  3028               	movlw	40
  5823  0E91  318E  2663  318E   	fcall	_LCDPutCmd
  5824  0E94                     l1868:
  5825                           
  5826                           ;lcd.c: 65:     LCDPutCmd(0x0C);
  5827  0E94  300C               	movlw	12
  5828  0E95  318E  2663  318E   	fcall	_LCDPutCmd
  5829  0E98                     l1870:
  5830                           
  5831                           ;lcd.c: 67:     LCDPutCmd(0x01);
  5832  0E98  3001               	movlw	1
  5833  0E99  318E  2663  318E   	fcall	_LCDPutCmd
  5834  0E9C                     l1872:
  5835                           
  5836                           ;lcd.c: 70:     LCDPutCmd(0x06);
  5837  0E9C  3006               	movlw	6
  5838  0E9D  318E  2663  318E   	fcall	_LCDPutCmd
  5839  0EA0                     l160:
  5840  0EA0  0008               	return
  5841  0EA1                     __end_of_LCD_Initialize:
  5842                           
  5843                           	psect	text24
  5844  0004                     __ptext24:	
  5845 ;; *************** function _LCDPutStr2 *****************
  5846 ;; Defined at:
  5847 ;;		line 187 in file "lcd.c"
  5848 ;; Parameters:    Size  Location     Type
  5849 ;;  str             2   10[COMMON] PTR const unsigned char 
  5850 ;;		 -> main@speed_Str(10), main@revs_Str(10), STR_2(12), STR_1(11), 
  5851 ;;  _pos            1   12[COMMON] unsigned char 
  5852 ;;  _line           1   13[COMMON] unsigned char 
  5853 ;; Auto vars:     Size  Location     Type
  5854 ;;  i               1    3[BANK0 ] unsigned char 
  5855 ;; Return value:  Size  Location     Type
  5856 ;;                  1    wreg      void 
  5857 ;; Registers used:
  5858 ;;		wreg, fsr0l, fsr0h, status,2, status,0, pclath, cstack
  5859 ;; Tracked objects:
  5860 ;;		On entry : 0/0
  5861 ;;		On exit  : 0/0
  5862 ;;		Unchanged: 0/0
  5863 ;; Data sizes:     COMMON   BANK0   BANK1   BANK2   BANK3   BANK4   BANK5   BANK6
  5864 ;;      Params:         4       0       0       0       0       0       0       0
  5865 ;;      Locals:         0       1       0       0       0       0       0       0
  5866 ;;      Temps:          0       3       0       0       0       0       0       0
  5867 ;;      Totals:         4       4       0       0       0       0       0       0
  5868 ;;Total ram usage:        8 bytes
  5869 ;; Hardware stack levels used: 1
  5870 ;; Hardware stack levels required when called: 3
  5871 ;; This function calls:
  5872 ;;		_LCDGoto
  5873 ;;		_LCDPutChar
  5874 ;; This function is called by:
  5875 ;;		_main
  5876 ;; This function uses a non-reentrant model
  5877 ;;
  5878                           
  5879  0004                     _LCDPutStr2:	
  5880                           ;psect for function _LCDPutStr2
  5881                           
  5882  0004                     l1874:	
  5883                           ;incstack = 0
  5884                           ; Regs used in _LCDPutStr2: [wreg-fsr0h+status,2+status,0+pclath+cstack]
  5885                           
  5886                           
  5887                           ;lcd.c: 187: void LCDPutStr2(const char *str, char _pos, char _line);lcd.c: 188: {;lcd.c
      +                          : 191:     if ((_pos>=0&&_pos<=15)&&(_line>=0&&_line<=1)){
  5888  0004  3010               	movlw	16
  5889  0005  027C               	subwf	LCDPutStr2@_pos,w
  5890  0006  1803               	skipnc
  5891  0007  2809               	goto	u1741
  5892  0008  280A               	goto	u1740
  5893  0009                     u1741:
  5894  0009  2840               	goto	l198
  5895  000A                     u1740:
  5896  000A                     l1876:
  5897  000A  3002               	movlw	2
  5898  000B  027D               	subwf	LCDPutStr2@_line,w
  5899  000C  1803               	skipnc
  5900  000D  280F               	goto	u1751
  5901  000E  2810               	goto	u1750
  5902  000F                     u1751:
  5903  000F  2840               	goto	l198
  5904  0010                     u1750:
  5905  0010                     l1878:
  5906                           
  5907                           ;lcd.c: 193:          LCDGoto(_pos, _line);
  5908  0010  087D               	movf	LCDPutStr2@_line,w
  5909  0011  0020               	movlb	0	; select bank0
  5910  0012  00A0               	movwf	??_LCDPutStr2
  5911  0013  0820               	movf	??_LCDPutStr2,w
  5912  0014  00F6               	movwf	LCDGoto@ln
  5913  0015  087C               	movf	LCDPutStr2@_pos,w
  5914  0016  318E  26E3  3180   	fcall	_LCDGoto
  5915  0019                     l1880:	
  5916                           ;lcd.c: 194:     } else {
  5917                           
  5918                           
  5919                           ;lcd.c: 198:     uint8_t i=0;
  5920  0019  0020               	movlb	0	; select bank0
  5921  001A  01A3               	clrf	LCDPutStr2@i
  5922                           
  5923                           ;lcd.c: 201:     while (str[i])
  5924  001B  2830               	goto	l1886
  5925  001C                     l1882:
  5926                           
  5927                           ;lcd.c: 202:     {;lcd.c: 204:         LCDPutChar(str[i++]);
  5928  001C  087B               	movf	LCDPutStr2@str+1,w
  5929  001D  00A1               	movwf	??_LCDPutStr2+1
  5930  001E  087A               	movf	LCDPutStr2@str,w
  5931  001F  00A0               	movwf	??_LCDPutStr2
  5932  0020  0823               	movf	LCDPutStr2@i,w
  5933  0021  0720               	addwf	??_LCDPutStr2,w
  5934  0022  0084               	movwf	4
  5935  0023  0821               	movf	??_LCDPutStr2+1,w
  5936  0024  1803               	skipnc
  5937  0025  0A21               	incf	??_LCDPutStr2+1,w
  5938  0026  0085               	movwf	5
  5939  0027  0800               	movf	0,w	;code access
  5940  0028  318E  2646  3180   	fcall	_LCDPutChar
  5941  002B                     l1884:
  5942  002B  3001               	movlw	1
  5943  002C  0020               	movlb	0	; select bank0
  5944  002D  00A0               	movwf	??_LCDPutStr2
  5945  002E  0820               	movf	??_LCDPutStr2,w
  5946  002F  07A3               	addwf	LCDPutStr2@i,f
  5947  0030                     l1886:
  5948                           
  5949                           ;lcd.c: 201:     while (str[i])
  5950  0030  087B               	movf	LCDPutStr2@str+1,w
  5951  0031  00A1               	movwf	??_LCDPutStr2+1
  5952  0032  087A               	movf	LCDPutStr2@str,w
  5953  0033  00A0               	movwf	??_LCDPutStr2
  5954  0034  0823               	movf	LCDPutStr2@i,w
  5955  0035  0720               	addwf	??_LCDPutStr2,w
  5956  0036  0084               	movwf	4
  5957  0037  0821               	movf	??_LCDPutStr2+1,w
  5958  0038  1803               	skipnc
  5959  0039  0A21               	incf	??_LCDPutStr2+1,w
  5960  003A  0085               	movwf	5
  5961  003B  0012               	moviw fsr0++
  5962  003C  1D03               	btfss	3,2
  5963  003D  283F               	goto	u1761
  5964  003E  2840               	goto	u1760
  5965  003F                     u1761:
  5966  003F  281C               	goto	l1882
  5967  0040                     u1760:
  5968  0040                     l198:
  5969  0040  0008               	return
  5970  0041                     __end_of_LCDPutStr2:
  5971                           
  5972                           	psect	text25
  5973  0E46                     __ptext25:	
  5974 ;; *************** function _LCDPutChar *****************
  5975 ;; Defined at:
  5976 ;;		line 128 in file "lcd.c"
  5977 ;; Parameters:    Size  Location     Type
  5978 ;;  ch              1    wreg     unsigned char 
  5979 ;; Auto vars:     Size  Location     Type
  5980 ;;  ch              1    5[COMMON] unsigned char 
  5981 ;; Return value:  Size  Location     Type
  5982 ;;                  1    wreg      void 
  5983 ;; Registers used:
  5984 ;;		wreg, status,2, status,0, pclath, cstack
  5985 ;; Tracked objects:
  5986 ;;		On entry : 0/0
  5987 ;;		On exit  : 0/0
  5988 ;;		Unchanged: 0/0
  5989 ;; Data sizes:     COMMON   BANK0   BANK1   BANK2   BANK3   BANK4   BANK5   BANK6
  5990 ;;      Params:         0       0       0       0       0       0       0       0
  5991 ;;      Locals:         1       0       0       0       0       0       0       0
  5992 ;;      Temps:          2       0       0       0       0       0       0       0
  5993 ;;      Totals:         3       0       0       0       0       0       0       0
  5994 ;;Total ram usage:        3 bytes
  5995 ;; Hardware stack levels used: 1
  5996 ;; Hardware stack levels required when called: 1
  5997 ;; This function calls:
  5998 ;;		_LCDWriteNibble
  5999 ;; This function is called by:
  6000 ;;		_LCDPutStr2
  6001 ;;		_LCDPutStr
  6002 ;; This function uses a non-reentrant model
  6003 ;;
  6004                           
  6005  0E46                     _LCDPutChar:	
  6006                           ;psect for function _LCDPutChar
  6007                           
  6008                           
  6009                           ;incstack = 0
  6010                           ; Regs used in _LCDPutChar: [wreg+status,2+status,0+pclath+cstack]
  6011                           ;LCDPutChar@ch stored from wreg
  6012  0E46  00F5               	movwf	LCDPutChar@ch
  6013  0E47                     l1810:
  6014                           
  6015                           ;lcd.c: 128: void LCDPutChar(uint8_t ch);lcd.c: 129: {;lcd.c: 130:     _delay((unsigned 
      +                          long)((5)*(1000000/4000.0)));
  6016  0E47  30FA               	movlw	250
  6017  0E48                     u2617:
  6018  0E48  3200               	nop2
  6019  0E49  0B89               	decfsz	9,f
  6020  0E4A  2E48               	goto	u2617
  6021  0E4B                     l1812:
  6022                           
  6023                           ;lcd.c: 133:     LCDWriteNibble(ch,1);
  6024  0E4B  01F0               	clrf	LCDWriteNibble@rs
  6025  0E4C  0AF0               	incf	LCDWriteNibble@rs,f
  6026  0E4D  0875               	movf	LCDPutChar@ch,w
  6027  0E4E  318F  2763  318E   	fcall	_LCDWriteNibble
  6028  0E51                     l1814:
  6029                           
  6030                           ;lcd.c: 136:     ch = (ch << 4);
  6031  0E51  0875               	movf	LCDPutChar@ch,w
  6032  0E52  00F3               	movwf	??_LCDPutChar
  6033  0E53  3003               	movlw	3
  6034  0E54                     u1685:
  6035  0E54  35F3               	lslf	??_LCDPutChar,f
  6036  0E55  3EFF               	addlw	-1
  6037  0E56  1D03               	skipz
  6038  0E57  2E54               	goto	u1685
  6039  0E58  3573               	lslf	??_LCDPutChar,w
  6040  0E59  00F4               	movwf	??_LCDPutChar+1
  6041  0E5A  0874               	movf	??_LCDPutChar+1,w
  6042  0E5B  00F5               	movwf	LCDPutChar@ch
  6043  0E5C                     l1816:
  6044                           
  6045                           ;lcd.c: 139:     LCDWriteNibble(ch,1);
  6046  0E5C  01F0               	clrf	LCDWriteNibble@rs
  6047  0E5D  0AF0               	incf	LCDWriteNibble@rs,f
  6048  0E5E  0875               	movf	LCDPutChar@ch,w
  6049  0E5F  318F  2763  318E   	fcall	_LCDWriteNibble
  6050  0E62                     l174:
  6051  0E62  0008               	return
  6052  0E63                     __end_of_LCDPutChar:
  6053                           
  6054                           	psect	text26
  6055  0EE3                     __ptext26:	
  6056 ;; *************** function _LCDGoto *****************
  6057 ;; Defined at:
  6058 ;;		line 172 in file "lcd.c"
  6059 ;; Parameters:    Size  Location     Type
  6060 ;;  pos             1    wreg     unsigned char 
  6061 ;;  ln              1    6[COMMON] unsigned char 
  6062 ;; Auto vars:     Size  Location     Type
  6063 ;;  pos             1    9[COMMON] unsigned char 
  6064 ;; Return value:  Size  Location     Type
  6065 ;;                  1    wreg      void 
  6066 ;; Registers used:
  6067 ;;		wreg, status,2, status,0, pclath, cstack
  6068 ;; Tracked objects:
  6069 ;;		On entry : 0/0
  6070 ;;		On exit  : 0/0
  6071 ;;		Unchanged: 0/0
  6072 ;; Data sizes:     COMMON   BANK0   BANK1   BANK2   BANK3   BANK4   BANK5   BANK6
  6073 ;;      Params:         1       0       0       0       0       0       0       0
  6074 ;;      Locals:         3       0       0       0       0       0       0       0
  6075 ;;      Temps:          0       0       0       0       0       0       0       0
  6076 ;;      Totals:         4       0       0       0       0       0       0       0
  6077 ;;Total ram usage:        4 bytes
  6078 ;; Hardware stack levels used: 1
  6079 ;; Hardware stack levels required when called: 2
  6080 ;; This function calls:
  6081 ;;		_LCDPutCmd
  6082 ;; This function is called by:
  6083 ;;		_LCDPutStr2
  6084 ;; This function uses a non-reentrant model
  6085 ;;
  6086                           
  6087  0EE3                     _LCDGoto:	
  6088                           ;psect for function _LCDGoto
  6089                           
  6090                           
  6091                           ;incstack = 0
  6092                           ; Regs used in _LCDGoto: [wreg+status,2+status,0+pclath+cstack]
  6093                           ;LCDGoto@pos stored from wreg
  6094  0EE3  00F9               	movwf	LCDGoto@pos
  6095  0EE4                     l1818:
  6096                           
  6097                           ;lcd.c: 172: void LCDGoto(uint8_t pos,uint8_t ln);lcd.c: 173: {;lcd.c: 175:     if ((ln 
      +                          > (2 -1)) || (pos > (16 -1)))
  6098  0EE4  3002               	movlw	2
  6099  0EE5  0276               	subwf	LCDGoto@ln,w
  6100  0EE6  1803               	skipnc
  6101  0EE7  2EE9               	goto	u1691
  6102  0EE8  2EEA               	goto	u1690
  6103  0EE9                     u1691:
  6104  0EE9  2F09               	goto	l189
  6105  0EEA                     u1690:
  6106  0EEA                     l1820:
  6107  0EEA  3010               	movlw	16
  6108  0EEB  0279               	subwf	LCDGoto@pos,w
  6109  0EEC  1C03               	skipc
  6110  0EED  2EEF               	goto	u1701
  6111  0EEE  2EF0               	goto	u1700
  6112  0EEF                     u1701:
  6113  0EEF  2EF1               	goto	l1822
  6114  0EF0                     u1700:
  6115  0EF0  2F09               	goto	l189
  6116  0EF1                     l1822:
  6117                           
  6118                           ;lcd.c: 182:     LCDPutCmd((ln == 1) ? (0xC0 | pos) : (0x80 | pos));
  6119  0EF1  0376               	decf	LCDGoto@ln,w
  6120  0EF2  1903               	btfsc	3,2
  6121  0EF3  2EF5               	goto	u1711
  6122  0EF4  2EF6               	goto	u1710
  6123  0EF5                     u1711:
  6124  0EF5  2EFC               	goto	l1826
  6125  0EF6                     u1710:
  6126  0EF6                     l1824:
  6127  0EF6  3080               	movlw	128
  6128  0EF7  0479               	iorwf	LCDGoto@pos,w
  6129  0EF8  00F7               	movwf	_LCDGoto$380
  6130  0EF9  3000               	movlw	0
  6131  0EFA  00F8               	movwf	_LCDGoto$380+1
  6132  0EFB  2F01               	goto	l1828
  6133  0EFC                     l1826:
  6134  0EFC  30C0               	movlw	192
  6135  0EFD  0479               	iorwf	LCDGoto@pos,w
  6136  0EFE  00F7               	movwf	_LCDGoto$380
  6137  0EFF  3000               	movlw	0
  6138  0F00  00F8               	movwf	_LCDGoto$380+1
  6139  0F01                     l1828:
  6140  0F01  0877               	movf	_LCDGoto$380,w
  6141  0F02  318E  2663  318E   	fcall	_LCDPutCmd
  6142  0F05                     l1830:
  6143                           
  6144                           ;lcd.c: 185:     _delay((unsigned long)((5)*(1000000/4000.0)));
  6145  0F05  30FA               	movlw	250
  6146  0F06                     u2627:
  6147  0F06  3200               	nop2
  6148  0F07  0B89               	decfsz	9,f
  6149  0F08  2F06               	goto	u2627
  6150  0F09                     l189:
  6151  0F09  0008               	return
  6152  0F0A                     __end_of_LCDGoto:
  6153                           
  6154                           	psect	text27
  6155  0E63                     __ptext27:	
  6156 ;; *************** function _LCDPutCmd *****************
  6157 ;; Defined at:
  6158 ;;		line 143 in file "lcd.c"
  6159 ;; Parameters:    Size  Location     Type
  6160 ;;  ch              1    wreg     unsigned char 
  6161 ;; Auto vars:     Size  Location     Type
  6162 ;;  ch              1    5[COMMON] unsigned char 
  6163 ;; Return value:  Size  Location     Type
  6164 ;;                  1    wreg      void 
  6165 ;; Registers used:
  6166 ;;		wreg, status,2, status,0, pclath, cstack
  6167 ;; Tracked objects:
  6168 ;;		On entry : 0/0
  6169 ;;		On exit  : 0/0
  6170 ;;		Unchanged: 0/0
  6171 ;; Data sizes:     COMMON   BANK0   BANK1   BANK2   BANK3   BANK4   BANK5   BANK6
  6172 ;;      Params:         0       0       0       0       0       0       0       0
  6173 ;;      Locals:         1       0       0       0       0       0       0       0
  6174 ;;      Temps:          2       0       0       0       0       0       0       0
  6175 ;;      Totals:         3       0       0       0       0       0       0       0
  6176 ;;Total ram usage:        3 bytes
  6177 ;; Hardware stack levels used: 1
  6178 ;; Hardware stack levels required when called: 1
  6179 ;; This function calls:
  6180 ;;		_LCDWriteNibble
  6181 ;; This function is called by:
  6182 ;;		_LCD_Initialize
  6183 ;;		_LCDGoto
  6184 ;; This function uses a non-reentrant model
  6185 ;;
  6186                           
  6187  0E63                     _LCDPutCmd:	
  6188                           ;psect for function _LCDPutCmd
  6189                           
  6190                           
  6191                           ;incstack = 0
  6192                           ; Regs used in _LCDPutCmd: [wreg+status,2+status,0+pclath+cstack]
  6193                           ;LCDPutCmd@ch stored from wreg
  6194  0E63  00F5               	movwf	LCDPutCmd@ch
  6195  0E64                     l1724:
  6196                           
  6197                           ;lcd.c: 143: void LCDPutCmd(uint8_t ch);lcd.c: 144: {;lcd.c: 145:     _delay((unsigned l
      +                          ong)((5)*(1000000/4000.0)));
  6198  0E64  30FA               	movlw	250
  6199  0E65                     u2637:
  6200  0E65  3200               	nop2
  6201  0E66  0B89               	decfsz	9,f
  6202  0E67  2E65               	goto	u2637
  6203  0E68                     l1726:
  6204                           
  6205                           ;lcd.c: 148:     LCDWriteNibble(ch,0);
  6206  0E68  01F0               	clrf	LCDWriteNibble@rs
  6207  0E69  0875               	movf	LCDPutCmd@ch,w
  6208  0E6A  318F  2763  318E   	fcall	_LCDWriteNibble
  6209  0E6D                     l1728:
  6210                           
  6211                           ;lcd.c: 151:     ch = (ch << 4);
  6212  0E6D  0875               	movf	LCDPutCmd@ch,w
  6213  0E6E  00F3               	movwf	??_LCDPutCmd
  6214  0E6F  3003               	movlw	3
  6215  0E70                     u1645:
  6216  0E70  35F3               	lslf	??_LCDPutCmd,f
  6217  0E71  3EFF               	addlw	-1
  6218  0E72  1D03               	skipz
  6219  0E73  2E70               	goto	u1645
  6220  0E74  3573               	lslf	??_LCDPutCmd,w
  6221  0E75  00F4               	movwf	??_LCDPutCmd+1
  6222  0E76  0874               	movf	??_LCDPutCmd+1,w
  6223  0E77  00F5               	movwf	LCDPutCmd@ch
  6224  0E78                     l1730:
  6225                           
  6226                           ;lcd.c: 153:     _delay((unsigned long)((1)*(1000000/4000.0)));
  6227  0E78  3053               	movlw	83
  6228  0E79                     u2647:
  6229  0E79  0B89               	decfsz	9,f
  6230  0E7A  2E79               	goto	u2647
  6231  0E7B  0000               	nop
  6232  0E7C                     l1732:
  6233                           
  6234                           ;lcd.c: 156:     LCDWriteNibble(ch,0);
  6235  0E7C  01F0               	clrf	LCDWriteNibble@rs
  6236  0E7D  0875               	movf	LCDPutCmd@ch,w
  6237  0E7E  318F  2763  318E   	fcall	_LCDWriteNibble
  6238  0E81                     l177:
  6239  0E81  0008               	return
  6240  0E82                     __end_of_LCDPutCmd:
  6241                           
  6242                           	psect	text28
  6243  0F63                     __ptext28:	
  6244 ;; *************** function _LCDWriteNibble *****************
  6245 ;; Defined at:
  6246 ;;		line 75 in file "lcd.c"
  6247 ;; Parameters:    Size  Location     Type
  6248 ;;  ch              1    wreg     unsigned char 
  6249 ;;  rs              1    0[COMMON] unsigned char 
  6250 ;; Auto vars:     Size  Location     Type
  6251 ;;  ch              1    2[COMMON] unsigned char 
  6252 ;; Return value:  Size  Location     Type
  6253 ;;                  1    wreg      void 
  6254 ;; Registers used:
  6255 ;;		wreg, status,2, status,0
  6256 ;; Tracked objects:
  6257 ;;		On entry : 0/0
  6258 ;;		On exit  : 0/0
  6259 ;;		Unchanged: 0/0
  6260 ;; Data sizes:     COMMON   BANK0   BANK1   BANK2   BANK3   BANK4   BANK5   BANK6
  6261 ;;      Params:         1       0       0       0       0       0       0       0
  6262 ;;      Locals:         1       0       0       0       0       0       0       0
  6263 ;;      Temps:          1       0       0       0       0       0       0       0
  6264 ;;      Totals:         3       0       0       0       0       0       0       0
  6265 ;;Total ram usage:        3 bytes
  6266 ;; Hardware stack levels used: 1
  6267 ;; This function calls:
  6268 ;;		Nothing
  6269 ;; This function is called by:
  6270 ;;		_LCDPutChar
  6271 ;;		_LCDPutCmd
  6272 ;; This function uses a non-reentrant model
  6273 ;;
  6274                           
  6275  0F63                     _LCDWriteNibble:	
  6276                           ;psect for function _LCDWriteNibble
  6277                           
  6278                           
  6279                           ;incstack = 0
  6280                           ; Regs used in _LCDWriteNibble: [wreg+status,2+status,0]
  6281                           ;LCDWriteNibble@ch stored from wreg
  6282  0F63  00F2               	movwf	LCDWriteNibble@ch
  6283  0F64                     l1654:
  6284                           
  6285                           ;lcd.c: 75: void LCDWriteNibble(uint8_t ch,uint8_t rs);lcd.c: 76: {;lcd.c: 78:     ch = 
      +                          (ch & 0xF0);
  6286  0F64  0872               	movf	LCDWriteNibble@ch,w
  6287  0F65  39F0               	andlw	240
  6288  0F66  00F1               	movwf	??_LCDWriteNibble
  6289  0F67  0871               	movf	??_LCDWriteNibble,w
  6290  0F68  00F2               	movwf	LCDWriteNibble@ch
  6291                           
  6292                           ;lcd.c: 81:     LATC = (LATC & 0x0F);
  6293  0F69  0022               	movlb	2	; select bank2
  6294  0F6A  080E               	movf	14,w	;volatile
  6295  0F6B  390F               	andlw	15
  6296  0F6C  008E               	movwf	14	;volatile
  6297  0F6D                     l1656:
  6298                           
  6299                           ;lcd.c: 82:     LATBbits.LATB4 = 0;
  6300  0F6D  120D               	bcf	13,4	;volatile
  6301  0F6E                     l1658:
  6302                           
  6303                           ;lcd.c: 83:     LATBbits.LATB5 = 0;
  6304  0F6E  128D               	bcf	13,5	;volatile
  6305  0F6F                     l1660:
  6306                           
  6307                           ;lcd.c: 84:     LATBbits.LATB6 = 0;
  6308  0F6F  130D               	bcf	13,6	;volatile
  6309  0F70                     l1662:
  6310                           
  6311                           ;lcd.c: 85:     LATBbits.LATB7 = 0;
  6312  0F70  138D               	bcf	13,7	;volatile
  6313  0F71                     l1664:
  6314                           
  6315                           ;lcd.c: 89:     if(((ch & 0x80)>>7)==1){
  6316  0F71  0872               	movf	LCDWriteNibble@ch,w
  6317  0F72  00F1               	movwf	??_LCDWriteNibble
  6318  0F73  3007               	movlw	7
  6319  0F74                     u1495:
  6320  0F74  36F1               	lsrf	??_LCDWriteNibble,f
  6321  0F75  0B89               	decfsz	9,f
  6322  0F76  2F74               	goto	u1495
  6323  0F77  1C71               	btfss	??_LCDWriteNibble,0
  6324  0F78  2F7A               	goto	u1501
  6325  0F79  2F7B               	goto	u1500
  6326  0F7A                     u1501:
  6327  0F7A  2F7D               	goto	l163
  6328  0F7B                     u1500:
  6329  0F7B                     l1666:
  6330                           
  6331                           ;lcd.c: 90:         LATBbits.LATB7 = 1;
  6332  0F7B  178D               	bsf	13,7	;volatile
  6333                           
  6334                           ;lcd.c: 91:     } else{
  6335  0F7C  2F7E               	goto	l1668
  6336  0F7D                     l163:
  6337                           
  6338                           ;lcd.c: 92:         LATBbits.LATB7 = 0;
  6339  0F7D  138D               	bcf	13,7	;volatile
  6340  0F7E                     l1668:
  6341                           
  6342                           ;lcd.c: 95:     if(((ch & 0x40)>>6)==1){
  6343  0F7E  0872               	movf	LCDWriteNibble@ch,w
  6344  0F7F  00F1               	movwf	??_LCDWriteNibble
  6345  0F80  3006               	movlw	6
  6346  0F81                     u1515:
  6347  0F81  36F1               	lsrf	??_LCDWriteNibble,f
  6348  0F82  0B89               	decfsz	9,f
  6349  0F83  2F81               	goto	u1515
  6350  0F84  1C71               	btfss	??_LCDWriteNibble,0
  6351  0F85  2F87               	goto	u1521
  6352  0F86  2F88               	goto	u1520
  6353  0F87                     u1521:
  6354  0F87  2F8A               	goto	l165
  6355  0F88                     u1520:
  6356  0F88                     l1670:
  6357                           
  6358                           ;lcd.c: 96:         LATBbits.LATB6 = 1;
  6359  0F88  170D               	bsf	13,6	;volatile
  6360                           
  6361                           ;lcd.c: 97:     } else{
  6362  0F89  2F8B               	goto	l1672
  6363  0F8A                     l165:
  6364                           
  6365                           ;lcd.c: 98:         LATBbits.LATB6 = 0;
  6366  0F8A  130D               	bcf	13,6	;volatile
  6367  0F8B                     l1672:
  6368                           
  6369                           ;lcd.c: 101:     if(((ch & 0x20)>>5)==1){
  6370  0F8B  0872               	movf	LCDWriteNibble@ch,w
  6371  0F8C  00F1               	movwf	??_LCDWriteNibble
  6372  0F8D  3005               	movlw	5
  6373  0F8E                     u1535:
  6374  0F8E  36F1               	lsrf	??_LCDWriteNibble,f
  6375  0F8F  0B89               	decfsz	9,f
  6376  0F90  2F8E               	goto	u1535
  6377  0F91  1C71               	btfss	??_LCDWriteNibble,0
  6378  0F92  2F94               	goto	u1541
  6379  0F93  2F95               	goto	u1540
  6380  0F94                     u1541:
  6381  0F94  2F97               	goto	l167
  6382  0F95                     u1540:
  6383  0F95                     l1674:
  6384                           
  6385                           ;lcd.c: 102:         LATBbits.LATB5 = 1;
  6386  0F95  168D               	bsf	13,5	;volatile
  6387                           
  6388                           ;lcd.c: 103:     } else{
  6389  0F96  2F98               	goto	l1676
  6390  0F97                     l167:
  6391                           
  6392                           ;lcd.c: 104:         LATBbits.LATB5 = 0;
  6393  0F97  128D               	bcf	13,5	;volatile
  6394  0F98                     l1676:
  6395                           
  6396                           ;lcd.c: 107:     if(((ch & 0x10)>>4)==1){
  6397  0F98  0872               	movf	LCDWriteNibble@ch,w
  6398  0F99  00F1               	movwf	??_LCDWriteNibble
  6399  0F9A  3004               	movlw	4
  6400  0F9B                     u1555:
  6401  0F9B  36F1               	lsrf	??_LCDWriteNibble,f
  6402  0F9C  0B89               	decfsz	9,f
  6403  0F9D  2F9B               	goto	u1555
  6404  0F9E  1C71               	btfss	??_LCDWriteNibble,0
  6405  0F9F  2FA1               	goto	u1561
  6406  0FA0  2FA2               	goto	u1560
  6407  0FA1                     u1561:
  6408  0FA1  2FA4               	goto	l169
  6409  0FA2                     u1560:
  6410  0FA2                     l1678:
  6411                           
  6412                           ;lcd.c: 108:         LATBbits.LATB4 = 1;
  6413  0FA2  160D               	bsf	13,4	;volatile
  6414                           
  6415                           ;lcd.c: 109:     } else{
  6416  0FA3  2FA5               	goto	l1680
  6417  0FA4                     l169:
  6418                           
  6419                           ;lcd.c: 110:         LATBbits.LATB4 = 0;
  6420  0FA4  120D               	bcf	13,4	;volatile
  6421  0FA5                     l1680:
  6422                           
  6423                           ;lcd.c: 116:     LATCbits.LATC0 = rs;
  6424  0FA5  0C70               	rrf	LCDWriteNibble@rs,w
  6425  0FA6  1C03               	skipc
  6426  0FA7  100E               	bcf	14,0	;volatile
  6427  0FA8  1803               	skipnc
  6428  0FA9  140E               	bsf	14,0	;volatile
  6429  0FAA                     l1682:
  6430                           
  6431                           ;lcd.c: 119:     LATCbits.LATC1 = 0;
  6432  0FAA  108E               	bcf	14,1	;volatile
  6433  0FAB                     l1684:
  6434                           
  6435                           ;lcd.c: 122:     LATCbits.LATC2 = 1;
  6436  0FAB  150E               	bsf	14,2	;volatile
  6437  0FAC                     l1686:
  6438                           
  6439                           ;lcd.c: 125:     LATCbits.LATC2 = 0;
  6440  0FAC  110E               	bcf	14,2	;volatile
  6441  0FAD                     l171:
  6442  0FAD  0008               	return
  6443  0FAE                     __end_of_LCDWriteNibble:
  6444  007E                     btemp	set	126	;btemp
  6445  007E                     wtemp0	set	126
  6446                           
  6447                           	psect	idloc
  6448                           
  6449                           ;Config register IDLOC0 @ 0x8000
  6450                           ;	unspecified, using default values
  6451  8000                     	org	32768
  6452  8000  3FFF               	dw	16383
  6453                           
  6454                           ;Config register IDLOC1 @ 0x8001
  6455                           ;	unspecified, using default values
  6456  8001                     	org	32769
  6457  8001  3FFF               	dw	16383
  6458                           
  6459                           ;Config register IDLOC2 @ 0x8002
  6460                           ;	unspecified, using default values
  6461  8002                     	org	32770
  6462  8002  3FFF               	dw	16383
  6463                           
  6464                           ;Config register IDLOC3 @ 0x8003
  6465                           ;	unspecified, using default values
  6466  8003                     	org	32771
  6467  8003  3FFF               	dw	16383
  6468                           
  6469                           	psect	config
  6470                           
  6471                           ;Config register CONFIG1 @ 0x8007
  6472                           ;	Oscillator Selection Bits
  6473                           ;	FOSC = INTOSC, INTOSC oscillator: I/O function on CLKIN pin
  6474                           ;	Watchdog Timer Enable
  6475                           ;	WDTE = OFF, WDT disabled
  6476                           ;	Power-up Timer Enable
  6477                           ;	PWRTE = OFF, PWRT disabled
  6478                           ;	MCLR Pin Function Select
  6479                           ;	MCLRE = ON, MCLR/VPP pin function is MCLR
  6480                           ;	Flash Program Memory Code Protection
  6481                           ;	CP = OFF, Program memory code protection is disabled
  6482                           ;	Brown-out Reset Enable
  6483                           ;	BOREN = OFF, Brown-out Reset disabled
  6484                           ;	Clock Out Enable
  6485                           ;	CLKOUTEN = OFF, CLKOUT function is disabled. I/O or oscillator function on the CLKOUT 
      +                          pin
  6486                           ;	Internal/External Switchover Mode
  6487                           ;	IESO = OFF, Internal/External Switchover Mode is disabled
  6488                           ;	Fail-Safe Clock Monitor Enable
  6489                           ;	FCMEN = OFF, Fail-Safe Clock Monitor is disabled
  6490  8007                     	org	32775
  6491  8007  09E4               	dw	2532
  6492                           
  6493                           ;Config register CONFIG2 @ 0x8008
  6494                           ;	Flash Memory Self-Write Protection
  6495                           ;	WRT = OFF, Write protection off
  6496                           ;	Stack Overflow/Underflow Reset Enable
  6497                           ;	STVREN = ON, Stack Overflow or Underflow will cause a Reset
  6498                           ;	Brown-out Reset Voltage Selection
  6499                           ;	BORV = LO, Brown-out Reset Voltage (Vbor), low trip point selected.
  6500                           ;	Low-Power Brown Out Reset
  6501                           ;	LPBOR = OFF, Low-Power BOR is disabled
  6502                           ;	Low-Voltage Programming Enable
  6503                           ;	LVP = ON, Low-voltage programming enabled
  6504  8008                     	org	32776
  6505  8008  3FFF               	dw	16383

Data Sizes:
    Strings     26
    Constant    0
    Data        0
    BSS         41
    Persistent  34
    Stack       0

Auto Spaces:
    Space          Size  Autos    Used
    COMMON           14     14      14
    BANK0            80     80      80
    BANK1            80     26      69
    BANK2            80      0       0
    BANK3            80      0       0
    BANK4            80      0       0
    BANK5            80      0       0
    BANK6            16      0       0

Pointer List with Targets:

    strlen@s	PTR const unsigned char  size(1) Largest target is 32
		 -> dbuf(BANK1[32]), 

    strlen@a	PTR const unsigned char  size(1) Largest target is 32
		 -> dbuf(BANK1[32]), 

    fputs@s	PTR const unsigned char  size(1) Largest target is 32
		 -> dbuf(BANK1[32]), 

    fputs@fp	PTR struct _IO_FILE size(1) Largest target is 10
		 -> sprintf@f(BANK0[10]), 

    fputc@fp...source	PTR const unsigned char  size(1) Largest target is 0

    fputc@fp...buffer	PTR unsigned char  size(1) Largest target is 0

    fputc@fp	PTR struct _IO_FILE size(1) Largest target is 10
		 -> sprintf@f(BANK0[10]), 

    vfprintf@ap	PTR PTR void  size(1) Largest target is 1
		 -> sprintf@ap(BANK0[1]), 

    vfprintf@fp	PTR struct _IO_FILE size(1) Largest target is 10
		 -> sprintf@f(BANK0[10]), 

    vfprintf@fmt	PTR const unsigned char  size(2) Largest target is 3
		 -> STR_4(CODE[3]), STR_3(CODE[3]), 

    vfprintf@cfmt	PTR unsigned char  size(2) Largest target is 3
		 -> STR_4(CODE[3]), STR_3(CODE[3]), 

    vfpfcnvrt@fp	PTR struct _IO_FILE size(1) Largest target is 10
		 -> sprintf@f(BANK0[10]), 

    vfpfcnvrt@ap	PTR PTR void  size(1) Largest target is 1
		 -> sprintf@ap(BANK0[1]), 

    vfpfcnvrt@fmt	PTR PTR unsigned char  size(1) Largest target is 2
		 -> vfprintf@cfmt(BANK0[2]), 

    utoa@fp	PTR struct _IO_FILE size(1) Largest target is 10
		 -> sprintf@f(BANK0[10]), 

    pad@fp	PTR struct _IO_FILE size(1) Largest target is 10
		 -> sprintf@f(BANK0[10]), 

    pad@buf	PTR unsigned char  size(1) Largest target is 32
		 -> dbuf(BANK1[32]), 

    sprintf@fmt	PTR const unsigned char  size(2) Largest target is 3
		 -> STR_4(CODE[3]), STR_3(CODE[3]), 

    sprintf@s	PTR unsigned char  size(1) Largest target is 10
		 -> main@speed_Str(BANK1[10]), main@revs_Str(BANK1[10]), 

    sprintf@ap	PTR void [1] size(1) Largest target is 2
		 -> ?_sprintf(BANK0[2]), 

    S699$source	PTR const unsigned char  size(1) Largest target is 0

    f...source	PTR const unsigned char  size(1) Largest target is 0

    S699$buffer	PTR unsigned char  size(1) Largest target is 0

    f...buffer	PTR unsigned char  size(1) Largest target is 0

    LCDPutStr2@str	PTR const unsigned char  size(2) Largest target is 12
		 -> main@speed_Str(BANK1[10]), main@revs_Str(BANK1[10]), STR_2(CODE[12]), STR_1(CODE[11]), 


Critical Paths under _main in COMMON

    _main->_LCDPutStr2
    _vfpfcnvrt->_utoa
    _utoa->_pad
    _pad->_fputs
    _fputs->_fputc
    ___xxtofl->___awdiv
    ___fltol->___awdiv
    ___fladd->___awdiv
    ___awdiv->___wmul
    _LCD_Initialize->_LCDPutCmd
    _LCDPutStr2->_LCDGoto
    _LCDPutChar->_LCDWriteNibble
    _LCDGoto->_LCDPutCmd
    _LCDPutCmd->_LCDWriteNibble

Critical Paths under _main in BANK0

    _main->_sprintf
    _sprintf->_vfprintf
    _vfprintf->_vfpfcnvrt
    _vfpfcnvrt->_utoa
    _utoa->___lodiv
    _utoa->___lomod
    _pad->_fputs
    ___xxtofl->___awdiv
    ___fltol->___fladd
    ___fladd->___xxtofl

Critical Paths under _main in BANK1

    None.

Critical Paths under _main in BANK2

    None.

Critical Paths under _main in BANK3

    None.

Critical Paths under _main in BANK4

    None.

Critical Paths under _main in BANK5

    None.

Critical Paths under _main in BANK6

    None.

Call Graph Tables:

 ---------------------------------------------------------------------------------
 (Depth) Function   	        Calls       Base Space   Used Autos Params    Refs
 ---------------------------------------------------------------------------------
 (0) _main                                                26    26      0   12622
                                              0 BANK1     26    26      0
                         _LCDPutStr2
                     _LCD_Initialize
                  _SYSTEM_Initialize
                            ___awdiv
                            ___fladd
                            ___fltol
                             ___wmul
                           ___xxtofl
                            _sprintf
 ---------------------------------------------------------------------------------
 (1) _sprintf                                             19    15      4    5599
                                             63 BANK0     17    13      4
                           _vfprintf
 ---------------------------------------------------------------------------------
 (2) _vfprintf                                             8     5      3    5182
                                             55 BANK0      8     5      3
                          _vfpfcnvrt
 ---------------------------------------------------------------------------------
 (3) _vfpfcnvrt                                           40    38      2    4872
                                             39 BANK0     16    14      2
                              _fputc
                               _utoa
 ---------------------------------------------------------------------------------
 (4) _utoa                                                24    16      8    3544
                                             13 COMMON     1     1      0
                                             16 BANK0     23    15      8
                            ___lodiv
                            ___lomod
                                _pad
 ---------------------------------------------------------------------------------
 (5) _pad                                                  9     6      3    2537
                                             12 COMMON     1     1      0
                                              4 BANK0      8     5      3
                              _fputc
                              _fputs
                             _strlen
 ---------------------------------------------------------------------------------
 (6) _strlen                                               5     3      2     123
                                              0 COMMON     5     3      2
 ---------------------------------------------------------------------------------
 (6) _fputs                                                8     7      1    1149
                                              8 COMMON     4     3      1
                                              0 BANK0      4     4      0
                              _fputc
 ---------------------------------------------------------------------------------
 (7) _fputc                                                8     5      3     834
                                              0 COMMON     8     5      3
                              _putch
 ---------------------------------------------------------------------------------
 (8) _putch                                                1     1      0       0
 ---------------------------------------------------------------------------------
 (5) ___lomod                                             18     2     16     311
                                              0 COMMON     2     2      0
                                              0 BANK0     16     0     16
 ---------------------------------------------------------------------------------
 (5) ___lodiv                                             26    10     16     314
                                              0 COMMON    10    10      0
                                              0 BANK0     16     0     16
 ---------------------------------------------------------------------------------
 (1) ___xxtofl                                            14    10      4     550
                                              4 BANK0     14    10      4
                            ___awdiv (ARG)
                             ___wmul (ARG)
 ---------------------------------------------------------------------------------
 (1) ___wmul                                               6     2      4     244
                                              0 COMMON     6     2      4
 ---------------------------------------------------------------------------------
 (1) ___fltol                                             11     7      4     381
                                             11 COMMON     2     2      0
                                             38 BANK0      9     5      4
                            ___awdiv (ARG)
                            ___fladd (ARG)
                             ___wmul (ARG)
                           ___xxtofl (ARG)
 ---------------------------------------------------------------------------------
 (1) ___fladd                                             20    12      8    2262
                                             18 BANK0     20    12      8
                            ___awdiv (ARG)
                           ___xxtofl (ARG)
 ---------------------------------------------------------------------------------
 (1) ___awdiv                                              9     5      4     604
                                              6 COMMON     5     1      4
                                              0 BANK0      4     4      0
                             ___wmul (ARG)
 ---------------------------------------------------------------------------------
 (1) _SYSTEM_Initialize                                    0     0      0       0
              _OSCILLATOR_Initialize
             _PIN_MANAGER_Initialize
                    _TMR0_Initialize
                    _TMR1_Initialize
                     _WDT_Initialize
 ---------------------------------------------------------------------------------
 (2) _WDT_Initialize                                       0     0      0       0
 ---------------------------------------------------------------------------------
 (2) _TMR1_Initialize                                      0     0      0       0
 ---------------------------------------------------------------------------------
 (2) _TMR0_Initialize                                      0     0      0       0
 ---------------------------------------------------------------------------------
 (2) _PIN_MANAGER_Initialize                               0     0      0       0
 ---------------------------------------------------------------------------------
 (2) _OSCILLATOR_Initialize                                0     0      0       0
 ---------------------------------------------------------------------------------
 (1) _LCD_Initialize                                       1     1      0     504
                                              6 COMMON     1     1      0
                          _LCDPutCmd
 ---------------------------------------------------------------------------------
 (1) _LCDPutStr2                                           8     4      4    2308
                                             10 COMMON     4     0      4
                                              0 BANK0      4     4      0
                            _LCDGoto
                         _LCDPutChar
 ---------------------------------------------------------------------------------
 (2) _LCDPutChar                                           3     3      0     504
                                              3 COMMON     3     3      0
                     _LCDWriteNibble
 ---------------------------------------------------------------------------------
 (2) _LCDGoto                                              4     3      1     714
                                              6 COMMON     4     3      1
                          _LCDPutCmd
 ---------------------------------------------------------------------------------
 (2) _LCDPutCmd                                            3     3      0     504
                                              3 COMMON     3     3      0
                     _LCDWriteNibble
 ---------------------------------------------------------------------------------
 (3) _LCDWriteNibble                                       3     2      1     437
                                              0 COMMON     3     2      1
 ---------------------------------------------------------------------------------
 Estimated maximum stack depth 8
 ---------------------------------------------------------------------------------

 Call Graph Graphs:

 _main (ROOT)
   _LCDPutStr2
     _LCDGoto
       _LCDPutCmd
         _LCDWriteNibble
     _LCDPutChar
       _LCDWriteNibble
   _LCD_Initialize
     _LCDPutCmd
   _SYSTEM_Initialize
     _OSCILLATOR_Initialize
     _PIN_MANAGER_Initialize
     _TMR0_Initialize
     _TMR1_Initialize
     _WDT_Initialize
   ___awdiv
     ___wmul (ARG)
   ___fladd
     ___awdiv (ARG)
     ___xxtofl (ARG)
       ___awdiv (ARG)
       ___wmul (ARG)
   ___fltol
     ___awdiv (ARG)
     ___fladd (ARG)
     ___wmul (ARG)
     ___xxtofl (ARG)
   ___wmul
   ___xxtofl
   _sprintf
     _vfprintf
       _vfpfcnvrt
         _fputc
           _putch
         _utoa
           ___lodiv
           ___lomod
           _pad
             _fputc
             _fputs
               _fputc
             _strlen

 Address spaces:
Name               Size   Autos  Total    Cost      Usage
BIGRAM             1F0      0       0       0        0.0%
NULL                 0      0       0       0        0.0%
CODE                 0      0       0       0        0.0%
BITCOMMON            E      0       0       1        0.0%
BITSFR0              0      0       0       1        0.0%
SFR0                 0      0       0       1        0.0%
COMMON               E      E       E       2      100.0%
BITSFR1              0      0       0       2        0.0%
SFR1                 0      0       0       2        0.0%
BITSFR2              0      0       0       3        0.0%
SFR2                 0      0       0       3        0.0%
STACK                0      0       0       3        0.0%
BITSFR3              0      0       0       4        0.0%
SFR3                 0      0       0       4        0.0%
ABS                  0      0      A3       4        0.0%
BITBANK0            50      0       0       5        0.0%
BITSFR4              0      0       0       5        0.0%
SFR4                 0      0       0       5        0.0%
BANK0               50     50      50       6      100.0%
BITSFR5              0      0       0       6        0.0%
SFR5                 0      0       0       6        0.0%
BITBANK1            50      0       0       7        0.0%
BITSFR6              0      0       0       7        0.0%
SFR6                 0      0       0       7        0.0%
BANK1               50     1A      45       8       86.2%
BITSFR7              0      0       0       8        0.0%
SFR7                 0      0       0       8        0.0%
BITBANK2            50      0       0       9        0.0%
BITSFR8              0      0       0       9        0.0%
SFR8                 0      0       0       9        0.0%
BANK2               50      0       0      10        0.0%
BITSFR9              0      0       0      10        0.0%
SFR9                 0      0       0      10        0.0%
BITBANK3            50      0       0      11        0.0%
BITSFR10             0      0       0      11        0.0%
SFR10                0      0       0      11        0.0%
BANK3               50      0       0      12        0.0%
BITSFR11             0      0       0      12        0.0%
SFR11                0      0       0      12        0.0%
BITBANK4            50      0       0      13        0.0%
BITSFR12             0      0       0      13        0.0%
SFR12                0      0       0      13        0.0%
BANK4               50      0       0      14        0.0%
BITSFR13             0      0       0      14        0.0%
SFR13                0      0       0      14        0.0%
BITBANK5            50      0       0      15        0.0%
BITSFR14             0      0       0      15        0.0%
SFR14                0      0       0      15        0.0%
BANK5               50      0       0      16        0.0%
BITSFR15             0      0       0      16        0.0%
SFR15                0      0       0      16        0.0%
BITBANK6            10      0       0      17        0.0%
BITSFR16             0      0       0      17        0.0%
SFR16                0      0       0      17        0.0%
BANK6               10      0       0      18        0.0%
BITSFR17             0      0       0      18        0.0%
SFR17                0      0       0      18        0.0%
BITSFR18             0      0       0      19        0.0%
SFR18                0      0       0      19        0.0%
DATA                 0      0      A3      19        0.0%
BITSFR19             0      0       0      20        0.0%
SFR19                0      0       0      20        0.0%
BITSFR20             0      0       0      21        0.0%
SFR20                0      0       0      21        0.0%
BITSFR21             0      0       0      22        0.0%
SFR21                0      0       0      22        0.0%
BITSFR22             0      0       0      23        0.0%
SFR22                0      0       0      23        0.0%
BITSFR23             0      0       0      24        0.0%
SFR23                0      0       0      24        0.0%
BITSFR24             0      0       0      25        0.0%
SFR24                0      0       0      25        0.0%
BITSFR25             0      0       0      26        0.0%
SFR25                0      0       0      26        0.0%
BITSFR26             0      0       0      27        0.0%
SFR26                0      0       0      27        0.0%
BITSFR27             0      0       0      28        0.0%
SFR27                0      0       0      28        0.0%
BITSFR28             0      0       0      29        0.0%
SFR28                0      0       0      29        0.0%
BITSFR29             0      0       0      30        0.0%
SFR29                0      0       0      30        0.0%
BITSFR30             0      0       0      31        0.0%
SFR30                0      0       0      31        0.0%
BITSFR31             0      0       0      32        0.0%
SFR31                0      0       0      32        0.0%


Microchip Technology PIC Macro Assembler V2.36 build 20220127204148 
Symbol Table                                                                                   Sat May 28 21:55:59 2022

                _LCD_Initialize 0E82                              l22 0DE3                              l25 0DDD  
                            l19 0E14                     ?_LCDPutChar 0070                              l44 0E04  
                            l81 0DF4                    ___awdiv@sign 0021                     ?_LCDPutStr2 007A  
           ___wmul@multiplicand 0072                 _timer0ReloadVal 00A8                             l122 0E2C  
                           l160 0EA0                             l171 0FAD                             l163 0F7D  
                           l165 0F8A                             l174 0E62                             l422 00F9  
                           l502 0253                             l167 0F97                             l271 0EBF  
                           l512 015A                             l169 0FA4                             l177 0E81  
                           l601 0792                             l612 07EB                             l604 07C9  
                           l189 0F09                             l613 07F4                             l269 0EAB  
                           l509 0263                             l198 0040                             l470 01CA  
                           l710 0287                             l463 01DF                             l519 016A  
                           l712 0310                             l473 01DF                             l801 0FFF  
                           l570 061B                             l723 02DC                             l724 02E8  
                           l716 02C2                             l812 0DD9                             l732 0EE2  
                           l574 06BC                             l591 074E                             l583 07F4  
                           l576 0698                             l760 007F                             l809 0F31  
                           l818 0E45                             l762 0099                             l595 0770  
                           l757 005D                             l765 03DF                             l782 03D3  
                           l777 04BF                             l769 03FA                             l789 0F62  
               _timer1ReloadVal 00E3                             _pad 0041                             wreg 0009  
               __end_of_LCDGoto 0F0A                    ___fltol@exp1 007C                            l2000 05CB  
                          l2010 05DF                            l2002 05CC                            l2100 06D6  
                          l2020 05F5                            l2004 05D1                            l2012 05E1  
                          l2110 06EA                            l2102 06DA                            l2030 0608  
                          l2022 05F9                            l2014 05E9                            l2006 05D6  
                          l2120 0732                            l2112 06EB                            l2104 06DE  
                          l2040 0625                            l2032 0610                            l2024 05FD  
                          l2016 05EE                            l2008 05DE                            l2200 0298  
                          l2130 075B                            l2122 0738                            l2114 06F3  
                          l2106 06E4                            l2050 0639                            l2042 0629  
                          l2034 0611                            l2026 05FE                            l2018 05F4  
                          l2210 02BB                            l2202 029D                            l2140 0774  
                          l2124 073D                            l2108 06E6                            l2116 06F8  
                          l2060 064D                            l2052 063D                            l2044 062D  
                          l2028 0603                            l2036 0613                            l2220 02EA  
                          l2212 02C9                            l2204 02A8                            l2142 0777  
                          l2134 0764                            l2118 070E                            l2126 0746  
                          l2150 0784                            l2070 0661                            l2062 0651  
                          l2054 0641                            l2046 0631                            l2038 0621  
                          l2222 02FE                            l2214 02D2                            l2206 02AF  
                          l2160 0797                            l2152 0785                            l2144 0779  
                          l2136 076B                            l2128 0756                            l2080 06A2  
                          l2064 0655                            l2056 0645                            l2048 0635  
                          l2072 0665                            l2224 0303                            l2216 02D6  
                          l2208 02B3                            l1600 01FA                            l2240 04C8  
                          l2170 07CE                            l2162 079C                            l2154 0789  
                          l2146 077E                            l2138 076F                            l2082 06A4  
                          l2090 06B5                            l2074 0666                            l2066 0659  
                          l2058 0649                            l2226 0307                            l2218 02E0  
                          l1610 0234                            l1602 0202                            l2250 04EB  
                          l2242 04CB                            l2180 07E5                            l2172 07D3  
                          l2164 07A4                            l2156 078F                            l2148 0780  
                          l2092 06C0                            l2084 06A8                            l2076 067D  
                          l2068 065D                            l2228 0308                            l1612 0244  
                          l1604 0206                            l1620 010A                            l1700 0419  
                          l2260 05AA                            l2252 0528                            l2244 04CB  
                          l2236 04C0                            l2182 07E7                            l2174 07DB  
                          l2166 07A8                            l2094 06C5                            l2086 06A9  
                          l2078 069C                            l2190 026B                            l1614 0245  
                          l1606 020A                            l1630 014C                            l1622 0112  
                          l1702 041E                            l1710 0479                            l2262 05B8  
                          l2254 057B                            l2246 04D4                            l2238 04C6  
                          l1800 0E01                            l2184 07EF                            l2176 07E0  
                          l2168 07C5                            l2088 06B1                            l2192 026F  
                          l1608 0212                            l1624 0116                            l1616 00FA  
                          l1560 0FAE                            l1640 005B                            l1632 0043  
                          l1712 0480                            l1720 04AC                            l1704 0444  
                          l2256 058C                            l2248 04DE                            l1730 0E78  
                          l1810 0E47                            l1802 0DEA                            l2186 07F3  
                          l2178 07E1                            l2098 06CE                            l2194 027F  
                          l1626 011A                            l1618 0107                            l1570 0FE5  
                          l1562 0FB3                            l1650 008D                            l1642 0060  
                          l1634 0048                            l1714 048C                            l1706 0448  
                          l2258 0599                            l1660 0F6F                            l1732 0E7C  
                          l1724 0E64                            l1820 0EEA                            l1812 0E4B  
                          l1804 0DEF                            l1900 0EA1                            l2196 028F  
                          l2188 0266                            l1628 013C                            l1572 0FF6  
                          l1564 0FB8                            l1580 0F1D                            l1644 006C  
                          l1636 0051                            l1716 0499                            l1708 044C  
                          l1740 0331                            l1670 0F88                            l1662 0F70  
                          l1654 0F64                            l1726 0E68                            l1830 0F05  
                          l1822 0EF1                            l1814 0E51                            l1806 0DF1  
                          l1910 0EBB                            l1902 0EA3                            l1566 0FBD  
                          l1582 0F22                            l1590 0E3F                            l1646 0071  
                          l1638 0056                            l1718 04A7                            l1742 0335  
                          l1734 0313                            l1680 0FA5                            l1672 0F8B  
                          l1664 0F71                            l1656 0F6D                            l1728 0E6D  
                          l1824 0EF6                            l1816 0E5C                            l1808 0DF3  
                          l1920 00A5                            l1904 0EA7                            l1568 0FC7  
                          l1576 0F0C                            l1584 0E2E                            l1648 0084  
                          l1744 0347                            l1752 037B                            l1736 0324  
                          l1840 0F5A                            l1832 0F34                            l1682 0FAA  
                          l1674 0F95                            l1666 0F7B                            l1658 0F6E  
                          l1826 0EFC                            l1818 0EE4                            l1930 00B6  
                          l1922 00A7                            l1914 009A                            l1906 0EB0  
                          l1594 01E0                            l1578 0F0F                            l1586 0E33  
                          l1690 03DB                            l1770 03C9                            l1754 038C  
                          l1762 03A5                            l1746 034F                            l1738 032C  
                          l1834 0F38                            l1684 0FAB                            l1676 0F98  
                          l1668 0F7E                            l1828 0F01                            l1860 0E82  
                          l1780 0E1C                            l1844 0E05                            l1940 00CC  
                          l1932 00BC                            l1924 00AB                            l1916 009C  
                          l1908 0EB5                            l1596 01EA                            l1588 0E37  
                          l1692 03EC                            l1764 03AD                            l1756 0394  
                          l1748 0361                            l1836 0F3C                            l1686 0FAC  
                          l1678 0FA2                            l1870 0E98                            l1862 0E85  
                          l1790 0DE1                            l1782 0E22                            l1942 00DB  
                          l1934 00BF                            l1950 00EB                            l1926 00B0  
                          l1918 00A0                            l1598 01F7                            l1694 03F2  
                          l1758 039F                            l1838 0F50                            l1880 0019  
                          l1872 0E9C                            l1864 0E8C                            l1784 0E23  
                          l1776 0E15                            l1792 0DDA                            l1952 00F0  
                          l1944 00DF                            l1936 00C4                            l1928 00B4  
                          l1960 0177                            l1696 0402                            l1688 03D6  
                          l1768 03B0                            l1882 001C                            l1874 0004  
                          l1866 0E90                            l1786 0E28                            l1778 0E19  
                          l1794 0DF5                            l1954 00F5                            l1946 00E0  
                          l1938 00C8                            l1970 019C                            l1698 0416  
                          l1890 0ECA                            l1884 002B                            l1876 000A  
                          l1868 0E94                            l1788 0DDE                            l1796 0DF9  
                          l1948 00E5                            l1980 01AA                            l1972 019E  
                          l1964 0180                            l1892 0ECC                            l1886 0030  
                          l1878 0010                            l1798 0DFA                            l1990 01CF  
                          l1974 01A2                            l1982 01BA                            l1966 0193  
                          l1958 016B                            l1894 0ECE                            ?_pad 0024  
                          l1992 01D4                            l1968 0194                            l1896 0EDA  
                          l1888 0EC2                            l1994 05BD                            l1996 05C3  
                          l1988 01C1                            l1998 05C7                            STR_1 100C  
                          STR_2 1000                            STR_3 1017                            STR_4 1017  
                          u2000 01D4                            u2001 01D3                            u2010 05CB  
                          u2011 05CA                            u2100 067D                            u2020 05D1  
                          u1300 0FB3                            u2101 067C                            u2021 05D0  
                          u1301 0FB2                            u2110 0687                            u2030 05D6  
                          u1310 0FB8                            u2111 0685                            u2031 05D5  
                          u1311 0FB7                            u2200 06DE                            u2120 0688  
                          u2040 05F4                            u1400 0253                            u1320 0FC7  
                          u2201 06DD                            u2105 0679                            u2041 05F3  
                          u1401 0252                            u1321 0FC6                            u2210 06EA  
                          u2130 069C                            u2050 05FD                            u1410 0107  
                          u1330 0FE5                            u2211 06E9                            u2131 069B  
                          u2051 05FC                            u1411 0106                            u1331 0FE4  
                          u1500 0F7B                            u2300 077E                            u2140 06A8  
                          u2060 0603                            u1420 011A                            u1340 0F31  
                          u1501 0F7A                            u2301 077D                            u2141 06A7  
                          u2061 0602                            u1421 0119                            u1341 0F30  
                          _LATA 010C                            u2310 0784                            u2230 070E  
                          u2070 0608                            u1430 013C                            u1350 0E3F  
                          _LATB 010D                            u2311 0783                            u2231 070D  
                          u2071 0607                            u1431 013B                            u1335 0FE1  
                          u1351 0E3E                            _LATC 010E                            u1520 0F88  
                          u2400 07D3                            u2320 0789                            u2240 073D  
                          u2160 06BC                            u2080 0621                            u1360 01E7  
                          u1440 015A                            u1600 048C                            u1521 0F87  
                          u2401 07D2                            u2321 0788                            u2241 073C  
                          u2233 070A                            u2225 06ED                            u2161 06BB  
                          u2081 0620                            u1441 0159                            u1601 048B  
                          u2410 07E0                            u2330 078F                            u2250 0756  
                          u2170 06C0                            u2090 0625                            u1370 01F7  
                          u1450 0048                            u1610 0499                            u1515 0F81  
                          u2411 07DF                            u2331 078E                            u2251 0755  
                          u2171 06BF                            u2155 06AB                            u2091 0624  
                          u1371 01F6                            u1435 0138                            u1451 0047  
                          u1611 0498                            u1540 0F95                            u1700 0EF0  
                          u2420 07E5                            u2340 0796                            u2260 075B  
                          u2180 06C5                            u2500 02C8                            u1380 020A  
                          u1460 0056                            u1620 04A7                            u1541 0F94  
                          u1701 0EEF                            u2421 07E4                            u2341 0795  
                          u2261 075A                            u2181 06C4                            u2501 02C7  
                          u1381 0209                            u1461 0055                            u1621 04A6  
                          u1710 0EF6                            u2430 07F3                            u2350 079C  
                          u2190 06DA                            u1390 0234                            u1470 007F  
                          u1630 04AC                            u1535 0F8E                            u1711 0EF5  
                          u2431 07F2                            u2351 079B                            u2191 06D9  
                          u1391 0233                            u1471 007E                            u1631 04AB  
                          u1615 0495                            u1560 0FA2                            u2360 07A8  
                          u2280 076F                            u1800 0EBB                            u2520 02D6  
                          u2440 026B                            u1480 0084                            u1720 0F5A  
                          u1561 0FA1                            u2361 07A7                            u2281 076E  
                          u1801 0EBA                            u2521 02D5                            u2441 026A  
                          u1481 0083                            u1625 04A3                            u1721 0F59  
                          u1810 00A0                            u2370 07B6                            u2290 0774  
                          u2530 02DC                            u2450 026F                            u1570 03DB  
                          u1650 0324                            u1555 0F9B                            u1811 009F  
                          u2291 0773                            u2275 0765                            u2531 02DB  
                          u2515 02CC                            u2451 026E                            u1395 0230  
                          u1475 007B                            u1571 03DA                            u1651 0323  
                          u1740 000A                            u1900 00F0                            u1820 00AB  
                          u2380 07C5                            u2540 02E0                            u2460 028F  
                          u1580 03EC                            u1660 0347                            u1645 0E70  
                          u1741 0009                            u1901 00EF                            u1821 00AA  
                          u2381 07C4                            u2541 02DF                            u2461 028E  
                          u1581 03EB                            u1661 0346                            u1750 0010  
                          u1830 00BC                            u2390 07CE                            u1910 0177  
                          u2550 02F4                            u1590 0480                            u1670 038C  
                          u1495 0F74                            u1751 000F                            u2607 0E88  
                          u1831 00BB                            u2391 07CD                            u2375 07B2  
                          u1911 0176                            u1591 047F                            u1671 038B  
                          u1760 0040                            u1920 018D                            u2560 0303  
                          u2480 02AE                            u2617 0E48                            u1761 003F  
                          u2561 0302                            u2481 02AD                            u1585 03E8  
                          u1690 0EEA                            u1850 00CC                            u1930 01A2  
                          u1770 0EA7                            u2570 0307                            u2627 0F06  
                          u1691 0EE9                            u1851 00CB                            u1931 01A1  
                          u1771 0EA6                            u2571 0306                            u2555 02F0  
                          u2475 02A2                            u1940 01A9                            u2637 0E65  
                          u1685 0E54                            u1845 00C0                            u1941 01A8  
                          u1925 0189                            u1870 00DB                            u2647 0E79  
                          u1871 00DA                            u2495 02BC                            u1960 01B9  
                          u1865 00CD                            u1961 01B8                            u1785 0EAC  
                          u1890 00EB                            u1970 01C0                            u1891 00EA  
                          u1875 00D7                            u1971 01BF                            u1955 01AB  
                          u1795 0EB1                            u1885 00E1                            u2597 04E4  
                          u1990 01CF                            u1991 01CE                            u1985 01C2  
                          _TMR0 0015                            _WPUA 020C                            _WPUB 020D  
                          _dbuf 00A9                            _main 04C0                            _prec 00A4  
                          _nout 00A0                            pad@i 0027                            pad@p 0025  
                          fsr0h 0005                            fsr1h 0007                            indf0 0000  
                          fsr0l 0004                            indf1 0001                            fsr1l 0006  
                          pad@w 0029                            btemp 007E                            _utoa 03D4  
                          start 0002          __end_of_LCD_Initialize 0EA1                           ??_pad 007C  
       __end_of_TMR0_Initialize 0DF5                     LCDPutCmd@ch 0075   __end_of_OSCILLATOR_Initialize 0DE4  
                 ___fltol@sign1 007B                 __end_of___fladd 07F5                           ?_main 0070  
               __end_of___awdiv 00FA                 __end_of___fltol 01E0                           ?_utoa 0030  
               __end_of___lodiv 0264                 ___awdiv@divisor 0076                           _T1CON 0018  
               __end_of___lomod 016B                     LCDPutStr2@i 0023                 ___awdiv@counter 0020  
                  vfpfcnvrt@fmt 0047                    vfpfcnvrt@llu 004E                           _TMR1H 0017  
                         _TMR1L 0016                           _TRISA 008C                           _TRISB 008D  
                         _TRISC 008E                           _flags 00A6                  _WDT_Initialize 0DDA  
                         _fputc 0FAE                           _fputs 0F0A                           pad@fp 002B  
                         _width 00A2                           _putch 0DD9                    main@revs_Str 00CB  
       __end_of_TMR1_Initialize 0E05                           utoa@d 0030                           utoa@i 0045  
                         utoa@n 003D                           utoa@p 0039                           utoa@w 003B  
                         status 0003                           wtemp0 007E                 __end_of_sprintf 0EE3  
              ___lodiv@dividend 0028                 ?_LCD_Initialize 0070                 __initialization 07F5  
                  __end_of_main 05BD                    __end_of_utoa 04C0                          ??_main 00C9  
                        ??_utoa 007D                       ??_LCDGoto 0077               __end_of_LCDPutCmd 0E82  
                  LCDPutChar@ch 0075                ___lodiv@quotient 0071          __end_of_WDT_Initialize 0DDE  
                        ?_fputc 0070                          ?_fputs 0078                ___awdiv@dividend 0078  
                        _APFCON 011D                          _ANSELA 018C                          ?_putch 0070  
                        _ANSELB 018D                          _ANSELC 018E                          _BORCON 0116  
                        _T1GCON 0019                          _OSCCON 0099                          _WDTCON 0097  
              __end_of___xxtofl 0311                  _LCDWriteNibble 0F63                    vfprintf@cfmt 005D  
                     ??___fladd 003A                          ___wmul 0EA1                       ??___awdiv 007A  
                     ??___fltol 004A                       ??___lodiv 0070                       ??___lomod 0070  
              ?_TMR0_Initialize 0070                ___awdiv@quotient 0022                          pad@buf 0024  
                        _strlen 0E2D                   main@speed_Str 00D5                   main@speed_rpm 00DF  
                        fputc@c 0070                          fputs@c 0020                          fputs@i 0021  
                        fputs@s 0023                 ?_WDT_Initialize 0070                          putch@c 0070  
              __end_of_vfprintf 0F63                          utoa@fp 0038                       ??_sprintf 0063  
              ?_TMR1_Initialize 0070                    ___xxtofl@arg 002E                    ___xxtofl@exp 002D  
             _SYSTEM_Initialize 0E05                    ___xxtofl@val 0024          __end_of_LCDWriteNibble 0FAE  
       __end_of__initialization 07FD              ?_SYSTEM_Initialize 0070                      ___fltol@f1 0046  
                     LCDGoto@ln 0076                  __pcstackCOMMON 0070             ??_SYSTEM_Initialize 0070  
                 __end_of_fputc 1000                    ??_LCDPutChar 0073                   __end_of_fputs 0F32  
                  ??_LCDPutStr2 0020                   __end_of_putch 0DDA                  _OPTION_REGbits 0095  
                       ??_fputc 0073       __end_of_SYSTEM_Initialize 0E15                         ??_fputs 0079  
                       ??_putch 0070                      __pbssBANK1 00A0                 ?_LCDWriteNibble 0070  
            __end_of_LCDPutChar 0E63              __end_of_LCDPutStr2 0041                      __pmaintext 04C0  
                       ?___wmul 0070                         ?_strlen 0070                         _LCDGoto 0EE3  
                 LCDPutStr2@str 007A                       ?___xxtofl 0024                ___lomod@dividend 0028  
              ??_LCD_Initialize 0076                         ___fladd 05BD                         ___awdiv 009A  
                       ___fltol 016B                         ___lodiv 01E0                         ___lomod 00FA  
                     ?_vfprintf 0057                         __ptext1 0EC0                         __ptext2 0F32  
                       __ptext3 0311                         __ptext4 03D4                         __ptext5 0041  
                       __ptext6 0E2D                         __ptext7 0F0A                         __ptext8 0FAE  
                       __ptext9 0DD9                       _T1CONbits 0018           _OSCILLATOR_Initialize 0DDE  
                    ??___xxtofl 0028        ??_PIN_MANAGER_Initialize 0070                 LCDPutStr2@_line 007D  
                     _LCDPutCmd 0E63                         _sprintf 0EC0                         clrloop0 0DE5  
          end_of_initialization 07FD                         fputc@fp 0072                         fputs@fp 0078  
             __end_of_vfpfcnvrt 03D4                      ??_vfprintf 005A                         strlen@a 0073  
                       strlen@s 0074                ??_WDT_Initialize 0070                     ___fladd@grs 0045  
                 ___xxtofl@sign 002C                      ?_LCDPutCmd 0070                      LCDGoto@pos 0079  
                   vfpfcnvrt@ap 0048                     vfpfcnvrt@fp 0056                  __end_of___wmul 0EC0  
        ?_OSCILLATOR_Initialize 0070                  __end_of_strlen 0E46             start_initialization 07F5  
               ___lodiv@divisor 0020                 ___lodiv@counter 0079                ??_LCDWriteNibble 0071  
                   __end_of_pad 009A                     vfprintf@fmt 0057                        ??___wmul 0074  
                      ??_strlen 0072                       ___fladd@a 0036                       ___fladd@b 0032  
                      ?_LCDGoto 0076                       ___latbits 0002                   __pcstackBANK0 0020  
                 __pcstackBANK1 00C9                     ??_LCDPutCmd 0073                       __pnvBANK1 00E3  
        _PIN_MANAGER_Initialize 0E15                        ?___fladd 0032                        ?___awdiv 0076  
                      ?___fltol 0046                        ?___lodiv 0020                        ?___lomod 0020  
              LCDWriteNibble@ch 0072                LCDWriteNibble@rs 0070                 ___lomod@divisor 0020  
               ___lomod@counter 0071                        ?_sprintf 005F               ??_TMR0_Initialize 0070  
                ___wmul@product 0074                  LCDPutStr2@_pos 007C                        _LATBbits 010D  
                      _LATCbits 010E                       clear_ram0 0DE4                     _LCDGoto$380 0077  
                      _PIR1bits 0011                       _vfpfcnvrt 0311               ??_TMR1_Initialize 0070  
             ___wmul@multiplier 0070                      vfprintf@ap 0059                      vfprintf@fp 005C  
       ??_OSCILLATOR_Initialize 0070                      ?_vfpfcnvrt 0047                      sprintf@fmt 005F  
                      ___xxtofl 0264                        __ptext10 00FA                        __ptext11 01E0  
                      __ptext20 0DEA                        __ptext12 0264                        __ptext21 0E15  
                      __ptext13 0EA1                      _T1GCONbits 0019                        __ptext22 0DDE  
                      __ptext14 016B                        __ptext23 0E82                        __ptext15 05BD  
                      __ptext24 0004                        __ptext16 009A                        __ptext25 0E46  
                      __ptext17 0E05                        __ptext26 0EE3                        __ptext18 0DDA  
                      __ptext27 0E63                        __ptext19 0DF5                        __ptext28 0F63  
                      _vfprintf 0F32                      _LCDPutChar 0E46                      _LCDPutStr2 0004  
               main@num_of_revs 00E1                      _INTCONbits 000B                       sprintf@ap 0064  
       ?_PIN_MANAGER_Initialize 0070                     ??_vfpfcnvrt 0049                   __pstringtext1 1000  
                 __pstringtext2 100C                   __pstringtext3 1017                   __pstringtext4 0000  
                    _OPTION_REG 0095                        sprintf@f 0066                        sprintf@s 0065  
               _TMR0_Initialize 0DEA                   ___fladd@signs 0042  __end_of_PIN_MANAGER_Initialize 0E2D  
                  ___fladd@aexp 0043                    ___fladd@bexp 0044                 _TMR1_Initialize 0DF5  
