

Microchip MPLAB XC8 Assembler V2.36 build 20220127204148 
                                                                                               Tue Mar 08 09:59:12 2022

Microchip MPLAB XC8 C Compiler v2.36 (Free license) build 20220127204148 Og1 
     1                           	processor	16F1509
     2                           	pagewidth 120
     3                           	opt	flic
     4                           	psect	cinit,global,class=CODE,merge=1,delta=2
     5                           	psect	cstackCOMMON,global,class=COMMON,space=1,delta=1,noexec
     6                           	psect	maintext,global,class=CODE,merge=1,split=1,delta=2
     7                           	psect	text1,local,class=CODE,merge=1,delta=2
     8                           	psect	text2,local,class=CODE,merge=1,delta=2
     9                           	psect	text3,local,class=CODE,merge=1,delta=2
    10                           	psect	text4,local,class=CODE,merge=1,delta=2
    11                           	psect	text5,local,class=CODE,merge=1,delta=2
    12                           	psect	text6,local,class=CODE,merge=1,delta=2
    13                           	psect	text7,local,class=CODE,merge=1,delta=2
    14                           	psect	text8,local,class=CODE,merge=1,delta=2
    15                           	psect	text9,local,class=CODE,merge=1,delta=2
    16                           	psect	text10,local,class=CODE,merge=1,delta=2
    17                           	psect	text11,local,class=CODE,merge=1,delta=2
    18                           	psect	text12,local,class=CODE,merge=1,delta=2
    19                           	psect	text13,local,class=CODE,merge=1,delta=2
    20                           	psect	text14,local,class=CODE,merge=1,delta=2
    21                           	psect	text15,local,class=CODE,merge=1,delta=2
    22                           	psect	text16,local,class=CODE,merge=1,delta=2
    23                           	psect	text17,local,class=CODE,merge=1,delta=2
    24                           	psect	text18,local,class=CODE,merge=1,delta=2
    25                           	psect	text19,local,class=CODE,merge=1,delta=2
    26                           	psect	text20,local,class=CODE,merge=1,delta=2
    27                           	psect	text21,local,class=CODE,merge=1,delta=2
    28                           	psect	text22,local,class=CODE,merge=1,delta=2
    29                           	psect	text23,local,class=CODE,merge=1,delta=2
    30                           	psect	text24,local,class=CODE,merge=1,delta=2
    31                           	psect	text25,local,class=CODE,merge=1,delta=2
    32                           	psect	idloc,global,abs,ovrld,class=IDLOC,space=5,delta=2,noexec
    33                           	psect	config,global,abs,ovrld,class=CONFIG,space=4,delta=2,noexec
    34                           	dabs	1,0x7E,2
    35  0000                     
    36                           ; Version 2.40
    37                           ; Generated 17/11/2021 GMT
    38                           ; 
    39                           ; Copyright © 2021, Microchip Technology Inc. and its subsidiaries ("Microchip")
    40                           ; All rights reserved.
    41                           ; 
    42                           ; This software is developed by Microchip Technology Inc. and its subsidiaries ("Microch
      +                          ip").
    43                           ; 
    44                           ; Redistribution and use in source and binary forms, with or without modification, are
    45                           ; permitted provided that the following conditions are met:
    46                           ; 
    47                           ;     1. Redistributions of source code must retain the above copyright notice, this lis
      +                          t of
    48                           ;        conditions and the following disclaimer.
    49                           ; 
    50                           ;     2. Redistributions in binary form must reproduce the above copyright notice, this 
      +                          list
    51                           ;        of conditions and the following disclaimer in the documentation and/or other
    52                           ;        materials provided with the distribution. Publication is not required when
    53                           ;        this file is used in an embedded application.
    54                           ; 
    55                           ;     3. Microchip's name may not be used to endorse or promote products derived from th
      +                          is
    56                           ;        software without specific prior written permission.
    57                           ; 
    58                           ; THIS SOFTWARE IS PROVIDED BY MICROCHIP "AS IS" AND ANY EXPRESS OR IMPLIED WARRANTIES,
    59                           ; INCLUDING, BUT NOT LIMITED TO, THE IMPLIED WARRANTIES OF MERCHANTABILITY AND FITNESS F
      +                          OR
    60                           ; PURPOSE ARE DISCLAIMED.  IN NO EVENT SHALL MICROCHIP BE LIABLE FOR ANY DIRECT, INDIREC
      +                          T,
    61                           ; INCIDENTAL, SPECIAL, EXEMPLARY, OR CONSEQUENTIAL DAMAGES (INCLUDING BUT NOT LIMITED TO
    62                           ; PROCUREMENT OF SUBSTITUTE GOODS OR SERVICES; LOSS OF USE, DATA OR PROFITS; OR BUSINESS
    63                           ; INTERRUPTION) HOWSOEVER CAUSED AND ON ANY THEORY OF LIABILITY, WHETHER IN CONTRACT, ST
      +                          RICT
    64                           ; LIABILITY, OR TORT (INCLUDING NEGLIGENCE OR OTHERWISE) ARISING IN ANY WAY OUT OF THE U
      +                          SE OF
    65                           ; THIS SOFTWARE, EVEN IF ADVISED OF THE POSSIBILITY OF SUCH DAMAGE.
    66                           ; 
    67                           ; 
    68                           ; Code-generator required, PIC16F1509 Definitions
    69                           ; 
    70                           ; SFR Addresses
    71  0000                     	;# 
    72  0001                     	;# 
    73  0002                     	;# 
    74  0003                     	;# 
    75  0004                     	;# 
    76  0005                     	;# 
    77  0006                     	;# 
    78  0007                     	;# 
    79  0008                     	;# 
    80  0009                     	;# 
    81  000A                     	;# 
    82  000B                     	;# 
    83  000C                     	;# 
    84  000D                     	;# 
    85  000E                     	;# 
    86  0011                     	;# 
    87  0012                     	;# 
    88  0013                     	;# 
    89  0015                     	;# 
    90  0016                     	;# 
    91  0016                     	;# 
    92  0017                     	;# 
    93  0018                     	;# 
    94  0019                     	;# 
    95  001A                     	;# 
    96  001B                     	;# 
    97  001C                     	;# 
    98  008C                     	;# 
    99  008D                     	;# 
   100  008E                     	;# 
   101  0091                     	;# 
   102  0092                     	;# 
   103  0093                     	;# 
   104  0095                     	;# 
   105  0096                     	;# 
   106  0097                     	;# 
   107  0099                     	;# 
   108  009A                     	;# 
   109  009B                     	;# 
   110  009B                     	;# 
   111  009C                     	;# 
   112  009D                     	;# 
   113  009E                     	;# 
   114  009F                     	;# 
   115  010C                     	;# 
   116  010D                     	;# 
   117  010E                     	;# 
   118  0111                     	;# 
   119  0112                     	;# 
   120  0113                     	;# 
   121  0114                     	;# 
   122  0115                     	;# 
   123  0116                     	;# 
   124  0117                     	;# 
   125  0118                     	;# 
   126  0119                     	;# 
   127  011D                     	;# 
   128  018C                     	;# 
   129  018D                     	;# 
   130  018E                     	;# 
   131  0191                     	;# 
   132  0191                     	;# 
   133  0192                     	;# 
   134  0193                     	;# 
   135  0193                     	;# 
   136  0194                     	;# 
   137  0195                     	;# 
   138  0196                     	;# 
   139  0197                     	;# 
   140  0199                     	;# 
   141  019A                     	;# 
   142  019B                     	;# 
   143  019B                     	;# 
   144  019C                     	;# 
   145  019D                     	;# 
   146  019E                     	;# 
   147  019F                     	;# 
   148  020C                     	;# 
   149  020D                     	;# 
   150  0211                     	;# 
   151  0211                     	;# 
   152  0212                     	;# 
   153  0212                     	;# 
   154  0213                     	;# 
   155  0213                     	;# 
   156  0214                     	;# 
   157  0214                     	;# 
   158  0215                     	;# 
   159  0215                     	;# 
   160  0215                     	;# 
   161  0216                     	;# 
   162  0216                     	;# 
   163  0217                     	;# 
   164  0217                     	;# 
   165  0391                     	;# 
   166  0392                     	;# 
   167  0393                     	;# 
   168  0394                     	;# 
   169  0395                     	;# 
   170  0396                     	;# 
   171  0498                     	;# 
   172  0498                     	;# 
   173  0499                     	;# 
   174  049A                     	;# 
   175  049B                     	;# 
   176  049B                     	;# 
   177  049C                     	;# 
   178  049D                     	;# 
   179  049E                     	;# 
   180  049F                     	;# 
   181  0611                     	;# 
   182  0612                     	;# 
   183  0613                     	;# 
   184  0613                     	;# 
   185  0614                     	;# 
   186  0615                     	;# 
   187  0616                     	;# 
   188  0616                     	;# 
   189  0617                     	;# 
   190  0618                     	;# 
   191  0619                     	;# 
   192  0619                     	;# 
   193  061A                     	;# 
   194  061B                     	;# 
   195  061C                     	;# 
   196  061C                     	;# 
   197  0691                     	;# 
   198  0692                     	;# 
   199  0693                     	;# 
   200  0694                     	;# 
   201  0695                     	;# 
   202  0F0F                     	;# 
   203  0F10                     	;# 
   204  0F11                     	;# 
   205  0F12                     	;# 
   206  0F13                     	;# 
   207  0F14                     	;# 
   208  0F15                     	;# 
   209  0F16                     	;# 
   210  0F17                     	;# 
   211  0F18                     	;# 
   212  0F19                     	;# 
   213  0F1A                     	;# 
   214  0F1B                     	;# 
   215  0F1C                     	;# 
   216  0F1D                     	;# 
   217  0F1E                     	;# 
   218  0F1F                     	;# 
   219  0F20                     	;# 
   220  0F21                     	;# 
   221  0F22                     	;# 
   222  0F23                     	;# 
   223  0F24                     	;# 
   224  0F25                     	;# 
   225  0F26                     	;# 
   226  0F27                     	;# 
   227  0F28                     	;# 
   228  0F29                     	;# 
   229  0F2A                     	;# 
   230  0F2B                     	;# 
   231  0F2C                     	;# 
   232  0F2D                     	;# 
   233  0F2E                     	;# 
   234  0F2F                     	;# 
   235  0F8C                     	;# 
   236  0F8D                     	;# 
   237  0F91                     	;# 
   238  0F95                     	;# 
   239  0F96                     	;# 
   240  0F97                     	;# 
   241  0F9C                     	;# 
   242  0F9D                     	;# 
   243  0F9E                     	;# 
   244  0FE3                     	;# 
   245  0FE4                     	;# 
   246  0FE5                     	;# 
   247  0FE6                     	;# 
   248  0FE7                     	;# 
   249  0FE8                     	;# 
   250  0FE9                     	;# 
   251  0FEA                     	;# 
   252  0FEB                     	;# 
   253  0FED                     	;# 
   254  0FEE                     	;# 
   255  0FEF                     	;# 
   256  008E                     _TRISC	set	142
   257  010E                     _LATCbits	set	270
   258  018E                     _ANSELC	set	398
   259                           
   260                           	psect	cinit
   261  07FD                     start_initialization:	
   262                           ; #config settings
   263                           
   264  07FD                     __initialization:
   265  07FD                     end_of_initialization:	
   266                           ;End of C runtime variable initialization code
   267                           
   268  07FD                     __end_of__initialization:
   269  07FD  0020               	movlb	0
   270  07FE  3181  2931         	ljmp	_main	;jump to C main() function
   271                           
   272                           	psect	cstackCOMMON
   273  0070                     __pcstackCOMMON:
   274  0070                     ?_pulse_gen:
   275  0070                     ?_latch_gen:	
   276                           ; 1 bytes @ 0x0
   277                           
   278  0070                     ??_latch_gen:	
   279                           ; 1 bytes @ 0x0
   280                           
   281  0070                     ?_state_0_C1:	
   282                           ; 1 bytes @ 0x0
   283                           
   284  0070                     ?_state_1_C1:	
   285                           ; 1 bytes @ 0x0
   286                           
   287  0070                     ?_state_2_C1:	
   288                           ; 1 bytes @ 0x0
   289                           
   290  0070                     ?_state_3_C1:	
   291                           ; 1 bytes @ 0x0
   292                           
   293  0070                     ?_state_4_C1:	
   294                           ; 1 bytes @ 0x0
   295                           
   296  0070                     ?_state_5_C1:	
   297                           ; 1 bytes @ 0x0
   298                           
   299  0070                     ?_state_6_C1:	
   300                           ; 1 bytes @ 0x0
   301                           
   302  0070                     ?_state_7_C1:	
   303                           ; 1 bytes @ 0x0
   304                           
   305  0070                     ?_state_8_C1:	
   306                           ; 1 bytes @ 0x0
   307                           
   308  0070                     ?_state_9_C1:	
   309                           ; 1 bytes @ 0x0
   310                           
   311  0070                     ?_second_counting:	
   312                           ; 1 bytes @ 0x0
   313                           
   314  0070                     ?_pulse_gen_1:	
   315                           ; 1 bytes @ 0x0
   316                           
   317  0070                     ?_latch_gen_1:	
   318                           ; 1 bytes @ 0x0
   319                           
   320  0070                     ??_latch_gen_1:	
   321                           ; 1 bytes @ 0x0
   322                           
   323  0070                     ?_state_0_C4:	
   324                           ; 1 bytes @ 0x0
   325                           
   326  0070                     ?_state_1_C4:	
   327                           ; 1 bytes @ 0x0
   328                           
   329  0070                     ?_state_2_C4:	
   330                           ; 1 bytes @ 0x0
   331                           
   332  0070                     ?_state_3_C4:	
   333                           ; 1 bytes @ 0x0
   334                           
   335  0070                     ?_state_4_C4:	
   336                           ; 1 bytes @ 0x0
   337                           
   338  0070                     ?_state_5_C4:	
   339                           ; 1 bytes @ 0x0
   340                           
   341  0070                     ?_state_6_C4:	
   342                           ; 1 bytes @ 0x0
   343                           
   344  0070                     ?_state_7_C4:	
   345                           ; 1 bytes @ 0x0
   346                           
   347  0070                     ?_state_8_C4:	
   348                           ; 1 bytes @ 0x0
   349                           
   350  0070                     ?_state_9_C4:	
   351                           ; 1 bytes @ 0x0
   352                           
   353  0070                     ?_main:	
   354                           ; 1 bytes @ 0x0
   355                           
   356  0070                     pulse_gen@n:	
   357                           ; 1 bytes @ 0x0
   358                           
   359  0070                     pulse_gen_1@n_1:	
   360                           ; 2 bytes @ 0x0
   361                           
   362                           
   363                           ; 2 bytes @ 0x0
   364  0070                     	ds	2
   365  0072                     ??_pulse_gen:
   366  0072                     ??_pulse_gen_1:	
   367                           ; 1 bytes @ 0x2
   368                           
   369                           
   370                           ; 1 bytes @ 0x2
   371  0072                     	ds	3
   372  0075                     pulse_gen@i:
   373  0075                     pulse_gen_1@i_1:	
   374                           ; 2 bytes @ 0x5
   375                           
   376                           
   377                           ; 2 bytes @ 0x5
   378  0075                     	ds	2
   379  0077                     ??_state_0_C1:
   380  0077                     ??_state_1_C1:	
   381                           ; 1 bytes @ 0x7
   382                           
   383  0077                     ??_state_2_C1:	
   384                           ; 1 bytes @ 0x7
   385                           
   386  0077                     ??_state_3_C1:	
   387                           ; 1 bytes @ 0x7
   388                           
   389  0077                     ??_state_4_C1:	
   390                           ; 1 bytes @ 0x7
   391                           
   392  0077                     ??_state_5_C1:	
   393                           ; 1 bytes @ 0x7
   394                           
   395  0077                     ??_state_6_C1:	
   396                           ; 1 bytes @ 0x7
   397                           
   398  0077                     ??_state_7_C1:	
   399                           ; 1 bytes @ 0x7
   400                           
   401  0077                     ??_state_8_C1:	
   402                           ; 1 bytes @ 0x7
   403                           
   404  0077                     ??_state_9_C1:	
   405                           ; 1 bytes @ 0x7
   406                           
   407  0077                     ??_second_counting:	
   408                           ; 1 bytes @ 0x7
   409                           
   410  0077                     ??_state_0_C4:	
   411                           ; 1 bytes @ 0x7
   412                           
   413  0077                     ??_state_1_C4:	
   414                           ; 1 bytes @ 0x7
   415                           
   416  0077                     ??_state_2_C4:	
   417                           ; 1 bytes @ 0x7
   418                           
   419  0077                     ??_state_3_C4:	
   420                           ; 1 bytes @ 0x7
   421                           
   422  0077                     ??_state_4_C4:	
   423                           ; 1 bytes @ 0x7
   424                           
   425  0077                     ??_state_5_C4:	
   426                           ; 1 bytes @ 0x7
   427                           
   428  0077                     ??_state_6_C4:	
   429                           ; 1 bytes @ 0x7
   430                           
   431  0077                     ??_state_7_C4:	
   432                           ; 1 bytes @ 0x7
   433                           
   434  0077                     ??_state_8_C4:	
   435                           ; 1 bytes @ 0x7
   436                           
   437  0077                     ??_state_9_C4:	
   438                           ; 1 bytes @ 0x7
   439                           
   440                           
   441                           ; 1 bytes @ 0x7
   442  0077                     	ds	1
   443  0078                     ??_main:
   444                           
   445                           	psect	maintext
   446  0131                     __pmaintext:	
   447                           ; 1 bytes @ 0x8
   448 ;;
   449 ;;Main: autosize = 0, tempsize = 0, incstack = 0, save=0
   450 ;;
   451 ;; *************** function _main *****************
   452 ;; Defined at:
   453 ;;		line 238 in file "countdown.c"
   454 ;; Parameters:    Size  Location     Type
   455 ;;		None
   456 ;; Auto vars:     Size  Location     Type
   457 ;;		None
   458 ;; Return value:  Size  Location     Type
   459 ;;                  1    wreg      void 
   460 ;; Registers used:
   461 ;;		wreg, status,2, status,0, pclath, cstack
   462 ;; Tracked objects:
   463 ;;		On entry : B1F/0
   464 ;;		On exit  : 0/0
   465 ;;		Unchanged: 0/0
   466 ;; Data sizes:     COMMON   BANK0   BANK1   BANK2   BANK3   BANK4   BANK5   BANK6
   467 ;;      Params:         0       0       0       0       0       0       0       0
   468 ;;      Locals:         0       0       0       0       0       0       0       0
   469 ;;      Temps:          0       0       0       0       0       0       0       0
   470 ;;      Totals:         0       0       0       0       0       0       0       0
   471 ;;Total ram usage:        0 bytes
   472 ;; Hardware stack levels required when called: 3
   473 ;; This function calls:
   474 ;;		_latch_gen_1
   475 ;;		_pulse_gen_1
   476 ;;		_second_counting
   477 ;;		_state_0_C4
   478 ;;		_state_1_C4
   479 ;;		_state_2_C4
   480 ;;		_state_3_C4
   481 ;;		_state_4_C4
   482 ;;		_state_5_C4
   483 ;;		_state_6_C4
   484 ;;		_state_7_C4
   485 ;;		_state_8_C4
   486 ;;		_state_9_C4
   487 ;; This function is called by:
   488 ;;		Startup code after reset
   489 ;; This function uses a non-reentrant model
   490 ;;
   491                           
   492  0131                     _main:	
   493                           ;psect for function _main
   494                           
   495  0131                     l1831:	
   496                           ;incstack = 0
   497                           ; Regs used in _main: [wreg+status,2+status,0+pclath+cstack]
   498                           
   499                           
   500                           ;countdown.c: 239:     TRISC = 0;
   501  0131  0021               	movlb	1	; select bank1
   502  0132  018E               	clrf	14	;volatile
   503                           
   504                           ;countdown.c: 240:     ANSELC = 0;
   505  0133  0023               	movlb	3	; select bank3
   506  0134  018E               	clrf	14	;volatile
   507  0135                     l1833:
   508                           
   509                           ;countdown.c: 242:     LATCbits.LATC0 = 0;
   510  0135  0022               	movlb	2	; select bank2
   511  0136  100E               	bcf	14,0	;volatile
   512  0137                     l1835:
   513                           
   514                           ;countdown.c: 243:     LATCbits.LATC1 = 0;
   515  0137  108E               	bcf	14,1	;volatile
   516  0138                     l1837:
   517                           
   518                           ;countdown.c: 244:     LATCbits.LATC2 = 0;
   519  0138  110E               	bcf	14,2	;volatile
   520  0139                     l1839:
   521                           
   522                           ;countdown.c: 245:     LATCbits.LATC3 = 0;
   523  0139  118E               	bcf	14,3	;volatile
   524  013A                     l1841:
   525                           
   526                           ;countdown.c: 246:     LATCbits.LATC4 = 0;
   527  013A  120E               	bcf	14,4	;volatile
   528  013B                     l1843:
   529                           
   530                           ;countdown.c: 247:     LATCbits.LATC5 = 0;
   531  013B  128E               	bcf	14,5	;volatile
   532  013C                     l1845:
   533                           
   534                           ;countdown.c: 252:         state_1_C4(); pulse_gen_1(1); state_4_C4(); latch_gen_1();
   535  013C  318F  2771  3181   	fcall	_state_1_C4
   536  013F                     l1847:
   537  013F  3001               	movlw	1
   538  0140  00F0               	movwf	pulse_gen_1@n_1
   539  0141  3000               	movlw	0
   540  0142  00F1               	movwf	pulse_gen_1@n_1+1
   541  0143  3180  2010  3181   	fcall	_pulse_gen_1
   542  0146                     l1849:
   543  0146  3180  2054  3181   	fcall	_state_4_C4
   544  0149                     l1851:
   545  0149  318E  26A3  3181   	fcall	_latch_gen_1
   546  014C                     l1853:
   547                           
   548                           ;countdown.c: 253:         second_counting();
   549  014C  3182  225C  3181   	fcall	_second_counting
   550  014F                     l1855:
   551                           
   552                           ;countdown.c: 255:         state_1_C4(); pulse_gen_1(1); state_3_C4(); latch_gen_1();
   553  014F  318F  2771  3181   	fcall	_state_1_C4
   554  0152                     l1857:
   555  0152  3001               	movlw	1
   556  0153  00F0               	movwf	pulse_gen_1@n_1
   557  0154  3000               	movlw	0
   558  0155  00F1               	movwf	pulse_gen_1@n_1+1
   559  0156  3180  2010  3181   	fcall	_pulse_gen_1
   560  0159                     l1859:
   561  0159  318F  278D  3181   	fcall	_state_3_C4
   562  015C                     l1861:
   563  015C  318E  26A3  3181   	fcall	_latch_gen_1
   564  015F                     l1863:
   565                           
   566                           ;countdown.c: 256:         second_counting();
   567  015F  3182  225C  3181   	fcall	_second_counting
   568  0162                     l1865:
   569                           
   570                           ;countdown.c: 258:         state_1_C4(); pulse_gen_1(1); state_2_C4(); latch_gen_1();
   571  0162  318F  2771  3181   	fcall	_state_1_C4
   572  0165                     l1867:
   573  0165  3001               	movlw	1
   574  0166  00F0               	movwf	pulse_gen_1@n_1
   575  0167  3000               	movlw	0
   576  0168  00F1               	movwf	pulse_gen_1@n_1+1
   577  0169  3180  2010  3181   	fcall	_pulse_gen_1
   578  016C                     l1869:
   579  016C  3180  20D5  3181   	fcall	_state_2_C4
   580  016F                     l1871:
   581  016F  318E  26A3  3181   	fcall	_latch_gen_1
   582  0172                     l1873:
   583                           
   584                           ;countdown.c: 259:         second_counting();
   585  0172  3182  225C  3181   	fcall	_second_counting
   586  0175                     l1875:
   587                           
   588                           ;countdown.c: 261:         state_1_C4(); pulse_gen_1(1); state_1_C4(); latch_gen_1();
   589  0175  318F  2771  3181   	fcall	_state_1_C4
   590  0178                     l1877:
   591  0178  3001               	movlw	1
   592  0179  00F0               	movwf	pulse_gen_1@n_1
   593  017A  3000               	movlw	0
   594  017B  00F1               	movwf	pulse_gen_1@n_1+1
   595  017C  3180  2010  3181   	fcall	_pulse_gen_1
   596  017F                     l1879:
   597  017F  318F  2771  3181   	fcall	_state_1_C4
   598  0182                     l1881:
   599  0182  318E  26A3  3181   	fcall	_latch_gen_1
   600  0185                     l1883:
   601                           
   602                           ;countdown.c: 262:         second_counting();
   603  0185  3182  225C  3181   	fcall	_second_counting
   604  0188                     l1885:
   605                           
   606                           ;countdown.c: 264:         state_1_C4(); pulse_gen_1(1); state_0_C4(); latch_gen_1();
   607  0188  318F  2771  3181   	fcall	_state_1_C4
   608  018B                     l1887:
   609  018B  3001               	movlw	1
   610  018C  00F0               	movwf	pulse_gen_1@n_1
   611  018D  3000               	movlw	0
   612  018E  00F1               	movwf	pulse_gen_1@n_1+1
   613  018F  3180  2010  3181   	fcall	_pulse_gen_1
   614  0192                     l1889:
   615  0192  318E  26DB  3181   	fcall	_state_0_C4
   616  0195                     l1891:
   617  0195  318E  26A3  3181   	fcall	_latch_gen_1
   618  0198                     l1893:
   619                           
   620                           ;countdown.c: 265:         second_counting();
   621  0198  3182  225C  3181   	fcall	_second_counting
   622  019B                     l1895:
   623                           
   624                           ;countdown.c: 267:         state_0_C4(); pulse_gen_1(1); state_9_C4(); latch_gen_1();
   625  019B  318E  26DB  3181   	fcall	_state_0_C4
   626  019E                     l1897:
   627  019E  3001               	movlw	1
   628  019F  00F0               	movwf	pulse_gen_1@n_1
   629  01A0  3000               	movlw	0
   630  01A1  00F1               	movwf	pulse_gen_1@n_1+1
   631  01A2  3180  2010  3181   	fcall	_pulse_gen_1
   632  01A5                     l1899:
   633  01A5  318F  27C5  3181   	fcall	_state_9_C4
   634  01A8                     l1901:
   635  01A8  318E  26A3  3181   	fcall	_latch_gen_1
   636  01AB                     l1903:
   637                           
   638                           ;countdown.c: 268:         second_counting();
   639  01AB  3182  225C  3181   	fcall	_second_counting
   640  01AE                     l1905:
   641                           
   642                           ;countdown.c: 270:         state_0_C4(); pulse_gen_1(1); state_8_C4(); latch_gen_1();
   643  01AE  318E  26DB  3181   	fcall	_state_0_C4
   644  01B1                     l1907:
   645  01B1  3001               	movlw	1
   646  01B2  00F0               	movwf	pulse_gen_1@n_1
   647  01B3  3000               	movlw	0
   648  01B4  00F1               	movwf	pulse_gen_1@n_1+1
   649  01B5  3180  2010  3181   	fcall	_pulse_gen_1
   650  01B8                     l1909:
   651  01B8  3180  2006  3181   	fcall	_state_8_C4
   652  01BB                     l1911:
   653  01BB  318E  26A3  3181   	fcall	_latch_gen_1
   654  01BE                     l1913:
   655                           
   656                           ;countdown.c: 271:         second_counting();
   657  01BE  3182  225C  3181   	fcall	_second_counting
   658  01C1                     l1915:
   659                           
   660                           ;countdown.c: 273:         state_0_C4(); pulse_gen_1(1); state_7_C4(); latch_gen_1();
   661  01C1  318E  26DB  3181   	fcall	_state_0_C4
   662  01C4                     l1917:
   663  01C4  3001               	movlw	1
   664  01C5  00F0               	movwf	pulse_gen_1@n_1
   665  01C6  3000               	movlw	0
   666  01C7  00F1               	movwf	pulse_gen_1@n_1+1
   667  01C8  3180  2010  3181   	fcall	_pulse_gen_1
   668  01CB                     l1919:
   669  01CB  318E  26EE  3181   	fcall	_state_7_C4
   670  01CE                     l1921:
   671  01CE  318E  26A3  3181   	fcall	_latch_gen_1
   672  01D1                     l1923:
   673                           
   674                           ;countdown.c: 274:         second_counting();
   675  01D1  3182  225C  3181   	fcall	_second_counting
   676  01D4                     l1925:
   677                           
   678                           ;countdown.c: 276:         state_0_C4(); pulse_gen_1(1); state_6_C4(); latch_gen_1();
   679  01D4  318E  26DB  3181   	fcall	_state_0_C4
   680  01D7                     l1927:
   681  01D7  3001               	movlw	1
   682  01D8  00F0               	movwf	pulse_gen_1@n_1
   683  01D9  3000               	movlw	0
   684  01DA  00F1               	movwf	pulse_gen_1@n_1+1
   685  01DB  3180  2010  3181   	fcall	_pulse_gen_1
   686  01DE                     l1929:
   687  01DE  318F  27A9  3181   	fcall	_state_6_C4
   688  01E1                     l1931:
   689  01E1  318E  26A3  3181   	fcall	_latch_gen_1
   690  01E4                     l1933:
   691                           
   692                           ;countdown.c: 277:         second_counting();
   693  01E4  3182  225C  3181   	fcall	_second_counting
   694  01E7                     l1935:
   695                           
   696                           ;countdown.c: 279:         state_0_C4(); pulse_gen_1(1); state_5_C4(); latch_gen_1();
   697  01E7  318E  26DB  3181   	fcall	_state_0_C4
   698  01EA                     l1937:
   699  01EA  3001               	movlw	1
   700  01EB  00F0               	movwf	pulse_gen_1@n_1
   701  01EC  3000               	movlw	0
   702  01ED  00F1               	movwf	pulse_gen_1@n_1+1
   703  01EE  3180  2010  3181   	fcall	_pulse_gen_1
   704  01F1                     l1939:
   705  01F1  3181  2103  3181   	fcall	_state_5_C4
   706  01F4                     l1941:
   707  01F4  318E  26A3  3181   	fcall	_latch_gen_1
   708  01F7                     l1943:
   709                           
   710                           ;countdown.c: 280:         second_counting();
   711  01F7  3182  225C  3181   	fcall	_second_counting
   712  01FA                     l1945:
   713                           
   714                           ;countdown.c: 282:         state_0_C4(); pulse_gen_1(1); state_4_C4(); latch_gen_1();
   715  01FA  318E  26DB  3181   	fcall	_state_0_C4
   716  01FD                     l1947:
   717  01FD  3001               	movlw	1
   718  01FE  00F0               	movwf	pulse_gen_1@n_1
   719  01FF  3000               	movlw	0
   720  0200  00F1               	movwf	pulse_gen_1@n_1+1
   721  0201  3180  2010  3181   	fcall	_pulse_gen_1
   722  0204                     l1949:
   723  0204  3180  2054  3181   	fcall	_state_4_C4
   724  0207                     l1951:
   725  0207  318E  26A3  3181   	fcall	_latch_gen_1
   726  020A                     l1953:
   727                           
   728                           ;countdown.c: 283:         second_counting();
   729  020A  3182  225C  3181   	fcall	_second_counting
   730  020D                     l1955:
   731                           
   732                           ;countdown.c: 285:         state_0_C4(); pulse_gen_1(1); state_3_C4(); latch_gen_1();
   733  020D  318E  26DB  3181   	fcall	_state_0_C4
   734  0210                     l1957:
   735  0210  3001               	movlw	1
   736  0211  00F0               	movwf	pulse_gen_1@n_1
   737  0212  3000               	movlw	0
   738  0213  00F1               	movwf	pulse_gen_1@n_1+1
   739  0214  3180  2010  3181   	fcall	_pulse_gen_1
   740  0217                     l1959:
   741  0217  318F  278D  3181   	fcall	_state_3_C4
   742  021A                     l1961:
   743  021A  318E  26A3  3181   	fcall	_latch_gen_1
   744  021D                     l1963:
   745                           
   746                           ;countdown.c: 286:         second_counting();
   747  021D  3182  225C  3181   	fcall	_second_counting
   748  0220                     l1965:
   749                           
   750                           ;countdown.c: 288:         state_0_C4(); pulse_gen_1(1); state_2_C4(); latch_gen_1();
   751  0220  318E  26DB  3181   	fcall	_state_0_C4
   752  0223                     l1967:
   753  0223  3001               	movlw	1
   754  0224  00F0               	movwf	pulse_gen_1@n_1
   755  0225  3000               	movlw	0
   756  0226  00F1               	movwf	pulse_gen_1@n_1+1
   757  0227  3180  2010  3181   	fcall	_pulse_gen_1
   758  022A                     l1969:
   759  022A  3180  20D5  3181   	fcall	_state_2_C4
   760  022D                     l1971:
   761  022D  318E  26A3  3181   	fcall	_latch_gen_1
   762  0230                     l1973:
   763                           
   764                           ;countdown.c: 289:         second_counting();
   765  0230  3182  225C  3181   	fcall	_second_counting
   766  0233                     l1975:
   767                           
   768                           ;countdown.c: 291:         state_0_C4(); pulse_gen_1(1); state_1_C4(); latch_gen_1();
   769  0233  318E  26DB  3181   	fcall	_state_0_C4
   770  0236                     l1977:
   771  0236  3001               	movlw	1
   772  0237  00F0               	movwf	pulse_gen_1@n_1
   773  0238  3000               	movlw	0
   774  0239  00F1               	movwf	pulse_gen_1@n_1+1
   775  023A  3180  2010  3181   	fcall	_pulse_gen_1
   776  023D                     l1979:
   777  023D  318F  2771  3181   	fcall	_state_1_C4
   778  0240                     l1981:
   779  0240  318E  26A3  3181   	fcall	_latch_gen_1
   780  0243                     l1983:
   781                           
   782                           ;countdown.c: 292:         second_counting();
   783  0243  3182  225C  3181   	fcall	_second_counting
   784  0246                     l1985:
   785                           
   786                           ;countdown.c: 294:         state_0_C4(); pulse_gen_1(1); state_0_C4(); latch_gen_1();
   787  0246  318E  26DB  3181   	fcall	_state_0_C4
   788  0249                     l1987:
   789  0249  3001               	movlw	1
   790  024A  00F0               	movwf	pulse_gen_1@n_1
   791  024B  3000               	movlw	0
   792  024C  00F1               	movwf	pulse_gen_1@n_1+1
   793  024D  3180  2010  3181   	fcall	_pulse_gen_1
   794  0250                     l1989:
   795  0250  318E  26DB  3181   	fcall	_state_0_C4
   796  0253                     l1991:
   797  0253  318E  26A3  3181   	fcall	_latch_gen_1
   798  0256                     l1993:
   799                           
   800                           ;countdown.c: 295:         second_counting();
   801  0256  3182  225C  3181   	fcall	_second_counting
   802  0259  293C               	goto	l1845
   803  025A  3180  2802         	ljmp	start
   804  025C                     __end_of_main:
   805                           
   806                           	psect	text1
   807  0FC5                     __ptext1:	
   808 ;; *************** function _state_9_C4 *****************
   809 ;; Defined at:
   810 ;;		line 232 in file "countdown.c"
   811 ;; Parameters:    Size  Location     Type
   812 ;;		None
   813 ;; Auto vars:     Size  Location     Type
   814 ;;		None
   815 ;; Return value:  Size  Location     Type
   816 ;;                  1    wreg      void 
   817 ;; Registers used:
   818 ;;		wreg, status,2, status,0, pclath, cstack
   819 ;; Tracked objects:
   820 ;;		On entry : 0/0
   821 ;;		On exit  : 0/0
   822 ;;		Unchanged: 0/0
   823 ;; Data sizes:     COMMON   BANK0   BANK1   BANK2   BANK3   BANK4   BANK5   BANK6
   824 ;;      Params:         0       0       0       0       0       0       0       0
   825 ;;      Locals:         0       0       0       0       0       0       0       0
   826 ;;      Temps:          0       0       0       0       0       0       0       0
   827 ;;      Totals:         0       0       0       0       0       0       0       0
   828 ;;Total ram usage:        0 bytes
   829 ;; Hardware stack levels used: 1
   830 ;; Hardware stack levels required when called: 1
   831 ;; This function calls:
   832 ;;		_pulse_gen_1
   833 ;; This function is called by:
   834 ;;		_main
   835 ;; This function uses a non-reentrant model
   836 ;;
   837                           
   838  0FC5                     _state_9_C4:	
   839                           ;psect for function _state_9_C4
   840                           
   841  0FC5                     l1821:	
   842                           ;incstack = 0
   843                           ; Regs used in _state_9_C4: [wreg+status,2+status,0+pclath+cstack]
   844                           
   845                           
   846                           ;countdown.c: 233:     LATCbits.LATC4 = 0; pulse_gen_1(2);
   847  0FC5  0022               	movlb	2	; select bank2
   848  0FC6  120E               	bcf	14,4	;volatile
   849  0FC7                     l1823:
   850  0FC7  3002               	movlw	2
   851  0FC8  00F0               	movwf	pulse_gen_1@n_1
   852  0FC9  3000               	movlw	0
   853  0FCA  00F1               	movwf	pulse_gen_1@n_1+1
   854  0FCB  3180  2010  318F   	fcall	_pulse_gen_1
   855  0FCE                     l1825:
   856                           
   857                           ;countdown.c: 234:     LATCbits.LATC4 = 1; pulse_gen_1(1);
   858  0FCE  0022               	movlb	2	; select bank2
   859  0FCF  160E               	bsf	14,4	;volatile
   860  0FD0  3001               	movlw	1
   861  0FD1  00F0               	movwf	pulse_gen_1@n_1
   862  0FD2  3000               	movlw	0
   863  0FD3  00F1               	movwf	pulse_gen_1@n_1+1
   864  0FD4  3180  2010  318F   	fcall	_pulse_gen_1
   865  0FD7                     l1827:
   866                           
   867                           ;countdown.c: 235:     LATCbits.LATC4 = 0; pulse_gen_1(4); return;
   868  0FD7  0022               	movlb	2	; select bank2
   869  0FD8  120E               	bcf	14,4	;volatile
   870  0FD9  3004               	movlw	4
   871  0FDA  00F0               	movwf	pulse_gen_1@n_1
   872  0FDB  3000               	movlw	0
   873  0FDC  00F1               	movwf	pulse_gen_1@n_1+1
   874  0FDD  3180  2010  318F   	fcall	_pulse_gen_1
   875  0FE0                     l89:
   876  0FE0  0008               	return
   877  0FE1                     __end_of_state_9_C4:
   878                           
   879                           	psect	text2
   880  0006                     __ptext2:	
   881 ;; *************** function _state_8_C4 *****************
   882 ;; Defined at:
   883 ;;		line 229 in file "countdown.c"
   884 ;; Parameters:    Size  Location     Type
   885 ;;		None
   886 ;; Auto vars:     Size  Location     Type
   887 ;;		None
   888 ;; Return value:  Size  Location     Type
   889 ;;                  1    wreg      void 
   890 ;; Registers used:
   891 ;;		wreg, status,2, status,0, pclath, cstack
   892 ;; Tracked objects:
   893 ;;		On entry : 0/0
   894 ;;		On exit  : 0/0
   895 ;;		Unchanged: 0/0
   896 ;; Data sizes:     COMMON   BANK0   BANK1   BANK2   BANK3   BANK4   BANK5   BANK6
   897 ;;      Params:         0       0       0       0       0       0       0       0
   898 ;;      Locals:         0       0       0       0       0       0       0       0
   899 ;;      Temps:          0       0       0       0       0       0       0       0
   900 ;;      Totals:         0       0       0       0       0       0       0       0
   901 ;;Total ram usage:        0 bytes
   902 ;; Hardware stack levels used: 1
   903 ;; Hardware stack levels required when called: 1
   904 ;; This function calls:
   905 ;;		_pulse_gen_1
   906 ;; This function is called by:
   907 ;;		_main
   908 ;; This function uses a non-reentrant model
   909 ;;
   910                           
   911  0006                     _state_8_C4:	
   912                           ;psect for function _state_8_C4
   913                           
   914  0006                     l1815:	
   915                           ;incstack = 0
   916                           ; Regs used in _state_8_C4: [wreg+status,2+status,0+pclath+cstack]
   917                           
   918                           
   919                           ;countdown.c: 230:     LATCbits.LATC4 = 0; pulse_gen_1(7); return;
   920  0006  0022               	movlb	2	; select bank2
   921  0007  120E               	bcf	14,4	;volatile
   922  0008                     l1817:
   923  0008  3007               	movlw	7
   924  0009  00F0               	movwf	pulse_gen_1@n_1
   925  000A  3000               	movlw	0
   926  000B  00F1               	movwf	pulse_gen_1@n_1+1
   927  000C  3180  2010  3180   	fcall	_pulse_gen_1
   928  000F                     l86:
   929  000F  0008               	return
   930  0010                     __end_of_state_8_C4:
   931                           
   932                           	psect	text3
   933  0EEE                     __ptext3:	
   934 ;; *************** function _state_7_C4 *****************
   935 ;; Defined at:
   936 ;;		line 225 in file "countdown.c"
   937 ;; Parameters:    Size  Location     Type
   938 ;;		None
   939 ;; Auto vars:     Size  Location     Type
   940 ;;		None
   941 ;; Return value:  Size  Location     Type
   942 ;;                  1    wreg      void 
   943 ;; Registers used:
   944 ;;		wreg, status,2, status,0, pclath, cstack
   945 ;; Tracked objects:
   946 ;;		On entry : 0/0
   947 ;;		On exit  : 0/0
   948 ;;		Unchanged: 0/0
   949 ;; Data sizes:     COMMON   BANK0   BANK1   BANK2   BANK3   BANK4   BANK5   BANK6
   950 ;;      Params:         0       0       0       0       0       0       0       0
   951 ;;      Locals:         0       0       0       0       0       0       0       0
   952 ;;      Temps:          0       0       0       0       0       0       0       0
   953 ;;      Totals:         0       0       0       0       0       0       0       0
   954 ;;Total ram usage:        0 bytes
   955 ;; Hardware stack levels used: 1
   956 ;; Hardware stack levels required when called: 1
   957 ;; This function calls:
   958 ;;		_pulse_gen_1
   959 ;; This function is called by:
   960 ;;		_main
   961 ;; This function uses a non-reentrant model
   962 ;;
   963                           
   964  0EEE                     _state_7_C4:	
   965                           ;psect for function _state_7_C4
   966                           
   967  0EEE                     l1807:	
   968                           ;incstack = 0
   969                           ; Regs used in _state_7_C4: [wreg+status,2+status,0+pclath+cstack]
   970                           
   971                           
   972                           ;countdown.c: 226:     LATCbits.LATC4 = 1; pulse_gen_1(4);
   973  0EEE  0022               	movlb	2	; select bank2
   974  0EEF  160E               	bsf	14,4	;volatile
   975  0EF0                     l1809:
   976  0EF0  3004               	movlw	4
   977  0EF1  00F0               	movwf	pulse_gen_1@n_1
   978  0EF2  3000               	movlw	0
   979  0EF3  00F1               	movwf	pulse_gen_1@n_1+1
   980  0EF4  3180  2010  318E   	fcall	_pulse_gen_1
   981  0EF7                     l1811:
   982                           
   983                           ;countdown.c: 227:     LATCbits.LATC4 = 0; pulse_gen_1(3); return;
   984  0EF7  0022               	movlb	2	; select bank2
   985  0EF8  120E               	bcf	14,4	;volatile
   986  0EF9  3003               	movlw	3
   987  0EFA  00F0               	movwf	pulse_gen_1@n_1
   988  0EFB  3000               	movlw	0
   989  0EFC  00F1               	movwf	pulse_gen_1@n_1+1
   990  0EFD  3180  2010  318E   	fcall	_pulse_gen_1
   991  0F00                     l83:
   992  0F00  0008               	return
   993  0F01                     __end_of_state_7_C4:
   994                           
   995                           	psect	text4
   996  0FA9                     __ptext4:	
   997 ;; *************** function _state_6_C4 *****************
   998 ;; Defined at:
   999 ;;		line 220 in file "countdown.c"
  1000 ;; Parameters:    Size  Location     Type
  1001 ;;		None
  1002 ;; Auto vars:     Size  Location     Type
  1003 ;;		None
  1004 ;; Return value:  Size  Location     Type
  1005 ;;                  1    wreg      void 
  1006 ;; Registers used:
  1007 ;;		wreg, status,2, status,0, pclath, cstack
  1008 ;; Tracked objects:
  1009 ;;		On entry : 0/0
  1010 ;;		On exit  : 0/0
  1011 ;;		Unchanged: 0/0
  1012 ;; Data sizes:     COMMON   BANK0   BANK1   BANK2   BANK3   BANK4   BANK5   BANK6
  1013 ;;      Params:         0       0       0       0       0       0       0       0
  1014 ;;      Locals:         0       0       0       0       0       0       0       0
  1015 ;;      Temps:          0       0       0       0       0       0       0       0
  1016 ;;      Totals:         0       0       0       0       0       0       0       0
  1017 ;;Total ram usage:        0 bytes
  1018 ;; Hardware stack levels used: 1
  1019 ;; Hardware stack levels required when called: 1
  1020 ;; This function calls:
  1021 ;;		_pulse_gen_1
  1022 ;; This function is called by:
  1023 ;;		_main
  1024 ;; This function uses a non-reentrant model
  1025 ;;
  1026                           
  1027  0FA9                     _state_6_C4:	
  1028                           ;psect for function _state_6_C4
  1029                           
  1030  0FA9                     l1797:	
  1031                           ;incstack = 0
  1032                           ; Regs used in _state_6_C4: [wreg+status,2+status,0+pclath+cstack]
  1033                           
  1034                           
  1035                           ;countdown.c: 221:     LATCbits.LATC4 = 0; pulse_gen_1(5);
  1036  0FA9  0022               	movlb	2	; select bank2
  1037  0FAA  120E               	bcf	14,4	;volatile
  1038  0FAB                     l1799:
  1039  0FAB  3005               	movlw	5
  1040  0FAC  00F0               	movwf	pulse_gen_1@n_1
  1041  0FAD  3000               	movlw	0
  1042  0FAE  00F1               	movwf	pulse_gen_1@n_1+1
  1043  0FAF  3180  2010  318F   	fcall	_pulse_gen_1
  1044  0FB2                     l1801:
  1045                           
  1046                           ;countdown.c: 222:     LATCbits.LATC4 = 1; pulse_gen_1(1);
  1047  0FB2  0022               	movlb	2	; select bank2
  1048  0FB3  160E               	bsf	14,4	;volatile
  1049  0FB4  3001               	movlw	1
  1050  0FB5  00F0               	movwf	pulse_gen_1@n_1
  1051  0FB6  3000               	movlw	0
  1052  0FB7  00F1               	movwf	pulse_gen_1@n_1+1
  1053  0FB8  3180  2010  318F   	fcall	_pulse_gen_1
  1054  0FBB                     l1803:
  1055                           
  1056                           ;countdown.c: 223:     LATCbits.LATC4 = 0; pulse_gen_1(1); return;
  1057  0FBB  0022               	movlb	2	; select bank2
  1058  0FBC  120E               	bcf	14,4	;volatile
  1059  0FBD  3001               	movlw	1
  1060  0FBE  00F0               	movwf	pulse_gen_1@n_1
  1061  0FBF  3000               	movlw	0
  1062  0FC0  00F1               	movwf	pulse_gen_1@n_1+1
  1063  0FC1  3180  2010  318F   	fcall	_pulse_gen_1
  1064  0FC4                     l80:
  1065  0FC4  0008               	return
  1066  0FC5                     __end_of_state_6_C4:
  1067                           
  1068                           	psect	text5
  1069  0103                     __ptext5:	
  1070 ;; *************** function _state_5_C4 *****************
  1071 ;; Defined at:
  1072 ;;		line 213 in file "countdown.c"
  1073 ;; Parameters:    Size  Location     Type
  1074 ;;		None
  1075 ;; Auto vars:     Size  Location     Type
  1076 ;;		None
  1077 ;; Return value:  Size  Location     Type
  1078 ;;                  1    wreg      void 
  1079 ;; Registers used:
  1080 ;;		wreg, status,2, status,0, pclath, cstack
  1081 ;; Tracked objects:
  1082 ;;		On entry : 0/0
  1083 ;;		On exit  : 0/0
  1084 ;;		Unchanged: 0/0
  1085 ;; Data sizes:     COMMON   BANK0   BANK1   BANK2   BANK3   BANK4   BANK5   BANK6
  1086 ;;      Params:         0       0       0       0       0       0       0       0
  1087 ;;      Locals:         0       0       0       0       0       0       0       0
  1088 ;;      Temps:          0       0       0       0       0       0       0       0
  1089 ;;      Totals:         0       0       0       0       0       0       0       0
  1090 ;;Total ram usage:        0 bytes
  1091 ;; Hardware stack levels used: 1
  1092 ;; Hardware stack levels required when called: 1
  1093 ;; This function calls:
  1094 ;;		_pulse_gen_1
  1095 ;; This function is called by:
  1096 ;;		_main
  1097 ;; This function uses a non-reentrant model
  1098 ;;
  1099                           
  1100  0103                     _state_5_C4:	
  1101                           ;psect for function _state_5_C4
  1102                           
  1103  0103                     l1783:	
  1104                           ;incstack = 0
  1105                           ; Regs used in _state_5_C4: [wreg+status,2+status,0+pclath+cstack]
  1106                           
  1107                           
  1108                           ;countdown.c: 214:     LATCbits.LATC4 = 0; pulse_gen_1(2);
  1109  0103  0022               	movlb	2	; select bank2
  1110  0104  120E               	bcf	14,4	;volatile
  1111  0105                     l1785:
  1112  0105  3002               	movlw	2
  1113  0106  00F0               	movwf	pulse_gen_1@n_1
  1114  0107  3000               	movlw	0
  1115  0108  00F1               	movwf	pulse_gen_1@n_1+1
  1116  0109  3180  2010  3181   	fcall	_pulse_gen_1
  1117  010C                     l1787:
  1118                           
  1119                           ;countdown.c: 215:     LATCbits.LATC4 = 1; pulse_gen_1(1);
  1120  010C  0022               	movlb	2	; select bank2
  1121  010D  160E               	bsf	14,4	;volatile
  1122  010E  3001               	movlw	1
  1123  010F  00F0               	movwf	pulse_gen_1@n_1
  1124  0110  3000               	movlw	0
  1125  0111  00F1               	movwf	pulse_gen_1@n_1+1
  1126  0112  3180  2010  3181   	fcall	_pulse_gen_1
  1127  0115                     l1789:
  1128                           
  1129                           ;countdown.c: 216:     LATCbits.LATC4 = 0; pulse_gen_1(2);
  1130  0115  0022               	movlb	2	; select bank2
  1131  0116  120E               	bcf	14,4	;volatile
  1132  0117  3002               	movlw	2
  1133  0118  00F0               	movwf	pulse_gen_1@n_1
  1134  0119  3000               	movlw	0
  1135  011A  00F1               	movwf	pulse_gen_1@n_1+1
  1136  011B  3180  2010  3181   	fcall	_pulse_gen_1
  1137  011E                     l1791:
  1138                           
  1139                           ;countdown.c: 217:     LATCbits.LATC4 = 1; pulse_gen_1(1);
  1140  011E  0022               	movlb	2	; select bank2
  1141  011F  160E               	bsf	14,4	;volatile
  1142  0120  3001               	movlw	1
  1143  0121  00F0               	movwf	pulse_gen_1@n_1
  1144  0122  3000               	movlw	0
  1145  0123  00F1               	movwf	pulse_gen_1@n_1+1
  1146  0124  3180  2010  3181   	fcall	_pulse_gen_1
  1147  0127                     l1793:
  1148                           
  1149                           ;countdown.c: 218:     LATCbits.LATC4 = 0; pulse_gen_1(1); return;
  1150  0127  0022               	movlb	2	; select bank2
  1151  0128  120E               	bcf	14,4	;volatile
  1152  0129  3001               	movlw	1
  1153  012A  00F0               	movwf	pulse_gen_1@n_1
  1154  012B  3000               	movlw	0
  1155  012C  00F1               	movwf	pulse_gen_1@n_1+1
  1156  012D  3180  2010  3181   	fcall	_pulse_gen_1
  1157  0130                     l77:
  1158  0130  0008               	return
  1159  0131                     __end_of_state_5_C4:
  1160                           
  1161                           	psect	text6
  1162  0054                     __ptext6:	
  1163 ;; *************** function _state_4_C4 *****************
  1164 ;; Defined at:
  1165 ;;		line 207 in file "countdown.c"
  1166 ;; Parameters:    Size  Location     Type
  1167 ;;		None
  1168 ;; Auto vars:     Size  Location     Type
  1169 ;;		None
  1170 ;; Return value:  Size  Location     Type
  1171 ;;                  1    wreg      void 
  1172 ;; Registers used:
  1173 ;;		wreg, status,2, status,0, pclath, cstack
  1174 ;; Tracked objects:
  1175 ;;		On entry : 0/0
  1176 ;;		On exit  : 0/0
  1177 ;;		Unchanged: 0/0
  1178 ;; Data sizes:     COMMON   BANK0   BANK1   BANK2   BANK3   BANK4   BANK5   BANK6
  1179 ;;      Params:         0       0       0       0       0       0       0       0
  1180 ;;      Locals:         0       0       0       0       0       0       0       0
  1181 ;;      Temps:          0       0       0       0       0       0       0       0
  1182 ;;      Totals:         0       0       0       0       0       0       0       0
  1183 ;;Total ram usage:        0 bytes
  1184 ;; Hardware stack levels used: 1
  1185 ;; Hardware stack levels required when called: 1
  1186 ;; This function calls:
  1187 ;;		_pulse_gen_1
  1188 ;; This function is called by:
  1189 ;;		_main
  1190 ;; This function uses a non-reentrant model
  1191 ;;
  1192                           
  1193  0054                     _state_4_C4:	
  1194                           ;psect for function _state_4_C4
  1195                           
  1196  0054                     l1771:	
  1197                           ;incstack = 0
  1198                           ; Regs used in _state_4_C4: [wreg+status,2+status,0+pclath+cstack]
  1199                           
  1200                           
  1201                           ;countdown.c: 208:     LATCbits.LATC4 = 0; pulse_gen_1(2);
  1202  0054  0022               	movlb	2	; select bank2
  1203  0055  120E               	bcf	14,4	;volatile
  1204  0056                     l1773:
  1205  0056  3002               	movlw	2
  1206  0057  00F0               	movwf	pulse_gen_1@n_1
  1207  0058  3000               	movlw	0
  1208  0059  00F1               	movwf	pulse_gen_1@n_1+1
  1209  005A  3180  2010  3180   	fcall	_pulse_gen_1
  1210  005D                     l1775:
  1211                           
  1212                           ;countdown.c: 209:     LATCbits.LATC4 = 1; pulse_gen_1(2);
  1213  005D  0022               	movlb	2	; select bank2
  1214  005E  160E               	bsf	14,4	;volatile
  1215  005F  3002               	movlw	2
  1216  0060  00F0               	movwf	pulse_gen_1@n_1
  1217  0061  3000               	movlw	0
  1218  0062  00F1               	movwf	pulse_gen_1@n_1+1
  1219  0063  3180  2010  3180   	fcall	_pulse_gen_1
  1220  0066                     l1777:
  1221                           
  1222                           ;countdown.c: 210:     LATCbits.LATC4 = 0; pulse_gen_1(2);
  1223  0066  0022               	movlb	2	; select bank2
  1224  0067  120E               	bcf	14,4	;volatile
  1225  0068  3002               	movlw	2
  1226  0069  00F0               	movwf	pulse_gen_1@n_1
  1227  006A  3000               	movlw	0
  1228  006B  00F1               	movwf	pulse_gen_1@n_1+1
  1229  006C  3180  2010  3180   	fcall	_pulse_gen_1
  1230  006F                     l1779:
  1231                           
  1232                           ;countdown.c: 211:     LATCbits.LATC4 = 1; pulse_gen_1(1); return;
  1233  006F  0022               	movlb	2	; select bank2
  1234  0070  160E               	bsf	14,4	;volatile
  1235  0071  3001               	movlw	1
  1236  0072  00F0               	movwf	pulse_gen_1@n_1
  1237  0073  3000               	movlw	0
  1238  0074  00F1               	movwf	pulse_gen_1@n_1+1
  1239  0075  3180  2010  3180   	fcall	_pulse_gen_1
  1240  0078                     l74:
  1241  0078  0008               	return
  1242  0079                     __end_of_state_4_C4:
  1243                           
  1244                           	psect	text7
  1245  0F8D                     __ptext7:	
  1246 ;; *************** function _state_3_C4 *****************
  1247 ;; Defined at:
  1248 ;;		line 202 in file "countdown.c"
  1249 ;; Parameters:    Size  Location     Type
  1250 ;;		None
  1251 ;; Auto vars:     Size  Location     Type
  1252 ;;		None
  1253 ;; Return value:  Size  Location     Type
  1254 ;;                  1    wreg      void 
  1255 ;; Registers used:
  1256 ;;		wreg, status,2, status,0, pclath, cstack
  1257 ;; Tracked objects:
  1258 ;;		On entry : 0/0
  1259 ;;		On exit  : 0/0
  1260 ;;		Unchanged: 0/0
  1261 ;; Data sizes:     COMMON   BANK0   BANK1   BANK2   BANK3   BANK4   BANK5   BANK6
  1262 ;;      Params:         0       0       0       0       0       0       0       0
  1263 ;;      Locals:         0       0       0       0       0       0       0       0
  1264 ;;      Temps:          0       0       0       0       0       0       0       0
  1265 ;;      Totals:         0       0       0       0       0       0       0       0
  1266 ;;Total ram usage:        0 bytes
  1267 ;; Hardware stack levels used: 1
  1268 ;; Hardware stack levels required when called: 1
  1269 ;; This function calls:
  1270 ;;		_pulse_gen_1
  1271 ;; This function is called by:
  1272 ;;		_main
  1273 ;; This function uses a non-reentrant model
  1274 ;;
  1275                           
  1276  0F8D                     _state_3_C4:	
  1277                           ;psect for function _state_3_C4
  1278                           
  1279  0F8D                     l1761:	
  1280                           ;incstack = 0
  1281                           ; Regs used in _state_3_C4: [wreg+status,2+status,0+pclath+cstack]
  1282                           
  1283                           
  1284                           ;countdown.c: 203:     LATCbits.LATC4 = 0; pulse_gen_1(1);
  1285  0F8D  0022               	movlb	2	; select bank2
  1286  0F8E  120E               	bcf	14,4	;volatile
  1287  0F8F                     l1763:
  1288  0F8F  3001               	movlw	1
  1289  0F90  00F0               	movwf	pulse_gen_1@n_1
  1290  0F91  3000               	movlw	0
  1291  0F92  00F1               	movwf	pulse_gen_1@n_1+1
  1292  0F93  3180  2010  318F   	fcall	_pulse_gen_1
  1293  0F96                     l1765:
  1294                           
  1295                           ;countdown.c: 204:     LATCbits.LATC4 = 1; pulse_gen_1(2);
  1296  0F96  0022               	movlb	2	; select bank2
  1297  0F97  160E               	bsf	14,4	;volatile
  1298  0F98  3002               	movlw	2
  1299  0F99  00F0               	movwf	pulse_gen_1@n_1
  1300  0F9A  3000               	movlw	0
  1301  0F9B  00F1               	movwf	pulse_gen_1@n_1+1
  1302  0F9C  3180  2010  318F   	fcall	_pulse_gen_1
  1303  0F9F                     l1767:
  1304                           
  1305                           ;countdown.c: 205:     LATCbits.LATC4 = 0; pulse_gen_1(4); return;
  1306  0F9F  0022               	movlb	2	; select bank2
  1307  0FA0  120E               	bcf	14,4	;volatile
  1308  0FA1  3004               	movlw	4
  1309  0FA2  00F0               	movwf	pulse_gen_1@n_1
  1310  0FA3  3000               	movlw	0
  1311  0FA4  00F1               	movwf	pulse_gen_1@n_1+1
  1312  0FA5  3180  2010  318F   	fcall	_pulse_gen_1
  1313  0FA8                     l71:
  1314  0FA8  0008               	return
  1315  0FA9                     __end_of_state_3_C4:
  1316                           
  1317                           	psect	text8
  1318  00D5                     __ptext8:	
  1319 ;; *************** function _state_2_C4 *****************
  1320 ;; Defined at:
  1321 ;;		line 195 in file "countdown.c"
  1322 ;; Parameters:    Size  Location     Type
  1323 ;;		None
  1324 ;; Auto vars:     Size  Location     Type
  1325 ;;		None
  1326 ;; Return value:  Size  Location     Type
  1327 ;;                  1    wreg      void 
  1328 ;; Registers used:
  1329 ;;		wreg, status,2, status,0, pclath, cstack
  1330 ;; Tracked objects:
  1331 ;;		On entry : 0/0
  1332 ;;		On exit  : 0/0
  1333 ;;		Unchanged: 0/0
  1334 ;; Data sizes:     COMMON   BANK0   BANK1   BANK2   BANK3   BANK4   BANK5   BANK6
  1335 ;;      Params:         0       0       0       0       0       0       0       0
  1336 ;;      Locals:         0       0       0       0       0       0       0       0
  1337 ;;      Temps:          0       0       0       0       0       0       0       0
  1338 ;;      Totals:         0       0       0       0       0       0       0       0
  1339 ;;Total ram usage:        0 bytes
  1340 ;; Hardware stack levels used: 1
  1341 ;; Hardware stack levels required when called: 1
  1342 ;; This function calls:
  1343 ;;		_pulse_gen_1
  1344 ;; This function is called by:
  1345 ;;		_main
  1346 ;; This function uses a non-reentrant model
  1347 ;;
  1348                           
  1349  00D5                     _state_2_C4:	
  1350                           ;psect for function _state_2_C4
  1351                           
  1352  00D5                     l1747:	
  1353                           ;incstack = 0
  1354                           ; Regs used in _state_2_C4: [wreg+status,2+status,0+pclath+cstack]
  1355                           
  1356                           
  1357                           ;countdown.c: 196:     LATCbits.LATC4 = 0; pulse_gen_1(1);
  1358  00D5  0022               	movlb	2	; select bank2
  1359  00D6  120E               	bcf	14,4	;volatile
  1360  00D7                     l1749:
  1361  00D7  3001               	movlw	1
  1362  00D8  00F0               	movwf	pulse_gen_1@n_1
  1363  00D9  3000               	movlw	0
  1364  00DA  00F1               	movwf	pulse_gen_1@n_1+1
  1365  00DB  3180  2010  3180   	fcall	_pulse_gen_1
  1366  00DE                     l1751:
  1367                           
  1368                           ;countdown.c: 197:     LATCbits.LATC4 = 1; pulse_gen_1(1);
  1369  00DE  0022               	movlb	2	; select bank2
  1370  00DF  160E               	bsf	14,4	;volatile
  1371  00E0  3001               	movlw	1
  1372  00E1  00F0               	movwf	pulse_gen_1@n_1
  1373  00E2  3000               	movlw	0
  1374  00E3  00F1               	movwf	pulse_gen_1@n_1+1
  1375  00E4  3180  2010  3180   	fcall	_pulse_gen_1
  1376  00E7                     l1753:
  1377                           
  1378                           ;countdown.c: 198:     LATCbits.LATC4 = 0; pulse_gen_1(2);
  1379  00E7  0022               	movlb	2	; select bank2
  1380  00E8  120E               	bcf	14,4	;volatile
  1381  00E9  3002               	movlw	2
  1382  00EA  00F0               	movwf	pulse_gen_1@n_1
  1383  00EB  3000               	movlw	0
  1384  00EC  00F1               	movwf	pulse_gen_1@n_1+1
  1385  00ED  3180  2010  3180   	fcall	_pulse_gen_1
  1386  00F0                     l1755:
  1387                           
  1388                           ;countdown.c: 199:     LATCbits.LATC4 = 1; pulse_gen_1(1);
  1389  00F0  0022               	movlb	2	; select bank2
  1390  00F1  160E               	bsf	14,4	;volatile
  1391  00F2  3001               	movlw	1
  1392  00F3  00F0               	movwf	pulse_gen_1@n_1
  1393  00F4  3000               	movlw	0
  1394  00F5  00F1               	movwf	pulse_gen_1@n_1+1
  1395  00F6  3180  2010  3180   	fcall	_pulse_gen_1
  1396  00F9                     l1757:
  1397                           
  1398                           ;countdown.c: 200:     LATCbits.LATC4 = 0; pulse_gen_1(2); return;
  1399  00F9  0022               	movlb	2	; select bank2
  1400  00FA  120E               	bcf	14,4	;volatile
  1401  00FB  3002               	movlw	2
  1402  00FC  00F0               	movwf	pulse_gen_1@n_1
  1403  00FD  3000               	movlw	0
  1404  00FE  00F1               	movwf	pulse_gen_1@n_1+1
  1405  00FF  3180  2010  3180   	fcall	_pulse_gen_1
  1406  0102                     l68:
  1407  0102  0008               	return
  1408  0103                     __end_of_state_2_C4:
  1409                           
  1410                           	psect	text9
  1411  0F71                     __ptext9:	
  1412 ;; *************** function _state_1_C4 *****************
  1413 ;; Defined at:
  1414 ;;		line 190 in file "countdown.c"
  1415 ;; Parameters:    Size  Location     Type
  1416 ;;		None
  1417 ;; Auto vars:     Size  Location     Type
  1418 ;;		None
  1419 ;; Return value:  Size  Location     Type
  1420 ;;                  1    wreg      void 
  1421 ;; Registers used:
  1422 ;;		wreg, status,2, status,0, pclath, cstack
  1423 ;; Tracked objects:
  1424 ;;		On entry : 0/0
  1425 ;;		On exit  : 0/0
  1426 ;;		Unchanged: 0/0
  1427 ;; Data sizes:     COMMON   BANK0   BANK1   BANK2   BANK3   BANK4   BANK5   BANK6
  1428 ;;      Params:         0       0       0       0       0       0       0       0
  1429 ;;      Locals:         0       0       0       0       0       0       0       0
  1430 ;;      Temps:          0       0       0       0       0       0       0       0
  1431 ;;      Totals:         0       0       0       0       0       0       0       0
  1432 ;;Total ram usage:        0 bytes
  1433 ;; Hardware stack levels used: 1
  1434 ;; Hardware stack levels required when called: 1
  1435 ;; This function calls:
  1436 ;;		_pulse_gen_1
  1437 ;; This function is called by:
  1438 ;;		_main
  1439 ;; This function uses a non-reentrant model
  1440 ;;
  1441                           
  1442  0F71                     _state_1_C4:	
  1443                           ;psect for function _state_1_C4
  1444                           
  1445  0F71                     l1737:	
  1446                           ;incstack = 0
  1447                           ; Regs used in _state_1_C4: [wreg+status,2+status,0+pclath+cstack]
  1448                           
  1449                           
  1450                           ;countdown.c: 191:     LATCbits.LATC4 = 1; pulse_gen_1(4);
  1451  0F71  0022               	movlb	2	; select bank2
  1452  0F72  160E               	bsf	14,4	;volatile
  1453  0F73                     l1739:
  1454  0F73  3004               	movlw	4
  1455  0F74  00F0               	movwf	pulse_gen_1@n_1
  1456  0F75  3000               	movlw	0
  1457  0F76  00F1               	movwf	pulse_gen_1@n_1+1
  1458  0F77  3180  2010  318F   	fcall	_pulse_gen_1
  1459  0F7A                     l1741:
  1460                           
  1461                           ;countdown.c: 192:     LATCbits.LATC4 = 0; pulse_gen_1(2);
  1462  0F7A  0022               	movlb	2	; select bank2
  1463  0F7B  120E               	bcf	14,4	;volatile
  1464  0F7C  3002               	movlw	2
  1465  0F7D  00F0               	movwf	pulse_gen_1@n_1
  1466  0F7E  3000               	movlw	0
  1467  0F7F  00F1               	movwf	pulse_gen_1@n_1+1
  1468  0F80  3180  2010  318F   	fcall	_pulse_gen_1
  1469  0F83                     l1743:
  1470                           
  1471                           ;countdown.c: 193:     LATCbits.LATC4 = 1; pulse_gen_1(1); return;
  1472  0F83  0022               	movlb	2	; select bank2
  1473  0F84  160E               	bsf	14,4	;volatile
  1474  0F85  3001               	movlw	1
  1475  0F86  00F0               	movwf	pulse_gen_1@n_1
  1476  0F87  3000               	movlw	0
  1477  0F88  00F1               	movwf	pulse_gen_1@n_1+1
  1478  0F89  3180  2010  318F   	fcall	_pulse_gen_1
  1479  0F8C                     l65:
  1480  0F8C  0008               	return
  1481  0F8D                     __end_of_state_1_C4:
  1482                           
  1483                           	psect	text10
  1484  0EDB                     __ptext10:	
  1485 ;; *************** function _state_0_C4 *****************
  1486 ;; Defined at:
  1487 ;;		line 186 in file "countdown.c"
  1488 ;; Parameters:    Size  Location     Type
  1489 ;;		None
  1490 ;; Auto vars:     Size  Location     Type
  1491 ;;		None
  1492 ;; Return value:  Size  Location     Type
  1493 ;;                  1    wreg      void 
  1494 ;; Registers used:
  1495 ;;		wreg, status,2, status,0, pclath, cstack
  1496 ;; Tracked objects:
  1497 ;;		On entry : 0/0
  1498 ;;		On exit  : 0/0
  1499 ;;		Unchanged: 0/0
  1500 ;; Data sizes:     COMMON   BANK0   BANK1   BANK2   BANK3   BANK4   BANK5   BANK6
  1501 ;;      Params:         0       0       0       0       0       0       0       0
  1502 ;;      Locals:         0       0       0       0       0       0       0       0
  1503 ;;      Temps:          0       0       0       0       0       0       0       0
  1504 ;;      Totals:         0       0       0       0       0       0       0       0
  1505 ;;Total ram usage:        0 bytes
  1506 ;; Hardware stack levels used: 1
  1507 ;; Hardware stack levels required when called: 1
  1508 ;; This function calls:
  1509 ;;		_pulse_gen_1
  1510 ;; This function is called by:
  1511 ;;		_main
  1512 ;; This function uses a non-reentrant model
  1513 ;;
  1514                           
  1515  0EDB                     _state_0_C4:	
  1516                           ;psect for function _state_0_C4
  1517                           
  1518  0EDB                     l1729:	
  1519                           ;incstack = 0
  1520                           ; Regs used in _state_0_C4: [wreg+status,2+status,0+pclath+cstack]
  1521                           
  1522                           
  1523                           ;countdown.c: 187:     LATCbits.LATC4 = 1; pulse_gen_1(1);
  1524  0EDB  0022               	movlb	2	; select bank2
  1525  0EDC  160E               	bsf	14,4	;volatile
  1526  0EDD                     l1731:
  1527  0EDD  3001               	movlw	1
  1528  0EDE  00F0               	movwf	pulse_gen_1@n_1
  1529  0EDF  3000               	movlw	0
  1530  0EE0  00F1               	movwf	pulse_gen_1@n_1+1
  1531  0EE1  3180  2010  318E   	fcall	_pulse_gen_1
  1532  0EE4                     l1733:
  1533                           
  1534                           ;countdown.c: 188:     LATCbits.LATC4 = 0; pulse_gen_1(6); return;
  1535  0EE4  0022               	movlb	2	; select bank2
  1536  0EE5  120E               	bcf	14,4	;volatile
  1537  0EE6  3006               	movlw	6
  1538  0EE7  00F0               	movwf	pulse_gen_1@n_1
  1539  0EE8  3000               	movlw	0
  1540  0EE9  00F1               	movwf	pulse_gen_1@n_1+1
  1541  0EEA  3180  2010  318E   	fcall	_pulse_gen_1
  1542  0EED                     l62:
  1543  0EED  0008               	return
  1544  0EEE                     __end_of_state_0_C4:
  1545                           
  1546                           	psect	text11
  1547  0010                     __ptext11:	
  1548 ;; *************** function _pulse_gen_1 *****************
  1549 ;; Defined at:
  1550 ;;		line 171 in file "countdown.c"
  1551 ;; Parameters:    Size  Location     Type
  1552 ;;  n_1             2    0[COMMON] int 
  1553 ;; Auto vars:     Size  Location     Type
  1554 ;;  i_1             2    5[COMMON] int 
  1555 ;; Return value:  Size  Location     Type
  1556 ;;                  1    wreg      void 
  1557 ;; Registers used:
  1558 ;;		wreg, status,2, status,0
  1559 ;; Tracked objects:
  1560 ;;		On entry : 0/0
  1561 ;;		On exit  : 0/0
  1562 ;;		Unchanged: 0/0
  1563 ;; Data sizes:     COMMON   BANK0   BANK1   BANK2   BANK3   BANK4   BANK5   BANK6
  1564 ;;      Params:         2       0       0       0       0       0       0       0
  1565 ;;      Locals:         2       0       0       0       0       0       0       0
  1566 ;;      Temps:          3       0       0       0       0       0       0       0
  1567 ;;      Totals:         7       0       0       0       0       0       0       0
  1568 ;;Total ram usage:        7 bytes
  1569 ;; Hardware stack levels used: 1
  1570 ;; This function calls:
  1571 ;;		Nothing
  1572 ;; This function is called by:
  1573 ;;		_state_0_C4
  1574 ;;		_state_1_C4
  1575 ;;		_state_2_C4
  1576 ;;		_state_3_C4
  1577 ;;		_state_4_C4
  1578 ;;		_state_5_C4
  1579 ;;		_state_6_C4
  1580 ;;		_state_7_C4
  1581 ;;		_state_8_C4
  1582 ;;		_state_9_C4
  1583 ;;		_main
  1584 ;; This function uses a non-reentrant model
  1585 ;;
  1586                           
  1587  0010                     _pulse_gen_1:	
  1588                           ;psect for function _pulse_gen_1
  1589                           
  1590  0010                     l1419:	
  1591                           ;incstack = 0
  1592                           ; Regs used in _pulse_gen_1: [wreg+status,2+status,0]
  1593                           
  1594                           
  1595                           ;countdown.c: 172:     for(int i_1=0;i_1<=(n_1-1);i_1++){
  1596  0010  01F5               	clrf	pulse_gen_1@i_1
  1597  0011  01F6               	clrf	pulse_gen_1@i_1+1
  1598  0012  281A               	goto	l1423
  1599  0013                     l54:
  1600                           
  1601                           ;countdown.c: 173:         LATCbits.LATC3 = 0;
  1602  0013  0022               	movlb	2	; select bank2
  1603  0014  118E               	bcf	14,3	;volatile
  1604                           
  1605                           ;countdown.c: 174:         LATCbits.LATC3 = 1;
  1606  0015  158E               	bsf	14,3	;volatile
  1607  0016                     l1421:
  1608                           
  1609                           ;countdown.c: 175:     }
  1610  0016  3001               	movlw	1
  1611  0017  07F5               	addwf	pulse_gen_1@i_1,f
  1612  0018  3000               	movlw	0
  1613  0019  3DF6               	addwfc	pulse_gen_1@i_1+1,f
  1614  001A                     l1423:
  1615  001A  0870               	movf	pulse_gen_1@n_1,w
  1616  001B  3EFF               	addlw	255
  1617  001C  00F2               	movwf	??_pulse_gen_1
  1618  001D  30FF               	movlw	255
  1619  001E  3D71               	addwfc	pulse_gen_1@n_1+1,w
  1620  001F  00F3               	movwf	??_pulse_gen_1+1
  1621  0020  0873               	movf	??_pulse_gen_1+1,w
  1622  0021  3A80               	xorlw	128
  1623  0022  00F4               	movwf	??_pulse_gen_1+2
  1624  0023  0876               	movf	pulse_gen_1@i_1+1,w
  1625  0024  3A80               	xorlw	128
  1626  0025  0274               	subwf	??_pulse_gen_1+2,w
  1627  0026  1D03               	skipz
  1628  0027  282A               	goto	u45
  1629  0028  0875               	movf	pulse_gen_1@i_1,w
  1630  0029  0272               	subwf	??_pulse_gen_1,w
  1631  002A                     u45:
  1632  002A  1803               	skipnc
  1633  002B  282D               	goto	u41
  1634  002C  282E               	goto	u40
  1635  002D                     u41:
  1636  002D  2813               	goto	l54
  1637  002E                     u40:
  1638  002E                     l56:
  1639  002E  0008               	return
  1640  002F                     __end_of_pulse_gen_1:
  1641                           
  1642                           	psect	text12
  1643  025C                     __ptext12:	
  1644 ;; *************** function _second_counting *****************
  1645 ;; Defined at:
  1646 ;;		line 100 in file "countdown.c"
  1647 ;; Parameters:    Size  Location     Type
  1648 ;;		None
  1649 ;; Auto vars:     Size  Location     Type
  1650 ;;		None
  1651 ;; Return value:  Size  Location     Type
  1652 ;;                  1    wreg      void 
  1653 ;; Registers used:
  1654 ;;		wreg, status,2, status,0, pclath, cstack
  1655 ;; Tracked objects:
  1656 ;;		On entry : 0/0
  1657 ;;		On exit  : 0/0
  1658 ;;		Unchanged: 0/0
  1659 ;; Data sizes:     COMMON   BANK0   BANK1   BANK2   BANK3   BANK4   BANK5   BANK6
  1660 ;;      Params:         0       0       0       0       0       0       0       0
  1661 ;;      Locals:         0       0       0       0       0       0       0       0
  1662 ;;      Temps:          1       0       0       0       0       0       0       0
  1663 ;;      Totals:         1       0       0       0       0       0       0       0
  1664 ;;Total ram usage:        1 bytes
  1665 ;; Hardware stack levels used: 1
  1666 ;; Hardware stack levels required when called: 2
  1667 ;; This function calls:
  1668 ;;		_latch_gen
  1669 ;;		_pulse_gen
  1670 ;;		_state_0_C1
  1671 ;;		_state_1_C1
  1672 ;;		_state_2_C1
  1673 ;;		_state_3_C1
  1674 ;;		_state_4_C1
  1675 ;;		_state_5_C1
  1676 ;;		_state_6_C1
  1677 ;;		_state_7_C1
  1678 ;;		_state_8_C1
  1679 ;;		_state_9_C1
  1680 ;; This function is called by:
  1681 ;;		_main
  1682 ;; This function uses a non-reentrant model
  1683 ;;
  1684                           
  1685  025C                     _second_counting:	
  1686                           ;psect for function _second_counting
  1687                           
  1688  025C                     l1425:	
  1689                           ;incstack = 0
  1690                           ; Regs used in _second_counting: [wreg+status,2+status,0+pclath+cstack]
  1691                           
  1692                           
  1693                           ;countdown.c: 102:     state_5_C1(); pulse_gen(1); state_9_C1(); latch_gen();_delay((uns
      +                          igned long)((200)*(1000000/4000.0)));
  1694  025C  3180  20A7  3182   	fcall	_state_5_C1
  1695  025F  3001               	movlw	1
  1696  0260  00F0               	movwf	pulse_gen@n
  1697  0261  3000               	movlw	0
  1698  0262  00F1               	movwf	pulse_gen@n+1
  1699  0263  318F  27E1  3182   	fcall	_pulse_gen
  1700  0266  318F  2755  3182   	fcall	_state_9_C1
  1701  0269                     l1427:
  1702  0269  318E  26A7  3182   	fcall	_latch_gen
  1703  026C  3041               	movlw	65
  1704  026D  00F7               	movwf	??_second_counting
  1705  026E  30EE               	movlw	238
  1706  026F                     u57:
  1707  026F  0B89               	decfsz	9,f
  1708  0270  2A6F               	goto	u57
  1709  0271  0BF7               	decfsz	??_second_counting,f
  1710  0272  2A6F               	goto	u57
  1711  0273  3200               	nop2
  1712  0274                     l1429:
  1713                           
  1714                           ;countdown.c: 103:     state_5_C1(); pulse_gen(1); state_8_C1(); latch_gen();_delay((uns
      +                          igned long)((200)*(1000000/4000.0)));
  1715  0274  3180  20A7  3182   	fcall	_state_5_C1
  1716  0277                     l1431:
  1717  0277  3001               	movlw	1
  1718  0278  00F0               	movwf	pulse_gen@n
  1719  0279  3000               	movlw	0
  1720  027A  00F1               	movwf	pulse_gen@n+1
  1721  027B  318F  27E1  3182   	fcall	_pulse_gen
  1722  027E                     l1433:
  1723  027E  318E  26AB  3182   	fcall	_state_8_C1
  1724  0281  318E  26A7  3182   	fcall	_latch_gen
  1725  0284                     l1435:
  1726  0284  3041               	movlw	65
  1727  0285  00F7               	movwf	??_second_counting
  1728  0286  30EE               	movlw	238
  1729  0287                     u67:
  1730  0287  0B89               	decfsz	9,f
  1731  0288  2A87               	goto	u67
  1732  0289  0BF7               	decfsz	??_second_counting,f
  1733  028A  2A87               	goto	u67
  1734  028B  3200               	nop2
  1735                           
  1736                           ;countdown.c: 104:     state_5_C1(); pulse_gen(1); state_7_C1(); latch_gen();_delay((uns
      +                          igned long)((200)*(1000000/4000.0)));
  1737  028C  3180  20A7  3182   	fcall	_state_5_C1
  1738  028F  3001               	movlw	1
  1739  0290  00F0               	movwf	pulse_gen@n
  1740  0291  3000               	movlw	0
  1741  0292  00F1               	movwf	pulse_gen@n+1
  1742  0293  318F  27E1  3182   	fcall	_pulse_gen
  1743  0296  318E  26C8  3182   	fcall	_state_7_C1
  1744  0299                     l1437:
  1745  0299  318E  26A7  3182   	fcall	_latch_gen
  1746  029C  3041               	movlw	65
  1747  029D  00F7               	movwf	??_second_counting
  1748  029E  30EE               	movlw	238
  1749  029F                     u77:
  1750  029F  0B89               	decfsz	9,f
  1751  02A0  2A9F               	goto	u77
  1752  02A1  0BF7               	decfsz	??_second_counting,f
  1753  02A2  2A9F               	goto	u77
  1754  02A3  3200               	nop2
  1755  02A4                     l1439:
  1756                           
  1757                           ;countdown.c: 105:     state_5_C1(); pulse_gen(1); state_6_C1(); latch_gen();_delay((uns
      +                          igned long)((200)*(1000000/4000.0)));
  1758  02A4  3180  20A7  3182   	fcall	_state_5_C1
  1759  02A7                     l1441:
  1760  02A7  3001               	movlw	1
  1761  02A8  00F0               	movwf	pulse_gen@n
  1762  02A9  3000               	movlw	0
  1763  02AA  00F1               	movwf	pulse_gen@n+1
  1764  02AB  318F  27E1  3182   	fcall	_pulse_gen
  1765  02AE                     l1443:
  1766  02AE  318F  2739  3182   	fcall	_state_6_C1
  1767  02B1  318E  26A7  3182   	fcall	_latch_gen
  1768  02B4                     l1445:
  1769  02B4  3041               	movlw	65
  1770  02B5  00F7               	movwf	??_second_counting
  1771  02B6  30EE               	movlw	238
  1772  02B7                     u87:
  1773  02B7  0B89               	decfsz	9,f
  1774  02B8  2AB7               	goto	u87
  1775  02B9  0BF7               	decfsz	??_second_counting,f
  1776  02BA  2AB7               	goto	u87
  1777  02BB  3200               	nop2
  1778                           
  1779                           ;countdown.c: 106:     state_5_C1(); pulse_gen(1); state_5_C1(); latch_gen();_delay((uns
      +                          igned long)((200)*(1000000/4000.0)));
  1780  02BC  3180  20A7  3182   	fcall	_state_5_C1
  1781  02BF  3001               	movlw	1
  1782  02C0  00F0               	movwf	pulse_gen@n
  1783  02C1  3000               	movlw	0
  1784  02C2  00F1               	movwf	pulse_gen@n+1
  1785  02C3  318F  27E1  3182   	fcall	_pulse_gen
  1786  02C6  3180  20A7  3182   	fcall	_state_5_C1
  1787  02C9                     l1447:
  1788  02C9  318E  26A7  3182   	fcall	_latch_gen
  1789  02CC  3041               	movlw	65
  1790  02CD  00F7               	movwf	??_second_counting
  1791  02CE  30EE               	movlw	238
  1792  02CF                     u97:
  1793  02CF  0B89               	decfsz	9,f
  1794  02D0  2ACF               	goto	u97
  1795  02D1  0BF7               	decfsz	??_second_counting,f
  1796  02D2  2ACF               	goto	u97
  1797  02D3  3200               	nop2
  1798  02D4                     l1449:
  1799                           
  1800                           ;countdown.c: 107:     state_5_C1(); pulse_gen(1); state_4_C1(); latch_gen();_delay((uns
      +                          igned long)((200)*(1000000/4000.0)));
  1801  02D4  3180  20A7  3182   	fcall	_state_5_C1
  1802  02D7                     l1451:
  1803  02D7  3001               	movlw	1
  1804  02D8  00F0               	movwf	pulse_gen@n
  1805  02D9  3000               	movlw	0
  1806  02DA  00F1               	movwf	pulse_gen@n+1
  1807  02DB  318F  27E1  3182   	fcall	_pulse_gen
  1808  02DE                     l1453:
  1809  02DE  3180  202F  3182   	fcall	_state_4_C1
  1810  02E1  318E  26A7  3182   	fcall	_latch_gen
  1811  02E4                     l1455:
  1812  02E4  3041               	movlw	65
  1813  02E5  00F7               	movwf	??_second_counting
  1814  02E6  30EE               	movlw	238
  1815  02E7                     u107:
  1816  02E7  0B89               	decfsz	9,f
  1817  02E8  2AE7               	goto	u107
  1818  02E9  0BF7               	decfsz	??_second_counting,f
  1819  02EA  2AE7               	goto	u107
  1820  02EB  3200               	nop2
  1821                           
  1822                           ;countdown.c: 108:     state_5_C1(); pulse_gen(1); state_3_C1(); latch_gen();_delay((uns
      +                          igned long)((200)*(1000000/4000.0)));
  1823  02EC  3180  20A7  3182   	fcall	_state_5_C1
  1824  02EF  3001               	movlw	1
  1825  02F0  00F0               	movwf	pulse_gen@n
  1826  02F1  3000               	movlw	0
  1827  02F2  00F1               	movwf	pulse_gen@n+1
  1828  02F3  318F  27E1  3182   	fcall	_pulse_gen
  1829  02F6  318F  271D  3182   	fcall	_state_3_C1
  1830  02F9                     l1457:
  1831  02F9  318E  26A7  3182   	fcall	_latch_gen
  1832  02FC  3041               	movlw	65
  1833  02FD  00F7               	movwf	??_second_counting
  1834  02FE  30EE               	movlw	238
  1835  02FF                     u117:
  1836  02FF  0B89               	decfsz	9,f
  1837  0300  2AFF               	goto	u117
  1838  0301  0BF7               	decfsz	??_second_counting,f
  1839  0302  2AFF               	goto	u117
  1840  0303  3200               	nop2
  1841  0304                     l1459:
  1842                           
  1843                           ;countdown.c: 109:     state_5_C1(); pulse_gen(1); state_2_C1(); latch_gen();_delay((uns
      +                          igned long)((200)*(1000000/4000.0)));
  1844  0304  3180  20A7  3182   	fcall	_state_5_C1
  1845  0307                     l1461:
  1846  0307  3001               	movlw	1
  1847  0308  00F0               	movwf	pulse_gen@n
  1848  0309  3000               	movlw	0
  1849  030A  00F1               	movwf	pulse_gen@n+1
  1850  030B  318F  27E1  3182   	fcall	_pulse_gen
  1851  030E                     l1463:
  1852  030E  3180  2079  3182   	fcall	_state_2_C1
  1853  0311  318E  26A7  3182   	fcall	_latch_gen
  1854  0314                     l1465:
  1855  0314  3041               	movlw	65
  1856  0315  00F7               	movwf	??_second_counting
  1857  0316  30EE               	movlw	238
  1858  0317                     u127:
  1859  0317  0B89               	decfsz	9,f
  1860  0318  2B17               	goto	u127
  1861  0319  0BF7               	decfsz	??_second_counting,f
  1862  031A  2B17               	goto	u127
  1863  031B  3200               	nop2
  1864                           
  1865                           ;countdown.c: 110:     state_5_C1(); pulse_gen(1); state_1_C1(); latch_gen();_delay((uns
      +                          igned long)((200)*(1000000/4000.0)));
  1866  031C  3180  20A7  3182   	fcall	_state_5_C1
  1867  031F  3001               	movlw	1
  1868  0320  00F0               	movwf	pulse_gen@n
  1869  0321  3000               	movlw	0
  1870  0322  00F1               	movwf	pulse_gen@n+1
  1871  0323  318F  27E1  3182   	fcall	_pulse_gen
  1872  0326  318F  2701  3182   	fcall	_state_1_C1
  1873  0329                     l1467:
  1874  0329  318E  26A7  3182   	fcall	_latch_gen
  1875  032C  3041               	movlw	65
  1876  032D  00F7               	movwf	??_second_counting
  1877  032E  30EE               	movlw	238
  1878  032F                     u137:
  1879  032F  0B89               	decfsz	9,f
  1880  0330  2B2F               	goto	u137
  1881  0331  0BF7               	decfsz	??_second_counting,f
  1882  0332  2B2F               	goto	u137
  1883  0333  3200               	nop2
  1884  0334                     l1469:
  1885                           
  1886                           ;countdown.c: 111:     state_5_C1(); pulse_gen(1); state_0_C1(); latch_gen();_delay((uns
      +                          igned long)((200)*(1000000/4000.0)));
  1887  0334  3180  20A7  3182   	fcall	_state_5_C1
  1888  0337                     l1471:
  1889  0337  3001               	movlw	1
  1890  0338  00F0               	movwf	pulse_gen@n
  1891  0339  3000               	movlw	0
  1892  033A  00F1               	movwf	pulse_gen@n+1
  1893  033B  318F  27E1  3182   	fcall	_pulse_gen
  1894  033E                     l1473:
  1895  033E  318E  26B5  3182   	fcall	_state_0_C1
  1896  0341  318E  26A7  3182   	fcall	_latch_gen
  1897  0344                     l1475:
  1898  0344  3041               	movlw	65
  1899  0345  00F7               	movwf	??_second_counting
  1900  0346  30EE               	movlw	238
  1901  0347                     u147:
  1902  0347  0B89               	decfsz	9,f
  1903  0348  2B47               	goto	u147
  1904  0349  0BF7               	decfsz	??_second_counting,f
  1905  034A  2B47               	goto	u147
  1906  034B  3200               	nop2
  1907                           
  1908                           ;countdown.c: 113:     state_4_C1(); pulse_gen(1); state_9_C1(); latch_gen();_delay((uns
      +                          igned long)((200)*(1000000/4000.0)));
  1909  034C  3180  202F  3182   	fcall	_state_4_C1
  1910  034F  3001               	movlw	1
  1911  0350  00F0               	movwf	pulse_gen@n
  1912  0351  3000               	movlw	0
  1913  0352  00F1               	movwf	pulse_gen@n+1
  1914  0353  318F  27E1  3182   	fcall	_pulse_gen
  1915  0356  318F  2755  3182   	fcall	_state_9_C1
  1916  0359                     l1477:
  1917  0359  318E  26A7  3182   	fcall	_latch_gen
  1918  035C  3041               	movlw	65
  1919  035D  00F7               	movwf	??_second_counting
  1920  035E  30EE               	movlw	238
  1921  035F                     u157:
  1922  035F  0B89               	decfsz	9,f
  1923  0360  2B5F               	goto	u157
  1924  0361  0BF7               	decfsz	??_second_counting,f
  1925  0362  2B5F               	goto	u157
  1926  0363  3200               	nop2
  1927  0364                     l1479:
  1928                           
  1929                           ;countdown.c: 114:     state_4_C1(); pulse_gen(1); state_8_C1(); latch_gen();_delay((uns
      +                          igned long)((200)*(1000000/4000.0)));
  1930  0364  3180  202F  3182   	fcall	_state_4_C1
  1931  0367                     l1481:
  1932  0367  3001               	movlw	1
  1933  0368  00F0               	movwf	pulse_gen@n
  1934  0369  3000               	movlw	0
  1935  036A  00F1               	movwf	pulse_gen@n+1
  1936  036B  318F  27E1  3182   	fcall	_pulse_gen
  1937  036E                     l1483:
  1938  036E  318E  26AB  3182   	fcall	_state_8_C1
  1939  0371  318E  26A7  3182   	fcall	_latch_gen
  1940  0374                     l1485:
  1941  0374  3041               	movlw	65
  1942  0375  00F7               	movwf	??_second_counting
  1943  0376  30EE               	movlw	238
  1944  0377                     u167:
  1945  0377  0B89               	decfsz	9,f
  1946  0378  2B77               	goto	u167
  1947  0379  0BF7               	decfsz	??_second_counting,f
  1948  037A  2B77               	goto	u167
  1949  037B  3200               	nop2
  1950                           
  1951                           ;countdown.c: 115:     state_4_C1(); pulse_gen(1); state_7_C1(); latch_gen();_delay((uns
      +                          igned long)((200)*(1000000/4000.0)));
  1952  037C  3180  202F  3182   	fcall	_state_4_C1
  1953  037F  3001               	movlw	1
  1954  0380  00F0               	movwf	pulse_gen@n
  1955  0381  3000               	movlw	0
  1956  0382  00F1               	movwf	pulse_gen@n+1
  1957  0383  318F  27E1  3182   	fcall	_pulse_gen
  1958  0386  318E  26C8  3182   	fcall	_state_7_C1
  1959  0389                     l1487:
  1960  0389  318E  26A7  3182   	fcall	_latch_gen
  1961  038C  3041               	movlw	65
  1962  038D  00F7               	movwf	??_second_counting
  1963  038E  30EE               	movlw	238
  1964  038F                     u177:
  1965  038F  0B89               	decfsz	9,f
  1966  0390  2B8F               	goto	u177
  1967  0391  0BF7               	decfsz	??_second_counting,f
  1968  0392  2B8F               	goto	u177
  1969  0393  3200               	nop2
  1970  0394                     l1489:
  1971                           
  1972                           ;countdown.c: 116:     state_4_C1(); pulse_gen(1); state_6_C1(); latch_gen();_delay((uns
      +                          igned long)((200)*(1000000/4000.0)));
  1973  0394  3180  202F  3182   	fcall	_state_4_C1
  1974  0397                     l1491:
  1975  0397  3001               	movlw	1
  1976  0398  00F0               	movwf	pulse_gen@n
  1977  0399  3000               	movlw	0
  1978  039A  00F1               	movwf	pulse_gen@n+1
  1979  039B  318F  27E1  3182   	fcall	_pulse_gen
  1980  039E                     l1493:
  1981  039E  318F  2739  3182   	fcall	_state_6_C1
  1982  03A1  318E  26A7  3182   	fcall	_latch_gen
  1983  03A4                     l1495:
  1984  03A4  3041               	movlw	65
  1985  03A5  00F7               	movwf	??_second_counting
  1986  03A6  30EE               	movlw	238
  1987  03A7                     u187:
  1988  03A7  0B89               	decfsz	9,f
  1989  03A8  2BA7               	goto	u187
  1990  03A9  0BF7               	decfsz	??_second_counting,f
  1991  03AA  2BA7               	goto	u187
  1992  03AB  3200               	nop2
  1993                           
  1994                           ;countdown.c: 117:     state_4_C1(); pulse_gen(1); state_5_C1(); latch_gen();_delay((uns
      +                          igned long)((200)*(1000000/4000.0)));
  1995  03AC  3180  202F  3182   	fcall	_state_4_C1
  1996  03AF  3001               	movlw	1
  1997  03B0  00F0               	movwf	pulse_gen@n
  1998  03B1  3000               	movlw	0
  1999  03B2  00F1               	movwf	pulse_gen@n+1
  2000  03B3  318F  27E1  3182   	fcall	_pulse_gen
  2001  03B6  3180  20A7  3182   	fcall	_state_5_C1
  2002  03B9                     l1497:
  2003  03B9  318E  26A7  3182   	fcall	_latch_gen
  2004  03BC  3041               	movlw	65
  2005  03BD  00F7               	movwf	??_second_counting
  2006  03BE  30EE               	movlw	238
  2007  03BF                     u197:
  2008  03BF  0B89               	decfsz	9,f
  2009  03C0  2BBF               	goto	u197
  2010  03C1  0BF7               	decfsz	??_second_counting,f
  2011  03C2  2BBF               	goto	u197
  2012  03C3  3200               	nop2
  2013  03C4                     l1499:
  2014                           
  2015                           ;countdown.c: 118:     state_4_C1(); pulse_gen(1); state_4_C1(); latch_gen();_delay((uns
      +                          igned long)((200)*(1000000/4000.0)));
  2016  03C4  3180  202F  3182   	fcall	_state_4_C1
  2017  03C7                     l1501:
  2018  03C7  3001               	movlw	1
  2019  03C8  00F0               	movwf	pulse_gen@n
  2020  03C9  3000               	movlw	0
  2021  03CA  00F1               	movwf	pulse_gen@n+1
  2022  03CB  318F  27E1  3182   	fcall	_pulse_gen
  2023  03CE                     l1503:
  2024  03CE  3180  202F  3182   	fcall	_state_4_C1
  2025  03D1  318E  26A7  3182   	fcall	_latch_gen
  2026  03D4                     l1505:
  2027  03D4  3041               	movlw	65
  2028  03D5  00F7               	movwf	??_second_counting
  2029  03D6  30EE               	movlw	238
  2030  03D7                     u207:
  2031  03D7  0B89               	decfsz	9,f
  2032  03D8  2BD7               	goto	u207
  2033  03D9  0BF7               	decfsz	??_second_counting,f
  2034  03DA  2BD7               	goto	u207
  2035  03DB  3200               	nop2
  2036                           
  2037                           ;countdown.c: 119:     state_4_C1(); pulse_gen(1); state_3_C1(); latch_gen();_delay((uns
      +                          igned long)((200)*(1000000/4000.0)));
  2038  03DC  3180  202F  3182   	fcall	_state_4_C1
  2039  03DF  3001               	movlw	1
  2040  03E0  00F0               	movwf	pulse_gen@n
  2041  03E1  3000               	movlw	0
  2042  03E2  00F1               	movwf	pulse_gen@n+1
  2043  03E3  318F  27E1  3182   	fcall	_pulse_gen
  2044  03E6  318F  271D  3182   	fcall	_state_3_C1
  2045  03E9                     l1507:
  2046  03E9  318E  26A7  3182   	fcall	_latch_gen
  2047  03EC  3041               	movlw	65
  2048  03ED  00F7               	movwf	??_second_counting
  2049  03EE  30EE               	movlw	238
  2050  03EF                     u217:
  2051  03EF  0B89               	decfsz	9,f
  2052  03F0  2BEF               	goto	u217
  2053  03F1  0BF7               	decfsz	??_second_counting,f
  2054  03F2  2BEF               	goto	u217
  2055  03F3  3200               	nop2
  2056  03F4                     l1509:
  2057                           
  2058                           ;countdown.c: 120:     state_4_C1(); pulse_gen(1); state_2_C1(); latch_gen();_delay((uns
      +                          igned long)((200)*(1000000/4000.0)));
  2059  03F4  3180  202F  3182   	fcall	_state_4_C1
  2060  03F7                     l1511:
  2061  03F7  3001               	movlw	1
  2062  03F8  00F0               	movwf	pulse_gen@n
  2063  03F9  3000               	movlw	0
  2064  03FA  00F1               	movwf	pulse_gen@n+1
  2065  03FB  318F  27E1  3182   	fcall	_pulse_gen
  2066  03FE                     l1513:
  2067  03FE  3180  2079  3182   	fcall	_state_2_C1
  2068  0401  318E  26A7  3182   	fcall	_latch_gen
  2069  0404                     l1515:
  2070  0404  3041               	movlw	65
  2071  0405  00F7               	movwf	??_second_counting
  2072  0406  30EE               	movlw	238
  2073  0407                     u227:
  2074  0407  0B89               	decfsz	9,f
  2075  0408  2C07               	goto	u227
  2076  0409  0BF7               	decfsz	??_second_counting,f
  2077  040A  2C07               	goto	u227
  2078  040B  3200               	nop2
  2079                           
  2080                           ;countdown.c: 121:     state_4_C1(); pulse_gen(1); state_1_C1(); latch_gen();_delay((uns
      +                          igned long)((200)*(1000000/4000.0)));
  2081  040C  3180  202F  3182   	fcall	_state_4_C1
  2082  040F  3001               	movlw	1
  2083  0410  00F0               	movwf	pulse_gen@n
  2084  0411  3000               	movlw	0
  2085  0412  00F1               	movwf	pulse_gen@n+1
  2086  0413  318F  27E1  3182   	fcall	_pulse_gen
  2087  0416  318F  2701  3182   	fcall	_state_1_C1
  2088  0419                     l1517:
  2089  0419  318E  26A7  3182   	fcall	_latch_gen
  2090  041C  3041               	movlw	65
  2091  041D  00F7               	movwf	??_second_counting
  2092  041E  30EE               	movlw	238
  2093  041F                     u237:
  2094  041F  0B89               	decfsz	9,f
  2095  0420  2C1F               	goto	u237
  2096  0421  0BF7               	decfsz	??_second_counting,f
  2097  0422  2C1F               	goto	u237
  2098  0423  3200               	nop2
  2099  0424                     l1519:
  2100                           
  2101                           ;countdown.c: 122:     state_4_C1(); pulse_gen(1); state_0_C1(); latch_gen();_delay((uns
      +                          igned long)((200)*(1000000/4000.0)));
  2102  0424  3180  202F  3182   	fcall	_state_4_C1
  2103  0427                     l1521:
  2104  0427  3001               	movlw	1
  2105  0428  00F0               	movwf	pulse_gen@n
  2106  0429  3000               	movlw	0
  2107  042A  00F1               	movwf	pulse_gen@n+1
  2108  042B  318F  27E1  3182   	fcall	_pulse_gen
  2109  042E                     l1523:
  2110  042E  318E  26B5  3182   	fcall	_state_0_C1
  2111  0431  318E  26A7  3182   	fcall	_latch_gen
  2112  0434                     l1525:
  2113  0434  3041               	movlw	65
  2114  0435  00F7               	movwf	??_second_counting
  2115  0436  30EE               	movlw	238
  2116  0437                     u247:
  2117  0437  0B89               	decfsz	9,f
  2118  0438  2C37               	goto	u247
  2119  0439  0BF7               	decfsz	??_second_counting,f
  2120  043A  2C37               	goto	u247
  2121  043B  3200               	nop2
  2122                           
  2123                           ;countdown.c: 124:     state_3_C1(); pulse_gen(1); state_9_C1(); latch_gen();_delay((uns
      +                          igned long)((200)*(1000000/4000.0)));
  2124  043C  318F  271D  3182   	fcall	_state_3_C1
  2125  043F  3001               	movlw	1
  2126  0440  00F0               	movwf	pulse_gen@n
  2127  0441  3000               	movlw	0
  2128  0442  00F1               	movwf	pulse_gen@n+1
  2129  0443  318F  27E1  3182   	fcall	_pulse_gen
  2130  0446  318F  2755  3182   	fcall	_state_9_C1
  2131  0449                     l1527:
  2132  0449  318E  26A7  3182   	fcall	_latch_gen
  2133  044C  3041               	movlw	65
  2134  044D  00F7               	movwf	??_second_counting
  2135  044E  30EE               	movlw	238
  2136  044F                     u257:
  2137  044F  0B89               	decfsz	9,f
  2138  0450  2C4F               	goto	u257
  2139  0451  0BF7               	decfsz	??_second_counting,f
  2140  0452  2C4F               	goto	u257
  2141  0453  3200               	nop2
  2142  0454                     l1529:
  2143                           
  2144                           ;countdown.c: 125:     state_3_C1(); pulse_gen(1); state_8_C1(); latch_gen();_delay((uns
      +                          igned long)((200)*(1000000/4000.0)));
  2145  0454  318F  271D  3182   	fcall	_state_3_C1
  2146  0457                     l1531:
  2147  0457  3001               	movlw	1
  2148  0458  00F0               	movwf	pulse_gen@n
  2149  0459  3000               	movlw	0
  2150  045A  00F1               	movwf	pulse_gen@n+1
  2151  045B  318F  27E1  3182   	fcall	_pulse_gen
  2152  045E                     l1533:
  2153  045E  318E  26AB  3182   	fcall	_state_8_C1
  2154  0461  318E  26A7  3182   	fcall	_latch_gen
  2155  0464                     l1535:
  2156  0464  3041               	movlw	65
  2157  0465  00F7               	movwf	??_second_counting
  2158  0466  30EE               	movlw	238
  2159  0467                     u267:
  2160  0467  0B89               	decfsz	9,f
  2161  0468  2C67               	goto	u267
  2162  0469  0BF7               	decfsz	??_second_counting,f
  2163  046A  2C67               	goto	u267
  2164  046B  3200               	nop2
  2165                           
  2166                           ;countdown.c: 126:     state_3_C1(); pulse_gen(1); state_7_C1(); latch_gen();_delay((uns
      +                          igned long)((200)*(1000000/4000.0)));
  2167  046C  318F  271D  3182   	fcall	_state_3_C1
  2168  046F  3001               	movlw	1
  2169  0470  00F0               	movwf	pulse_gen@n
  2170  0471  3000               	movlw	0
  2171  0472  00F1               	movwf	pulse_gen@n+1
  2172  0473  318F  27E1  3182   	fcall	_pulse_gen
  2173  0476  318E  26C8  3182   	fcall	_state_7_C1
  2174  0479                     l1537:
  2175  0479  318E  26A7  3182   	fcall	_latch_gen
  2176  047C  3041               	movlw	65
  2177  047D  00F7               	movwf	??_second_counting
  2178  047E  30EE               	movlw	238
  2179  047F                     u277:
  2180  047F  0B89               	decfsz	9,f
  2181  0480  2C7F               	goto	u277
  2182  0481  0BF7               	decfsz	??_second_counting,f
  2183  0482  2C7F               	goto	u277
  2184  0483  3200               	nop2
  2185  0484                     l1539:
  2186                           
  2187                           ;countdown.c: 127:     state_3_C1(); pulse_gen(1); state_6_C1(); latch_gen();_delay((uns
      +                          igned long)((200)*(1000000/4000.0)));
  2188  0484  318F  271D  3182   	fcall	_state_3_C1
  2189  0487                     l1541:
  2190  0487  3001               	movlw	1
  2191  0488  00F0               	movwf	pulse_gen@n
  2192  0489  3000               	movlw	0
  2193  048A  00F1               	movwf	pulse_gen@n+1
  2194  048B  318F  27E1  3182   	fcall	_pulse_gen
  2195  048E                     l1543:
  2196  048E  318F  2739  3182   	fcall	_state_6_C1
  2197  0491  318E  26A7  3182   	fcall	_latch_gen
  2198  0494                     l1545:
  2199  0494  3041               	movlw	65
  2200  0495  00F7               	movwf	??_second_counting
  2201  0496  30EE               	movlw	238
  2202  0497                     u287:
  2203  0497  0B89               	decfsz	9,f
  2204  0498  2C97               	goto	u287
  2205  0499  0BF7               	decfsz	??_second_counting,f
  2206  049A  2C97               	goto	u287
  2207  049B  3200               	nop2
  2208                           
  2209                           ;countdown.c: 128:     state_3_C1(); pulse_gen(1); state_5_C1(); latch_gen();_delay((uns
      +                          igned long)((200)*(1000000/4000.0)));
  2210  049C  318F  271D  3182   	fcall	_state_3_C1
  2211  049F  3001               	movlw	1
  2212  04A0  00F0               	movwf	pulse_gen@n
  2213  04A1  3000               	movlw	0
  2214  04A2  00F1               	movwf	pulse_gen@n+1
  2215  04A3  318F  27E1  3182   	fcall	_pulse_gen
  2216  04A6  3180  20A7  3182   	fcall	_state_5_C1
  2217  04A9                     l1547:
  2218  04A9  318E  26A7  3182   	fcall	_latch_gen
  2219  04AC  3041               	movlw	65
  2220  04AD  00F7               	movwf	??_second_counting
  2221  04AE  30EE               	movlw	238
  2222  04AF                     u297:
  2223  04AF  0B89               	decfsz	9,f
  2224  04B0  2CAF               	goto	u297
  2225  04B1  0BF7               	decfsz	??_second_counting,f
  2226  04B2  2CAF               	goto	u297
  2227  04B3  3200               	nop2
  2228  04B4                     l1549:
  2229                           
  2230                           ;countdown.c: 129:     state_3_C1(); pulse_gen(1); state_4_C1(); latch_gen();_delay((uns
      +                          igned long)((200)*(1000000/4000.0)));
  2231  04B4  318F  271D  3182   	fcall	_state_3_C1
  2232  04B7                     l1551:
  2233  04B7  3001               	movlw	1
  2234  04B8  00F0               	movwf	pulse_gen@n
  2235  04B9  3000               	movlw	0
  2236  04BA  00F1               	movwf	pulse_gen@n+1
  2237  04BB  318F  27E1  3182   	fcall	_pulse_gen
  2238  04BE                     l1553:
  2239  04BE  3180  202F  3182   	fcall	_state_4_C1
  2240  04C1  318E  26A7  3182   	fcall	_latch_gen
  2241  04C4                     l1555:
  2242  04C4  3041               	movlw	65
  2243  04C5  00F7               	movwf	??_second_counting
  2244  04C6  30EE               	movlw	238
  2245  04C7                     u307:
  2246  04C7  0B89               	decfsz	9,f
  2247  04C8  2CC7               	goto	u307
  2248  04C9  0BF7               	decfsz	??_second_counting,f
  2249  04CA  2CC7               	goto	u307
  2250  04CB  3200               	nop2
  2251                           
  2252                           ;countdown.c: 130:     state_3_C1(); pulse_gen(1); state_3_C1(); latch_gen();_delay((uns
      +                          igned long)((200)*(1000000/4000.0)));
  2253  04CC  318F  271D  3182   	fcall	_state_3_C1
  2254  04CF  3001               	movlw	1
  2255  04D0  00F0               	movwf	pulse_gen@n
  2256  04D1  3000               	movlw	0
  2257  04D2  00F1               	movwf	pulse_gen@n+1
  2258  04D3  318F  27E1  3182   	fcall	_pulse_gen
  2259  04D6  318F  271D  3182   	fcall	_state_3_C1
  2260  04D9                     l1557:
  2261  04D9  318E  26A7  3182   	fcall	_latch_gen
  2262  04DC  3041               	movlw	65
  2263  04DD  00F7               	movwf	??_second_counting
  2264  04DE  30EE               	movlw	238
  2265  04DF                     u317:
  2266  04DF  0B89               	decfsz	9,f
  2267  04E0  2CDF               	goto	u317
  2268  04E1  0BF7               	decfsz	??_second_counting,f
  2269  04E2  2CDF               	goto	u317
  2270  04E3  3200               	nop2
  2271  04E4                     l1559:
  2272                           
  2273                           ;countdown.c: 131:     state_3_C1(); pulse_gen(1); state_2_C1(); latch_gen();_delay((uns
      +                          igned long)((200)*(1000000/4000.0)));
  2274  04E4  318F  271D  3182   	fcall	_state_3_C1
  2275  04E7                     l1561:
  2276  04E7  3001               	movlw	1
  2277  04E8  00F0               	movwf	pulse_gen@n
  2278  04E9  3000               	movlw	0
  2279  04EA  00F1               	movwf	pulse_gen@n+1
  2280  04EB  318F  27E1  3182   	fcall	_pulse_gen
  2281  04EE                     l1563:
  2282  04EE  3180  2079  3182   	fcall	_state_2_C1
  2283  04F1  318E  26A7  3182   	fcall	_latch_gen
  2284  04F4                     l1565:
  2285  04F4  3041               	movlw	65
  2286  04F5  00F7               	movwf	??_second_counting
  2287  04F6  30EE               	movlw	238
  2288  04F7                     u327:
  2289  04F7  0B89               	decfsz	9,f
  2290  04F8  2CF7               	goto	u327
  2291  04F9  0BF7               	decfsz	??_second_counting,f
  2292  04FA  2CF7               	goto	u327
  2293  04FB  3200               	nop2
  2294                           
  2295                           ;countdown.c: 132:     state_3_C1(); pulse_gen(1); state_1_C1(); latch_gen();_delay((uns
      +                          igned long)((200)*(1000000/4000.0)));
  2296  04FC  318F  271D  3182   	fcall	_state_3_C1
  2297  04FF  3001               	movlw	1
  2298  0500  00F0               	movwf	pulse_gen@n
  2299  0501  3000               	movlw	0
  2300  0502  00F1               	movwf	pulse_gen@n+1
  2301  0503  318F  27E1  3182   	fcall	_pulse_gen
  2302  0506  318F  2701  3182   	fcall	_state_1_C1
  2303  0509                     l1567:
  2304  0509  318E  26A7  3182   	fcall	_latch_gen
  2305  050C  3041               	movlw	65
  2306  050D  00F7               	movwf	??_second_counting
  2307  050E  30EE               	movlw	238
  2308  050F                     u337:
  2309  050F  0B89               	decfsz	9,f
  2310  0510  2D0F               	goto	u337
  2311  0511  0BF7               	decfsz	??_second_counting,f
  2312  0512  2D0F               	goto	u337
  2313  0513  3200               	nop2
  2314  0514                     l1569:
  2315                           
  2316                           ;countdown.c: 133:     state_3_C1(); pulse_gen(1); state_0_C1(); latch_gen();_delay((uns
      +                          igned long)((200)*(1000000/4000.0)));
  2317  0514  318F  271D  3182   	fcall	_state_3_C1
  2318  0517                     l1571:
  2319  0517  3001               	movlw	1
  2320  0518  00F0               	movwf	pulse_gen@n
  2321  0519  3000               	movlw	0
  2322  051A  00F1               	movwf	pulse_gen@n+1
  2323  051B  318F  27E1  3182   	fcall	_pulse_gen
  2324  051E                     l1573:
  2325  051E  318E  26B5  3182   	fcall	_state_0_C1
  2326  0521  318E  26A7  3182   	fcall	_latch_gen
  2327  0524                     l1575:
  2328  0524  3041               	movlw	65
  2329  0525  00F7               	movwf	??_second_counting
  2330  0526  30EE               	movlw	238
  2331  0527                     u347:
  2332  0527  0B89               	decfsz	9,f
  2333  0528  2D27               	goto	u347
  2334  0529  0BF7               	decfsz	??_second_counting,f
  2335  052A  2D27               	goto	u347
  2336  052B  3200               	nop2
  2337                           
  2338                           ;countdown.c: 135:     state_2_C1(); pulse_gen(1); state_9_C1(); latch_gen();_delay((uns
      +                          igned long)((200)*(1000000/4000.0)));
  2339  052C  3180  2079  3182   	fcall	_state_2_C1
  2340  052F  3001               	movlw	1
  2341  0530  00F0               	movwf	pulse_gen@n
  2342  0531  3000               	movlw	0
  2343  0532  00F1               	movwf	pulse_gen@n+1
  2344  0533  318F  27E1  3182   	fcall	_pulse_gen
  2345  0536  318F  2755  3182   	fcall	_state_9_C1
  2346  0539                     l1577:
  2347  0539  318E  26A7  3182   	fcall	_latch_gen
  2348  053C  3041               	movlw	65
  2349  053D  00F7               	movwf	??_second_counting
  2350  053E  30EE               	movlw	238
  2351  053F                     u357:
  2352  053F  0B89               	decfsz	9,f
  2353  0540  2D3F               	goto	u357
  2354  0541  0BF7               	decfsz	??_second_counting,f
  2355  0542  2D3F               	goto	u357
  2356  0543  3200               	nop2
  2357  0544                     l1579:
  2358                           
  2359                           ;countdown.c: 136:     state_2_C1(); pulse_gen(1); state_8_C1(); latch_gen();_delay((uns
      +                          igned long)((200)*(1000000/4000.0)));
  2360  0544  3180  2079  3182   	fcall	_state_2_C1
  2361  0547                     l1581:
  2362  0547  3001               	movlw	1
  2363  0548  00F0               	movwf	pulse_gen@n
  2364  0549  3000               	movlw	0
  2365  054A  00F1               	movwf	pulse_gen@n+1
  2366  054B  318F  27E1  3182   	fcall	_pulse_gen
  2367  054E                     l1583:
  2368  054E  318E  26AB  3182   	fcall	_state_8_C1
  2369  0551  318E  26A7  3182   	fcall	_latch_gen
  2370  0554                     l1585:
  2371  0554  3041               	movlw	65
  2372  0555  00F7               	movwf	??_second_counting
  2373  0556  30EE               	movlw	238
  2374  0557                     u367:
  2375  0557  0B89               	decfsz	9,f
  2376  0558  2D57               	goto	u367
  2377  0559  0BF7               	decfsz	??_second_counting,f
  2378  055A  2D57               	goto	u367
  2379  055B  3200               	nop2
  2380                           
  2381                           ;countdown.c: 137:     state_2_C1(); pulse_gen(1); state_7_C1(); latch_gen();_delay((uns
      +                          igned long)((200)*(1000000/4000.0)));
  2382  055C  3180  2079  3182   	fcall	_state_2_C1
  2383  055F  3001               	movlw	1
  2384  0560  00F0               	movwf	pulse_gen@n
  2385  0561  3000               	movlw	0
  2386  0562  00F1               	movwf	pulse_gen@n+1
  2387  0563  318F  27E1  3182   	fcall	_pulse_gen
  2388  0566  318E  26C8  3182   	fcall	_state_7_C1
  2389  0569                     l1587:
  2390  0569  318E  26A7  3182   	fcall	_latch_gen
  2391  056C  3041               	movlw	65
  2392  056D  00F7               	movwf	??_second_counting
  2393  056E  30EE               	movlw	238
  2394  056F                     u377:
  2395  056F  0B89               	decfsz	9,f
  2396  0570  2D6F               	goto	u377
  2397  0571  0BF7               	decfsz	??_second_counting,f
  2398  0572  2D6F               	goto	u377
  2399  0573  3200               	nop2
  2400  0574                     l1589:
  2401                           
  2402                           ;countdown.c: 138:     state_2_C1(); pulse_gen(1); state_6_C1(); latch_gen();_delay((uns
      +                          igned long)((200)*(1000000/4000.0)));
  2403  0574  3180  2079  3182   	fcall	_state_2_C1
  2404  0577                     l1591:
  2405  0577  3001               	movlw	1
  2406  0578  00F0               	movwf	pulse_gen@n
  2407  0579  3000               	movlw	0
  2408  057A  00F1               	movwf	pulse_gen@n+1
  2409  057B  318F  27E1  3182   	fcall	_pulse_gen
  2410  057E                     l1593:
  2411  057E  318F  2739  3182   	fcall	_state_6_C1
  2412  0581  318E  26A7  3182   	fcall	_latch_gen
  2413  0584                     l1595:
  2414  0584  3041               	movlw	65
  2415  0585  00F7               	movwf	??_second_counting
  2416  0586  30EE               	movlw	238
  2417  0587                     u387:
  2418  0587  0B89               	decfsz	9,f
  2419  0588  2D87               	goto	u387
  2420  0589  0BF7               	decfsz	??_second_counting,f
  2421  058A  2D87               	goto	u387
  2422  058B  3200               	nop2
  2423                           
  2424                           ;countdown.c: 139:     state_2_C1(); pulse_gen(1); state_5_C1(); latch_gen();_delay((uns
      +                          igned long)((200)*(1000000/4000.0)));
  2425  058C  3180  2079  3182   	fcall	_state_2_C1
  2426  058F  3001               	movlw	1
  2427  0590  00F0               	movwf	pulse_gen@n
  2428  0591  3000               	movlw	0
  2429  0592  00F1               	movwf	pulse_gen@n+1
  2430  0593  318F  27E1  3182   	fcall	_pulse_gen
  2431  0596  3180  20A7  3182   	fcall	_state_5_C1
  2432  0599                     l1597:
  2433  0599  318E  26A7  3182   	fcall	_latch_gen
  2434  059C  3041               	movlw	65
  2435  059D  00F7               	movwf	??_second_counting
  2436  059E  30EE               	movlw	238
  2437  059F                     u397:
  2438  059F  0B89               	decfsz	9,f
  2439  05A0  2D9F               	goto	u397
  2440  05A1  0BF7               	decfsz	??_second_counting,f
  2441  05A2  2D9F               	goto	u397
  2442  05A3  3200               	nop2
  2443  05A4                     l1599:
  2444                           
  2445                           ;countdown.c: 140:     state_2_C1(); pulse_gen(1); state_4_C1(); latch_gen();_delay((uns
      +                          igned long)((200)*(1000000/4000.0)));
  2446  05A4  3180  2079  3182   	fcall	_state_2_C1
  2447  05A7                     l1601:
  2448  05A7  3001               	movlw	1
  2449  05A8  00F0               	movwf	pulse_gen@n
  2450  05A9  3000               	movlw	0
  2451  05AA  00F1               	movwf	pulse_gen@n+1
  2452  05AB  318F  27E1  3182   	fcall	_pulse_gen
  2453  05AE                     l1603:
  2454  05AE  3180  202F  3182   	fcall	_state_4_C1
  2455  05B1  318E  26A7  3182   	fcall	_latch_gen
  2456  05B4                     l1605:
  2457  05B4  3041               	movlw	65
  2458  05B5  00F7               	movwf	??_second_counting
  2459  05B6  30EE               	movlw	238
  2460  05B7                     u407:
  2461  05B7  0B89               	decfsz	9,f
  2462  05B8  2DB7               	goto	u407
  2463  05B9  0BF7               	decfsz	??_second_counting,f
  2464  05BA  2DB7               	goto	u407
  2465  05BB  3200               	nop2
  2466                           
  2467                           ;countdown.c: 141:     state_2_C1(); pulse_gen(1); state_3_C1(); latch_gen();_delay((uns
      +                          igned long)((200)*(1000000/4000.0)));
  2468  05BC  3180  2079  3182   	fcall	_state_2_C1
  2469  05BF  3001               	movlw	1
  2470  05C0  00F0               	movwf	pulse_gen@n
  2471  05C1  3000               	movlw	0
  2472  05C2  00F1               	movwf	pulse_gen@n+1
  2473  05C3  318F  27E1  3182   	fcall	_pulse_gen
  2474  05C6  318F  271D  3182   	fcall	_state_3_C1
  2475  05C9                     l1607:
  2476  05C9  318E  26A7  3182   	fcall	_latch_gen
  2477  05CC  3041               	movlw	65
  2478  05CD  00F7               	movwf	??_second_counting
  2479  05CE  30EE               	movlw	238
  2480  05CF                     u417:
  2481  05CF  0B89               	decfsz	9,f
  2482  05D0  2DCF               	goto	u417
  2483  05D1  0BF7               	decfsz	??_second_counting,f
  2484  05D2  2DCF               	goto	u417
  2485  05D3  3200               	nop2
  2486  05D4                     l1609:
  2487                           
  2488                           ;countdown.c: 142:     state_2_C1(); pulse_gen(1); state_2_C1(); latch_gen();_delay((uns
      +                          igned long)((200)*(1000000/4000.0)));
  2489  05D4  3180  2079  3182   	fcall	_state_2_C1
  2490  05D7                     l1611:
  2491  05D7  3001               	movlw	1
  2492  05D8  00F0               	movwf	pulse_gen@n
  2493  05D9  3000               	movlw	0
  2494  05DA  00F1               	movwf	pulse_gen@n+1
  2495  05DB  318F  27E1  3182   	fcall	_pulse_gen
  2496  05DE                     l1613:
  2497  05DE  3180  2079  3182   	fcall	_state_2_C1
  2498  05E1  318E  26A7  3182   	fcall	_latch_gen
  2499  05E4                     l1615:
  2500  05E4  3041               	movlw	65
  2501  05E5  00F7               	movwf	??_second_counting
  2502  05E6  30EE               	movlw	238
  2503  05E7                     u427:
  2504  05E7  0B89               	decfsz	9,f
  2505  05E8  2DE7               	goto	u427
  2506  05E9  0BF7               	decfsz	??_second_counting,f
  2507  05EA  2DE7               	goto	u427
  2508  05EB  3200               	nop2
  2509                           
  2510                           ;countdown.c: 143:     state_2_C1(); pulse_gen(1); state_1_C1(); latch_gen();_delay((uns
      +                          igned long)((200)*(1000000/4000.0)));
  2511  05EC  3180  2079  3182   	fcall	_state_2_C1
  2512  05EF  3001               	movlw	1
  2513  05F0  00F0               	movwf	pulse_gen@n
  2514  05F1  3000               	movlw	0
  2515  05F2  00F1               	movwf	pulse_gen@n+1
  2516  05F3  318F  27E1  3182   	fcall	_pulse_gen
  2517  05F6  318F  2701  3182   	fcall	_state_1_C1
  2518  05F9                     l1617:
  2519  05F9  318E  26A7  3182   	fcall	_latch_gen
  2520  05FC  3041               	movlw	65
  2521  05FD  00F7               	movwf	??_second_counting
  2522  05FE  30EE               	movlw	238
  2523  05FF                     u437:
  2524  05FF  0B89               	decfsz	9,f
  2525  0600  2DFF               	goto	u437
  2526  0601  0BF7               	decfsz	??_second_counting,f
  2527  0602  2DFF               	goto	u437
  2528  0603  3200               	nop2
  2529  0604                     l1619:
  2530                           
  2531                           ;countdown.c: 144:     state_2_C1(); pulse_gen(1); state_0_C1(); latch_gen();_delay((uns
      +                          igned long)((200)*(1000000/4000.0)));
  2532  0604  3180  2079  3182   	fcall	_state_2_C1
  2533  0607                     l1621:
  2534  0607  3001               	movlw	1
  2535  0608  00F0               	movwf	pulse_gen@n
  2536  0609  3000               	movlw	0
  2537  060A  00F1               	movwf	pulse_gen@n+1
  2538  060B  318F  27E1  3182   	fcall	_pulse_gen
  2539  060E                     l1623:
  2540  060E  318E  26B5  3182   	fcall	_state_0_C1
  2541  0611  318E  26A7  3182   	fcall	_latch_gen
  2542  0614                     l1625:
  2543  0614  3041               	movlw	65
  2544  0615  00F7               	movwf	??_second_counting
  2545  0616  30EE               	movlw	238
  2546  0617                     u447:
  2547  0617  0B89               	decfsz	9,f
  2548  0618  2E17               	goto	u447
  2549  0619  0BF7               	decfsz	??_second_counting,f
  2550  061A  2E17               	goto	u447
  2551  061B  3200               	nop2
  2552                           
  2553                           ;countdown.c: 146:     state_1_C1(); pulse_gen(1); state_9_C1(); latch_gen();_delay((uns
      +                          igned long)((200)*(1000000/4000.0)));
  2554  061C  318F  2701  3182   	fcall	_state_1_C1
  2555  061F  3001               	movlw	1
  2556  0620  00F0               	movwf	pulse_gen@n
  2557  0621  3000               	movlw	0
  2558  0622  00F1               	movwf	pulse_gen@n+1
  2559  0623  318F  27E1  3182   	fcall	_pulse_gen
  2560  0626  318F  2755  3182   	fcall	_state_9_C1
  2561  0629                     l1627:
  2562  0629  318E  26A7  3182   	fcall	_latch_gen
  2563  062C  3041               	movlw	65
  2564  062D  00F7               	movwf	??_second_counting
  2565  062E  30EE               	movlw	238
  2566  062F                     u457:
  2567  062F  0B89               	decfsz	9,f
  2568  0630  2E2F               	goto	u457
  2569  0631  0BF7               	decfsz	??_second_counting,f
  2570  0632  2E2F               	goto	u457
  2571  0633  3200               	nop2
  2572  0634                     l1629:
  2573                           
  2574                           ;countdown.c: 147:     state_1_C1(); pulse_gen(1); state_8_C1(); latch_gen();_delay((uns
      +                          igned long)((200)*(1000000/4000.0)));
  2575  0634  318F  2701  3182   	fcall	_state_1_C1
  2576  0637                     l1631:
  2577  0637  3001               	movlw	1
  2578  0638  00F0               	movwf	pulse_gen@n
  2579  0639  3000               	movlw	0
  2580  063A  00F1               	movwf	pulse_gen@n+1
  2581  063B  318F  27E1  3182   	fcall	_pulse_gen
  2582  063E                     l1633:
  2583  063E  318E  26AB  3182   	fcall	_state_8_C1
  2584  0641  318E  26A7  3182   	fcall	_latch_gen
  2585  0644                     l1635:
  2586  0644  3041               	movlw	65
  2587  0645  00F7               	movwf	??_second_counting
  2588  0646  30EE               	movlw	238
  2589  0647                     u467:
  2590  0647  0B89               	decfsz	9,f
  2591  0648  2E47               	goto	u467
  2592  0649  0BF7               	decfsz	??_second_counting,f
  2593  064A  2E47               	goto	u467
  2594  064B  3200               	nop2
  2595                           
  2596                           ;countdown.c: 148:     state_1_C1(); pulse_gen(1); state_7_C1(); latch_gen();_delay((uns
      +                          igned long)((200)*(1000000/4000.0)));
  2597  064C  318F  2701  3182   	fcall	_state_1_C1
  2598  064F  3001               	movlw	1
  2599  0650  00F0               	movwf	pulse_gen@n
  2600  0651  3000               	movlw	0
  2601  0652  00F1               	movwf	pulse_gen@n+1
  2602  0653  318F  27E1  3182   	fcall	_pulse_gen
  2603  0656  318E  26C8  3182   	fcall	_state_7_C1
  2604  0659                     l1637:
  2605  0659  318E  26A7  3182   	fcall	_latch_gen
  2606  065C  3041               	movlw	65
  2607  065D  00F7               	movwf	??_second_counting
  2608  065E  30EE               	movlw	238
  2609  065F                     u477:
  2610  065F  0B89               	decfsz	9,f
  2611  0660  2E5F               	goto	u477
  2612  0661  0BF7               	decfsz	??_second_counting,f
  2613  0662  2E5F               	goto	u477
  2614  0663  3200               	nop2
  2615  0664                     l1639:
  2616                           
  2617                           ;countdown.c: 149:     state_1_C1(); pulse_gen(1); state_6_C1(); latch_gen();_delay((uns
      +                          igned long)((200)*(1000000/4000.0)));
  2618  0664  318F  2701  3182   	fcall	_state_1_C1
  2619  0667                     l1641:
  2620  0667  3001               	movlw	1
  2621  0668  00F0               	movwf	pulse_gen@n
  2622  0669  3000               	movlw	0
  2623  066A  00F1               	movwf	pulse_gen@n+1
  2624  066B  318F  27E1  3182   	fcall	_pulse_gen
  2625  066E                     l1643:
  2626  066E  318F  2739  3182   	fcall	_state_6_C1
  2627  0671  318E  26A7  3182   	fcall	_latch_gen
  2628  0674                     l1645:
  2629  0674  3041               	movlw	65
  2630  0675  00F7               	movwf	??_second_counting
  2631  0676  30EE               	movlw	238
  2632  0677                     u487:
  2633  0677  0B89               	decfsz	9,f
  2634  0678  2E77               	goto	u487
  2635  0679  0BF7               	decfsz	??_second_counting,f
  2636  067A  2E77               	goto	u487
  2637  067B  3200               	nop2
  2638                           
  2639                           ;countdown.c: 150:     state_1_C1(); pulse_gen(1); state_5_C1(); latch_gen();_delay((uns
      +                          igned long)((200)*(1000000/4000.0)));
  2640  067C  318F  2701  3182   	fcall	_state_1_C1
  2641  067F  3001               	movlw	1
  2642  0680  00F0               	movwf	pulse_gen@n
  2643  0681  3000               	movlw	0
  2644  0682  00F1               	movwf	pulse_gen@n+1
  2645  0683  318F  27E1  3182   	fcall	_pulse_gen
  2646  0686  3180  20A7  3182   	fcall	_state_5_C1
  2647  0689                     l1647:
  2648  0689  318E  26A7  3182   	fcall	_latch_gen
  2649  068C  3041               	movlw	65
  2650  068D  00F7               	movwf	??_second_counting
  2651  068E  30EE               	movlw	238
  2652  068F                     u497:
  2653  068F  0B89               	decfsz	9,f
  2654  0690  2E8F               	goto	u497
  2655  0691  0BF7               	decfsz	??_second_counting,f
  2656  0692  2E8F               	goto	u497
  2657  0693  3200               	nop2
  2658  0694                     l1649:
  2659                           
  2660                           ;countdown.c: 151:     state_1_C1(); pulse_gen(1); state_4_C1(); latch_gen();_delay((uns
      +                          igned long)((200)*(1000000/4000.0)));
  2661  0694  318F  2701  3182   	fcall	_state_1_C1
  2662  0697                     l1651:
  2663  0697  3001               	movlw	1
  2664  0698  00F0               	movwf	pulse_gen@n
  2665  0699  3000               	movlw	0
  2666  069A  00F1               	movwf	pulse_gen@n+1
  2667  069B  318F  27E1  3182   	fcall	_pulse_gen
  2668  069E                     l1653:
  2669  069E  3180  202F  3182   	fcall	_state_4_C1
  2670  06A1  318E  26A7  3182   	fcall	_latch_gen
  2671  06A4                     l1655:
  2672  06A4  3041               	movlw	65
  2673  06A5  00F7               	movwf	??_second_counting
  2674  06A6  30EE               	movlw	238
  2675  06A7                     u507:
  2676  06A7  0B89               	decfsz	9,f
  2677  06A8  2EA7               	goto	u507
  2678  06A9  0BF7               	decfsz	??_second_counting,f
  2679  06AA  2EA7               	goto	u507
  2680  06AB  3200               	nop2
  2681                           
  2682                           ;countdown.c: 152:     state_1_C1(); pulse_gen(1); state_3_C1(); latch_gen();_delay((uns
      +                          igned long)((200)*(1000000/4000.0)));
  2683  06AC  318F  2701  3182   	fcall	_state_1_C1
  2684  06AF  3001               	movlw	1
  2685  06B0  00F0               	movwf	pulse_gen@n
  2686  06B1  3000               	movlw	0
  2687  06B2  00F1               	movwf	pulse_gen@n+1
  2688  06B3  318F  27E1  3182   	fcall	_pulse_gen
  2689  06B6  318F  271D  3182   	fcall	_state_3_C1
  2690  06B9                     l1657:
  2691  06B9  318E  26A7  3182   	fcall	_latch_gen
  2692  06BC  3041               	movlw	65
  2693  06BD  00F7               	movwf	??_second_counting
  2694  06BE  30EE               	movlw	238
  2695  06BF                     u517:
  2696  06BF  0B89               	decfsz	9,f
  2697  06C0  2EBF               	goto	u517
  2698  06C1  0BF7               	decfsz	??_second_counting,f
  2699  06C2  2EBF               	goto	u517
  2700  06C3  3200               	nop2
  2701  06C4                     l1659:
  2702                           
  2703                           ;countdown.c: 153:     state_1_C1(); pulse_gen(1); state_2_C1(); latch_gen();_delay((uns
      +                          igned long)((200)*(1000000/4000.0)));
  2704  06C4  318F  2701  3182   	fcall	_state_1_C1
  2705  06C7                     l1661:
  2706  06C7  3001               	movlw	1
  2707  06C8  00F0               	movwf	pulse_gen@n
  2708  06C9  3000               	movlw	0
  2709  06CA  00F1               	movwf	pulse_gen@n+1
  2710  06CB  318F  27E1  3182   	fcall	_pulse_gen
  2711  06CE                     l1663:
  2712  06CE  3180  2079  3182   	fcall	_state_2_C1
  2713  06D1  318E  26A7  3182   	fcall	_latch_gen
  2714  06D4                     l1665:
  2715  06D4  3041               	movlw	65
  2716  06D5  00F7               	movwf	??_second_counting
  2717  06D6  30EE               	movlw	238
  2718  06D7                     u527:
  2719  06D7  0B89               	decfsz	9,f
  2720  06D8  2ED7               	goto	u527
  2721  06D9  0BF7               	decfsz	??_second_counting,f
  2722  06DA  2ED7               	goto	u527
  2723  06DB  3200               	nop2
  2724                           
  2725                           ;countdown.c: 154:     state_1_C1(); pulse_gen(1); state_1_C1(); latch_gen();_delay((uns
      +                          igned long)((200)*(1000000/4000.0)));
  2726  06DC  318F  2701  3182   	fcall	_state_1_C1
  2727  06DF  3001               	movlw	1
  2728  06E0  00F0               	movwf	pulse_gen@n
  2729  06E1  3000               	movlw	0
  2730  06E2  00F1               	movwf	pulse_gen@n+1
  2731  06E3  318F  27E1  3182   	fcall	_pulse_gen
  2732  06E6  318F  2701  3182   	fcall	_state_1_C1
  2733  06E9                     l1667:
  2734  06E9  318E  26A7  3182   	fcall	_latch_gen
  2735  06EC  3041               	movlw	65
  2736  06ED  00F7               	movwf	??_second_counting
  2737  06EE  30EE               	movlw	238
  2738  06EF                     u537:
  2739  06EF  0B89               	decfsz	9,f
  2740  06F0  2EEF               	goto	u537
  2741  06F1  0BF7               	decfsz	??_second_counting,f
  2742  06F2  2EEF               	goto	u537
  2743  06F3  3200               	nop2
  2744  06F4                     l1669:
  2745                           
  2746                           ;countdown.c: 155:     state_1_C1(); pulse_gen(1); state_0_C1(); latch_gen();_delay((uns
      +                          igned long)((200)*(1000000/4000.0)));
  2747  06F4  318F  2701  3182   	fcall	_state_1_C1
  2748  06F7                     l1671:
  2749  06F7  3001               	movlw	1
  2750  06F8  00F0               	movwf	pulse_gen@n
  2751  06F9  3000               	movlw	0
  2752  06FA  00F1               	movwf	pulse_gen@n+1
  2753  06FB  318F  27E1  3182   	fcall	_pulse_gen
  2754  06FE                     l1673:
  2755  06FE  318E  26B5  3182   	fcall	_state_0_C1
  2756  0701  318E  26A7  3182   	fcall	_latch_gen
  2757  0704                     l1675:
  2758  0704  3041               	movlw	65
  2759  0705  00F7               	movwf	??_second_counting
  2760  0706  30EE               	movlw	238
  2761  0707                     u547:
  2762  0707  0B89               	decfsz	9,f
  2763  0708  2F07               	goto	u547
  2764  0709  0BF7               	decfsz	??_second_counting,f
  2765  070A  2F07               	goto	u547
  2766  070B  3200               	nop2
  2767                           
  2768                           ;countdown.c: 157:     state_0_C1(); pulse_gen(1); state_9_C1(); latch_gen();_delay((uns
      +                          igned long)((200)*(1000000/4000.0)));
  2769  070C  318E  26B5  3182   	fcall	_state_0_C1
  2770  070F  3001               	movlw	1
  2771  0710  00F0               	movwf	pulse_gen@n
  2772  0711  3000               	movlw	0
  2773  0712  00F1               	movwf	pulse_gen@n+1
  2774  0713  318F  27E1  3182   	fcall	_pulse_gen
  2775  0716  318F  2755  3182   	fcall	_state_9_C1
  2776  0719                     l1677:
  2777  0719  318E  26A7  3182   	fcall	_latch_gen
  2778  071C  3041               	movlw	65
  2779  071D  00F7               	movwf	??_second_counting
  2780  071E  30EE               	movlw	238
  2781  071F                     u557:
  2782  071F  0B89               	decfsz	9,f
  2783  0720  2F1F               	goto	u557
  2784  0721  0BF7               	decfsz	??_second_counting,f
  2785  0722  2F1F               	goto	u557
  2786  0723  3200               	nop2
  2787  0724                     l1679:
  2788                           
  2789                           ;countdown.c: 158:     state_0_C1(); pulse_gen(1); state_8_C1(); latch_gen();_delay((uns
      +                          igned long)((200)*(1000000/4000.0)));
  2790  0724  318E  26B5  3182   	fcall	_state_0_C1
  2791  0727                     l1681:
  2792  0727  3001               	movlw	1
  2793  0728  00F0               	movwf	pulse_gen@n
  2794  0729  3000               	movlw	0
  2795  072A  00F1               	movwf	pulse_gen@n+1
  2796  072B  318F  27E1  3182   	fcall	_pulse_gen
  2797  072E                     l1683:
  2798  072E  318E  26AB  3182   	fcall	_state_8_C1
  2799  0731  318E  26A7  3182   	fcall	_latch_gen
  2800  0734                     l1685:
  2801  0734  3041               	movlw	65
  2802  0735  00F7               	movwf	??_second_counting
  2803  0736  30EE               	movlw	238
  2804  0737                     u567:
  2805  0737  0B89               	decfsz	9,f
  2806  0738  2F37               	goto	u567
  2807  0739  0BF7               	decfsz	??_second_counting,f
  2808  073A  2F37               	goto	u567
  2809  073B  3200               	nop2
  2810                           
  2811                           ;countdown.c: 159:     state_0_C1(); pulse_gen(1); state_7_C1(); latch_gen();_delay((uns
      +                          igned long)((200)*(1000000/4000.0)));
  2812  073C  318E  26B5  3182   	fcall	_state_0_C1
  2813  073F  3001               	movlw	1
  2814  0740  00F0               	movwf	pulse_gen@n
  2815  0741  3000               	movlw	0
  2816  0742  00F1               	movwf	pulse_gen@n+1
  2817  0743  318F  27E1  3182   	fcall	_pulse_gen
  2818  0746  318E  26C8  3182   	fcall	_state_7_C1
  2819  0749                     l1687:
  2820  0749  318E  26A7  3182   	fcall	_latch_gen
  2821  074C  3041               	movlw	65
  2822  074D  00F7               	movwf	??_second_counting
  2823  074E  30EE               	movlw	238
  2824  074F                     u577:
  2825  074F  0B89               	decfsz	9,f
  2826  0750  2F4F               	goto	u577
  2827  0751  0BF7               	decfsz	??_second_counting,f
  2828  0752  2F4F               	goto	u577
  2829  0753  3200               	nop2
  2830  0754                     l1689:
  2831                           
  2832                           ;countdown.c: 160:     state_0_C1(); pulse_gen(1); state_6_C1(); latch_gen();_delay((uns
      +                          igned long)((200)*(1000000/4000.0)));
  2833  0754  318E  26B5  3182   	fcall	_state_0_C1
  2834  0757                     l1691:
  2835  0757  3001               	movlw	1
  2836  0758  00F0               	movwf	pulse_gen@n
  2837  0759  3000               	movlw	0
  2838  075A  00F1               	movwf	pulse_gen@n+1
  2839  075B  318F  27E1  3182   	fcall	_pulse_gen
  2840  075E                     l1693:
  2841  075E  318F  2739  3182   	fcall	_state_6_C1
  2842  0761  318E  26A7  3182   	fcall	_latch_gen
  2843  0764                     l1695:
  2844  0764  3041               	movlw	65
  2845  0765  00F7               	movwf	??_second_counting
  2846  0766  30EE               	movlw	238
  2847  0767                     u587:
  2848  0767  0B89               	decfsz	9,f
  2849  0768  2F67               	goto	u587
  2850  0769  0BF7               	decfsz	??_second_counting,f
  2851  076A  2F67               	goto	u587
  2852  076B  3200               	nop2
  2853                           
  2854                           ;countdown.c: 161:     state_0_C1(); pulse_gen(1); state_5_C1(); latch_gen();_delay((uns
      +                          igned long)((200)*(1000000/4000.0)));
  2855  076C  318E  26B5  3182   	fcall	_state_0_C1
  2856  076F  3001               	movlw	1
  2857  0770  00F0               	movwf	pulse_gen@n
  2858  0771  3000               	movlw	0
  2859  0772  00F1               	movwf	pulse_gen@n+1
  2860  0773  318F  27E1  3182   	fcall	_pulse_gen
  2861  0776  3180  20A7  3182   	fcall	_state_5_C1
  2862  0779                     l1697:
  2863  0779  318E  26A7  3182   	fcall	_latch_gen
  2864  077C  3041               	movlw	65
  2865  077D  00F7               	movwf	??_second_counting
  2866  077E  30EE               	movlw	238
  2867  077F                     u597:
  2868  077F  0B89               	decfsz	9,f
  2869  0780  2F7F               	goto	u597
  2870  0781  0BF7               	decfsz	??_second_counting,f
  2871  0782  2F7F               	goto	u597
  2872  0783  3200               	nop2
  2873  0784                     l1699:
  2874                           
  2875                           ;countdown.c: 162:     state_0_C1(); pulse_gen(1); state_4_C1(); latch_gen();_delay((uns
      +                          igned long)((200)*(1000000/4000.0)));
  2876  0784  318E  26B5  3182   	fcall	_state_0_C1
  2877  0787                     l1701:
  2878  0787  3001               	movlw	1
  2879  0788  00F0               	movwf	pulse_gen@n
  2880  0789  3000               	movlw	0
  2881  078A  00F1               	movwf	pulse_gen@n+1
  2882  078B  318F  27E1  3182   	fcall	_pulse_gen
  2883  078E                     l1703:
  2884  078E  3180  202F  3182   	fcall	_state_4_C1
  2885  0791  318E  26A7  3182   	fcall	_latch_gen
  2886  0794                     l1705:
  2887  0794  3041               	movlw	65
  2888  0795  00F7               	movwf	??_second_counting
  2889  0796  30EE               	movlw	238
  2890  0797                     u607:
  2891  0797  0B89               	decfsz	9,f
  2892  0798  2F97               	goto	u607
  2893  0799  0BF7               	decfsz	??_second_counting,f
  2894  079A  2F97               	goto	u607
  2895  079B  3200               	nop2
  2896                           
  2897                           ;countdown.c: 163:     state_0_C1(); pulse_gen(1); state_3_C1(); latch_gen();_delay((uns
      +                          igned long)((200)*(1000000/4000.0)));
  2898  079C  318E  26B5  3182   	fcall	_state_0_C1
  2899  079F  3001               	movlw	1
  2900  07A0  00F0               	movwf	pulse_gen@n
  2901  07A1  3000               	movlw	0
  2902  07A2  00F1               	movwf	pulse_gen@n+1
  2903  07A3  318F  27E1  3182   	fcall	_pulse_gen
  2904  07A6  318F  271D  3182   	fcall	_state_3_C1
  2905  07A9                     l1707:
  2906  07A9  318E  26A7  3182   	fcall	_latch_gen
  2907  07AC  3041               	movlw	65
  2908  07AD  00F7               	movwf	??_second_counting
  2909  07AE  30EE               	movlw	238
  2910  07AF                     u617:
  2911  07AF  0B89               	decfsz	9,f
  2912  07B0  2FAF               	goto	u617
  2913  07B1  0BF7               	decfsz	??_second_counting,f
  2914  07B2  2FAF               	goto	u617
  2915  07B3  3200               	nop2
  2916  07B4                     l1709:
  2917                           
  2918                           ;countdown.c: 164:     state_0_C1(); pulse_gen(1); state_2_C1(); latch_gen();_delay((uns
      +                          igned long)((200)*(1000000/4000.0)));
  2919  07B4  318E  26B5  3182   	fcall	_state_0_C1
  2920  07B7                     l1711:
  2921  07B7  3001               	movlw	1
  2922  07B8  00F0               	movwf	pulse_gen@n
  2923  07B9  3000               	movlw	0
  2924  07BA  00F1               	movwf	pulse_gen@n+1
  2925  07BB  318F  27E1  3182   	fcall	_pulse_gen
  2926  07BE                     l1713:
  2927  07BE  3180  2079  3182   	fcall	_state_2_C1
  2928  07C1  318E  26A7  3182   	fcall	_latch_gen
  2929  07C4                     l1715:
  2930  07C4  3041               	movlw	65
  2931  07C5  00F7               	movwf	??_second_counting
  2932  07C6  30EE               	movlw	238
  2933  07C7                     u627:
  2934  07C7  0B89               	decfsz	9,f
  2935  07C8  2FC7               	goto	u627
  2936  07C9  0BF7               	decfsz	??_second_counting,f
  2937  07CA  2FC7               	goto	u627
  2938  07CB  3200               	nop2
  2939                           
  2940                           ;countdown.c: 165:     state_0_C1(); pulse_gen(1); state_1_C1(); latch_gen();_delay((uns
      +                          igned long)((200)*(1000000/4000.0)));
  2941  07CC  318E  26B5  3182   	fcall	_state_0_C1
  2942  07CF  3001               	movlw	1
  2943  07D0  00F0               	movwf	pulse_gen@n
  2944  07D1  3000               	movlw	0
  2945  07D2  00F1               	movwf	pulse_gen@n+1
  2946  07D3  318F  27E1  3182   	fcall	_pulse_gen
  2947  07D6  318F  2701  3182   	fcall	_state_1_C1
  2948  07D9                     l1717:
  2949  07D9  318E  26A7  3182   	fcall	_latch_gen
  2950  07DC  3041               	movlw	65
  2951  07DD  00F7               	movwf	??_second_counting
  2952  07DE  30EE               	movlw	238
  2953  07DF                     u637:
  2954  07DF  0B89               	decfsz	9,f
  2955  07E0  2FDF               	goto	u637
  2956  07E1  0BF7               	decfsz	??_second_counting,f
  2957  07E2  2FDF               	goto	u637
  2958  07E3  3200               	nop2
  2959  07E4                     l1719:
  2960                           
  2961                           ;countdown.c: 166:     state_0_C1(); pulse_gen(1); state_0_C1(); latch_gen();_delay((uns
      +                          igned long)((200)*(1000000/4000.0)));
  2962  07E4  318E  26B5  3182   	fcall	_state_0_C1
  2963  07E7                     l1721:
  2964  07E7  3001               	movlw	1
  2965  07E8  00F0               	movwf	pulse_gen@n
  2966  07E9  3000               	movlw	0
  2967  07EA  00F1               	movwf	pulse_gen@n+1
  2968  07EB  318F  27E1  3182   	fcall	_pulse_gen
  2969  07EE                     l1723:
  2970  07EE  318E  26B5  3182   	fcall	_state_0_C1
  2971  07F1  318E  26A7  3182   	fcall	_latch_gen
  2972  07F4                     l1725:
  2973  07F4  3041               	movlw	65
  2974  07F5  00F7               	movwf	??_second_counting
  2975  07F6  30EE               	movlw	238
  2976  07F7                     u647:
  2977  07F7  0B89               	decfsz	9,f
  2978  07F8  2FF7               	goto	u647
  2979  07F9  0BF7               	decfsz	??_second_counting,f
  2980  07FA  2FF7               	goto	u647
  2981  07FB  3200               	nop2
  2982  07FC                     l50:
  2983  07FC  0008               	return
  2984  07FD                     __end_of_second_counting:
  2985                           
  2986                           	psect	text13
  2987  0F55                     __ptext13:	
  2988 ;; *************** function _state_9_C1 *****************
  2989 ;; Defined at:
  2990 ;;		line 92 in file "countdown.c"
  2991 ;; Parameters:    Size  Location     Type
  2992 ;;		None
  2993 ;; Auto vars:     Size  Location     Type
  2994 ;;		None
  2995 ;; Return value:  Size  Location     Type
  2996 ;;                  1    wreg      void 
  2997 ;; Registers used:
  2998 ;;		wreg, status,2, status,0, pclath, cstack
  2999 ;; Tracked objects:
  3000 ;;		On entry : 0/0
  3001 ;;		On exit  : 0/0
  3002 ;;		Unchanged: 0/0
  3003 ;; Data sizes:     COMMON   BANK0   BANK1   BANK2   BANK3   BANK4   BANK5   BANK6
  3004 ;;      Params:         0       0       0       0       0       0       0       0
  3005 ;;      Locals:         0       0       0       0       0       0       0       0
  3006 ;;      Temps:          0       0       0       0       0       0       0       0
  3007 ;;      Totals:         0       0       0       0       0       0       0       0
  3008 ;;Total ram usage:        0 bytes
  3009 ;; Hardware stack levels used: 1
  3010 ;; Hardware stack levels required when called: 1
  3011 ;; This function calls:
  3012 ;;		_pulse_gen
  3013 ;; This function is called by:
  3014 ;;		_second_counting
  3015 ;; This function uses a non-reentrant model
  3016 ;;
  3017                           
  3018  0F55                     _state_9_C1:	
  3019                           ;psect for function _state_9_C1
  3020                           
  3021  0F55                     l1409:	
  3022                           ;incstack = 0
  3023                           ; Regs used in _state_9_C1: [wreg+status,2+status,0+pclath+cstack]
  3024                           
  3025                           
  3026                           ;countdown.c: 93:     LATCbits.LATC1 = 0; pulse_gen(2);
  3027  0F55  0022               	movlb	2	; select bank2
  3028  0F56  108E               	bcf	14,1	;volatile
  3029  0F57                     l1411:
  3030  0F57  3002               	movlw	2
  3031  0F58  00F0               	movwf	pulse_gen@n
  3032  0F59  3000               	movlw	0
  3033  0F5A  00F1               	movwf	pulse_gen@n+1
  3034  0F5B  318F  27E1  318F   	fcall	_pulse_gen
  3035  0F5E                     l1413:
  3036                           
  3037                           ;countdown.c: 94:     LATCbits.LATC1 = 1; pulse_gen(1);
  3038  0F5E  0022               	movlb	2	; select bank2
  3039  0F5F  148E               	bsf	14,1	;volatile
  3040  0F60  3001               	movlw	1
  3041  0F61  00F0               	movwf	pulse_gen@n
  3042  0F62  3000               	movlw	0
  3043  0F63  00F1               	movwf	pulse_gen@n+1
  3044  0F64  318F  27E1  318F   	fcall	_pulse_gen
  3045  0F67                     l1415:
  3046                           
  3047                           ;countdown.c: 95:     LATCbits.LATC1 = 0; pulse_gen(4); return;
  3048  0F67  0022               	movlb	2	; select bank2
  3049  0F68  108E               	bcf	14,1	;volatile
  3050  0F69  3004               	movlw	4
  3051  0F6A  00F0               	movwf	pulse_gen@n
  3052  0F6B  3000               	movlw	0
  3053  0F6C  00F1               	movwf	pulse_gen@n+1
  3054  0F6D  318F  27E1  318F   	fcall	_pulse_gen
  3055  0F70                     l47:
  3056  0F70  0008               	return
  3057  0F71                     __end_of_state_9_C1:
  3058                           
  3059                           	psect	text14
  3060  0EAB                     __ptext14:	
  3061 ;; *************** function _state_8_C1 *****************
  3062 ;; Defined at:
  3063 ;;		line 89 in file "countdown.c"
  3064 ;; Parameters:    Size  Location     Type
  3065 ;;		None
  3066 ;; Auto vars:     Size  Location     Type
  3067 ;;		None
  3068 ;; Return value:  Size  Location     Type
  3069 ;;                  1    wreg      void 
  3070 ;; Registers used:
  3071 ;;		wreg, status,2, status,0, pclath, cstack
  3072 ;; Tracked objects:
  3073 ;;		On entry : 0/0
  3074 ;;		On exit  : 0/0
  3075 ;;		Unchanged: 0/0
  3076 ;; Data sizes:     COMMON   BANK0   BANK1   BANK2   BANK3   BANK4   BANK5   BANK6
  3077 ;;      Params:         0       0       0       0       0       0       0       0
  3078 ;;      Locals:         0       0       0       0       0       0       0       0
  3079 ;;      Temps:          0       0       0       0       0       0       0       0
  3080 ;;      Totals:         0       0       0       0       0       0       0       0
  3081 ;;Total ram usage:        0 bytes
  3082 ;; Hardware stack levels used: 1
  3083 ;; Hardware stack levels required when called: 1
  3084 ;; This function calls:
  3085 ;;		_pulse_gen
  3086 ;; This function is called by:
  3087 ;;		_second_counting
  3088 ;; This function uses a non-reentrant model
  3089 ;;
  3090                           
  3091  0EAB                     _state_8_C1:	
  3092                           ;psect for function _state_8_C1
  3093                           
  3094  0EAB                     l1403:	
  3095                           ;incstack = 0
  3096                           ; Regs used in _state_8_C1: [wreg+status,2+status,0+pclath+cstack]
  3097                           
  3098                           
  3099                           ;countdown.c: 90:     LATCbits.LATC1 = 0; pulse_gen(7); return;
  3100  0EAB  0022               	movlb	2	; select bank2
  3101  0EAC  108E               	bcf	14,1	;volatile
  3102  0EAD                     l1405:
  3103  0EAD  3007               	movlw	7
  3104  0EAE  00F0               	movwf	pulse_gen@n
  3105  0EAF  3000               	movlw	0
  3106  0EB0  00F1               	movwf	pulse_gen@n+1
  3107  0EB1  318F  27E1  318E   	fcall	_pulse_gen
  3108  0EB4                     l44:
  3109  0EB4  0008               	return
  3110  0EB5                     __end_of_state_8_C1:
  3111                           
  3112                           	psect	text15
  3113  0EC8                     __ptext15:	
  3114 ;; *************** function _state_7_C1 *****************
  3115 ;; Defined at:
  3116 ;;		line 85 in file "countdown.c"
  3117 ;; Parameters:    Size  Location     Type
  3118 ;;		None
  3119 ;; Auto vars:     Size  Location     Type
  3120 ;;		None
  3121 ;; Return value:  Size  Location     Type
  3122 ;;                  1    wreg      void 
  3123 ;; Registers used:
  3124 ;;		wreg, status,2, status,0, pclath, cstack
  3125 ;; Tracked objects:
  3126 ;;		On entry : 0/0
  3127 ;;		On exit  : 0/0
  3128 ;;		Unchanged: 0/0
  3129 ;; Data sizes:     COMMON   BANK0   BANK1   BANK2   BANK3   BANK4   BANK5   BANK6
  3130 ;;      Params:         0       0       0       0       0       0       0       0
  3131 ;;      Locals:         0       0       0       0       0       0       0       0
  3132 ;;      Temps:          0       0       0       0       0       0       0       0
  3133 ;;      Totals:         0       0       0       0       0       0       0       0
  3134 ;;Total ram usage:        0 bytes
  3135 ;; Hardware stack levels used: 1
  3136 ;; Hardware stack levels required when called: 1
  3137 ;; This function calls:
  3138 ;;		_pulse_gen
  3139 ;; This function is called by:
  3140 ;;		_second_counting
  3141 ;; This function uses a non-reentrant model
  3142 ;;
  3143                           
  3144  0EC8                     _state_7_C1:	
  3145                           ;psect for function _state_7_C1
  3146                           
  3147  0EC8                     l1395:	
  3148                           ;incstack = 0
  3149                           ; Regs used in _state_7_C1: [wreg+status,2+status,0+pclath+cstack]
  3150                           
  3151                           
  3152                           ;countdown.c: 86:     LATCbits.LATC1 = 1; pulse_gen(4);
  3153  0EC8  0022               	movlb	2	; select bank2
  3154  0EC9  148E               	bsf	14,1	;volatile
  3155  0ECA                     l1397:
  3156  0ECA  3004               	movlw	4
  3157  0ECB  00F0               	movwf	pulse_gen@n
  3158  0ECC  3000               	movlw	0
  3159  0ECD  00F1               	movwf	pulse_gen@n+1
  3160  0ECE  318F  27E1  318E   	fcall	_pulse_gen
  3161  0ED1                     l1399:
  3162                           
  3163                           ;countdown.c: 87:     LATCbits.LATC1 = 0; pulse_gen(3); return;
  3164  0ED1  0022               	movlb	2	; select bank2
  3165  0ED2  108E               	bcf	14,1	;volatile
  3166  0ED3  3003               	movlw	3
  3167  0ED4  00F0               	movwf	pulse_gen@n
  3168  0ED5  3000               	movlw	0
  3169  0ED6  00F1               	movwf	pulse_gen@n+1
  3170  0ED7  318F  27E1  318E   	fcall	_pulse_gen
  3171  0EDA                     l41:
  3172  0EDA  0008               	return
  3173  0EDB                     __end_of_state_7_C1:
  3174                           
  3175                           	psect	text16
  3176  0F39                     __ptext16:	
  3177 ;; *************** function _state_6_C1 *****************
  3178 ;; Defined at:
  3179 ;;		line 80 in file "countdown.c"
  3180 ;; Parameters:    Size  Location     Type
  3181 ;;		None
  3182 ;; Auto vars:     Size  Location     Type
  3183 ;;		None
  3184 ;; Return value:  Size  Location     Type
  3185 ;;                  1    wreg      void 
  3186 ;; Registers used:
  3187 ;;		wreg, status,2, status,0, pclath, cstack
  3188 ;; Tracked objects:
  3189 ;;		On entry : 0/0
  3190 ;;		On exit  : 0/0
  3191 ;;		Unchanged: 0/0
  3192 ;; Data sizes:     COMMON   BANK0   BANK1   BANK2   BANK3   BANK4   BANK5   BANK6
  3193 ;;      Params:         0       0       0       0       0       0       0       0
  3194 ;;      Locals:         0       0       0       0       0       0       0       0
  3195 ;;      Temps:          0       0       0       0       0       0       0       0
  3196 ;;      Totals:         0       0       0       0       0       0       0       0
  3197 ;;Total ram usage:        0 bytes
  3198 ;; Hardware stack levels used: 1
  3199 ;; Hardware stack levels required when called: 1
  3200 ;; This function calls:
  3201 ;;		_pulse_gen
  3202 ;; This function is called by:
  3203 ;;		_second_counting
  3204 ;; This function uses a non-reentrant model
  3205 ;;
  3206                           
  3207  0F39                     _state_6_C1:	
  3208                           ;psect for function _state_6_C1
  3209                           
  3210  0F39                     l1385:	
  3211                           ;incstack = 0
  3212                           ; Regs used in _state_6_C1: [wreg+status,2+status,0+pclath+cstack]
  3213                           
  3214                           
  3215                           ;countdown.c: 81:     LATCbits.LATC1 = 0; pulse_gen(5);
  3216  0F39  0022               	movlb	2	; select bank2
  3217  0F3A  108E               	bcf	14,1	;volatile
  3218  0F3B                     l1387:
  3219  0F3B  3005               	movlw	5
  3220  0F3C  00F0               	movwf	pulse_gen@n
  3221  0F3D  3000               	movlw	0
  3222  0F3E  00F1               	movwf	pulse_gen@n+1
  3223  0F3F  318F  27E1  318F   	fcall	_pulse_gen
  3224  0F42                     l1389:
  3225                           
  3226                           ;countdown.c: 82:     LATCbits.LATC1 = 1; pulse_gen(1);
  3227  0F42  0022               	movlb	2	; select bank2
  3228  0F43  148E               	bsf	14,1	;volatile
  3229  0F44  3001               	movlw	1
  3230  0F45  00F0               	movwf	pulse_gen@n
  3231  0F46  3000               	movlw	0
  3232  0F47  00F1               	movwf	pulse_gen@n+1
  3233  0F48  318F  27E1  318F   	fcall	_pulse_gen
  3234  0F4B                     l1391:
  3235                           
  3236                           ;countdown.c: 83:     LATCbits.LATC1 = 0; pulse_gen(1); return;
  3237  0F4B  0022               	movlb	2	; select bank2
  3238  0F4C  108E               	bcf	14,1	;volatile
  3239  0F4D  3001               	movlw	1
  3240  0F4E  00F0               	movwf	pulse_gen@n
  3241  0F4F  3000               	movlw	0
  3242  0F50  00F1               	movwf	pulse_gen@n+1
  3243  0F51  318F  27E1  318F   	fcall	_pulse_gen
  3244  0F54                     l38:
  3245  0F54  0008               	return
  3246  0F55                     __end_of_state_6_C1:
  3247                           
  3248                           	psect	text17
  3249  00A7                     __ptext17:	
  3250 ;; *************** function _state_5_C1 *****************
  3251 ;; Defined at:
  3252 ;;		line 73 in file "countdown.c"
  3253 ;; Parameters:    Size  Location     Type
  3254 ;;		None
  3255 ;; Auto vars:     Size  Location     Type
  3256 ;;		None
  3257 ;; Return value:  Size  Location     Type
  3258 ;;                  1    wreg      void 
  3259 ;; Registers used:
  3260 ;;		wreg, status,2, status,0, pclath, cstack
  3261 ;; Tracked objects:
  3262 ;;		On entry : 0/0
  3263 ;;		On exit  : 0/0
  3264 ;;		Unchanged: 0/0
  3265 ;; Data sizes:     COMMON   BANK0   BANK1   BANK2   BANK3   BANK4   BANK5   BANK6
  3266 ;;      Params:         0       0       0       0       0       0       0       0
  3267 ;;      Locals:         0       0       0       0       0       0       0       0
  3268 ;;      Temps:          0       0       0       0       0       0       0       0
  3269 ;;      Totals:         0       0       0       0       0       0       0       0
  3270 ;;Total ram usage:        0 bytes
  3271 ;; Hardware stack levels used: 1
  3272 ;; Hardware stack levels required when called: 1
  3273 ;; This function calls:
  3274 ;;		_pulse_gen
  3275 ;; This function is called by:
  3276 ;;		_second_counting
  3277 ;; This function uses a non-reentrant model
  3278 ;;
  3279                           
  3280  00A7                     _state_5_C1:	
  3281                           ;psect for function _state_5_C1
  3282                           
  3283  00A7                     l1371:	
  3284                           ;incstack = 0
  3285                           ; Regs used in _state_5_C1: [wreg+status,2+status,0+pclath+cstack]
  3286                           
  3287                           
  3288                           ;countdown.c: 74:     LATCbits.LATC1 = 0; pulse_gen(2);
  3289  00A7  0022               	movlb	2	; select bank2
  3290  00A8  108E               	bcf	14,1	;volatile
  3291  00A9                     l1373:
  3292  00A9  3002               	movlw	2
  3293  00AA  00F0               	movwf	pulse_gen@n
  3294  00AB  3000               	movlw	0
  3295  00AC  00F1               	movwf	pulse_gen@n+1
  3296  00AD  318F  27E1  3180   	fcall	_pulse_gen
  3297  00B0                     l1375:
  3298                           
  3299                           ;countdown.c: 75:     LATCbits.LATC1 = 1; pulse_gen(1);
  3300  00B0  0022               	movlb	2	; select bank2
  3301  00B1  148E               	bsf	14,1	;volatile
  3302  00B2  3001               	movlw	1
  3303  00B3  00F0               	movwf	pulse_gen@n
  3304  00B4  3000               	movlw	0
  3305  00B5  00F1               	movwf	pulse_gen@n+1
  3306  00B6  318F  27E1  3180   	fcall	_pulse_gen
  3307  00B9                     l1377:
  3308                           
  3309                           ;countdown.c: 76:     LATCbits.LATC1 = 0; pulse_gen(2);
  3310  00B9  0022               	movlb	2	; select bank2
  3311  00BA  108E               	bcf	14,1	;volatile
  3312  00BB  3002               	movlw	2
  3313  00BC  00F0               	movwf	pulse_gen@n
  3314  00BD  3000               	movlw	0
  3315  00BE  00F1               	movwf	pulse_gen@n+1
  3316  00BF  318F  27E1  3180   	fcall	_pulse_gen
  3317  00C2                     l1379:
  3318                           
  3319                           ;countdown.c: 77:     LATCbits.LATC1 = 1; pulse_gen(1);
  3320  00C2  0022               	movlb	2	; select bank2
  3321  00C3  148E               	bsf	14,1	;volatile
  3322  00C4  3001               	movlw	1
  3323  00C5  00F0               	movwf	pulse_gen@n
  3324  00C6  3000               	movlw	0
  3325  00C7  00F1               	movwf	pulse_gen@n+1
  3326  00C8  318F  27E1  3180   	fcall	_pulse_gen
  3327  00CB                     l1381:
  3328                           
  3329                           ;countdown.c: 78:     LATCbits.LATC1 = 0; pulse_gen(1); return;
  3330  00CB  0022               	movlb	2	; select bank2
  3331  00CC  108E               	bcf	14,1	;volatile
  3332  00CD  3001               	movlw	1
  3333  00CE  00F0               	movwf	pulse_gen@n
  3334  00CF  3000               	movlw	0
  3335  00D0  00F1               	movwf	pulse_gen@n+1
  3336  00D1  318F  27E1  3180   	fcall	_pulse_gen
  3337  00D4                     l35:
  3338  00D4  0008               	return
  3339  00D5                     __end_of_state_5_C1:
  3340                           
  3341                           	psect	text18
  3342  002F                     __ptext18:	
  3343 ;; *************** function _state_4_C1 *****************
  3344 ;; Defined at:
  3345 ;;		line 67 in file "countdown.c"
  3346 ;; Parameters:    Size  Location     Type
  3347 ;;		None
  3348 ;; Auto vars:     Size  Location     Type
  3349 ;;		None
  3350 ;; Return value:  Size  Location     Type
  3351 ;;                  1    wreg      void 
  3352 ;; Registers used:
  3353 ;;		wreg, status,2, status,0, pclath, cstack
  3354 ;; Tracked objects:
  3355 ;;		On entry : 0/0
  3356 ;;		On exit  : 0/0
  3357 ;;		Unchanged: 0/0
  3358 ;; Data sizes:     COMMON   BANK0   BANK1   BANK2   BANK3   BANK4   BANK5   BANK6
  3359 ;;      Params:         0       0       0       0       0       0       0       0
  3360 ;;      Locals:         0       0       0       0       0       0       0       0
  3361 ;;      Temps:          0       0       0       0       0       0       0       0
  3362 ;;      Totals:         0       0       0       0       0       0       0       0
  3363 ;;Total ram usage:        0 bytes
  3364 ;; Hardware stack levels used: 1
  3365 ;; Hardware stack levels required when called: 1
  3366 ;; This function calls:
  3367 ;;		_pulse_gen
  3368 ;; This function is called by:
  3369 ;;		_second_counting
  3370 ;; This function uses a non-reentrant model
  3371 ;;
  3372                           
  3373  002F                     _state_4_C1:	
  3374                           ;psect for function _state_4_C1
  3375                           
  3376  002F                     l1359:	
  3377                           ;incstack = 0
  3378                           ; Regs used in _state_4_C1: [wreg+status,2+status,0+pclath+cstack]
  3379                           
  3380                           
  3381                           ;countdown.c: 68:     LATCbits.LATC1 = 0; pulse_gen(2);
  3382  002F  0022               	movlb	2	; select bank2
  3383  0030  108E               	bcf	14,1	;volatile
  3384  0031                     l1361:
  3385  0031  3002               	movlw	2
  3386  0032  00F0               	movwf	pulse_gen@n
  3387  0033  3000               	movlw	0
  3388  0034  00F1               	movwf	pulse_gen@n+1
  3389  0035  318F  27E1  3180   	fcall	_pulse_gen
  3390  0038                     l1363:
  3391                           
  3392                           ;countdown.c: 69:     LATCbits.LATC1 = 1; pulse_gen(2);
  3393  0038  0022               	movlb	2	; select bank2
  3394  0039  148E               	bsf	14,1	;volatile
  3395  003A  3002               	movlw	2
  3396  003B  00F0               	movwf	pulse_gen@n
  3397  003C  3000               	movlw	0
  3398  003D  00F1               	movwf	pulse_gen@n+1
  3399  003E  318F  27E1  3180   	fcall	_pulse_gen
  3400  0041                     l1365:
  3401                           
  3402                           ;countdown.c: 70:     LATCbits.LATC1 = 0; pulse_gen(2);
  3403  0041  0022               	movlb	2	; select bank2
  3404  0042  108E               	bcf	14,1	;volatile
  3405  0043  3002               	movlw	2
  3406  0044  00F0               	movwf	pulse_gen@n
  3407  0045  3000               	movlw	0
  3408  0046  00F1               	movwf	pulse_gen@n+1
  3409  0047  318F  27E1  3180   	fcall	_pulse_gen
  3410  004A                     l1367:
  3411                           
  3412                           ;countdown.c: 71:     LATCbits.LATC1 = 1; pulse_gen(1); return;
  3413  004A  0022               	movlb	2	; select bank2
  3414  004B  148E               	bsf	14,1	;volatile
  3415  004C  3001               	movlw	1
  3416  004D  00F0               	movwf	pulse_gen@n
  3417  004E  3000               	movlw	0
  3418  004F  00F1               	movwf	pulse_gen@n+1
  3419  0050  318F  27E1  3180   	fcall	_pulse_gen
  3420  0053                     l32:
  3421  0053  0008               	return
  3422  0054                     __end_of_state_4_C1:
  3423                           
  3424                           	psect	text19
  3425  0F1D                     __ptext19:	
  3426 ;; *************** function _state_3_C1 *****************
  3427 ;; Defined at:
  3428 ;;		line 62 in file "countdown.c"
  3429 ;; Parameters:    Size  Location     Type
  3430 ;;		None
  3431 ;; Auto vars:     Size  Location     Type
  3432 ;;		None
  3433 ;; Return value:  Size  Location     Type
  3434 ;;                  1    wreg      void 
  3435 ;; Registers used:
  3436 ;;		wreg, status,2, status,0, pclath, cstack
  3437 ;; Tracked objects:
  3438 ;;		On entry : 0/0
  3439 ;;		On exit  : 0/0
  3440 ;;		Unchanged: 0/0
  3441 ;; Data sizes:     COMMON   BANK0   BANK1   BANK2   BANK3   BANK4   BANK5   BANK6
  3442 ;;      Params:         0       0       0       0       0       0       0       0
  3443 ;;      Locals:         0       0       0       0       0       0       0       0
  3444 ;;      Temps:          0       0       0       0       0       0       0       0
  3445 ;;      Totals:         0       0       0       0       0       0       0       0
  3446 ;;Total ram usage:        0 bytes
  3447 ;; Hardware stack levels used: 1
  3448 ;; Hardware stack levels required when called: 1
  3449 ;; This function calls:
  3450 ;;		_pulse_gen
  3451 ;; This function is called by:
  3452 ;;		_second_counting
  3453 ;; This function uses a non-reentrant model
  3454 ;;
  3455                           
  3456  0F1D                     _state_3_C1:	
  3457                           ;psect for function _state_3_C1
  3458                           
  3459  0F1D                     l1349:	
  3460                           ;incstack = 0
  3461                           ; Regs used in _state_3_C1: [wreg+status,2+status,0+pclath+cstack]
  3462                           
  3463                           
  3464                           ;countdown.c: 63:     LATCbits.LATC1 = 0; pulse_gen(1);
  3465  0F1D  0022               	movlb	2	; select bank2
  3466  0F1E  108E               	bcf	14,1	;volatile
  3467  0F1F                     l1351:
  3468  0F1F  3001               	movlw	1
  3469  0F20  00F0               	movwf	pulse_gen@n
  3470  0F21  3000               	movlw	0
  3471  0F22  00F1               	movwf	pulse_gen@n+1
  3472  0F23  318F  27E1  318F   	fcall	_pulse_gen
  3473  0F26                     l1353:
  3474                           
  3475                           ;countdown.c: 64:     LATCbits.LATC1 = 1; pulse_gen(2);
  3476  0F26  0022               	movlb	2	; select bank2
  3477  0F27  148E               	bsf	14,1	;volatile
  3478  0F28  3002               	movlw	2
  3479  0F29  00F0               	movwf	pulse_gen@n
  3480  0F2A  3000               	movlw	0
  3481  0F2B  00F1               	movwf	pulse_gen@n+1
  3482  0F2C  318F  27E1  318F   	fcall	_pulse_gen
  3483  0F2F                     l1355:
  3484                           
  3485                           ;countdown.c: 65:     LATCbits.LATC1 = 0; pulse_gen(4); return;
  3486  0F2F  0022               	movlb	2	; select bank2
  3487  0F30  108E               	bcf	14,1	;volatile
  3488  0F31  3004               	movlw	4
  3489  0F32  00F0               	movwf	pulse_gen@n
  3490  0F33  3000               	movlw	0
  3491  0F34  00F1               	movwf	pulse_gen@n+1
  3492  0F35  318F  27E1  318F   	fcall	_pulse_gen
  3493  0F38                     l29:
  3494  0F38  0008               	return
  3495  0F39                     __end_of_state_3_C1:
  3496                           
  3497                           	psect	text20
  3498  0079                     __ptext20:	
  3499 ;; *************** function _state_2_C1 *****************
  3500 ;; Defined at:
  3501 ;;		line 55 in file "countdown.c"
  3502 ;; Parameters:    Size  Location     Type
  3503 ;;		None
  3504 ;; Auto vars:     Size  Location     Type
  3505 ;;		None
  3506 ;; Return value:  Size  Location     Type
  3507 ;;                  1    wreg      void 
  3508 ;; Registers used:
  3509 ;;		wreg, status,2, status,0, pclath, cstack
  3510 ;; Tracked objects:
  3511 ;;		On entry : 0/0
  3512 ;;		On exit  : 0/0
  3513 ;;		Unchanged: 0/0
  3514 ;; Data sizes:     COMMON   BANK0   BANK1   BANK2   BANK3   BANK4   BANK5   BANK6
  3515 ;;      Params:         0       0       0       0       0       0       0       0
  3516 ;;      Locals:         0       0       0       0       0       0       0       0
  3517 ;;      Temps:          0       0       0       0       0       0       0       0
  3518 ;;      Totals:         0       0       0       0       0       0       0       0
  3519 ;;Total ram usage:        0 bytes
  3520 ;; Hardware stack levels used: 1
  3521 ;; Hardware stack levels required when called: 1
  3522 ;; This function calls:
  3523 ;;		_pulse_gen
  3524 ;; This function is called by:
  3525 ;;		_second_counting
  3526 ;; This function uses a non-reentrant model
  3527 ;;
  3528                           
  3529  0079                     _state_2_C1:	
  3530                           ;psect for function _state_2_C1
  3531                           
  3532  0079                     l1335:	
  3533                           ;incstack = 0
  3534                           ; Regs used in _state_2_C1: [wreg+status,2+status,0+pclath+cstack]
  3535                           
  3536                           
  3537                           ;countdown.c: 56:     LATCbits.LATC1 = 0; pulse_gen(1);
  3538  0079  0022               	movlb	2	; select bank2
  3539  007A  108E               	bcf	14,1	;volatile
  3540  007B                     l1337:
  3541  007B  3001               	movlw	1
  3542  007C  00F0               	movwf	pulse_gen@n
  3543  007D  3000               	movlw	0
  3544  007E  00F1               	movwf	pulse_gen@n+1
  3545  007F  318F  27E1  3180   	fcall	_pulse_gen
  3546  0082                     l1339:
  3547                           
  3548                           ;countdown.c: 57:     LATCbits.LATC1 = 1; pulse_gen(1);
  3549  0082  0022               	movlb	2	; select bank2
  3550  0083  148E               	bsf	14,1	;volatile
  3551  0084  3001               	movlw	1
  3552  0085  00F0               	movwf	pulse_gen@n
  3553  0086  3000               	movlw	0
  3554  0087  00F1               	movwf	pulse_gen@n+1
  3555  0088  318F  27E1  3180   	fcall	_pulse_gen
  3556  008B                     l1341:
  3557                           
  3558                           ;countdown.c: 58:     LATCbits.LATC1 = 0; pulse_gen(2);
  3559  008B  0022               	movlb	2	; select bank2
  3560  008C  108E               	bcf	14,1	;volatile
  3561  008D  3002               	movlw	2
  3562  008E  00F0               	movwf	pulse_gen@n
  3563  008F  3000               	movlw	0
  3564  0090  00F1               	movwf	pulse_gen@n+1
  3565  0091  318F  27E1  3180   	fcall	_pulse_gen
  3566  0094                     l1343:
  3567                           
  3568                           ;countdown.c: 59:     LATCbits.LATC1 = 1; pulse_gen(1);
  3569  0094  0022               	movlb	2	; select bank2
  3570  0095  148E               	bsf	14,1	;volatile
  3571  0096  3001               	movlw	1
  3572  0097  00F0               	movwf	pulse_gen@n
  3573  0098  3000               	movlw	0
  3574  0099  00F1               	movwf	pulse_gen@n+1
  3575  009A  318F  27E1  3180   	fcall	_pulse_gen
  3576  009D                     l1345:
  3577                           
  3578                           ;countdown.c: 60:     LATCbits.LATC1 = 0; pulse_gen(2); return;
  3579  009D  0022               	movlb	2	; select bank2
  3580  009E  108E               	bcf	14,1	;volatile
  3581  009F  3002               	movlw	2
  3582  00A0  00F0               	movwf	pulse_gen@n
  3583  00A1  3000               	movlw	0
  3584  00A2  00F1               	movwf	pulse_gen@n+1
  3585  00A3  318F  27E1  3180   	fcall	_pulse_gen
  3586  00A6                     l26:
  3587  00A6  0008               	return
  3588  00A7                     __end_of_state_2_C1:
  3589                           
  3590                           	psect	text21
  3591  0F01                     __ptext21:	
  3592 ;; *************** function _state_1_C1 *****************
  3593 ;; Defined at:
  3594 ;;		line 50 in file "countdown.c"
  3595 ;; Parameters:    Size  Location     Type
  3596 ;;		None
  3597 ;; Auto vars:     Size  Location     Type
  3598 ;;		None
  3599 ;; Return value:  Size  Location     Type
  3600 ;;                  1    wreg      void 
  3601 ;; Registers used:
  3602 ;;		wreg, status,2, status,0, pclath, cstack
  3603 ;; Tracked objects:
  3604 ;;		On entry : 0/0
  3605 ;;		On exit  : 0/0
  3606 ;;		Unchanged: 0/0
  3607 ;; Data sizes:     COMMON   BANK0   BANK1   BANK2   BANK3   BANK4   BANK5   BANK6
  3608 ;;      Params:         0       0       0       0       0       0       0       0
  3609 ;;      Locals:         0       0       0       0       0       0       0       0
  3610 ;;      Temps:          0       0       0       0       0       0       0       0
  3611 ;;      Totals:         0       0       0       0       0       0       0       0
  3612 ;;Total ram usage:        0 bytes
  3613 ;; Hardware stack levels used: 1
  3614 ;; Hardware stack levels required when called: 1
  3615 ;; This function calls:
  3616 ;;		_pulse_gen
  3617 ;; This function is called by:
  3618 ;;		_second_counting
  3619 ;; This function uses a non-reentrant model
  3620 ;;
  3621                           
  3622  0F01                     _state_1_C1:	
  3623                           ;psect for function _state_1_C1
  3624                           
  3625  0F01                     l1325:	
  3626                           ;incstack = 0
  3627                           ; Regs used in _state_1_C1: [wreg+status,2+status,0+pclath+cstack]
  3628                           
  3629                           
  3630                           ;countdown.c: 51:     LATCbits.LATC1 = 1; pulse_gen(4);
  3631  0F01  0022               	movlb	2	; select bank2
  3632  0F02  148E               	bsf	14,1	;volatile
  3633  0F03                     l1327:
  3634  0F03  3004               	movlw	4
  3635  0F04  00F0               	movwf	pulse_gen@n
  3636  0F05  3000               	movlw	0
  3637  0F06  00F1               	movwf	pulse_gen@n+1
  3638  0F07  318F  27E1  318F   	fcall	_pulse_gen
  3639  0F0A                     l1329:
  3640                           
  3641                           ;countdown.c: 52:     LATCbits.LATC1 = 0; pulse_gen(2);
  3642  0F0A  0022               	movlb	2	; select bank2
  3643  0F0B  108E               	bcf	14,1	;volatile
  3644  0F0C  3002               	movlw	2
  3645  0F0D  00F0               	movwf	pulse_gen@n
  3646  0F0E  3000               	movlw	0
  3647  0F0F  00F1               	movwf	pulse_gen@n+1
  3648  0F10  318F  27E1  318F   	fcall	_pulse_gen
  3649  0F13                     l1331:
  3650                           
  3651                           ;countdown.c: 53:     LATCbits.LATC1 = 1; pulse_gen(1); return;
  3652  0F13  0022               	movlb	2	; select bank2
  3653  0F14  148E               	bsf	14,1	;volatile
  3654  0F15  3001               	movlw	1
  3655  0F16  00F0               	movwf	pulse_gen@n
  3656  0F17  3000               	movlw	0
  3657  0F18  00F1               	movwf	pulse_gen@n+1
  3658  0F19  318F  27E1  318F   	fcall	_pulse_gen
  3659  0F1C                     l23:
  3660  0F1C  0008               	return
  3661  0F1D                     __end_of_state_1_C1:
  3662                           
  3663                           	psect	text22
  3664  0EB5                     __ptext22:	
  3665 ;; *************** function _state_0_C1 *****************
  3666 ;; Defined at:
  3667 ;;		line 46 in file "countdown.c"
  3668 ;; Parameters:    Size  Location     Type
  3669 ;;		None
  3670 ;; Auto vars:     Size  Location     Type
  3671 ;;		None
  3672 ;; Return value:  Size  Location     Type
  3673 ;;                  1    wreg      void 
  3674 ;; Registers used:
  3675 ;;		wreg, status,2, status,0, pclath, cstack
  3676 ;; Tracked objects:
  3677 ;;		On entry : 0/0
  3678 ;;		On exit  : 0/0
  3679 ;;		Unchanged: 0/0
  3680 ;; Data sizes:     COMMON   BANK0   BANK1   BANK2   BANK3   BANK4   BANK5   BANK6
  3681 ;;      Params:         0       0       0       0       0       0       0       0
  3682 ;;      Locals:         0       0       0       0       0       0       0       0
  3683 ;;      Temps:          0       0       0       0       0       0       0       0
  3684 ;;      Totals:         0       0       0       0       0       0       0       0
  3685 ;;Total ram usage:        0 bytes
  3686 ;; Hardware stack levels used: 1
  3687 ;; Hardware stack levels required when called: 1
  3688 ;; This function calls:
  3689 ;;		_pulse_gen
  3690 ;; This function is called by:
  3691 ;;		_second_counting
  3692 ;; This function uses a non-reentrant model
  3693 ;;
  3694                           
  3695  0EB5                     _state_0_C1:	
  3696                           ;psect for function _state_0_C1
  3697                           
  3698  0EB5                     l1317:	
  3699                           ;incstack = 0
  3700                           ; Regs used in _state_0_C1: [wreg+status,2+status,0+pclath+cstack]
  3701                           
  3702                           
  3703                           ;countdown.c: 47:     LATCbits.LATC1 = 1; pulse_gen(1);
  3704  0EB5  0022               	movlb	2	; select bank2
  3705  0EB6  148E               	bsf	14,1	;volatile
  3706  0EB7                     l1319:
  3707  0EB7  3001               	movlw	1
  3708  0EB8  00F0               	movwf	pulse_gen@n
  3709  0EB9  3000               	movlw	0
  3710  0EBA  00F1               	movwf	pulse_gen@n+1
  3711  0EBB  318F  27E1  318E   	fcall	_pulse_gen
  3712  0EBE                     l1321:
  3713                           
  3714                           ;countdown.c: 48:     LATCbits.LATC1 = 0; pulse_gen(6); return;
  3715  0EBE  0022               	movlb	2	; select bank2
  3716  0EBF  108E               	bcf	14,1	;volatile
  3717  0EC0  3006               	movlw	6
  3718  0EC1  00F0               	movwf	pulse_gen@n
  3719  0EC2  3000               	movlw	0
  3720  0EC3  00F1               	movwf	pulse_gen@n+1
  3721  0EC4  318F  27E1  318E   	fcall	_pulse_gen
  3722  0EC7                     l20:
  3723  0EC7  0008               	return
  3724  0EC8                     __end_of_state_0_C1:
  3725                           
  3726                           	psect	text23
  3727  0FE1                     __ptext23:	
  3728 ;; *************** function _pulse_gen *****************
  3729 ;; Defined at:
  3730 ;;		line 31 in file "countdown.c"
  3731 ;; Parameters:    Size  Location     Type
  3732 ;;  n               2    0[COMMON] int 
  3733 ;; Auto vars:     Size  Location     Type
  3734 ;;  i               2    5[COMMON] int 
  3735 ;; Return value:  Size  Location     Type
  3736 ;;                  1    wreg      void 
  3737 ;; Registers used:
  3738 ;;		wreg, status,2, status,0
  3739 ;; Tracked objects:
  3740 ;;		On entry : 0/0
  3741 ;;		On exit  : 0/0
  3742 ;;		Unchanged: 0/0
  3743 ;; Data sizes:     COMMON   BANK0   BANK1   BANK2   BANK3   BANK4   BANK5   BANK6
  3744 ;;      Params:         2       0       0       0       0       0       0       0
  3745 ;;      Locals:         2       0       0       0       0       0       0       0
  3746 ;;      Temps:          3       0       0       0       0       0       0       0
  3747 ;;      Totals:         7       0       0       0       0       0       0       0
  3748 ;;Total ram usage:        7 bytes
  3749 ;; Hardware stack levels used: 1
  3750 ;; This function calls:
  3751 ;;		Nothing
  3752 ;; This function is called by:
  3753 ;;		_state_0_C1
  3754 ;;		_state_1_C1
  3755 ;;		_state_2_C1
  3756 ;;		_state_3_C1
  3757 ;;		_state_4_C1
  3758 ;;		_state_5_C1
  3759 ;;		_state_6_C1
  3760 ;;		_state_7_C1
  3761 ;;		_state_8_C1
  3762 ;;		_state_9_C1
  3763 ;;		_second_counting
  3764 ;; This function uses a non-reentrant model
  3765 ;;
  3766                           
  3767  0FE1                     _pulse_gen:	
  3768                           ;psect for function _pulse_gen
  3769                           
  3770  0FE1                     l1311:	
  3771                           ;incstack = 0
  3772                           ; Regs used in _pulse_gen: [wreg+status,2+status,0]
  3773                           
  3774                           
  3775                           ;countdown.c: 32:     for(int i=0;i<=(n-1);i++){
  3776  0FE1  01F5               	clrf	pulse_gen@i
  3777  0FE2  01F6               	clrf	pulse_gen@i+1
  3778  0FE3  2FEB               	goto	l1315
  3779  0FE4                     l12:
  3780                           
  3781                           ;countdown.c: 33:         LATCbits.LATC0 = 0;
  3782  0FE4  0022               	movlb	2	; select bank2
  3783  0FE5  100E               	bcf	14,0	;volatile
  3784                           
  3785                           ;countdown.c: 34:         LATCbits.LATC0 = 1;
  3786  0FE6  140E               	bsf	14,0	;volatile
  3787  0FE7                     l1313:
  3788                           
  3789                           ;countdown.c: 35:     }
  3790  0FE7  3001               	movlw	1
  3791  0FE8  07F5               	addwf	pulse_gen@i,f
  3792  0FE9  3000               	movlw	0
  3793  0FEA  3DF6               	addwfc	pulse_gen@i+1,f
  3794  0FEB                     l1315:
  3795  0FEB  0870               	movf	pulse_gen@n,w
  3796  0FEC  3EFF               	addlw	255
  3797  0FED  00F2               	movwf	??_pulse_gen
  3798  0FEE  30FF               	movlw	255
  3799  0FEF  3D71               	addwfc	pulse_gen@n+1,w
  3800  0FF0  00F3               	movwf	??_pulse_gen+1
  3801  0FF1  0873               	movf	??_pulse_gen+1,w
  3802  0FF2  3A80               	xorlw	128
  3803  0FF3  00F4               	movwf	??_pulse_gen+2
  3804  0FF4  0876               	movf	pulse_gen@i+1,w
  3805  0FF5  3A80               	xorlw	128
  3806  0FF6  0274               	subwf	??_pulse_gen+2,w
  3807  0FF7  1D03               	skipz
  3808  0FF8  2FFB               	goto	u35
  3809  0FF9  0875               	movf	pulse_gen@i,w
  3810  0FFA  0272               	subwf	??_pulse_gen,w
  3811  0FFB                     u35:
  3812  0FFB  1803               	skipnc
  3813  0FFC  2FFE               	goto	u31
  3814  0FFD  2FFF               	goto	u30
  3815  0FFE                     u31:
  3816  0FFE  2FE4               	goto	l12
  3817  0FFF                     u30:
  3818  0FFF                     l14:
  3819  0FFF  0008               	return
  3820  1000                     __end_of_pulse_gen:
  3821                           
  3822                           	psect	text24
  3823  0EA7                     __ptext24:	
  3824 ;; *************** function _latch_gen *****************
  3825 ;; Defined at:
  3826 ;;		line 39 in file "countdown.c"
  3827 ;; Parameters:    Size  Location     Type
  3828 ;;		None
  3829 ;; Auto vars:     Size  Location     Type
  3830 ;;		None
  3831 ;; Return value:  Size  Location     Type
  3832 ;;                  1    wreg      void 
  3833 ;; Registers used:
  3834 ;;		None
  3835 ;; Tracked objects:
  3836 ;;		On entry : 0/0
  3837 ;;		On exit  : 0/0
  3838 ;;		Unchanged: 0/0
  3839 ;; Data sizes:     COMMON   BANK0   BANK1   BANK2   BANK3   BANK4   BANK5   BANK6
  3840 ;;      Params:         0       0       0       0       0       0       0       0
  3841 ;;      Locals:         0       0       0       0       0       0       0       0
  3842 ;;      Temps:          0       0       0       0       0       0       0       0
  3843 ;;      Totals:         0       0       0       0       0       0       0       0
  3844 ;;Total ram usage:        0 bytes
  3845 ;; Hardware stack levels used: 1
  3846 ;; This function calls:
  3847 ;;		Nothing
  3848 ;; This function is called by:
  3849 ;;		_second_counting
  3850 ;; This function uses a non-reentrant model
  3851 ;;
  3852                           
  3853  0EA7                     _latch_gen:	
  3854                           ;psect for function _latch_gen
  3855                           
  3856  0EA7                     l629:	
  3857                           ;incstack = 0
  3858                           ; Regs used in _latch_gen: []
  3859                           
  3860                           
  3861                           ;countdown.c: 40:     LATCbits.LATC2 = 1;
  3862  0EA7  0022               	movlb	2	; select bank2
  3863  0EA8  150E               	bsf	14,2	;volatile
  3864                           
  3865                           ;countdown.c: 41:     LATCbits.LATC2 = 0;
  3866  0EA9  110E               	bcf	14,2	;volatile
  3867  0EAA                     l17:	
  3868                           ;countdown.c: 42:     return;
  3869                           
  3870  0EAA  0008               	return
  3871  0EAB                     __end_of_latch_gen:
  3872                           
  3873                           	psect	text25
  3874  0EA3                     __ptext25:	
  3875 ;; *************** function _latch_gen_1 *****************
  3876 ;; Defined at:
  3877 ;;		line 179 in file "countdown.c"
  3878 ;; Parameters:    Size  Location     Type
  3879 ;;		None
  3880 ;; Auto vars:     Size  Location     Type
  3881 ;;		None
  3882 ;; Return value:  Size  Location     Type
  3883 ;;                  1    wreg      void 
  3884 ;; Registers used:
  3885 ;;		None
  3886 ;; Tracked objects:
  3887 ;;		On entry : 0/0
  3888 ;;		On exit  : 0/0
  3889 ;;		Unchanged: 0/0
  3890 ;; Data sizes:     COMMON   BANK0   BANK1   BANK2   BANK3   BANK4   BANK5   BANK6
  3891 ;;      Params:         0       0       0       0       0       0       0       0
  3892 ;;      Locals:         0       0       0       0       0       0       0       0
  3893 ;;      Temps:          0       0       0       0       0       0       0       0
  3894 ;;      Totals:         0       0       0       0       0       0       0       0
  3895 ;;Total ram usage:        0 bytes
  3896 ;; Hardware stack levels used: 1
  3897 ;; This function calls:
  3898 ;;		Nothing
  3899 ;; This function is called by:
  3900 ;;		_main
  3901 ;; This function uses a non-reentrant model
  3902 ;;
  3903                           
  3904  0EA3                     _latch_gen_1:	
  3905                           ;psect for function _latch_gen_1
  3906                           
  3907  0EA3                     l1043:	
  3908                           ;incstack = 0
  3909                           ; Regs used in _latch_gen_1: []
  3910                           
  3911                           
  3912                           ;countdown.c: 180:     LATCbits.LATC5 = 1;
  3913  0EA3  0022               	movlb	2	; select bank2
  3914  0EA4  168E               	bsf	14,5	;volatile
  3915                           
  3916                           ;countdown.c: 181:     LATCbits.LATC5 = 0;
  3917  0EA5  128E               	bcf	14,5	;volatile
  3918  0EA6                     l59:	
  3919                           ;countdown.c: 182:     return;
  3920                           
  3921  0EA6  0008               	return
  3922  0EA7                     __end_of_latch_gen_1:
  3923  007E                     btemp	set	126	;btemp
  3924  007E                     wtemp0	set	126
  3925                           
  3926                           	psect	idloc
  3927                           
  3928                           ;Config register IDLOC0 @ 0x8000
  3929                           ;	unspecified, using default values
  3930  8000                     	org	32768
  3931  8000  3FFF               	dw	16383
  3932                           
  3933                           ;Config register IDLOC1 @ 0x8001
  3934                           ;	unspecified, using default values
  3935  8001                     	org	32769
  3936  8001  3FFF               	dw	16383
  3937                           
  3938                           ;Config register IDLOC2 @ 0x8002
  3939                           ;	unspecified, using default values
  3940  8002                     	org	32770
  3941  8002  3FFF               	dw	16383
  3942                           
  3943                           ;Config register IDLOC3 @ 0x8003
  3944                           ;	unspecified, using default values
  3945  8003                     	org	32771
  3946  8003  3FFF               	dw	16383
  3947                           
  3948                           	psect	config
  3949                           
  3950                           ;Config register CONFIG1 @ 0x8007
  3951                           ;	Oscillator Selection Bits
  3952                           ;	FOSC = INTOSC, INTOSC oscillator: I/O function on CLKIN pin
  3953                           ;	Watchdog Timer Enable
  3954                           ;	WDTE = OFF, WDT disabled
  3955                           ;	Power-up Timer Enable
  3956                           ;	PWRTE = OFF, PWRT disabled
  3957                           ;	MCLR Pin Function Select
  3958                           ;	MCLRE = OFF, MCLR/VPP pin function is digital input
  3959                           ;	Flash Program Memory Code Protection
  3960                           ;	CP = OFF, Program memory code protection is disabled
  3961                           ;	Brown-out Reset Enable
  3962                           ;	BOREN = OFF, Brown-out Reset disabled
  3963                           ;	Clock Out Enable
  3964                           ;	CLKOUTEN = OFF, CLKOUT function is disabled. I/O or oscillator function on the CLKOUT 
      +                          pin
  3965                           ;	Internal/External Switchover Mode
  3966                           ;	IESO = OFF, Internal/External Switchover Mode is disabled
  3967                           ;	Fail-Safe Clock Monitor Enable
  3968                           ;	FCMEN = OFF, Fail-Safe Clock Monitor is disabled
  3969  8007                     	org	32775
  3970  8007  09A4               	dw	2468
  3971                           
  3972                           ;Config register CONFIG2 @ 0x8008
  3973                           ;	Flash Memory Self-Write Protection
  3974                           ;	WRT = OFF, Write protection off
  3975                           ;	Stack Overflow/Underflow Reset Enable
  3976                           ;	STVREN = OFF, Stack Overflow or Underflow will not cause a Reset
  3977                           ;	Brown-out Reset Voltage Selection
  3978                           ;	BORV = LO, Brown-out Reset Voltage (Vbor), low trip point selected.
  3979                           ;	Low-Power Brown Out Reset
  3980                           ;	LPBOR = OFF, Low-Power BOR is disabled
  3981                           ;	Low-Voltage Programming Enable
  3982                           ;	LVP = OFF, High-voltage on MCLR/VPP must be used for programming
  3983  8008                     	org	32776
  3984  8008  1DFF               	dw	7679

Data Sizes:
    Strings     0
    Constant    0
    Data        0
    BSS         0
    Persistent  32
    Stack       0

Auto Spaces:
    Space          Size  Autos    Used
    COMMON           14      8       8
    BANK0            80      0       0
    BANK1            80      0       0
    BANK2            80      0       0
    BANK3            80      0       0
    BANK4            80      0       0
    BANK5            80      0       0
    BANK6            16      0       0

Pointer List with Targets:

    None.

Critical Paths under _main in COMMON

    _main->_second_counting
    _state_9_C4->_pulse_gen_1
    _state_8_C4->_pulse_gen_1
    _state_7_C4->_pulse_gen_1
    _state_6_C4->_pulse_gen_1
    _state_5_C4->_pulse_gen_1
    _state_4_C4->_pulse_gen_1
    _state_3_C4->_pulse_gen_1
    _state_2_C4->_pulse_gen_1
    _state_1_C4->_pulse_gen_1
    _state_0_C4->_pulse_gen_1
    _second_counting->_pulse_gen
    _state_9_C1->_pulse_gen
    _state_8_C1->_pulse_gen
    _state_7_C1->_pulse_gen
    _state_6_C1->_pulse_gen
    _state_5_C1->_pulse_gen
    _state_4_C1->_pulse_gen
    _state_3_C1->_pulse_gen
    _state_2_C1->_pulse_gen
    _state_1_C1->_pulse_gen
    _state_0_C1->_pulse_gen

Critical Paths under _main in BANK0

    None.

Critical Paths under _main in BANK1

    None.

Critical Paths under _main in BANK2

    None.

Critical Paths under _main in BANK3

    None.

Critical Paths under _main in BANK4

    None.

Critical Paths under _main in BANK5

    None.

Critical Paths under _main in BANK6

    None.

Call Graph Tables:

 ---------------------------------------------------------------------------------
 (Depth) Function   	        Calls       Base Space   Used Autos Params    Refs
 ---------------------------------------------------------------------------------
 (0) _main                                                 0     0      0  115544
                        _latch_gen_1
                        _pulse_gen_1
                    _second_counting
                         _state_0_C4
                         _state_1_C4
                         _state_2_C4
                         _state_3_C4
                         _state_4_C4
                         _state_5_C4
                         _state_6_C4
                         _state_7_C4
                         _state_8_C4
                         _state_9_C4
 ---------------------------------------------------------------------------------
 (1) _state_9_C4                                           0     0      0    3542
                        _pulse_gen_1
 ---------------------------------------------------------------------------------
 (1) _state_8_C4                                           0     0      0    3542
                        _pulse_gen_1
 ---------------------------------------------------------------------------------
 (1) _state_7_C4                                           0     0      0    3542
                        _pulse_gen_1
 ---------------------------------------------------------------------------------
 (1) _state_6_C4                                           0     0      0    3542
                        _pulse_gen_1
 ---------------------------------------------------------------------------------
 (1) _state_5_C4                                           0     0      0    3542
                        _pulse_gen_1
 ---------------------------------------------------------------------------------
 (1) _state_4_C4                                           0     0      0    3542
                        _pulse_gen_1
 ---------------------------------------------------------------------------------
 (1) _state_3_C4                                           0     0      0    3542
                        _pulse_gen_1
 ---------------------------------------------------------------------------------
 (1) _state_2_C4                                           0     0      0    3542
                        _pulse_gen_1
 ---------------------------------------------------------------------------------
 (1) _state_1_C4                                           0     0      0    3542
                        _pulse_gen_1
 ---------------------------------------------------------------------------------
 (1) _state_0_C4                                           0     0      0    3542
                        _pulse_gen_1
 ---------------------------------------------------------------------------------
 (2) _pulse_gen_1                                          7     5      2    3542
                                              0 COMMON     7     5      2
 ---------------------------------------------------------------------------------
 (1) _second_counting                                      1     1      0   76582
                                              7 COMMON     1     1      0
                          _latch_gen
                          _pulse_gen
                         _state_0_C1
                         _state_1_C1
                         _state_2_C1
                         _state_3_C1
                         _state_4_C1
                         _state_5_C1
                         _state_6_C1
                         _state_7_C1
                         _state_8_C1
                         _state_9_C1
 ---------------------------------------------------------------------------------
 (2) _state_9_C1                                           0     0      0    6962
                          _pulse_gen
 ---------------------------------------------------------------------------------
 (2) _state_8_C1                                           0     0      0    6962
                          _pulse_gen
 ---------------------------------------------------------------------------------
 (2) _state_7_C1                                           0     0      0    6962
                          _pulse_gen
 ---------------------------------------------------------------------------------
 (2) _state_6_C1                                           0     0      0    6962
                          _pulse_gen
 ---------------------------------------------------------------------------------
 (2) _state_5_C1                                           0     0      0    6962
                          _pulse_gen
 ---------------------------------------------------------------------------------
 (2) _state_4_C1                                           0     0      0    6962
                          _pulse_gen
 ---------------------------------------------------------------------------------
 (2) _state_3_C1                                           0     0      0    6962
                          _pulse_gen
 ---------------------------------------------------------------------------------
 (2) _state_2_C1                                           0     0      0    6962
                          _pulse_gen
 ---------------------------------------------------------------------------------
 (2) _state_1_C1                                           0     0      0    6962
                          _pulse_gen
 ---------------------------------------------------------------------------------
 (2) _state_0_C1                                           0     0      0    6962
                          _pulse_gen
 ---------------------------------------------------------------------------------
 (3) _pulse_gen                                            7     5      2    6962
                                              0 COMMON     7     5      2
 ---------------------------------------------------------------------------------
 (2) _latch_gen                                            0     0      0       0
 ---------------------------------------------------------------------------------
 (1) _latch_gen_1                                          0     0      0       0
 ---------------------------------------------------------------------------------
 Estimated maximum stack depth 3
 ---------------------------------------------------------------------------------

 Call Graph Graphs:

 _main (ROOT)
   _latch_gen_1
   _pulse_gen_1
   _second_counting
     _latch_gen
     _pulse_gen
     _state_0_C1
       _pulse_gen
     _state_1_C1
       _pulse_gen
     _state_2_C1
       _pulse_gen
     _state_3_C1
       _pulse_gen
     _state_4_C1
       _pulse_gen
     _state_5_C1
       _pulse_gen
     _state_6_C1
       _pulse_gen
     _state_7_C1
       _pulse_gen
     _state_8_C1
       _pulse_gen
     _state_9_C1
       _pulse_gen
   _state_0_C4
     _pulse_gen_1
   _state_1_C4
     _pulse_gen_1
   _state_2_C4
     _pulse_gen_1
   _state_3_C4
     _pulse_gen_1
   _state_4_C4
     _pulse_gen_1
   _state_5_C4
     _pulse_gen_1
   _state_6_C4
     _pulse_gen_1
   _state_7_C4
     _pulse_gen_1
   _state_8_C4
     _pulse_gen_1
   _state_9_C4
     _pulse_gen_1

 Address spaces:
Name               Size   Autos  Total    Cost      Usage
BIGRAM             1F0      0       0       0        0.0%
NULL                 0      0       0       0        0.0%
CODE                 0      0       0       0        0.0%
BITCOMMON            E      0       0       1        0.0%
BITSFR0              0      0       0       1        0.0%
SFR0                 0      0       0       1        0.0%
COMMON               E      8       8       2       57.1%
BITSFR1              0      0       0       2        0.0%
SFR1                 0      0       0       2        0.0%
BITSFR2              0      0       0       3        0.0%
SFR2                 0      0       0       3        0.0%
STACK                0      0       0       3        0.0%
BITSFR3              0      0       0       4        0.0%
SFR3                 0      0       0       4        0.0%
ABS                  0      0       0       4        0.0%
BITBANK0            50      0       0       5        0.0%
BITSFR4              0      0       0       5        0.0%
SFR4                 0      0       0       5        0.0%
BANK0               50      0       0       6        0.0%
BITSFR5              0      0       0       6        0.0%
SFR5                 0      0       0       6        0.0%
BITBANK1            50      0       0       7        0.0%
BITSFR6              0      0       0       7        0.0%
SFR6                 0      0       0       7        0.0%
BANK1               50      0       0       8        0.0%
BITSFR7              0      0       0       8        0.0%
SFR7                 0      0       0       8        0.0%
BITBANK2            50      0       0       9        0.0%
BITSFR8              0      0       0       9        0.0%
SFR8                 0      0       0       9        0.0%
BANK2               50      0       0      10        0.0%
BITSFR9              0      0       0      10        0.0%
SFR9                 0      0       0      10        0.0%
BITBANK3            50      0       0      11        0.0%
BITSFR10             0      0       0      11        0.0%
SFR10                0      0       0      11        0.0%
BANK3               50      0       0      12        0.0%
BITSFR11             0      0       0      12        0.0%
SFR11                0      0       0      12        0.0%
BITBANK4            50      0       0      13        0.0%
BITSFR12             0      0       0      13        0.0%
SFR12                0      0       0      13        0.0%
BANK4               50      0       0      14        0.0%
BITSFR13             0      0       0      14        0.0%
SFR13                0      0       0      14        0.0%
BITBANK5            50      0       0      15        0.0%
BITSFR14             0      0       0      15        0.0%
SFR14                0      0       0      15        0.0%
BANK5               50      0       0      16        0.0%
BITSFR15             0      0       0      16        0.0%
SFR15                0      0       0      16        0.0%
BITBANK6            10      0       0      17        0.0%
BITSFR16             0      0       0      17        0.0%
SFR16                0      0       0      17        0.0%
BANK6               10      0       0      18        0.0%
BITSFR17             0      0       0      18        0.0%
SFR17                0      0       0      18        0.0%
BITSFR18             0      0       0      19        0.0%
SFR18                0      0       0      19        0.0%
DATA                 0      0       0      19        0.0%
BITSFR19             0      0       0      20        0.0%
SFR19                0      0       0      20        0.0%
BITSFR20             0      0       0      21        0.0%
SFR20                0      0       0      21        0.0%
BITSFR21             0      0       0      22        0.0%
SFR21                0      0       0      22        0.0%
BITSFR22             0      0       0      23        0.0%
SFR22                0      0       0      23        0.0%
BITSFR23             0      0       0      24        0.0%
SFR23                0      0       0      24        0.0%
BITSFR24             0      0       0      25        0.0%
SFR24                0      0       0      25        0.0%
BITSFR25             0      0       0      26        0.0%
SFR25                0      0       0      26        0.0%
BITSFR26             0      0       0      27        0.0%
SFR26                0      0       0      27        0.0%
BITSFR27             0      0       0      28        0.0%
SFR27                0      0       0      28        0.0%
BITSFR28             0      0       0      29        0.0%
SFR28                0      0       0      29        0.0%
BITSFR29             0      0       0      30        0.0%
SFR29                0      0       0      30        0.0%
BITSFR30             0      0       0      31        0.0%
SFR30                0      0       0      31        0.0%
BITSFR31             0      0       0      32        0.0%
SFR31                0      0       0      32        0.0%


Microchip Technology PIC Macro Assembler V2.36 build 20220127204148 
Symbol Table                                                                                   Tue Mar 08 09:59:12 2022

                     l12 0FE4                       l20 0EC7                       l14 0FFF  
                     l23 0F1C                       l32 0053                       l17 0EAA  
                     l41 0EDA                       l26 00A6                       l50 07FC  
                     l35 00D4                       l44 0EB4                       l29 0F38  
                     l38 0F54                       l54 0013                       l62 0EED  
                     l47 0F70                       l71 0FA8                       l56 002E  
                     l80 0FC4                       l65 0F8C                       l74 0078  
                     l59 0EA6                       l83 0F00                       l68 0102  
                     l77 0130                       l86 000F                       l89 0FE0  
                     u30 0FFF                       u31 0FFE                       u40 002E  
                     u41 002D                       u35 0FFB                       u45 002A  
                     u57 026F                       u67 0287                       u77 029F  
                     u87 02B7                       u97 02CF              _pulse_gen_1 0010  
                    l629 0EA7                      u107 02E7                      u117 02FF  
                    u207 03D7                      u127 0317                      u217 03EF  
                    u137 032F                      u307 04C7                      u227 0407  
                    u147 0347                      u317 04DF                      u237 041F  
                    u157 035F                      u407 05B7                      u327 04F7  
                    u247 0437                      u167 0377                      u417 05CF  
                    u337 050F                      u257 044F                      u177 038F  
                    u507 06A7                      u427 05E7                      u347 0527  
                    u267 0467                      u187 03A7                      u517 06BF  
                    u437 05FF                      u357 053F                      u277 047F  
                    u197 03BF                      u607 0797                      u527 06D7  
                    u447 0617                      u367 0557                      u287 0497  
                    u617 07AF                      u537 06EF                      u457 062F  
                    u377 056F                      u297 04AF                      u627 07C7  
                    u547 0707                      u467 0647                      u387 0587  
                    u637 07DF                      u557 071F                      u477 065F  
                    u397 059F                      u647 07F7                      u567 0737  
                    u487 0677                      u577 074F                      u497 068F  
                    u587 0767                      u597 077F                      wreg 0009  
                   l1043 0EA3                     l1311 0FE1                     l1313 0FE7  
                   l1321 0EBE                     l1315 0FEB                     l1331 0F13  
                   l1403 0EAB                     l1411 0F57                     l1317 0EB5  
                   l1325 0F01                     l1341 008B                     l1405 0EAD  
                   l1413 0F5E                     l1501 03C7                     l1421 0016  
                   l1319 0EB7                     l1327 0F03                     l1343 0094  
                   l1335 0079                     l1351 0F1F                     l1415 0F67  
                   l1511 03F7                     l1503 03CE                     l1431 0277  
                   l1423 001A                     l1329 0F0A                     l1345 009D  
                   l1337 007B                     l1353 0F26                     l1361 0031  
                   l1409 0F55                     l1601 05A7                     l1521 0427  
                   l1513 03FE                     l1505 03D4                     l1441 02A7  
                   l1433 027E                     l1425 025C                     l1339 0082  
                   l1355 0F2F                     l1363 0038                     l1371 00A7  
                   l1611 05D7                     l1603 05AE                     l1531 0457  
                   l1523 042E                     l1515 0404                     l1507 03E9  
                   l1451 02D7                     l1443 02AE                     l1435 0284  
                   l1427 0269                     l1419 0010                     l1349 0F1D  
                   l1365 0041                     l1381 00CB                     l1373 00A9  
                   l1701 0787                     l1621 0607                     l1613 05DE  
                   l1605 05B4                     l1541 0487                     l1533 045E  
                   l1525 0434                     l1517 0419                     l1509 03F4  
                   l1461 0307                     l1453 02DE                     l1445 02B4  
                   l1437 0299                     l1429 0274                     l1367 004A  
                   l1359 002F                     l1375 00B0                     l1391 0F4B  
                   l1711 07B7                     l1703 078E                     l1631 0637  
                   l1623 060E                     l1615 05E4                     l1607 05C9  
                   l1551 04B7                     l1543 048E                     l1535 0464  
                   l1527 0449                     l1519 0424                     l1471 0337  
                   l1463 030E                     l1455 02E4                     l1447 02C9  
                   l1439 02A4                     l1377 00B9                     l1385 0F39  
                   l1721 07E7                     l1713 07BE                     l1705 0794  
                   l1641 0667                     l1633 063E                     l1625 0614  
                   l1617 05F9                     l1609 05D4                     l1561 04E7  
                   l1553 04BE                     l1545 0494                     l1537 0479  
                   l1529 0454                     l1481 0367                     l1473 033E  
                   l1465 0314                     l1457 02F9                     l1449 02D4  
                   l1801 0FB2                     l1379 00C2                     l1387 0F3B  
                   l1395 0EC8                     l1723 07EE                     l1715 07C4  
                   l1707 07A9                     l1651 0697                     l1643 066E  
                   l1635 0644                     l1627 0629                     l1619 0604  
                   l1571 0517                     l1563 04EE                     l1555 04C4  
                   l1547 04A9                     l1539 0484                     l1491 0397  
                   l1483 036E                     l1475 0344                     l1467 0329  
                   l1459 0304                     l1731 0EDD                     l1803 0FBB  
                   l1811 0EF7                     l1389 0F42                     l1397 0ECA  
                   l1725 07F4                     l1717 07D9                     l1709 07B4  
                   l1661 06C7                     l1653 069E                     l1645 0674  
                   l1637 0659                     l1629 0634                     l1581 0547  
                   l1573 051E                     l1565 04F4                     l1557 04D9  
                   l1549 04B4                     l1493 039E                     l1485 0374  
                   l1477 0359                     l1469 0334                     l1733 0EE4  
                   l1741 0F7A                     l1821 0FC5                     l1901 01A8  
                   l1399 0ED1                     l1719 07E4                     l1671 06F7  
                   l1663 06CE                     l1655 06A4                     l1647 0689  
                   l1639 0664                     l1591 0577                     l1583 054E  
                   l1575 0524                     l1567 0509                     l1559 04E4  
                   l1495 03A4                     l1487 0389                     l1479 0364  
                   l1743 0F83                     l1751 00DE                     l1807 0EEE  
                   l1815 0006                     l1823 0FC7                     l1911 01BB  
                   l1903 01AB                     l1831 0131                     l1681 0727  
                   l1673 06FE                     l1665 06D4                     l1657 06B9  
                   l1649 0694                     l1593 057E                     l1585 0554  
                   l1577 0539                     l1569 0514                     l1497 03B9  
                   l1489 0394                     l1729 0EDB                     l1737 0F71  
                   l1753 00E7                     l1761 0F8D                     l1809 0EF0  
                   l1817 0008                     l1825 0FCE                     l1921 01CE  
                   l1913 01BE                     l1905 01AE                     l1841 013A  
                   l1833 0135                     l1691 0757                     l1683 072E  
                   l1675 0704                     l1667 06E9                     l1659 06C4  
                   l1595 0584                     l1587 0569                     l1579 0544  
                   l1499 03C4                     l1739 0F73                     l1755 00F0  
                   l1747 00D5                     l1763 0F8F                     l1771 0054  
                   l1827 0FD7                     l1931 01E1                     l1923 01D1  
                   l1915 01C1                     l1907 01B1                     l1851 0149  
                   l1843 013B                     l1835 0137                     l1693 075E  
                   l1685 0734                     l1677 0719                     l1669 06F4  
                   l1597 0599                     l1589 0574                     l1757 00F9  
                   l1749 00D7                     l1765 0F96                     l1773 0056  
                   l1941 01F4                     l1933 01E4                     l1925 01D4  
                   l1917 01C4                     l1909 01B8                     l1861 015C  
                   l1853 014C                     l1845 013C                     l1837 0138  
                   l1695 0764                     l1687 0749                     l1679 0724  
                   l1599 05A4                     l1767 0F9F                     l1775 005D  
                   l1791 011E                     l1783 0103                     l1951 0207  
                   l1943 01F7                     l1935 01E7                     l1927 01D7  
                   l1919 01CB                     l1871 016F                     l1863 015F  
                   l1855 014F                     l1847 013F                     l1839 0139  
                   l1697 0779                     l1689 0754                     l1777 0066  
                   l1793 0127                     l1785 0105                     l1961 021A  
                   l1953 020A                     l1945 01FA                     l1937 01EA  
                   l1929 01DE                     l1881 0182                     l1873 0172  
                   l1865 0162                     l1857 0152                     l1849 0146  
                   l1699 0784                     l1779 006F                     l1787 010C  
                   l1971 022D                     l1963 021D                     l1955 020D  
                   l1947 01FD                     l1939 01F1                     l1891 0195  
                   l1883 0185                     l1875 0175                     l1867 0165  
                   l1859 0159                     l1789 0115                     l1797 0FA9  
                   l1981 0240                     l1973 0230                     l1965 0220  
                   l1957 0210                     l1949 0204                     l1893 0198  
                   l1885 0188                     l1877 0178                     l1869 016C  
                   l1799 0FAB                     l1991 0253                     l1983 0243  
                   l1975 0233                     l1967 0223                     l1959 0217  
                   l1895 019B                     l1887 018B                     l1879 017F  
                   l1993 0256                     l1985 0246                     l1977 0236  
                   l1969 022A                     l1897 019E                     l1889 0192  
                   l1987 0249                     l1979 023D                     l1899 01A5  
                   l1989 0250             ?_latch_gen_1 0070                     _main 0131  
                   btemp 007E        ??_second_counting 0077                     start 0002  
                  ?_main 0070                    _TRISC 008E                    wtemp0 007E  
        __initialization 07FD             __end_of_main 025C                   ??_main 0078  
                 _ANSELC 018E  __end_of__initialization 07FD           __pcstackCOMMON 0070  
           ?_pulse_gen_1 0070          _second_counting 025C               __pmaintext 0131  
      __end_of_latch_gen 0EAB                  __ptext1 0FC5                  __ptext2 0006  
                __ptext3 0EEE                  __ptext4 0FA9                  __ptext5 0103  
                __ptext6 0054                  __ptext7 0F8D                  __ptext8 00D5  
                __ptext9 0F71  __end_of_second_counting 07FD     end_of_initialization 07FD  
      __end_of_pulse_gen 1000               _state_0_C1 0EB5               _state_0_C4 0EDB  
             _state_1_C1 0F01               _state_1_C4 0F71               _state_2_C1 0079  
             _state_2_C4 00D5               _state_3_C1 0F1D               _state_3_C4 0F8D  
             _state_4_C1 002F               _state_4_C4 0054               _state_5_C1 00A7  
             _state_5_C4 0103               _state_6_C1 0F39               _state_6_C4 0FA9  
             _state_7_C1 0EC8               _state_7_C4 0EEE               _state_8_C1 0EAB  
             _state_8_C4 0006               _state_9_C1 0F55               _state_9_C4 0FC5  
       ?_second_counting 0070      start_initialization 07FD            ??_latch_gen_1 0070  
            ?_state_0_C1 0070              ?_state_0_C4 0070              ?_state_1_C1 0070  
            ?_state_1_C4 0070              ?_state_2_C1 0070              ?_state_2_C4 0070  
            ?_state_3_C1 0070              ?_state_3_C4 0070              ?_state_4_C1 0070  
            ?_state_4_C4 0070              ?_state_5_C1 0070              ?_state_5_C4 0070  
            ?_state_6_C1 0070              ?_state_6_C4 0070              ?_state_7_C1 0070  
            ?_state_7_C4 0070              ?_state_8_C1 0070              ?_state_8_C4 0070  
            ?_state_9_C1 0070              ?_state_9_C4 0070                ___latbits 0002  
    __end_of_latch_gen_1 0EA7                _latch_gen 0EA7                 _LATCbits 010E  
         pulse_gen_1@i_1 0075           pulse_gen_1@n_1 0070                _pulse_gen 0FE1  
             ?_latch_gen 0070              _latch_gen_1 0EA3               pulse_gen@i 0075  
             pulse_gen@n 0070            ??_pulse_gen_1 0072               ?_pulse_gen 0070  
               __ptext10 0EDB                 __ptext11 0010                 __ptext20 0079  
               __ptext12 025C                 __ptext21 0F01                 __ptext13 0F55  
               __ptext22 0EB5                 __ptext14 0EAB                 __ptext23 0FE1  
               __ptext15 0EC8                 __ptext24 0EA7                 __ptext16 0F39  
               __ptext25 0EA3                 __ptext17 00A7                 __ptext18 002F  
               __ptext19 0F1D              ??_latch_gen 0070             ??_state_0_C1 0077  
           ??_state_0_C4 0077             ??_state_1_C1 0077             ??_state_1_C4 0077  
           ??_state_2_C1 0077             ??_state_2_C4 0077             ??_state_3_C1 0077  
           ??_state_3_C4 0077             ??_state_4_C1 0077             ??_state_4_C4 0077  
           ??_state_5_C1 0077             ??_state_5_C4 0077             ??_state_6_C1 0077  
           ??_state_6_C4 0077      __end_of_pulse_gen_1 002F             ??_state_7_C1 0077  
           ??_state_7_C4 0077             ??_state_8_C1 0077             ??_state_8_C4 0077  
           ??_state_9_C1 0077             ??_state_9_C4 0077       __end_of_state_0_C1 0EC8  
     __end_of_state_0_C4 0EEE       __end_of_state_1_C1 0F1D       __end_of_state_1_C4 0F8D  
     __end_of_state_2_C1 00A7       __end_of_state_2_C4 0103       __end_of_state_3_C1 0F39  
     __end_of_state_3_C4 0FA9       __end_of_state_4_C1 0054       __end_of_state_4_C4 0079  
     __end_of_state_5_C1 00D5       __end_of_state_5_C4 0131       __end_of_state_6_C1 0F55  
     __end_of_state_6_C4 0FC5       __end_of_state_7_C1 0EDB       __end_of_state_7_C4 0F01  
     __end_of_state_8_C1 0EB5       __end_of_state_8_C4 0010       __end_of_state_9_C1 0F71  
     __end_of_state_9_C4 0FE1              ??_pulse_gen 0072  
