

Microchip MPLAB XC8 Assembler V2.36 build 20220127204148 
                                                                                               Tue Apr 19 10:09:09 2022

Microchip MPLAB XC8 C Compiler v2.36 (Free license) build 20220127204148 Og1 
     1                           	processor	16F887
     2                           	pagewidth 120
     3                           	opt	flic
     4                           	psect	idataBANK3,global,class=CODE,delta=2,noexec
     5                           	psect	strings,global,class=STRING,delta=2,noexec
     6                           	psect	cinit,global,class=CODE,merge=1,delta=2
     7                           	psect	bssBANK3,global,class=BANK3,space=1,delta=1,noexec
     8                           	psect	dataBANK3,global,class=BANK3,space=1,delta=1,noexec
     9                           	psect	inittext,global,class=CODE,delta=2
    10                           	psect	cstackBANK1,global,class=BANK1,space=1,delta=1,noexec
    11                           	psect	cstackCOMMON,global,class=COMMON,space=1,delta=1,noexec
    12                           	psect	cstackBANK0,global,class=BANK0,space=1,delta=1,noexec
    13                           	psect	maintext,global,class=CODE,split=1,delta=2
    14                           	psect	text1,local,class=CODE,merge=1,delta=2
    15                           	psect	text2,local,class=CODE,merge=1,delta=2,group=2
    16                           	psect	text3,local,class=CODE,merge=1,delta=2,group=2
    17                           	psect	text4,local,class=CODE,merge=1,delta=2,group=2
    18                           	psect	text5,local,class=CODE,merge=1,delta=2,group=2
    19                           	psect	text6,local,class=CODE,merge=1,delta=2,group=2
    20                           	psect	text7,local,class=CODE,merge=1,delta=2,group=2
    21                           	psect	text8,local,class=CODE,merge=1,delta=2,group=1
    22                           	psect	text9,local,class=CODE,merge=1,delta=2,group=1
    23                           	psect	text10,local,class=CODE,merge=1,delta=2,group=1
    24                           	psect	text11,local,class=CODE,merge=1,delta=2,group=1
    25                           	psect	text12,local,class=CODE,merge=1,delta=2,group=2
    26                           	psect	text13,local,class=CODE,merge=1,delta=2,group=1
    27                           	psect	text14,local,class=CODE,merge=1,delta=2,group=1
    28                           	psect	text15,local,class=CODE,merge=1,delta=2,group=1
    29                           	psect	text16,local,class=CODE,merge=1,delta=2,group=1
    30                           	psect	text17,local,class=CODE,merge=1,delta=2,group=1
    31                           	psect	text18,local,class=CODE,merge=1,delta=2,group=1
    32                           	psect	text19,local,class=CODE,merge=1,delta=2
    33                           	psect	text20,local,class=CODE,merge=1,delta=2
    34                           	psect	text21,local,class=CODE,merge=1,delta=2
    35                           	psect	text22,local,class=CODE,merge=1,delta=2,group=1
    36                           	psect	text23,local,class=CODE,merge=1,delta=2,group=1
    37                           	psect	text24,local,class=CODE,merge=1,delta=2,group=1
    38                           	psect	idloc,global,abs,ovrld,class=IDLOC,space=5,delta=2,noexec
    39                           	psect	config,global,abs,ovrld,class=CONFIG,space=4,delta=2,noexec
    40                           	dabs	1,0x7E,2
    41  0000                     
    42                           ; Version 2.40
    43                           ; Generated 17/11/2021 GMT
    44                           ; 
    45                           ; Copyright © 2021, Microchip Technology Inc. and its subsidiaries ("Microchip")
    46                           ; All rights reserved.
    47                           ; 
    48                           ; This software is developed by Microchip Technology Inc. and its subsidiaries ("Microch
      +                          ip").
    49                           ; 
    50                           ; Redistribution and use in source and binary forms, with or without modification, are
    51                           ; permitted provided that the following conditions are met:
    52                           ; 
    53                           ;     1. Redistributions of source code must retain the above copyright notice, this lis
      +                          t of
    54                           ;        conditions and the following disclaimer.
    55                           ; 
    56                           ;     2. Redistributions in binary form must reproduce the above copyright notice, this 
      +                          list
    57                           ;        of conditions and the following disclaimer in the documentation and/or other
    58                           ;        materials provided with the distribution. Publication is not required when
    59                           ;        this file is used in an embedded application.
    60                           ; 
    61                           ;     3. Microchip's name may not be used to endorse or promote products derived from th
      +                          is
    62                           ;        software without specific prior written permission.
    63                           ; 
    64                           ; THIS SOFTWARE IS PROVIDED BY MICROCHIP "AS IS" AND ANY EXPRESS OR IMPLIED WARRANTIES,
    65                           ; INCLUDING, BUT NOT LIMITED TO, THE IMPLIED WARRANTIES OF MERCHANTABILITY AND FITNESS F
      +                          OR
    66                           ; PURPOSE ARE DISCLAIMED.  IN NO EVENT SHALL MICROCHIP BE LIABLE FOR ANY DIRECT, INDIREC
      +                          T,
    67                           ; INCIDENTAL, SPECIAL, EXEMPLARY, OR CONSEQUENTIAL DAMAGES (INCLUDING BUT NOT LIMITED TO
    68                           ; PROCUREMENT OF SUBSTITUTE GOODS OR SERVICES; LOSS OF USE, DATA OR PROFITS; OR BUSINESS
    69                           ; INTERRUPTION) HOWSOEVER CAUSED AND ON ANY THEORY OF LIABILITY, WHETHER IN CONTRACT, ST
      +                          RICT
    70                           ; LIABILITY, OR TORT (INCLUDING NEGLIGENCE OR OTHERWISE) ARISING IN ANY WAY OUT OF THE U
      +                          SE OF
    71                           ; THIS SOFTWARE, EVEN IF ADVISED OF THE POSSIBILITY OF SUCH DAMAGE.
    72                           ; 
    73                           ; 
    74                           ; Code-generator required, PIC16F887 Definitions
    75                           ; 
    76                           ; SFR Addresses
    77  0000                     	;# 
    78  0001                     	;# 
    79  0002                     	;# 
    80  0003                     	;# 
    81  0004                     	;# 
    82  0005                     	;# 
    83  0006                     	;# 
    84  0007                     	;# 
    85  0008                     	;# 
    86  0009                     	;# 
    87  000A                     	;# 
    88  000B                     	;# 
    89  000C                     	;# 
    90  000D                     	;# 
    91  000E                     	;# 
    92  000E                     	;# 
    93  000F                     	;# 
    94  0010                     	;# 
    95  0011                     	;# 
    96  0012                     	;# 
    97  0013                     	;# 
    98  0014                     	;# 
    99  0015                     	;# 
   100  0015                     	;# 
   101  0016                     	;# 
   102  0017                     	;# 
   103  0018                     	;# 
   104  0019                     	;# 
   105  001A                     	;# 
   106  001B                     	;# 
   107  001B                     	;# 
   108  001C                     	;# 
   109  001D                     	;# 
   110  001E                     	;# 
   111  001F                     	;# 
   112  0081                     	;# 
   113  0085                     	;# 
   114  0086                     	;# 
   115  0087                     	;# 
   116  0088                     	;# 
   117  0089                     	;# 
   118  008C                     	;# 
   119  008D                     	;# 
   120  008E                     	;# 
   121  008F                     	;# 
   122  0090                     	;# 
   123  0091                     	;# 
   124  0092                     	;# 
   125  0093                     	;# 
   126  0093                     	;# 
   127  0093                     	;# 
   128  0094                     	;# 
   129  0095                     	;# 
   130  0096                     	;# 
   131  0097                     	;# 
   132  0098                     	;# 
   133  0099                     	;# 
   134  009A                     	;# 
   135  009B                     	;# 
   136  009C                     	;# 
   137  009D                     	;# 
   138  009E                     	;# 
   139  009F                     	;# 
   140  0105                     	;# 
   141  0107                     	;# 
   142  0108                     	;# 
   143  0109                     	;# 
   144  010C                     	;# 
   145  010C                     	;# 
   146  010D                     	;# 
   147  010E                     	;# 
   148  010F                     	;# 
   149  0185                     	;# 
   150  0187                     	;# 
   151  0188                     	;# 
   152  0189                     	;# 
   153  018C                     	;# 
   154  018D                     	;# 
   155  0000                     	;# 
   156  0001                     	;# 
   157  0002                     	;# 
   158  0003                     	;# 
   159  0004                     	;# 
   160  0005                     	;# 
   161  0006                     	;# 
   162  0007                     	;# 
   163  0008                     	;# 
   164  0009                     	;# 
   165  000A                     	;# 
   166  000B                     	;# 
   167  000C                     	;# 
   168  000D                     	;# 
   169  000E                     	;# 
   170  000E                     	;# 
   171  000F                     	;# 
   172  0010                     	;# 
   173  0011                     	;# 
   174  0012                     	;# 
   175  0013                     	;# 
   176  0014                     	;# 
   177  0015                     	;# 
   178  0015                     	;# 
   179  0016                     	;# 
   180  0017                     	;# 
   181  0018                     	;# 
   182  0019                     	;# 
   183  001A                     	;# 
   184  001B                     	;# 
   185  001B                     	;# 
   186  001C                     	;# 
   187  001D                     	;# 
   188  001E                     	;# 
   189  001F                     	;# 
   190  0081                     	;# 
   191  0085                     	;# 
   192  0086                     	;# 
   193  0087                     	;# 
   194  0088                     	;# 
   195  0089                     	;# 
   196  008C                     	;# 
   197  008D                     	;# 
   198  008E                     	;# 
   199  008F                     	;# 
   200  0090                     	;# 
   201  0091                     	;# 
   202  0092                     	;# 
   203  0093                     	;# 
   204  0093                     	;# 
   205  0093                     	;# 
   206  0094                     	;# 
   207  0095                     	;# 
   208  0096                     	;# 
   209  0097                     	;# 
   210  0098                     	;# 
   211  0099                     	;# 
   212  009A                     	;# 
   213  009B                     	;# 
   214  009C                     	;# 
   215  009D                     	;# 
   216  009E                     	;# 
   217  009F                     	;# 
   218  0105                     	;# 
   219  0107                     	;# 
   220  0108                     	;# 
   221  0109                     	;# 
   222  010C                     	;# 
   223  010C                     	;# 
   224  010D                     	;# 
   225  010E                     	;# 
   226  010F                     	;# 
   227  0185                     	;# 
   228  0187                     	;# 
   229  0188                     	;# 
   230  0189                     	;# 
   231  018C                     	;# 
   232  018D                     	;# 
   233                           
   234                           	psect	idataBANK3
   235  1FA2                     __pidataBANK3:
   236                           
   237                           ;initializer for _Com_Ca
   238  1FA2  347E               	retlw	126
   239  1FA3  3430               	retlw	48
   240  1FA4  346D               	retlw	109
   241  1FA5  3479               	retlw	121
   242  1FA6  3433               	retlw	51
   243  1FA7  345B               	retlw	91
   244  1FA8  345F               	retlw	95
   245  1FA9  3470               	retlw	112
   246  1FAA  347F               	retlw	127
   247  1FAB  347B               	retlw	123
   248                           
   249                           	psect	strings
   250  0800                     __pstrings:
   251  0800                     stringtab:
   252  0800                     __stringtab:
   253  0800                     stringcode:	
   254                           ;	String table - string pointers are 1 byte each
   255                           
   256  0800                     stringdir:
   257  0800  3008               	movlw	high stringdir
   258  0801  008A               	movwf	10
   259  0802  0804               	movf	4,w
   260  0803  0A84               	incf	4,f
   261  0804  0782               	addwf	2,f
   262  0805                     __stringbase:
   263  0805  3400               	retlw	0
   264  0806                     __end_of__stringtab:
   265  0806                     exp@coeff:
   266  0806  3400               	retlw	0
   267  0807  3400               	retlw	0
   268  0808  3480               	retlw	128
   269  0809  343F               	retlw	63
   270  080A  3418               	retlw	24
   271  080B  3472               	retlw	114
   272  080C  3431               	retlw	49
   273  080D  343F               	retlw	63
   274  080E  34F0               	retlw	240
   275  080F  34FD               	retlw	253
   276  0810  3475               	retlw	117
   277  0811  343E               	retlw	62
   278  0812  3447               	retlw	71
   279  0813  3458               	retlw	88
   280  0814  3463               	retlw	99
   281  0815  343D               	retlw	61
   282  0816  3458               	retlw	88
   283  0817  3495               	retlw	149
   284  0818  341D               	retlw	29
   285  0819  343C               	retlw	60
   286  081A  3482               	retlw	130
   287  081B  34C4               	retlw	196
   288  081C  34AE               	retlw	174
   289  081D  343A               	retlw	58
   290  081E  34A8               	retlw	168
   291  081F  3478               	retlw	120
   292  0820  3421               	retlw	33
   293  0821  3439               	retlw	57
   294  0822  34EF               	retlw	239
   295  0823  3493               	retlw	147
   296  0824  3480               	retlw	128
   297  0825  3437               	retlw	55
   298  0826  34A0               	retlw	160
   299  0827  3492               	retlw	146
   300  0828  34A7               	retlw	167
   301  0829  3435               	retlw	53
   302  082A  3446               	retlw	70
   303  082B  3456               	retlw	86
   304  082C  3415               	retlw	21
   305  082D  3434               	retlw	52
   306  082E                     __end_ofexp@coeff:
   307  082E                     log@coeff:
   308  082E  3400               	retlw	0
   309  082F  3400               	retlw	0
   310  0830  3400               	retlw	0
   311  0831  3400               	retlw	0
   312  0832  34C4               	retlw	196
   313  0833  34FF               	retlw	255
   314  0834  347F               	retlw	127
   315  0835  343F               	retlw	63
   316  0836  3480               	retlw	128
   317  0837  34EF               	retlw	239
   318  0838  34FF               	retlw	255
   319  0839  34BE               	retlw	190
   320  083A  3490               	retlw	144
   321  083B  34E1               	retlw	225
   322  083C  34A9               	retlw	169
   323  083D  343E               	retlw	62
   324  083E  34EC               	retlw	236
   325  083F  3482               	retlw	130
   326  0840  3476               	retlw	118
   327  0841  34BE               	retlw	190
   328  0842  3482               	retlw	130
   329  0843  34AD               	retlw	173
   330  0844  342B               	retlw	43
   331  0845  343E               	retlw	62
   332  0846  340E               	retlw	14
   333  0847  343C               	retlw	60
   334  0848  34C3               	retlw	195
   335  0849  34BD               	retlw	189
   336  084A  3487               	retlw	135
   337  084B  34D1               	retlw	209
   338  084C  3413               	retlw	19
   339  084D  343D               	retlw	61
   340  084E  3441               	retlw	65
   341  084F  3478               	retlw	120
   342  0850  34D3               	retlw	211
   343  0851  34BB               	retlw	187
   344  0852                     __end_oflog@coeff:
   345  001F                     _ADCON0	set	31
   346  0008                     _PORTD	set	8
   347  001E                     _ADRESH	set	30
   348  001F                     _ADCON0bits	set	31
   349  0008                     _PORTDbits	set	8
   350  009F                     _ADCON1	set	159
   351  0085                     _TRISAbits	set	133
   352  0088                     _TRISD	set	136
   353  009E                     _ADRESL	set	158
   354                           
   355                           	psect	cinit
   356  07EA                     start_initialization:	
   357                           ; #config settings
   358                           
   359  07EA                     __initialization:
   360                           
   361                           ; Initialize objects allocated to BANK3
   362  07EA  1783               	bsf	3,7	;select IRP bank2
   363  07EB  309A               	movlw	low (__pdataBANK3+10)
   364  07EC  00FD               	movwf	btemp+-1
   365  07ED  301F               	movlw	high __pidataBANK3
   366  07EE  00FE               	movwf	btemp
   367  07EF  30A2               	movlw	low __pidataBANK3
   368  07F0  00FF               	movwf	btemp+1
   369  07F1  3090               	movlw	low __pdataBANK3
   370  07F2  0084               	movwf	4
   371  07F3  120A  118A  200B  120A  118A  	fcall	init_ram0
   372                           
   373                           ; Clear objects allocated to BANK3
   374  07F8  1683               	bsf	3,5	;RP0=1, select bank3
   375  07F9  1703               	bsf	3,6	;RP1=1, select bank3
   376  07FA  019A               	clrf	__pbssBANK3& (0+127)
   377  07FB  019B               	clrf	(__pbssBANK3+1)& (0+127)
   378  07FC                     end_of_initialization:	
   379                           ;End of C runtime variable initialization code
   380                           
   381  07FC                     __end_of__initialization:
   382  07FC  0183               	clrf	3
   383  07FD  120A  118A  29FD   	ljmp	_main	;jump to C main() function
   384                           
   385                           	psect	bssBANK3
   386  019A                     __pbssBANK3:
   387  019A                     _errno:
   388  019A                     	ds	2
   389                           
   390                           	psect	dataBANK3
   391  0190                     __pdataBANK3:
   392  0190                     _Com_Ca:
   393  0190                     	ds	10
   394                           
   395                           	psect	inittext
   396  0007                     init_fetch0:	
   397                           ;	Called with low address in FSR and high address in W
   398                           
   399  0007  087E               	movf	btemp,w
   400  0008  008A               	movwf	10
   401  0009  087F               	movf	btemp+1,w
   402  000A  0082               	movwf	2
   403  000B                     init_ram0:	
   404                           ;Called with:
   405                           ;	high address of idata address in btemp 
   406                           ;	low address of idata address in btemp+1 
   407                           ;	low address of data in FSR
   408                           ;	high address + 1 of data in btemp-1
   409                           
   410  000B  120A  118A  2007  120A  118A  	fcall	init_fetch0
   411  0010  0080               	movwf	0
   412  0011  0A84               	incf	4,f
   413  0012  0804               	movf	4,w
   414  0013  067D               	xorwf	btemp+-1,w
   415  0014  1903               	btfsc	3,2
   416  0015  3400               	retlw	0
   417  0016  0AFF               	incf	btemp+1,f
   418  0017  1903               	btfsc	3,2
   419  0018  0AFE               	incf	btemp,f
   420  0019  280B               	goto	init_ram0
   421                           
   422                           	psect	cstackBANK1
   423  00A0                     __pcstackBANK1:
   424  00A0                     ??_floor:
   425  00A0                     eval_poly@res:	
   426                           ; 1 bytes @ 0x0
   427                           
   428                           
   429                           ; 4 bytes @ 0x0
   430  00A0                     	ds	1
   431  00A1                     floor@i:
   432                           
   433                           ; 4 bytes @ 0x1
   434  00A1                     	ds	3
   435  00A4                     ?_log:
   436  00A4                     ?_ldexp:	
   437                           ; 4 bytes @ 0x4
   438                           
   439  00A4                     ldexp@value:	
   440                           ; 4 bytes @ 0x4
   441                           
   442  00A4                     log@x:	
   443                           ; 4 bytes @ 0x4
   444                           
   445                           
   446                           ; 4 bytes @ 0x4
   447  00A4                     	ds	1
   448  00A5                     floor@expon:
   449                           
   450                           ; 2 bytes @ 0x5
   451  00A5                     	ds	3
   452  00A8                     ldexp@newexp:
   453                           
   454                           ; 2 bytes @ 0x8
   455  00A8                     	ds	2
   456  00AA                     ?_exp:
   457  00AA                     exp@x:	
   458                           ; 4 bytes @ 0xA
   459                           
   460                           
   461                           ; 4 bytes @ 0xA
   462  00AA                     	ds	4
   463  00AE                     ??_exp:
   464                           
   465                           ; 1 bytes @ 0xE
   466  00AE                     	ds	1
   467  00AF                     _exp$882:
   468                           
   469                           ; 4 bytes @ 0xF
   470  00AF                     	ds	4
   471  00B3                     exp@exponent:
   472                           
   473                           ; 2 bytes @ 0x13
   474  00B3                     	ds	2
   475  00B5                     exp@sign:
   476                           
   477                           ; 1 bytes @ 0x15
   478  00B5                     	ds	1
   479  00B6                     ?_pow:
   480  00B6                     pow@x:	
   481                           ; 4 bytes @ 0x16
   482                           
   483                           
   484                           ; 4 bytes @ 0x16
   485  00B6                     	ds	4
   486  00BA                     pow@y:
   487                           
   488                           ; 4 bytes @ 0x1A
   489  00BA                     	ds	4
   490  00BE                     ??_pow:
   491                           
   492                           ; 1 bytes @ 0x1E
   493  00BE                     	ds	1
   494  00BF                     _pow$880:
   495                           
   496                           ; 4 bytes @ 0x1F
   497  00BF                     	ds	4
   498  00C3                     _pow$881:
   499                           
   500                           ; 4 bytes @ 0x23
   501  00C3                     	ds	4
   502  00C7                     pow@sign:
   503                           
   504                           ; 1 bytes @ 0x27
   505  00C7                     	ds	1
   506  00C8                     pow@yi:
   507                           
   508                           ; 4 bytes @ 0x28
   509  00C8                     	ds	4
   510  00CC                     ?_pot_value:
   511                           
   512                           ; 2 bytes @ 0x2C
   513  00CC                     	ds	2
   514  00CE                     ??_pot_value:
   515                           
   516                           ; 1 bytes @ 0x2E
   517  00CE                     	ds	2
   518  00D0                     pot_value@pot_high:
   519                           
   520                           ; 2 bytes @ 0x30
   521  00D0                     	ds	2
   522  00D2                     _pot_value$879:
   523                           
   524                           ; 4 bytes @ 0x32
   525  00D2                     	ds	4
   526  00D6                     pot_value@pot_level:
   527                           
   528                           ; 2 bytes @ 0x36
   529  00D6                     	ds	2
   530  00D8                     pot_value@adres_high:
   531                           
   532                           ; 2 bytes @ 0x38
   533  00D8                     	ds	2
   534  00DA                     pot_value@adres_low:
   535                           
   536                           ; 2 bytes @ 0x3A
   537  00DA                     	ds	2
   538  00DC                     ??_main:
   539                           
   540                           ; 1 bytes @ 0x3C
   541  00DC                     	ds	2
   542  00DE                     main@temp_min:
   543                           
   544                           ; 2 bytes @ 0x3E
   545  00DE                     	ds	2
   546  00E0                     main@temp_sec:
   547                           
   548                           ; 2 bytes @ 0x40
   549  00E0                     	ds	2
   550  00E2                     main@sec_limit:
   551                           
   552                           ; 2 bytes @ 0x42
   553  00E2                     	ds	2
   554  00E4                     main@min_limit:
   555                           
   556                           ; 2 bytes @ 0x44
   557  00E4                     	ds	2
   558  00E6                     main@pot_levelval:
   559                           
   560                           ; 2 bytes @ 0x46
   561  00E6                     	ds	2
   562  00E8                     main@min_counter:
   563                           
   564                           ; 2 bytes @ 0x48
   565  00E8                     	ds	2
   566  00EA                     main@sec_counter:
   567                           
   568                           ; 2 bytes @ 0x4A
   569  00EA                     	ds	2
   570  00EC                     main@state:
   571                           
   572                           ; 1 bytes @ 0x4C
   573  00EC                     	ds	1
   574                           
   575                           	psect	cstackCOMMON
   576  0070                     __pcstackCOMMON:
   577  0070                     ?___flge:
   578  0070                     ?_clk_pulse:	
   579                           ; 1 bit 
   580                           
   581  0070                     ??_clk_pulse:	
   582                           ; 1 bytes @ 0x0
   583                           
   584  0070                     ?_lat_pulse:	
   585                           ; 1 bytes @ 0x0
   586                           
   587  0070                     ??_lat_pulse:	
   588                           ; 1 bytes @ 0x0
   589                           
   590  0070                     ?_main:	
   591                           ; 1 bytes @ 0x0
   592                           
   593  0070                     ?__Umul8_16:	
   594                           ; 1 bytes @ 0x0
   595                           
   596  0070                     ?___wmul:	
   597                           ; 2 bytes @ 0x0
   598                           
   599  0070                     ?___awdiv:	
   600                           ; 2 bytes @ 0x0
   601                           
   602  0070                     ?___awmod:	
   603                           ; 2 bytes @ 0x0
   604                           
   605  0070                     ?___flneg:	
   606                           ; 2 bytes @ 0x0
   607                           
   608  0070                     ?___fldiv:	
   609                           ; 4 bytes @ 0x0
   610                           
   611  0070                     ?___xxtofl:	
   612                           ; 4 bytes @ 0x0
   613                           
   614  0070                     __Umul8_16@multiplicand:	
   615                           ; 4 bytes @ 0x0
   616                           
   617  0070                     ___wmul@multiplier:	
   618                           ; 1 bytes @ 0x0
   619                           
   620  0070                     ___awdiv@divisor:	
   621                           ; 2 bytes @ 0x0
   622                           
   623  0070                     ___awmod@divisor:	
   624                           ; 2 bytes @ 0x0
   625                           
   626  0070                     ___flge@ff1:	
   627                           ; 2 bytes @ 0x0
   628                           
   629  0070                     ___flneg@f1:	
   630                           ; 4 bytes @ 0x0
   631                           
   632  0070                     ___fldiv@a:	
   633                           ; 4 bytes @ 0x0
   634                           
   635  0070                     ___xxtofl@val:	
   636                           ; 4 bytes @ 0x0
   637                           
   638                           
   639                           ; 4 bytes @ 0x0
   640  0070                     	ds	2
   641  0072                     ??__Umul8_16:
   642  0072                     ___wmul@multiplicand:	
   643                           ; 1 bytes @ 0x2
   644                           
   645  0072                     ___awdiv@dividend:	
   646                           ; 2 bytes @ 0x2
   647                           
   648  0072                     ___awmod@dividend:	
   649                           ; 2 bytes @ 0x2
   650                           
   651                           
   652                           ; 2 bytes @ 0x2
   653  0072                     	ds	2
   654  0074                     ??___wmul:
   655  0074                     ??___awdiv:	
   656                           ; 1 bytes @ 0x4
   657                           
   658  0074                     ??___awmod:	
   659                           ; 1 bytes @ 0x4
   660                           
   661  0074                     ??___flneg:	
   662                           ; 1 bytes @ 0x4
   663                           
   664  0074                     ??___xxtofl:	
   665                           ; 1 bytes @ 0x4
   666                           
   667  0074                     ___wmul@product:	
   668                           ; 1 bytes @ 0x4
   669                           
   670  0074                     __Umul8_16@product:	
   671                           ; 2 bytes @ 0x4
   672                           
   673  0074                     ___flge@ff2:	
   674                           ; 2 bytes @ 0x4
   675                           
   676  0074                     ___fldiv@b:	
   677                           ; 4 bytes @ 0x4
   678                           
   679                           
   680                           ; 4 bytes @ 0x4
   681  0074                     	ds	1
   682  0075                     ___awdiv@counter:
   683  0075                     ___awmod@counter:	
   684                           ; 1 bytes @ 0x5
   685                           
   686                           
   687                           ; 1 bytes @ 0x5
   688  0075                     	ds	1
   689  0076                     ___awdiv@sign:
   690  0076                     ___awmod@sign:	
   691                           ; 1 bytes @ 0x6
   692                           
   693  0076                     __Umul8_16@word_mpld:	
   694                           ; 1 bytes @ 0x6
   695                           
   696                           
   697                           ; 2 bytes @ 0x6
   698  0076                     	ds	1
   699  0077                     ___awdiv@quotient:
   700                           
   701                           ; 2 bytes @ 0x7
   702  0077                     	ds	1
   703  0078                     ??___flge:
   704  0078                     ??___fldiv:	
   705                           ; 1 bytes @ 0x8
   706                           
   707  0078                     __Umul8_16@multiplier:	
   708                           ; 1 bytes @ 0x8
   709                           
   710  0078                     ___xxtofl@sign:	
   711                           ; 1 bytes @ 0x8
   712                           
   713                           
   714                           ; 1 bytes @ 0x8
   715  0078                     	ds	1
   716  0079                     ?_bit_shift:
   717  0079                     ___xxtofl@exp:	
   718                           ; 1 bytes @ 0x9
   719                           
   720  0079                     bit_shift@counter:	
   721                           ; 1 bytes @ 0x9
   722                           
   723                           
   724                           ; 2 bytes @ 0x9
   725  0079                     	ds	1
   726  007A                     ___xxtofl@arg:
   727                           
   728                           ; 4 bytes @ 0xA
   729  007A                     	ds	1
   730  007B                     ??_bit_shift:
   731                           
   732                           ; 1 bytes @ 0xB
   733  007B                     	ds	3
   734  007E                     ??___flsub:
   735                           
   736                           	psect	cstackBANK0
   737  0020                     __pcstackBANK0:	
   738                           ; 1 bytes @ 0xE
   739                           
   740  0020                     ?___fleq:
   741  0020                     bit_shift@digit_1:	
   742                           ; 1 bit 
   743                           
   744  0020                     ___fleq@ff1:	
   745                           ; 2 bytes @ 0x0
   746                           
   747  0020                     ___fldiv@rem:	
   748                           ; 4 bytes @ 0x0
   749                           
   750                           
   751                           ; 4 bytes @ 0x0
   752  0020                     	ds	2
   753  0022                     bit_shift@digit_2:
   754                           
   755                           ; 2 bytes @ 0x2
   756  0022                     	ds	2
   757  0024                     bit_shift@i:
   758  0024                     ___fldiv@sign:	
   759                           ; 1 bytes @ 0x4
   760                           
   761  0024                     ___fleq@ff2:	
   762                           ; 1 bytes @ 0x4
   763                           
   764                           
   765                           ; 4 bytes @ 0x4
   766  0024                     	ds	1
   767  0025                     ___fldiv@new_exp:
   768                           
   769                           ; 2 bytes @ 0x5
   770  0025                     	ds	2
   771  0027                     ___fldiv@grs:
   772                           
   773                           ; 4 bytes @ 0x7
   774  0027                     	ds	1
   775  0028                     ??___fleq:
   776                           
   777                           ; 1 bytes @ 0x8
   778  0028                     	ds	3
   779  002B                     ___fldiv@bexp:
   780                           
   781                           ; 1 bytes @ 0xB
   782  002B                     	ds	1
   783  002C                     ?_frexp:
   784  002C                     ___fldiv@aexp:	
   785                           ; 4 bytes @ 0xC
   786                           
   787  002C                     frexp@value:	
   788                           ; 1 bytes @ 0xC
   789                           
   790                           
   791                           ; 4 bytes @ 0xC
   792  002C                     	ds	4
   793  0030                     frexp@eptr:
   794                           
   795                           ; 1 bytes @ 0x10
   796  0030                     	ds	1
   797  0031                     ??_frexp:
   798                           
   799                           ; 1 bytes @ 0x11
   800  0031                     	ds	2
   801  0033                     ?___flmul:
   802  0033                     ___flmul@b:	
   803                           ; 4 bytes @ 0x13
   804                           
   805                           
   806                           ; 4 bytes @ 0x13
   807  0033                     	ds	4
   808  0037                     ___flmul@a:
   809                           
   810                           ; 4 bytes @ 0x17
   811  0037                     	ds	4
   812  003B                     ??___flmul:
   813                           
   814                           ; 1 bytes @ 0x1B
   815  003B                     	ds	5
   816  0040                     ___flmul@sign:
   817                           
   818                           ; 1 bytes @ 0x20
   819  0040                     	ds	1
   820  0041                     ___flmul@aexp:
   821                           
   822                           ; 1 bytes @ 0x21
   823  0041                     	ds	1
   824  0042                     ___flmul@grs:
   825                           
   826                           ; 4 bytes @ 0x22
   827  0042                     	ds	4
   828  0046                     ___flmul@bexp:
   829                           
   830                           ; 1 bytes @ 0x26
   831  0046                     	ds	1
   832  0047                     ___flmul@prod:
   833                           
   834                           ; 4 bytes @ 0x27
   835  0047                     	ds	4
   836  004B                     ___flmul@temp:
   837                           
   838                           ; 2 bytes @ 0x2B
   839  004B                     	ds	2
   840  004D                     ?___fladd:
   841  004D                     ___fladd@b:	
   842                           ; 4 bytes @ 0x2D
   843                           
   844                           
   845                           ; 4 bytes @ 0x2D
   846  004D                     	ds	4
   847  0051                     ___fladd@a:
   848                           
   849                           ; 4 bytes @ 0x31
   850  0051                     	ds	4
   851  0055                     ??___fladd:
   852                           
   853                           ; 1 bytes @ 0x35
   854  0055                     	ds	8
   855  005D                     ___fladd@signs:
   856                           
   857                           ; 1 bytes @ 0x3D
   858  005D                     	ds	1
   859  005E                     ___fladd@aexp:
   860                           
   861                           ; 1 bytes @ 0x3E
   862  005E                     	ds	1
   863  005F                     ___fladd@bexp:
   864                           
   865                           ; 1 bytes @ 0x3F
   866  005F                     	ds	1
   867  0060                     ___fladd@grs:
   868                           
   869                           ; 1 bytes @ 0x40
   870  0060                     	ds	1
   871  0061                     ?_eval_poly:
   872  0061                     ?___fltol:	
   873                           ; 4 bytes @ 0x41
   874                           
   875  0061                     ?___flsub:	
   876                           ; 4 bytes @ 0x41
   877                           
   878  0061                     ___fltol@f1:	
   879                           ; 4 bytes @ 0x41
   880                           
   881  0061                     ___flsub@a:	
   882                           ; 4 bytes @ 0x41
   883                           
   884  0061                     eval_poly@x:	
   885                           ; 4 bytes @ 0x41
   886                           
   887                           
   888                           ; 4 bytes @ 0x41
   889  0061                     	ds	4
   890  0065                     ??___fltol:
   891  0065                     eval_poly@d:	
   892                           ; 1 bytes @ 0x45
   893                           
   894  0065                     ___flsub@b:	
   895                           ; 1 bytes @ 0x45
   896                           
   897                           
   898                           ; 4 bytes @ 0x45
   899  0065                     	ds	1
   900  0066                     eval_poly@n:
   901                           
   902                           ; 2 bytes @ 0x46
   903  0066                     	ds	2
   904  0068                     ??_eval_poly:
   905                           
   906                           ; 1 bytes @ 0x48
   907  0068                     	ds	2
   908  006A                     ___fltol@sign1:
   909                           
   910                           ; 1 bytes @ 0x4A
   911  006A                     	ds	1
   912  006B                     ___fltol@exp1:
   913                           
   914                           ; 1 bytes @ 0x4B
   915  006B                     	ds	1
   916  006C                     ?_floor:
   917  006C                     floor@x:	
   918                           ; 4 bytes @ 0x4C
   919                           
   920                           
   921                           ; 4 bytes @ 0x4C
   922  006C                     	ds	1
   923  006D                     ??_log:
   924  006D                     ??_ldexp:	
   925                           ; 1 bytes @ 0x4D
   926                           
   927                           
   928                           ; 1 bytes @ 0x4D
   929  006D                     	ds	1
   930  006E                     log@exponent:
   931                           
   932                           ; 2 bytes @ 0x4E
   933  006E                     	ds	2
   934                           
   935                           	psect	maintext
   936  01FD                     __pmaintext:	
   937 ;;
   938 ;;Main: autosize = 0, tempsize = 2, incstack = 0, save=0
   939 ;;
   940 ;; *************** function _main *****************
   941 ;; Defined at:
   942 ;;		line 164 in file "ex7-1.c"
   943 ;; Parameters:    Size  Location     Type
   944 ;;		None
   945 ;; Auto vars:     Size  Location     Type
   946 ;;  sec_counter     2   74[BANK1 ] unsigned int 
   947 ;;  min_counter     2   72[BANK1 ] unsigned int 
   948 ;;  pot_levelval    2   70[BANK1 ] unsigned int 
   949 ;;  min_limit       2   68[BANK1 ] unsigned int 
   950 ;;  sec_limit       2   66[BANK1 ] unsigned int 
   951 ;;  temp_sec        2   64[BANK1 ] unsigned int 
   952 ;;  temp_min        2   62[BANK1 ] unsigned int 
   953 ;;  state           1   76[BANK1 ] unsigned char 
   954 ;; Return value:  Size  Location     Type
   955 ;;                  1    wreg      void 
   956 ;; Registers used:
   957 ;;		wreg, fsr0l, fsr0h, status,2, status,0, btemp+1, pclath, cstack
   958 ;; Tracked objects:
   959 ;;		On entry : B00/0
   960 ;;		On exit  : 0/0
   961 ;;		Unchanged: 0/0
   962 ;; Data sizes:     COMMON   BANK0   BANK1   BANK3   BANK2
   963 ;;      Params:         0       0       0       0       0
   964 ;;      Locals:         0       0      15       0       0
   965 ;;      Temps:          0       0       2       0       0
   966 ;;      Totals:         0       0      17       0       0
   967 ;;Total ram usage:       17 bytes
   968 ;; Hardware stack levels required when called: 6
   969 ;; This function calls:
   970 ;;		___wmul
   971 ;;		_bit_shift
   972 ;;		_clk_pulse
   973 ;;		_lat_pulse
   974 ;;		_pot_value
   975 ;; This function is called by:
   976 ;;		Startup code after reset
   977 ;; This function uses a non-reentrant model
   978 ;;
   979                           
   980  01FD                     _main:	
   981                           ;psect for function _main
   982                           
   983  01FD                     l3735:	
   984                           ;incstack = 0
   985                           ; Regs used in _main: [wreg-fsr0h+status,2+status,0+btemp+1+pclath+cstack]
   986                           
   987                           
   988                           ;ex7-1.c: 171:     unsigned char state = 0;
   989  01FD  1683               	bsf	3,5	;RP0=1, select bank1
   990  01FE  1303               	bcf	3,6	;RP1=0, select bank1
   991  01FF  01EC               	clrf	main@state^(0+128)
   992                           
   993                           ;ex7-1.c: 172:     unsigned int min_counter = 0;
   994  0200  01E8               	clrf	main@min_counter^(0+128)
   995  0201  01E9               	clrf	(main@min_counter+1)^(0+128)
   996                           
   997                           ;ex7-1.c: 173:     unsigned int sec_counter = 0;
   998  0202  01EA               	clrf	main@sec_counter^(0+128)
   999  0203  01EB               	clrf	(main@sec_counter+1)^(0+128)
  1000                           
  1001                           ;ex7-1.c: 174:     unsigned int min_limit = 0;
  1002  0204  01E4               	clrf	main@min_limit^(0+128)
  1003  0205  01E5               	clrf	(main@min_limit+1)^(0+128)
  1004                           
  1005                           ;ex7-1.c: 175:     unsigned int sec_limit = 0;
  1006  0206  01E2               	clrf	main@sec_limit^(0+128)
  1007  0207  01E3               	clrf	(main@sec_limit+1)^(0+128)
  1008                           
  1009                           ;ex7-1.c: 177:     unsigned int temp_min = 0;
  1010  0208  01DE               	clrf	main@temp_min^(0+128)
  1011  0209  01DF               	clrf	(main@temp_min+1)^(0+128)
  1012                           
  1013                           ;ex7-1.c: 178:     unsigned int temp_sec = 0;
  1014  020A  01E0               	clrf	main@temp_sec^(0+128)
  1015  020B  01E1               	clrf	(main@temp_sec+1)^(0+128)
  1016  020C                     l3737:
  1017                           
  1018                           ;ex7-1.c: 185:     TRISD = 0b00001000;
  1019  020C  3008               	movlw	8
  1020  020D  0088               	movwf	8	;volatile
  1021  020E                     l3739:
  1022                           
  1023                           ;ex7-1.c: 186:     PORTD = 0;
  1024  020E  1283               	bcf	3,5	;RP0=0, select bank0
  1025  020F  1303               	bcf	3,6	;RP1=0, select bank0
  1026  0210  0188               	clrf	8	;volatile
  1027  0211                     l3741:
  1028                           
  1029                           ;ex7-1.c: 190:     TRISAbits.TRISA0 = 1;
  1030  0211  1683               	bsf	3,5	;RP0=1, select bank1
  1031  0212  1303               	bcf	3,6	;RP1=0, select bank1
  1032  0213  1405               	bsf	5,0	;volatile
  1033                           
  1034                           ;ex7-1.c: 200:     ADCON0 = 0b10000001;
  1035  0214  3081               	movlw	129
  1036  0215  1283               	bcf	3,5	;RP0=0, select bank0
  1037  0216  1303               	bcf	3,6	;RP1=0, select bank0
  1038  0217  009F               	movwf	31	;volatile
  1039                           
  1040                           ;ex7-1.c: 211:     ADCON1 = 0b10000001;
  1041  0218  3081               	movlw	129
  1042  0219  1683               	bsf	3,5	;RP0=1, select bank1
  1043  021A  1303               	bcf	3,6	;RP1=0, select bank1
  1044  021B  009F               	movwf	31	;volatile
  1045                           
  1046                           ;ex7-1.c: 214:     _delay((unsigned long)((80)*(1000000/4000.0)));
  1047  021C  301A               	movlw	26
  1048  021D  1683               	bsf	3,5	;RP0=1, select bank1
  1049  021E  1303               	bcf	3,6	;RP1=0, select bank1
  1050  021F  00DD               	movwf	(??_main^(0+128)+1)
  1051  0220  30F7               	movlw	247
  1052  0221  00DC               	movwf	??_main^(0+128)
  1053  0222                     u6347:
  1054  0222  0BDC               	decfsz	??_main^(0+128),f
  1055  0223  2A22               	goto	u6347
  1056  0224  0BDD               	decfsz	(??_main^(0+128)+1),f
  1057  0225  2A22               	goto	u6347
  1058  0226  2A27               	nop2
  1059  0227                     l3743:
  1060                           
  1061                           ;ex7-1.c: 241:     PORTDbits.RD0 = 0;
  1062  0227  1283               	bcf	3,5	;RP0=0, select bank0
  1063  0228  1303               	bcf	3,6	;RP1=0, select bank0
  1064  0229  1008               	bcf	8,0	;volatile
  1065  022A                     l3745:
  1066  022A                     l3747:	
  1067                           ;ex7-1.c: 244:     if(state==0){
  1068                           
  1069                           
  1070                           ;ex7-1.c: 247:         PORTDbits.RD4 = 1;
  1071  022A  1608               	bsf	8,4	;volatile
  1072  022B                     l3749:
  1073                           
  1074                           ;ex7-1.c: 250:         bit_shift(0);
  1075  022B  3000               	movlw	0
  1076  022C  00F9               	movwf	bit_shift@counter
  1077  022D  00FA               	movwf	bit_shift@counter+1
  1078  022E  160A  118A  2217  120A  118A  	fcall	_bit_shift
  1079  0233                     l3751:
  1080                           
  1081                           ;ex7-1.c: 251:         clk_pulse();
  1082  0233  160A  118A  2003  120A  118A  	fcall	_clk_pulse
  1083  0238                     l3753:
  1084                           
  1085                           ;ex7-1.c: 254:         bit_shift(0);
  1086  0238  3000               	movlw	0
  1087  0239  00F9               	movwf	bit_shift@counter
  1088  023A  00FA               	movwf	bit_shift@counter+1
  1089  023B  160A  118A  2217  120A  118A  	fcall	_bit_shift
  1090                           
  1091                           ;ex7-1.c: 255:         lat_pulse();
  1092  0240  120A  158A  2052  120A  118A  	fcall	_lat_pulse
  1093  0245                     l3755:
  1094                           
  1095                           ;ex7-1.c: 270:         if((state==0)&&(PORTDbits.RD3==1)){
  1096  0245  1683               	bsf	3,5	;RP0=1, select bank1
  1097  0246  1303               	bcf	3,6	;RP1=0, select bank1
  1098  0247  086C               	movf	main@state^(0+128),w
  1099  0248  1D03               	btfss	3,2
  1100  0249  2A4B               	goto	u6101
  1101  024A  2A4C               	goto	u6100
  1102  024B                     u6101:
  1103  024B  2A56               	goto	l3761
  1104  024C                     u6100:
  1105  024C                     l3757:
  1106  024C  1283               	bcf	3,5	;RP0=0, select bank0
  1107  024D  1303               	bcf	3,6	;RP1=0, select bank0
  1108  024E  1D88               	btfss	8,3	;volatile
  1109  024F  2A51               	goto	u6111
  1110  0250  2A52               	goto	u6110
  1111  0251                     u6111:
  1112  0251  2A56               	goto	l3761
  1113  0252                     u6110:
  1114  0252                     l3759:
  1115                           
  1116                           ;ex7-1.c: 273:             state = 1;
  1117  0252  1683               	bsf	3,5	;RP0=1, select bank1
  1118  0253  1303               	bcf	3,6	;RP1=0, select bank1
  1119  0254  01EC               	clrf	main@state^(0+128)
  1120  0255  0AEC               	incf	main@state^(0+128),f
  1121  0256                     l3761:
  1122                           
  1123                           ;ex7-1.c: 277:         if((state==1)&&(PORTDbits.RD3==0)){
  1124  0256  1683               	bsf	3,5	;RP0=1, select bank1
  1125  0257  1303               	bcf	3,6	;RP1=0, select bank1
  1126  0258  036C               	decf	main@state^(0+128),w
  1127  0259  1D03               	btfss	3,2
  1128  025A  2A5C               	goto	u6121
  1129  025B  2A5D               	goto	u6120
  1130  025C                     u6121:
  1131  025C  2A69               	goto	l3767
  1132  025D                     u6120:
  1133  025D                     l3763:
  1134  025D  1283               	bcf	3,5	;RP0=0, select bank0
  1135  025E  1303               	bcf	3,6	;RP1=0, select bank0
  1136  025F  1988               	btfsc	8,3	;volatile
  1137  0260  2A62               	goto	u6131
  1138  0261  2A63               	goto	u6130
  1139  0262                     u6131:
  1140  0262  2A69               	goto	l3767
  1141  0263                     u6130:
  1142  0263                     l3765:
  1143                           
  1144                           ;ex7-1.c: 280:             state = 2;
  1145  0263  3002               	movlw	2
  1146  0264  1683               	bsf	3,5	;RP0=1, select bank1
  1147  0265  1303               	bcf	3,6	;RP1=0, select bank1
  1148  0266  00DC               	movwf	??_main^(0+128)
  1149  0267  085C               	movf	??_main^(0+128),w
  1150  0268  00EC               	movwf	main@state^(0+128)
  1151  0269                     l3767:
  1152                           
  1153                           ;ex7-1.c: 284:         if((state==2)&&(PORTDbits.RD3==1)){
  1154  0269  3002               	movlw	2
  1155  026A  1683               	bsf	3,5	;RP0=1, select bank1
  1156  026B  1303               	bcf	3,6	;RP1=0, select bank1
  1157  026C  066C               	xorwf	main@state^(0+128),w
  1158  026D  1D03               	btfss	3,2
  1159  026E  2A70               	goto	u6141
  1160  026F  2A71               	goto	u6140
  1161  0270                     u6141:
  1162  0270  2A7D               	goto	l3773
  1163  0271                     u6140:
  1164  0271                     l3769:
  1165  0271  1283               	bcf	3,5	;RP0=0, select bank0
  1166  0272  1303               	bcf	3,6	;RP1=0, select bank0
  1167  0273  1D88               	btfss	8,3	;volatile
  1168  0274  2A76               	goto	u6151
  1169  0275  2A77               	goto	u6150
  1170  0276                     u6151:
  1171  0276  2A7D               	goto	l3773
  1172  0277                     u6150:
  1173  0277                     l3771:
  1174                           
  1175                           ;ex7-1.c: 287:             state = 3;
  1176  0277  3003               	movlw	3
  1177  0278  1683               	bsf	3,5	;RP0=1, select bank1
  1178  0279  1303               	bcf	3,6	;RP1=0, select bank1
  1179  027A  00DC               	movwf	??_main^(0+128)
  1180  027B  085C               	movf	??_main^(0+128),w
  1181  027C  00EC               	movwf	main@state^(0+128)
  1182  027D                     l3773:
  1183                           
  1184                           ;ex7-1.c: 291:         if((state==3)&&(PORTDbits.RD3==0)){
  1185  027D  3003               	movlw	3
  1186  027E  1683               	bsf	3,5	;RP0=1, select bank1
  1187  027F  1303               	bcf	3,6	;RP1=0, select bank1
  1188  0280  066C               	xorwf	main@state^(0+128),w
  1189  0281  1D03               	btfss	3,2
  1190  0282  2A84               	goto	u6161
  1191  0283  2A85               	goto	u6160
  1192  0284                     u6161:
  1193  0284  2A91               	goto	l3779
  1194  0285                     u6160:
  1195  0285                     l3775:
  1196  0285  1283               	bcf	3,5	;RP0=0, select bank0
  1197  0286  1303               	bcf	3,6	;RP1=0, select bank0
  1198  0287  1988               	btfsc	8,3	;volatile
  1199  0288  2A8A               	goto	u6171
  1200  0289  2A8B               	goto	u6170
  1201  028A                     u6171:
  1202  028A  2A91               	goto	l3779
  1203  028B                     u6170:
  1204  028B                     l3777:
  1205                           
  1206                           ;ex7-1.c: 294:             state = 4;
  1207  028B  3004               	movlw	4
  1208  028C  1683               	bsf	3,5	;RP0=1, select bank1
  1209  028D  1303               	bcf	3,6	;RP1=0, select bank1
  1210  028E  00DC               	movwf	??_main^(0+128)
  1211  028F  085C               	movf	??_main^(0+128),w
  1212  0290  00EC               	movwf	main@state^(0+128)
  1213  0291                     l3779:
  1214                           
  1215                           ;ex7-1.c: 298:         if((state==4)&&(PORTDbits.RD3==1)){
  1216  0291  3004               	movlw	4
  1217  0292  1683               	bsf	3,5	;RP0=1, select bank1
  1218  0293  1303               	bcf	3,6	;RP1=0, select bank1
  1219  0294  066C               	xorwf	main@state^(0+128),w
  1220  0295  1D03               	btfss	3,2
  1221  0296  2A98               	goto	u6181
  1222  0297  2A99               	goto	u6180
  1223  0298                     u6181:
  1224  0298  2AA5               	goto	l3785
  1225  0299                     u6180:
  1226  0299                     l3781:
  1227  0299  1283               	bcf	3,5	;RP0=0, select bank0
  1228  029A  1303               	bcf	3,6	;RP1=0, select bank0
  1229  029B  1D88               	btfss	8,3	;volatile
  1230  029C  2A9E               	goto	u6191
  1231  029D  2A9F               	goto	u6190
  1232  029E                     u6191:
  1233  029E  2AA5               	goto	l3785
  1234  029F                     u6190:
  1235  029F                     l3783:
  1236                           
  1237                           ;ex7-1.c: 301:             state = 5;
  1238  029F  3005               	movlw	5
  1239  02A0  1683               	bsf	3,5	;RP0=1, select bank1
  1240  02A1  1303               	bcf	3,6	;RP1=0, select bank1
  1241  02A2  00DC               	movwf	??_main^(0+128)
  1242  02A3  085C               	movf	??_main^(0+128),w
  1243  02A4  00EC               	movwf	main@state^(0+128)
  1244  02A5                     l3785:
  1245                           
  1246                           ;ex7-1.c: 305:         if((state==5)&&(PORTDbits.RD3==0)){
  1247  02A5  3005               	movlw	5
  1248  02A6  1683               	bsf	3,5	;RP0=1, select bank1
  1249  02A7  1303               	bcf	3,6	;RP1=0, select bank1
  1250  02A8  066C               	xorwf	main@state^(0+128),w
  1251  02A9  1D03               	btfss	3,2
  1252  02AA  2AAC               	goto	u6201
  1253  02AB  2AAD               	goto	u6200
  1254  02AC                     u6201:
  1255  02AC  2AB9               	goto	l3791
  1256  02AD                     u6200:
  1257  02AD                     l3787:
  1258  02AD  1283               	bcf	3,5	;RP0=0, select bank0
  1259  02AE  1303               	bcf	3,6	;RP1=0, select bank0
  1260  02AF  1988               	btfsc	8,3	;volatile
  1261  02B0  2AB2               	goto	u6211
  1262  02B1  2AB3               	goto	u6210
  1263  02B2                     u6211:
  1264  02B2  2AB9               	goto	l3791
  1265  02B3                     u6210:
  1266  02B3                     l3789:
  1267                           
  1268                           ;ex7-1.c: 308:             state = 6;
  1269  02B3  3006               	movlw	6
  1270  02B4  1683               	bsf	3,5	;RP0=1, select bank1
  1271  02B5  1303               	bcf	3,6	;RP1=0, select bank1
  1272  02B6  00DC               	movwf	??_main^(0+128)
  1273  02B7  085C               	movf	??_main^(0+128),w
  1274  02B8  00EC               	movwf	main@state^(0+128)
  1275  02B9                     l3791:
  1276                           
  1277                           ;ex7-1.c: 313:         if(state==0){
  1278  02B9  1683               	bsf	3,5	;RP0=1, select bank1
  1279  02BA  1303               	bcf	3,6	;RP1=0, select bank1
  1280  02BB  086C               	movf	main@state^(0+128),w
  1281  02BC  1D03               	btfss	3,2
  1282  02BD  2ABF               	goto	u6221
  1283  02BE  2AC0               	goto	u6220
  1284  02BF                     u6221:
  1285  02BF  2AE4               	goto	l3801
  1286  02C0                     u6220:
  1287  02C0                     l3793:
  1288                           
  1289                           ;ex7-1.c: 316:             PORTDbits.RD7 = 0;
  1290  02C0  1283               	bcf	3,5	;RP0=0, select bank0
  1291  02C1  1303               	bcf	3,6	;RP1=0, select bank0
  1292  02C2  1388               	bcf	8,7	;volatile
  1293                           
  1294                           ;ex7-1.c: 317:             PORTDbits.RD4 = 1;
  1295  02C3  1608               	bsf	8,4	;volatile
  1296  02C4                     l3795:
  1297                           
  1298                           ;ex7-1.c: 321:             bit_shift(sec_limit);
  1299  02C4  1683               	bsf	3,5	;RP0=1, select bank1
  1300  02C5  1303               	bcf	3,6	;RP1=0, select bank1
  1301  02C6  0863               	movf	(main@sec_limit+1)^(0+128),w
  1302  02C7  00FA               	movwf	bit_shift@counter+1
  1303  02C8  0862               	movf	main@sec_limit^(0+128),w
  1304  02C9  00F9               	movwf	bit_shift@counter
  1305  02CA  160A  118A  2217  120A  118A  	fcall	_bit_shift
  1306  02CF                     l3797:
  1307                           
  1308                           ;ex7-1.c: 322:             clk_pulse();
  1309  02CF  160A  118A  2003  120A  118A  	fcall	_clk_pulse
  1310  02D4                     l3799:
  1311                           
  1312                           ;ex7-1.c: 325:             bit_shift(min_limit);
  1313  02D4  1683               	bsf	3,5	;RP0=1, select bank1
  1314  02D5  1303               	bcf	3,6	;RP1=0, select bank1
  1315  02D6  0865               	movf	(main@min_limit+1)^(0+128),w
  1316  02D7  00FA               	movwf	bit_shift@counter+1
  1317  02D8  0864               	movf	main@min_limit^(0+128),w
  1318  02D9  00F9               	movwf	bit_shift@counter
  1319  02DA  160A  118A  2217  120A  118A  	fcall	_bit_shift
  1320                           
  1321                           ;ex7-1.c: 326:             lat_pulse();
  1322  02DF  120A  158A  2052  120A  118A  	fcall	_lat_pulse
  1323  02E4                     l3801:
  1324                           
  1325                           ;ex7-1.c: 335:         if(state==2){
  1326  02E4  3002               	movlw	2
  1327  02E5  1683               	bsf	3,5	;RP0=1, select bank1
  1328  02E6  1303               	bcf	3,6	;RP1=0, select bank1
  1329  02E7  066C               	xorwf	main@state^(0+128),w
  1330  02E8  1D03               	btfss	3,2
  1331  02E9  2AEB               	goto	u6231
  1332  02EA  2AEC               	goto	u6230
  1333  02EB                     u6231:
  1334  02EB  2B48               	goto	l3819
  1335  02EC                     u6230:
  1336  02EC                     l3803:
  1337                           
  1338                           ;ex7-1.c: 338:             PORTDbits.RD4 = 0;
  1339  02EC  1283               	bcf	3,5	;RP0=0, select bank0
  1340  02ED  1303               	bcf	3,6	;RP1=0, select bank0
  1341  02EE  1208               	bcf	8,4	;volatile
  1342                           
  1343                           ;ex7-1.c: 339:             PORTDbits.RD5 = 1;
  1344  02EF  1688               	bsf	8,5	;volatile
  1345  02F0                     l3805:
  1346                           
  1347                           ;ex7-1.c: 342:             pot_levelval = pot_value();
  1348  02F0  160A  118A  2408  120A  118A  	fcall	_pot_value
  1349  02F5  1683               	bsf	3,5	;RP0=1, select bank1
  1350  02F6  1303               	bcf	3,6	;RP1=0, select bank1
  1351  02F7  084D               	movf	(?_pot_value+1)^(0+128),w
  1352  02F8  00E7               	movwf	(main@pot_levelval+1)^(0+128)
  1353  02F9  084C               	movf	?_pot_value^(0+128),w
  1354  02FA  00E6               	movwf	main@pot_levelval^(0+128)
  1355                           
  1356                           ;ex7-1.c: 346:             while(temp_min != pot_levelval){
  1357  02FB  2B3C               	goto	l3817
  1358  02FC                     l3807:
  1359                           
  1360                           ;ex7-1.c: 349:                 temp_min = pot_levelval;
  1361  02FC  0867               	movf	(main@pot_levelval+1)^(0+128),w
  1362  02FD  00DF               	movwf	(main@temp_min+1)^(0+128)
  1363  02FE  0866               	movf	main@pot_levelval^(0+128),w
  1364  02FF  00DE               	movwf	main@temp_min^(0+128)
  1365  0300                     l3809:
  1366                           
  1367                           ;ex7-1.c: 352:                 min_counter = (pot_levelval*60)/1024;
  1368  0300  0867               	movf	(main@pot_levelval+1)^(0+128),w
  1369  0301  00F1               	movwf	___wmul@multiplier+1
  1370  0302  0866               	movf	main@pot_levelval^(0+128),w
  1371  0303  00F0               	movwf	___wmul@multiplier
  1372  0304  303C               	movlw	60
  1373  0305  00F2               	movwf	___wmul@multiplicand
  1374  0306  3000               	movlw	0
  1375  0307  00F3               	movwf	___wmul@multiplicand+1
  1376  0308  160A  158A  27DB  120A  118A  	fcall	___wmul
  1377  030D  0870               	movf	?___wmul,w
  1378  030E  1683               	bsf	3,5	;RP0=1, select bank1
  1379  030F  1303               	bcf	3,6	;RP1=0, select bank1
  1380  0310  00DC               	movwf	??_main^(0+128)
  1381  0311  0871               	movf	?___wmul+1,w
  1382  0312  00DD               	movwf	(??_main^(0+128)+1)
  1383  0313  300A               	movlw	10
  1384  0314                     u6245:
  1385  0314  1003               	clrc
  1386  0315  0CDD               	rrf	(??_main^(0+128)+1),f
  1387  0316  0CDC               	rrf	??_main^(0+128),f
  1388  0317  3EFF               	addlw	-1
  1389  0318  1D03               	skipz
  1390  0319  2B14               	goto	u6245
  1391  031A  085C               	movf	??_main^(0+128),w
  1392  031B  00E8               	movwf	main@min_counter^(0+128)
  1393  031C  085D               	movf	(??_main+1)^(0+128),w
  1394  031D  00E9               	movwf	(main@min_counter+1)^(0+128)
  1395  031E                     l3811:
  1396                           
  1397                           ;ex7-1.c: 355:                 bit_shift(sec_counter);
  1398  031E  086B               	movf	(main@sec_counter+1)^(0+128),w
  1399  031F  00FA               	movwf	bit_shift@counter+1
  1400  0320  086A               	movf	main@sec_counter^(0+128),w
  1401  0321  00F9               	movwf	bit_shift@counter
  1402  0322  160A  118A  2217  120A  118A  	fcall	_bit_shift
  1403  0327                     l3813:
  1404                           
  1405                           ;ex7-1.c: 356:                 clk_pulse();
  1406  0327  160A  118A  2003  120A  118A  	fcall	_clk_pulse
  1407                           
  1408                           ;ex7-1.c: 358:                 bit_shift(min_counter);
  1409  032C  1683               	bsf	3,5	;RP0=1, select bank1
  1410  032D  1303               	bcf	3,6	;RP1=0, select bank1
  1411  032E  0869               	movf	(main@min_counter+1)^(0+128),w
  1412  032F  00FA               	movwf	bit_shift@counter+1
  1413  0330  0868               	movf	main@min_counter^(0+128),w
  1414  0331  00F9               	movwf	bit_shift@counter
  1415  0332  160A  118A  2217  120A  118A  	fcall	_bit_shift
  1416  0337                     l3815:
  1417                           
  1418                           ;ex7-1.c: 359:                 lat_pulse();
  1419  0337  120A  158A  2052  120A  118A  	fcall	_lat_pulse
  1420  033C                     l3817:
  1421                           
  1422                           ;ex7-1.c: 346:             while(temp_min != pot_levelval){
  1423  033C  1683               	bsf	3,5	;RP0=1, select bank1
  1424  033D  1303               	bcf	3,6	;RP1=0, select bank1
  1425  033E  0867               	movf	(main@pot_levelval+1)^(0+128),w
  1426  033F  065F               	xorwf	(main@temp_min+1)^(0+128),w
  1427  0340  1D03               	skipz
  1428  0341  2B44               	goto	u6255
  1429  0342  0866               	movf	main@pot_levelval^(0+128),w
  1430  0343  065E               	xorwf	main@temp_min^(0+128),w
  1431  0344                     u6255:
  1432  0344  1D03               	skipz
  1433  0345  2B47               	goto	u6251
  1434  0346  2B48               	goto	u6250
  1435  0347                     u6251:
  1436  0347  2AFC               	goto	l3807
  1437  0348                     u6250:
  1438  0348                     l3819:
  1439                           
  1440                           ;ex7-1.c: 369:         if(state==4){
  1441  0348  3004               	movlw	4
  1442  0349  066C               	xorwf	main@state^(0+128),w
  1443  034A  1D03               	btfss	3,2
  1444  034B  2B4D               	goto	u6261
  1445  034C  2B4E               	goto	u6260
  1446  034D                     u6261:
  1447  034D  2BAA               	goto	l3837
  1448  034E                     u6260:
  1449  034E                     l3821:
  1450                           
  1451                           ;ex7-1.c: 372:             PORTDbits.RD5 = 0;
  1452  034E  1283               	bcf	3,5	;RP0=0, select bank0
  1453  034F  1303               	bcf	3,6	;RP1=0, select bank0
  1454  0350  1288               	bcf	8,5	;volatile
  1455                           
  1456                           ;ex7-1.c: 373:             PORTDbits.RD6 = 1;
  1457  0351  1708               	bsf	8,6	;volatile
  1458  0352                     l3823:
  1459                           
  1460                           ;ex7-1.c: 376:             pot_levelval = pot_value();
  1461  0352  160A  118A  2408  120A  118A  	fcall	_pot_value
  1462  0357  1683               	bsf	3,5	;RP0=1, select bank1
  1463  0358  1303               	bcf	3,6	;RP1=0, select bank1
  1464  0359  084D               	movf	(?_pot_value+1)^(0+128),w
  1465  035A  00E7               	movwf	(main@pot_levelval+1)^(0+128)
  1466  035B  084C               	movf	?_pot_value^(0+128),w
  1467  035C  00E6               	movwf	main@pot_levelval^(0+128)
  1468                           
  1469                           ;ex7-1.c: 380:             while(temp_sec != pot_levelval){
  1470  035D  2B9E               	goto	l3835
  1471  035E                     l3825:
  1472                           
  1473                           ;ex7-1.c: 383:                 temp_sec = pot_levelval;
  1474  035E  0867               	movf	(main@pot_levelval+1)^(0+128),w
  1475  035F  00E1               	movwf	(main@temp_sec+1)^(0+128)
  1476  0360  0866               	movf	main@pot_levelval^(0+128),w
  1477  0361  00E0               	movwf	main@temp_sec^(0+128)
  1478  0362                     l3827:
  1479                           
  1480                           ;ex7-1.c: 385:                 sec_counter = (pot_levelval*60)/1024;
  1481  0362  0867               	movf	(main@pot_levelval+1)^(0+128),w
  1482  0363  00F1               	movwf	___wmul@multiplier+1
  1483  0364  0866               	movf	main@pot_levelval^(0+128),w
  1484  0365  00F0               	movwf	___wmul@multiplier
  1485  0366  303C               	movlw	60
  1486  0367  00F2               	movwf	___wmul@multiplicand
  1487  0368  3000               	movlw	0
  1488  0369  00F3               	movwf	___wmul@multiplicand+1
  1489  036A  160A  158A  27DB  120A  118A  	fcall	___wmul
  1490  036F  0870               	movf	?___wmul,w
  1491  0370  1683               	bsf	3,5	;RP0=1, select bank1
  1492  0371  1303               	bcf	3,6	;RP1=0, select bank1
  1493  0372  00DC               	movwf	??_main^(0+128)
  1494  0373  0871               	movf	?___wmul+1,w
  1495  0374  00DD               	movwf	(??_main^(0+128)+1)
  1496  0375  300A               	movlw	10
  1497  0376                     u6275:
  1498  0376  1003               	clrc
  1499  0377  0CDD               	rrf	(??_main^(0+128)+1),f
  1500  0378  0CDC               	rrf	??_main^(0+128),f
  1501  0379  3EFF               	addlw	-1
  1502  037A  1D03               	skipz
  1503  037B  2B76               	goto	u6275
  1504  037C  085C               	movf	??_main^(0+128),w
  1505  037D  00EA               	movwf	main@sec_counter^(0+128)
  1506  037E  085D               	movf	(??_main+1)^(0+128),w
  1507  037F  00EB               	movwf	(main@sec_counter+1)^(0+128)
  1508  0380                     l3829:
  1509                           
  1510                           ;ex7-1.c: 388:                 bit_shift(sec_counter);
  1511  0380  086B               	movf	(main@sec_counter+1)^(0+128),w
  1512  0381  00FA               	movwf	bit_shift@counter+1
  1513  0382  086A               	movf	main@sec_counter^(0+128),w
  1514  0383  00F9               	movwf	bit_shift@counter
  1515  0384  160A  118A  2217  120A  118A  	fcall	_bit_shift
  1516  0389                     l3831:
  1517                           
  1518                           ;ex7-1.c: 389:                 clk_pulse();
  1519  0389  160A  118A  2003  120A  118A  	fcall	_clk_pulse
  1520                           
  1521                           ;ex7-1.c: 391:                 bit_shift(min_counter);
  1522  038E  1683               	bsf	3,5	;RP0=1, select bank1
  1523  038F  1303               	bcf	3,6	;RP1=0, select bank1
  1524  0390  0869               	movf	(main@min_counter+1)^(0+128),w
  1525  0391  00FA               	movwf	bit_shift@counter+1
  1526  0392  0868               	movf	main@min_counter^(0+128),w
  1527  0393  00F9               	movwf	bit_shift@counter
  1528  0394  160A  118A  2217  120A  118A  	fcall	_bit_shift
  1529  0399                     l3833:
  1530                           
  1531                           ;ex7-1.c: 392:                 lat_pulse();
  1532  0399  120A  158A  2052  120A  118A  	fcall	_lat_pulse
  1533  039E                     l3835:
  1534                           
  1535                           ;ex7-1.c: 380:             while(temp_sec != pot_levelval){
  1536  039E  1683               	bsf	3,5	;RP0=1, select bank1
  1537  039F  1303               	bcf	3,6	;RP1=0, select bank1
  1538  03A0  0867               	movf	(main@pot_levelval+1)^(0+128),w
  1539  03A1  0661               	xorwf	(main@temp_sec+1)^(0+128),w
  1540  03A2  1D03               	skipz
  1541  03A3  2BA6               	goto	u6285
  1542  03A4  0866               	movf	main@pot_levelval^(0+128),w
  1543  03A5  0660               	xorwf	main@temp_sec^(0+128),w
  1544  03A6                     u6285:
  1545  03A6  1D03               	skipz
  1546  03A7  2BA9               	goto	u6281
  1547  03A8  2BAA               	goto	u6280
  1548  03A9                     u6281:
  1549  03A9  2B5E               	goto	l3825
  1550  03AA                     u6280:
  1551  03AA                     l3837:
  1552                           
  1553                           ;ex7-1.c: 402:         if(state==6){
  1554  03AA  3006               	movlw	6
  1555  03AB  066C               	xorwf	main@state^(0+128),w
  1556  03AC  1D03               	btfss	3,2
  1557  03AD  2BAF               	goto	u6291
  1558  03AE  2BB0               	goto	u6290
  1559  03AF                     u6291:
  1560  03AF  2A45               	goto	l3755
  1561  03B0                     u6290:
  1562  03B0                     l3839:
  1563                           
  1564                           ;ex7-1.c: 405:             PORTDbits.RD6 = 0;
  1565  03B0  1283               	bcf	3,5	;RP0=0, select bank0
  1566  03B1  1303               	bcf	3,6	;RP1=0, select bank0
  1567  03B2  1308               	bcf	8,6	;volatile
  1568                           
  1569                           ;ex7-1.c: 406:             PORTDbits.RD7 = 1;
  1570  03B3  1788               	bsf	8,7	;volatile
  1571  03B4                     l3841:
  1572                           
  1573                           ;ex7-1.c: 409:             state = 0;
  1574  03B4  1683               	bsf	3,5	;RP0=1, select bank1
  1575  03B5  1303               	bcf	3,6	;RP1=0, select bank1
  1576  03B6  01EC               	clrf	main@state^(0+128)
  1577  03B7                     l3843:
  1578                           
  1579                           ;ex7-1.c: 410:             min_limit = min_counter;
  1580  03B7  0869               	movf	(main@min_counter+1)^(0+128),w
  1581  03B8  00E5               	movwf	(main@min_limit+1)^(0+128)
  1582  03B9  0868               	movf	main@min_counter^(0+128),w
  1583  03BA  00E4               	movwf	main@min_limit^(0+128)
  1584  03BB                     l3845:
  1585                           
  1586                           ;ex7-1.c: 411:             sec_limit = sec_counter;
  1587  03BB  086B               	movf	(main@sec_counter+1)^(0+128),w
  1588  03BC  00E3               	movwf	(main@sec_limit+1)^(0+128)
  1589  03BD  086A               	movf	main@sec_counter^(0+128),w
  1590  03BE  00E2               	movwf	main@sec_limit^(0+128)
  1591                           
  1592                           ;ex7-1.c: 414:             min_counter = 0;
  1593  03BF  01E8               	clrf	main@min_counter^(0+128)
  1594  03C0  01E9               	clrf	(main@min_counter+1)^(0+128)
  1595                           
  1596                           ;ex7-1.c: 415:             sec_counter = 0;
  1597  03C1  01EA               	clrf	main@sec_counter^(0+128)
  1598  03C2  01EB               	clrf	(main@sec_counter+1)^(0+128)
  1599  03C3                     l3847:
  1600                           
  1601                           ;ex7-1.c: 420:             bit_shift(0);
  1602  03C3  3000               	movlw	0
  1603  03C4  00F9               	movwf	bit_shift@counter
  1604  03C5  00FA               	movwf	bit_shift@counter+1
  1605  03C6  160A  118A  2217  120A  118A  	fcall	_bit_shift
  1606  03CB                     l3849:
  1607                           
  1608                           ;ex7-1.c: 421:             clk_pulse();
  1609  03CB  160A  118A  2003  120A  118A  	fcall	_clk_pulse
  1610  03D0                     l3851:
  1611                           
  1612                           ;ex7-1.c: 424:             bit_shift(0);
  1613  03D0  3000               	movlw	0
  1614  03D1  00F9               	movwf	bit_shift@counter
  1615  03D2  00FA               	movwf	bit_shift@counter+1
  1616  03D3  160A  118A  2217  120A  118A  	fcall	_bit_shift
  1617  03D8                     l3853:
  1618                           
  1619                           ;ex7-1.c: 425:             lat_pulse();
  1620  03D8  120A  158A  2052  120A  118A  	fcall	_lat_pulse
  1621                           
  1622                           ;ex7-1.c: 430:             while(min_counter <= min_limit){
  1623  03DD  2C71               	goto	l3895
  1624  03DE                     l3855:
  1625                           
  1626                           ;ex7-1.c: 434:                 if(min_counter == min_limit){
  1627  03DE  0865               	movf	(main@min_limit+1)^(0+128),w
  1628  03DF  0669               	xorwf	(main@min_counter+1)^(0+128),w
  1629  03E0  1D03               	skipz
  1630  03E1  2BE4               	goto	u6305
  1631  03E2  0864               	movf	main@min_limit^(0+128),w
  1632  03E3  0668               	xorwf	main@min_counter^(0+128),w
  1633  03E4                     u6305:
  1634  03E4  1D03               	skipz
  1635  03E5  2BE7               	goto	u6301
  1636  03E6  2BE8               	goto	u6300
  1637  03E7                     u6301:
  1638  03E7  2C2F               	goto	l3873
  1639  03E8                     u6300:
  1640  03E8                     l3857:
  1641                           
  1642                           ;ex7-1.c: 437:                     for(sec_counter=0; sec_counter<=sec_limit; sec_counte
      +                          r++){
  1643  03E8  01EA               	clrf	main@sec_counter^(0+128)
  1644  03E9  01EB               	clrf	(main@sec_counter+1)^(0+128)
  1645  03EA  2C1C               	goto	l3869
  1646  03EB                     l3859:
  1647                           
  1648                           ;ex7-1.c: 440:                         bit_shift(sec_counter);
  1649  03EB  086B               	movf	(main@sec_counter+1)^(0+128),w
  1650  03EC  00FA               	movwf	bit_shift@counter+1
  1651  03ED  086A               	movf	main@sec_counter^(0+128),w
  1652  03EE  00F9               	movwf	bit_shift@counter
  1653  03EF  160A  118A  2217  120A  118A  	fcall	_bit_shift
  1654  03F4                     l3861:
  1655                           
  1656                           ;ex7-1.c: 441:                         clk_pulse();
  1657  03F4  160A  118A  2003  120A  118A  	fcall	_clk_pulse
  1658  03F9                     l3863:
  1659                           
  1660                           ;ex7-1.c: 444:                         bit_shift(min_counter);
  1661  03F9  1683               	bsf	3,5	;RP0=1, select bank1
  1662  03FA  1303               	bcf	3,6	;RP1=0, select bank1
  1663  03FB  0869               	movf	(main@min_counter+1)^(0+128),w
  1664  03FC  00FA               	movwf	bit_shift@counter+1
  1665  03FD  0868               	movf	main@min_counter^(0+128),w
  1666  03FE  00F9               	movwf	bit_shift@counter
  1667  03FF  160A  118A  2217  120A  118A  	fcall	_bit_shift
  1668                           
  1669                           ;ex7-1.c: 445:                         lat_pulse();
  1670  0404  120A  158A  2052  120A  118A  	fcall	_lat_pulse
  1671  0409                     l3865:
  1672                           
  1673                           ;ex7-1.c: 447:                         _delay((unsigned long)((50)*(1000000/4000.0)));
  1674  0409  3011               	movlw	17
  1675  040A  1683               	bsf	3,5	;RP0=1, select bank1
  1676  040B  1303               	bcf	3,6	;RP1=0, select bank1
  1677  040C  00DD               	movwf	(??_main^(0+128)+1)
  1678  040D  3039               	movlw	57
  1679  040E  00DC               	movwf	??_main^(0+128)
  1680  040F                     u6357:
  1681  040F  0BDC               	decfsz	??_main^(0+128),f
  1682  0410  2C0F               	goto	u6357
  1683  0411  0BDD               	decfsz	(??_main^(0+128)+1),f
  1684  0412  2C0F               	goto	u6357
  1685  0413  2C14               	nop2
  1686  0414                     l3867:
  1687                           
  1688                           ;ex7-1.c: 449:                     }
  1689  0414  3001               	movlw	1
  1690  0415  1683               	bsf	3,5	;RP0=1, select bank1
  1691  0416  1303               	bcf	3,6	;RP1=0, select bank1
  1692  0417  07EA               	addwf	main@sec_counter^(0+128),f
  1693  0418  1803               	skipnc
  1694  0419  0AEB               	incf	(main@sec_counter+1)^(0+128),f
  1695  041A  3000               	movlw	0
  1696  041B  07EB               	addwf	(main@sec_counter+1)^(0+128),f
  1697  041C                     l3869:
  1698  041C  086B               	movf	(main@sec_counter+1)^(0+128),w
  1699  041D  0263               	subwf	(main@sec_limit+1)^(0+128),w
  1700  041E  1D03               	skipz
  1701  041F  2C22               	goto	u6315
  1702  0420  086A               	movf	main@sec_counter^(0+128),w
  1703  0421  0262               	subwf	main@sec_limit^(0+128),w
  1704  0422                     u6315:
  1705  0422  1803               	skipnc
  1706  0423  2C25               	goto	u6311
  1707  0424  2C26               	goto	u6310
  1708  0425                     u6311:
  1709  0425  2BEB               	goto	l3859
  1710  0426                     u6310:
  1711  0426                     l3871:
  1712                           
  1713                           ;ex7-1.c: 452:                     min_counter = min_limit+1;
  1714  0426  0864               	movf	main@min_limit^(0+128),w
  1715  0427  3E01               	addlw	1
  1716  0428  00E8               	movwf	main@min_counter^(0+128)
  1717  0429  0865               	movf	(main@min_limit+1)^(0+128),w
  1718  042A  1803               	skipnc
  1719  042B  3E01               	addlw	1
  1720  042C  3E00               	addlw	0
  1721  042D  00E9               	movwf	(main@min_counter+1)^(0+128)
  1722                           
  1723                           ;ex7-1.c: 456:                 } else{
  1724  042E  2C71               	goto	l3895
  1725  042F                     l3873:
  1726                           
  1727                           ;ex7-1.c: 458:                     for(sec_counter=0; sec_counter<=59; sec_counter++){
  1728  042F  01EA               	clrf	main@sec_counter^(0+128)
  1729  0430  01EB               	clrf	(main@sec_counter+1)^(0+128)
  1730  0431                     l3879:
  1731                           
  1732                           ;ex7-1.c: 461:                          bit_shift(sec_counter);
  1733  0431  086B               	movf	(main@sec_counter+1)^(0+128),w
  1734  0432  00FA               	movwf	bit_shift@counter+1
  1735  0433  086A               	movf	main@sec_counter^(0+128),w
  1736  0434  00F9               	movwf	bit_shift@counter
  1737  0435  160A  118A  2217  120A  118A  	fcall	_bit_shift
  1738  043A                     l3881:
  1739                           
  1740                           ;ex7-1.c: 462:                         clk_pulse();
  1741  043A  160A  118A  2003  120A  118A  	fcall	_clk_pulse
  1742  043F                     l3883:
  1743                           
  1744                           ;ex7-1.c: 465:                         bit_shift(min_counter);
  1745  043F  1683               	bsf	3,5	;RP0=1, select bank1
  1746  0440  1303               	bcf	3,6	;RP1=0, select bank1
  1747  0441  0869               	movf	(main@min_counter+1)^(0+128),w
  1748  0442  00FA               	movwf	bit_shift@counter+1
  1749  0443  0868               	movf	main@min_counter^(0+128),w
  1750  0444  00F9               	movwf	bit_shift@counter
  1751  0445  160A  118A  2217  120A  118A  	fcall	_bit_shift
  1752                           
  1753                           ;ex7-1.c: 466:                         lat_pulse();
  1754  044A  120A  158A  2052  120A  118A  	fcall	_lat_pulse
  1755  044F                     l3885:
  1756                           
  1757                           ;ex7-1.c: 468:                         _delay((unsigned long)((50)*(1000000/4000.0)));
  1758  044F  3011               	movlw	17
  1759  0450  1683               	bsf	3,5	;RP0=1, select bank1
  1760  0451  1303               	bcf	3,6	;RP1=0, select bank1
  1761  0452  00DD               	movwf	(??_main^(0+128)+1)
  1762  0453  3039               	movlw	57
  1763  0454  00DC               	movwf	??_main^(0+128)
  1764  0455                     u6367:
  1765  0455  0BDC               	decfsz	??_main^(0+128),f
  1766  0456  2C55               	goto	u6367
  1767  0457  0BDD               	decfsz	(??_main^(0+128)+1),f
  1768  0458  2C55               	goto	u6367
  1769  0459  2C5A               	nop2
  1770  045A                     l3887:
  1771                           
  1772                           ;ex7-1.c: 470:                     }
  1773  045A  3001               	movlw	1
  1774  045B  1683               	bsf	3,5	;RP0=1, select bank1
  1775  045C  1303               	bcf	3,6	;RP1=0, select bank1
  1776  045D  07EA               	addwf	main@sec_counter^(0+128),f
  1777  045E  1803               	skipnc
  1778  045F  0AEB               	incf	(main@sec_counter+1)^(0+128),f
  1779  0460  3000               	movlw	0
  1780  0461  07EB               	addwf	(main@sec_counter+1)^(0+128),f
  1781  0462                     l3889:
  1782  0462  3000               	movlw	0
  1783  0463  026B               	subwf	(main@sec_counter+1)^(0+128),w
  1784  0464  303C               	movlw	60
  1785  0465  1903               	skipnz
  1786  0466  026A               	subwf	main@sec_counter^(0+128),w
  1787  0467  1C03               	skipc
  1788  0468  2C6A               	goto	u6321
  1789  0469  2C6B               	goto	u6320
  1790  046A                     u6321:
  1791  046A  2C31               	goto	l3879
  1792  046B                     u6320:
  1793  046B                     l3891:
  1794                           
  1795                           ;ex7-1.c: 473:                     min_counter += 1;
  1796  046B  3001               	movlw	1
  1797  046C  07E8               	addwf	main@min_counter^(0+128),f
  1798  046D  1803               	skipnc
  1799  046E  0AE9               	incf	(main@min_counter+1)^(0+128),f
  1800  046F  3000               	movlw	0
  1801  0470  07E9               	addwf	(main@min_counter+1)^(0+128),f
  1802  0471                     l3893:
  1803  0471                     l3895:
  1804                           
  1805                           ;ex7-1.c: 430:             while(min_counter <= min_limit){
  1806  0471  1683               	bsf	3,5	;RP0=1, select bank1
  1807  0472  1303               	bcf	3,6	;RP1=0, select bank1
  1808  0473  0869               	movf	(main@min_counter+1)^(0+128),w
  1809  0474  0265               	subwf	(main@min_limit+1)^(0+128),w
  1810  0475  1D03               	skipz
  1811  0476  2C79               	goto	u6335
  1812  0477  0868               	movf	main@min_counter^(0+128),w
  1813  0478  0264               	subwf	main@min_limit^(0+128),w
  1814  0479                     u6335:
  1815  0479  1803               	skipnc
  1816  047A  2C7C               	goto	u6331
  1817  047B  2C7D               	goto	u6330
  1818  047C                     u6331:
  1819  047C  2BDE               	goto	l3855
  1820  047D                     u6330:
  1821  047D                     l3897:
  1822                           
  1823                           ;ex7-1.c: 480:             min_counter = min_limit;
  1824  047D  0865               	movf	(main@min_limit+1)^(0+128),w
  1825  047E  00E9               	movwf	(main@min_counter+1)^(0+128)
  1826  047F  0864               	movf	main@min_limit^(0+128),w
  1827  0480  00E8               	movwf	main@min_counter^(0+128)
  1828                           
  1829                           ;ex7-1.c: 481:             sec_counter = sec_limit;
  1830  0481  0863               	movf	(main@sec_limit+1)^(0+128),w
  1831  0482  00EB               	movwf	(main@sec_counter+1)^(0+128)
  1832  0483  0862               	movf	main@sec_limit^(0+128),w
  1833  0484  00EA               	movwf	main@sec_counter^(0+128)
  1834  0485  2A45               	goto	l3755
  1835  0486  120A  118A  2800   	ljmp	start
  1836  0489                     __end_of_main:
  1837                           
  1838                           	psect	text1
  1839  1408                     __ptext1:	
  1840 ;; *************** function _pot_value *****************
  1841 ;; Defined at:
  1842 ;;		line 65 in file "ex7-1.c"
  1843 ;; Parameters:    Size  Location     Type
  1844 ;;		None
  1845 ;; Auto vars:     Size  Location     Type
  1846 ;;  adres_low       2   58[BANK1 ] int 
  1847 ;;  adres_high      2   56[BANK1 ] int 
  1848 ;;  pot_level       2   54[BANK1 ] int 
  1849 ;;  pot_high        2   48[BANK1 ] int 
  1850 ;;  pot_low         2    0        int 
  1851 ;; Return value:  Size  Location     Type
  1852 ;;                  2   44[BANK1 ] int 
  1853 ;; Registers used:
  1854 ;;		wreg, fsr0l, fsr0h, status,2, status,0, btemp+1, pclath, cstack
  1855 ;; Tracked objects:
  1856 ;;		On entry : 0/0
  1857 ;;		On exit  : 0/0
  1858 ;;		Unchanged: 0/0
  1859 ;; Data sizes:     COMMON   BANK0   BANK1   BANK3   BANK2
  1860 ;;      Params:         0       0       2       0       0
  1861 ;;      Locals:         0       0      12       0       0
  1862 ;;      Temps:          0       0       2       0       0
  1863 ;;      Totals:         0       0      16       0       0
  1864 ;;Total ram usage:       16 bytes
  1865 ;; Hardware stack levels used: 1
  1866 ;; Hardware stack levels required when called: 5
  1867 ;; This function calls:
  1868 ;;		___fladd
  1869 ;;		___flmul
  1870 ;;		___fltol
  1871 ;;		___xxtofl
  1872 ;;		_pow
  1873 ;; This function is called by:
  1874 ;;		_main
  1875 ;; This function uses a non-reentrant model
  1876 ;;
  1877                           
  1878  1408                     _pot_value:	
  1879                           ;psect for function _pot_value
  1880                           
  1881  1408                     l3721:	
  1882                           ;incstack = 0
  1883                           ; Regs used in _pot_value: [wreg-fsr0h+status,2+status,0+btemp+1+pclath+cstack]
  1884                           
  1885                           
  1886                           ;ex7-1.c: 69:     int pot_high = 0;
  1887  1408  1683               	bsf	3,5	;RP0=1, select bank1
  1888  1409  1303               	bcf	3,6	;RP1=0, select bank1
  1889  140A  01D0               	clrf	pot_value@pot_high^(0+128)
  1890  140B  01D1               	clrf	(pot_value@pot_high+1)^(0+128)
  1891                           
  1892                           ;ex7-1.c: 70:     int pot_level = 0;
  1893  140C  01D6               	clrf	pot_value@pot_level^(0+128)
  1894  140D  01D7               	clrf	(pot_value@pot_level+1)^(0+128)
  1895                           
  1896                           ;ex7-1.c: 72:     int adres_high = 0;
  1897  140E  01D8               	clrf	pot_value@adres_high^(0+128)
  1898  140F  01D9               	clrf	(pot_value@adres_high+1)^(0+128)
  1899                           
  1900                           ;ex7-1.c: 73:     int adres_low = 0;
  1901  1410  01DA               	clrf	pot_value@adres_low^(0+128)
  1902  1411  01DB               	clrf	(pot_value@adres_low+1)^(0+128)
  1903  1412                     l3723:
  1904                           
  1905                           ;ex7-1.c: 76:     ADCON0bits.GO_DONE = 1;
  1906  1412  1283               	bcf	3,5	;RP0=0, select bank0
  1907  1413  1303               	bcf	3,6	;RP1=0, select bank0
  1908  1414  149F               	bsf	31,1	;volatile
  1909  1415                     l33:	
  1910                           ;ex7-1.c: 78:     while(ADCON0bits.GO_DONE == 1);
  1911                           
  1912  1415  189F               	btfsc	31,1	;volatile
  1913  1416  2C18               	goto	u6091
  1914  1417  2C19               	goto	u6090
  1915  1418                     u6091:
  1916  1418  2C15               	goto	l33
  1917  1419                     u6090:
  1918  1419                     l3725:
  1919                           
  1920                           ;ex7-1.c: 82:     adres_high = ADRESH;
  1921  1419  081E               	movf	30,w	;volatile
  1922  141A  1683               	bsf	3,5	;RP0=1, select bank1
  1923  141B  1303               	bcf	3,6	;RP1=0, select bank1
  1924  141C  00CE               	movwf	??_pot_value^(0+128)
  1925  141D  01CF               	clrf	(??_pot_value^(0+128)+1)
  1926  141E  084E               	movf	??_pot_value^(0+128),w
  1927  141F  00D8               	movwf	pot_value@adres_high^(0+128)
  1928  1420  084F               	movf	(??_pot_value+1)^(0+128),w
  1929  1421  00D9               	movwf	(pot_value@adres_high+1)^(0+128)
  1930                           
  1931                           ;ex7-1.c: 83:     adres_low = ADRESL;
  1932  1422  081E               	movf	30,w	;volatile
  1933  1423  00CE               	movwf	??_pot_value^(0+128)
  1934  1424  01CF               	clrf	(??_pot_value^(0+128)+1)
  1935  1425  084E               	movf	??_pot_value^(0+128),w
  1936  1426  00DA               	movwf	pot_value@adres_low^(0+128)
  1937  1427  084F               	movf	(??_pot_value+1)^(0+128),w
  1938  1428  00DB               	movwf	(pot_value@adres_low+1)^(0+128)
  1939  1429                     l3727:
  1940                           
  1941                           ;ex7-1.c: 86:     pot_level = adres_high * pow(2, 8) + adres_low;
  1942  1429  3041               	movlw	65
  1943  142A  00BD               	movwf	(pow@y+3)^(0+128)
  1944  142B  3000               	movlw	0
  1945  142C  00BC               	movwf	(pow@y+2)^(0+128)
  1946  142D  3000               	movlw	0
  1947  142E  00BB               	movwf	(pow@y+1)^(0+128)
  1948  142F  3000               	movlw	0
  1949  1430  00BA               	movwf	pow@y^(0+128)
  1950  1431  3040               	movlw	64
  1951  1432  00B9               	movwf	(pow@x+3)^(0+128)
  1952  1433  3000               	movlw	0
  1953  1434  00B8               	movwf	(pow@x+2)^(0+128)
  1954  1435  3000               	movlw	0
  1955  1436  00B7               	movwf	(pow@x+1)^(0+128)
  1956  1437  3000               	movlw	0
  1957  1438  00B6               	movwf	pow@x^(0+128)
  1958  1439  120A  158A  2140  160A  118A  	fcall	_pow
  1959  143E  1683               	bsf	3,5	;RP0=1, select bank1
  1960  143F  1303               	bcf	3,6	;RP1=0, select bank1
  1961  1440  0839               	movf	(?_pow+3)^(0+128),w
  1962  1441  00D5               	movwf	(_pot_value$879+3)^(0+128)
  1963  1442  0838               	movf	(?_pow+2)^(0+128),w
  1964  1443  00D4               	movwf	(_pot_value$879+2)^(0+128)
  1965  1444  0837               	movf	(?_pow+1)^(0+128),w
  1966  1445  00D3               	movwf	(_pot_value$879+1)^(0+128)
  1967  1446  0836               	movf	?_pow^(0+128),w
  1968  1447  00D2               	movwf	_pot_value$879^(0+128)
  1969  1448                     l3729:
  1970                           
  1971                           ;ex7-1.c: 86:     pot_level = adres_high * pow(2, 8) + adres_low;
  1972  1448  0858               	movf	pot_value@adres_high^(0+128),w
  1973  1449  00F0               	movwf	___xxtofl@val
  1974  144A  0859               	movf	(pot_value@adres_high+1)^(0+128),w
  1975  144B  00F1               	movwf	___xxtofl@val+1
  1976  144C  3000               	movlw	0
  1977  144D  1BF1               	btfsc	___xxtofl@val+1,7
  1978  144E  30FF               	movlw	255
  1979  144F  00F2               	movwf	___xxtofl@val+2
  1980  1450  00F3               	movwf	___xxtofl@val+3
  1981  1451  3001               	movlw	1
  1982  1452  160A  118A  234E  160A  118A  	fcall	___xxtofl
  1983  1457  0873               	movf	?___xxtofl+3,w
  1984  1458  1283               	bcf	3,5	;RP0=0, select bank0
  1985  1459  1303               	bcf	3,6	;RP1=0, select bank0
  1986  145A  00BA               	movwf	___flmul@a+3
  1987  145B  0872               	movf	?___xxtofl+2,w
  1988  145C  00B9               	movwf	___flmul@a+2
  1989  145D  0871               	movf	?___xxtofl+1,w
  1990  145E  00B8               	movwf	___flmul@a+1
  1991  145F  0870               	movf	?___xxtofl,w
  1992  1460  00B7               	movwf	___flmul@a
  1993  1461  1683               	bsf	3,5	;RP0=1, select bank1
  1994  1462  1303               	bcf	3,6	;RP1=0, select bank1
  1995  1463  0855               	movf	(_pot_value$879+3)^(0+128),w
  1996  1464  1283               	bcf	3,5	;RP0=0, select bank0
  1997  1465  1303               	bcf	3,6	;RP1=0, select bank0
  1998  1466  00B6               	movwf	___flmul@b+3
  1999  1467  1683               	bsf	3,5	;RP0=1, select bank1
  2000  1468  1303               	bcf	3,6	;RP1=0, select bank1
  2001  1469  0854               	movf	(_pot_value$879+2)^(0+128),w
  2002  146A  1283               	bcf	3,5	;RP0=0, select bank0
  2003  146B  1303               	bcf	3,6	;RP1=0, select bank0
  2004  146C  00B5               	movwf	___flmul@b+2
  2005  146D  1683               	bsf	3,5	;RP0=1, select bank1
  2006  146E  1303               	bcf	3,6	;RP1=0, select bank1
  2007  146F  0853               	movf	(_pot_value$879+1)^(0+128),w
  2008  1470  1283               	bcf	3,5	;RP0=0, select bank0
  2009  1471  1303               	bcf	3,6	;RP1=0, select bank0
  2010  1472  00B4               	movwf	___flmul@b+1
  2011  1473  1683               	bsf	3,5	;RP0=1, select bank1
  2012  1474  1303               	bcf	3,6	;RP1=0, select bank1
  2013  1475  0852               	movf	_pot_value$879^(0+128),w
  2014  1476  1283               	bcf	3,5	;RP0=0, select bank0
  2015  1477  1303               	bcf	3,6	;RP1=0, select bank0
  2016  1478  00B3               	movwf	___flmul@b
  2017  1479  120A  118A  2489  160A  118A  	fcall	___flmul
  2018  147E  1283               	bcf	3,5	;RP0=0, select bank0
  2019  147F  1303               	bcf	3,6	;RP1=0, select bank0
  2020  1480  0836               	movf	?___flmul+3,w
  2021  1481  00D4               	movwf	___fladd@a+3
  2022  1482  0835               	movf	?___flmul+2,w
  2023  1483  00D3               	movwf	___fladd@a+2
  2024  1484  0834               	movf	?___flmul+1,w
  2025  1485  00D2               	movwf	___fladd@a+1
  2026  1486  0833               	movf	?___flmul,w
  2027  1487  00D1               	movwf	___fladd@a
  2028  1488  1683               	bsf	3,5	;RP0=1, select bank1
  2029  1489  1303               	bcf	3,6	;RP1=0, select bank1
  2030  148A  085A               	movf	pot_value@adres_low^(0+128),w
  2031  148B  00F0               	movwf	___xxtofl@val
  2032  148C  085B               	movf	(pot_value@adres_low+1)^(0+128),w
  2033  148D  00F1               	movwf	___xxtofl@val+1
  2034  148E  3000               	movlw	0
  2035  148F  1BF1               	btfsc	___xxtofl@val+1,7
  2036  1490  30FF               	movlw	255
  2037  1491  00F2               	movwf	___xxtofl@val+2
  2038  1492  00F3               	movwf	___xxtofl@val+3
  2039  1493  3001               	movlw	1
  2040  1494  160A  118A  234E  160A  118A  	fcall	___xxtofl
  2041  1499  0873               	movf	?___xxtofl+3,w
  2042  149A  1283               	bcf	3,5	;RP0=0, select bank0
  2043  149B  1303               	bcf	3,6	;RP1=0, select bank0
  2044  149C  00D0               	movwf	___fladd@b+3
  2045  149D  0872               	movf	?___xxtofl+2,w
  2046  149E  00CF               	movwf	___fladd@b+2
  2047  149F  0871               	movf	?___xxtofl+1,w
  2048  14A0  00CE               	movwf	___fladd@b+1
  2049  14A1  0870               	movf	?___xxtofl,w
  2050  14A2  00CD               	movwf	___fladd@b
  2051  14A3  120A  158A  2578  160A  118A  	fcall	___fladd
  2052  14A8  1283               	bcf	3,5	;RP0=0, select bank0
  2053  14A9  1303               	bcf	3,6	;RP1=0, select bank0
  2054  14AA  0850               	movf	?___fladd+3,w
  2055  14AB  00E4               	movwf	___fltol@f1+3
  2056  14AC  084F               	movf	?___fladd+2,w
  2057  14AD  00E3               	movwf	___fltol@f1+2
  2058  14AE  084E               	movf	?___fladd+1,w
  2059  14AF  00E2               	movwf	___fltol@f1+1
  2060  14B0  084D               	movf	?___fladd,w
  2061  14B1  00E1               	movwf	___fltol@f1
  2062  14B2  160A  118A  219B  160A  118A  	fcall	___fltol
  2063  14B7  1283               	bcf	3,5	;RP0=0, select bank0
  2064  14B8  1303               	bcf	3,6	;RP1=0, select bank0
  2065  14B9  0862               	movf	?___fltol+1,w
  2066  14BA  1683               	bsf	3,5	;RP0=1, select bank1
  2067  14BB  1303               	bcf	3,6	;RP1=0, select bank1
  2068  14BC  00D7               	movwf	(pot_value@pot_level+1)^(0+128)
  2069  14BD  1283               	bcf	3,5	;RP0=0, select bank0
  2070  14BE  1303               	bcf	3,6	;RP1=0, select bank0
  2071  14BF  0861               	movf	?___fltol,w
  2072  14C0  1683               	bsf	3,5	;RP0=1, select bank1
  2073  14C1  1303               	bcf	3,6	;RP1=0, select bank1
  2074  14C2  00D6               	movwf	pot_value@pot_level^(0+128)
  2075  14C3                     l3731:
  2076                           
  2077                           ;ex7-1.c: 88:     return pot_level;
  2078  14C3  0857               	movf	(pot_value@pot_level+1)^(0+128),w
  2079  14C4  00CD               	movwf	(?_pot_value+1)^(0+128)
  2080  14C5  0856               	movf	pot_value@pot_level^(0+128),w
  2081  14C6  00CC               	movwf	?_pot_value^(0+128)
  2082  14C7                     l36:
  2083  14C7  0008               	return
  2084  14C8                     __end_of_pot_value:
  2085                           
  2086                           	psect	text2
  2087  0940                     __ptext2:	
  2088 ;; *************** function _pow *****************
  2089 ;; Defined at:
  2090 ;;		line 5 in file "C:\Program Files\Microchip\xc8\v2.36\pic\sources\c90\common\pow.c"
  2091 ;; Parameters:    Size  Location     Type
  2092 ;;  x               4   22[BANK1 ] int 
  2093 ;;  y               4   26[BANK1 ] int 
  2094 ;; Auto vars:     Size  Location     Type
  2095 ;;  yi              4   40[BANK1 ] unsigned long 
  2096 ;;  sign            1   39[BANK1 ] unsigned char 
  2097 ;; Return value:  Size  Location     Type
  2098 ;;                  4   22[BANK1 ] unsigned char 
  2099 ;; Registers used:
  2100 ;;		wreg, fsr0l, fsr0h, status,2, status,0, btemp+1, pclath, cstack
  2101 ;; Tracked objects:
  2102 ;;		On entry : 0/0
  2103 ;;		On exit  : 0/0
  2104 ;;		Unchanged: 0/0
  2105 ;; Data sizes:     COMMON   BANK0   BANK1   BANK3   BANK2
  2106 ;;      Params:         0       0       8       0       0
  2107 ;;      Locals:         0       0      13       0       0
  2108 ;;      Temps:          0       0       1       0       0
  2109 ;;      Totals:         0       0      22       0       0
  2110 ;;Total ram usage:       22 bytes
  2111 ;; Hardware stack levels used: 1
  2112 ;; Hardware stack levels required when called: 4
  2113 ;; This function calls:
  2114 ;;		___fleq
  2115 ;;		___flge
  2116 ;;		___flmul
  2117 ;;		___flneg
  2118 ;;		___fltol
  2119 ;;		___xxtofl
  2120 ;;		_exp
  2121 ;;		_log
  2122 ;; This function is called by:
  2123 ;;		_pot_value
  2124 ;; This function uses a non-reentrant model
  2125 ;;
  2126                           
  2127  0940                     _pow:	
  2128                           ;psect for function _pow
  2129                           
  2130  0940                     l3681:	
  2131                           ;incstack = 0
  2132                           ; Regs used in _pow: [wreg-fsr0h+status,2+status,0+btemp+1+pclath+cstack]
  2133                           
  2134  0940  1683               	bsf	3,5	;RP0=1, select bank1
  2135  0941  1303               	bcf	3,6	;RP1=0, select bank1
  2136  0942  01C7               	clrf	pow@sign^(0+128)
  2137  0943                     l3683:
  2138  0943  0839               	movf	(pow@x+3)^(0+128),w
  2139  0944  1283               	bcf	3,5	;RP0=0, select bank0
  2140  0945  1303               	bcf	3,6	;RP1=0, select bank0
  2141  0946  00A3               	movwf	___fleq@ff1+3
  2142  0947  1683               	bsf	3,5	;RP0=1, select bank1
  2143  0948  1303               	bcf	3,6	;RP1=0, select bank1
  2144  0949  0838               	movf	(pow@x+2)^(0+128),w
  2145  094A  1283               	bcf	3,5	;RP0=0, select bank0
  2146  094B  1303               	bcf	3,6	;RP1=0, select bank0
  2147  094C  00A2               	movwf	___fleq@ff1+2
  2148  094D  1683               	bsf	3,5	;RP0=1, select bank1
  2149  094E  1303               	bcf	3,6	;RP1=0, select bank1
  2150  094F  0837               	movf	(pow@x+1)^(0+128),w
  2151  0950  1283               	bcf	3,5	;RP0=0, select bank0
  2152  0951  1303               	bcf	3,6	;RP1=0, select bank0
  2153  0952  00A1               	movwf	___fleq@ff1+1
  2154  0953  1683               	bsf	3,5	;RP0=1, select bank1
  2155  0954  1303               	bcf	3,6	;RP1=0, select bank1
  2156  0955  0836               	movf	pow@x^(0+128),w
  2157  0956  1283               	bcf	3,5	;RP0=0, select bank0
  2158  0957  1303               	bcf	3,6	;RP1=0, select bank0
  2159  0958  00A0               	movwf	___fleq@ff1
  2160  0959  3000               	movlw	0
  2161  095A  00A7               	movwf	___fleq@ff2+3
  2162  095B  3000               	movlw	0
  2163  095C  00A6               	movwf	___fleq@ff2+2
  2164  095D  3000               	movlw	0
  2165  095E  00A5               	movwf	___fleq@ff2+1
  2166  095F  3000               	movlw	0
  2167  0960  00A4               	movwf	___fleq@ff2
  2168  0961  160A  118A  202F  120A  158A  	fcall	___fleq
  2169  0966  1C03               	btfss	3,0
  2170  0967  2969               	goto	u6031
  2171  0968  296A               	goto	u6030
  2172  0969                     u6031:
  2173  0969  2996               	goto	l3691
  2174  096A                     u6030:
  2175  096A                     l3685:
  2176  096A  3000               	movlw	0
  2177  096B  00F3               	movwf	___flge@ff1+3
  2178  096C  3000               	movlw	0
  2179  096D  00F2               	movwf	___flge@ff1+2
  2180  096E  3000               	movlw	0
  2181  096F  00F1               	movwf	___flge@ff1+1
  2182  0970  3000               	movlw	0
  2183  0971  00F0               	movwf	___flge@ff1
  2184  0972  1683               	bsf	3,5	;RP0=1, select bank1
  2185  0973  1303               	bcf	3,6	;RP1=0, select bank1
  2186  0974  083D               	movf	(pow@y+3)^(0+128),w
  2187  0975  00F7               	movwf	___flge@ff2+3
  2188  0976  083C               	movf	(pow@y+2)^(0+128),w
  2189  0977  00F6               	movwf	___flge@ff2+2
  2190  0978  083B               	movf	(pow@y+1)^(0+128),w
  2191  0979  00F5               	movwf	___flge@ff2+1
  2192  097A  083A               	movf	pow@y^(0+128),w
  2193  097B  00F4               	movwf	___flge@ff2
  2194  097C  160A  118A  22AC  120A  158A  	fcall	___flge
  2195  0981  1C03               	btfss	3,0
  2196  0982  2984               	goto	u6041
  2197  0983  2985               	goto	u6040
  2198  0984                     u6041:
  2199  0984  298B               	goto	l626
  2200  0985                     u6040:
  2201  0985                     l3687:
  2202  0985  3021               	movlw	33
  2203  0986  1683               	bsf	3,5	;RP0=1, select bank3
  2204  0987  1703               	bsf	3,6	;RP1=1, select bank3
  2205  0988  009A               	movwf	_errno^(0+384)
  2206  0989  3000               	movlw	0
  2207  098A  009B               	movwf	(_errno^(0+384)+1)
  2208  098B                     l626:
  2209  098B  3000               	movlw	0
  2210  098C  1683               	bsf	3,5	;RP0=1, select bank1
  2211  098D  1303               	bcf	3,6	;RP1=0, select bank1
  2212  098E  00B9               	movwf	(?_pow+3)^(0+128)
  2213  098F  3000               	movlw	0
  2214  0990  00B8               	movwf	(?_pow+2)^(0+128)
  2215  0991  3000               	movlw	0
  2216  0992  00B7               	movwf	(?_pow+1)^(0+128)
  2217  0993  3000               	movlw	0
  2218  0994  00B6               	movwf	?_pow^(0+128)
  2219  0995  2B1A               	goto	l627
  2220  0996                     l3691:
  2221  0996  1683               	bsf	3,5	;RP0=1, select bank1
  2222  0997  1303               	bcf	3,6	;RP1=0, select bank1
  2223  0998  083D               	movf	(pow@y+3)^(0+128),w
  2224  0999  1283               	bcf	3,5	;RP0=0, select bank0
  2225  099A  1303               	bcf	3,6	;RP1=0, select bank0
  2226  099B  00A3               	movwf	___fleq@ff1+3
  2227  099C  1683               	bsf	3,5	;RP0=1, select bank1
  2228  099D  1303               	bcf	3,6	;RP1=0, select bank1
  2229  099E  083C               	movf	(pow@y+2)^(0+128),w
  2230  099F  1283               	bcf	3,5	;RP0=0, select bank0
  2231  09A0  1303               	bcf	3,6	;RP1=0, select bank0
  2232  09A1  00A2               	movwf	___fleq@ff1+2
  2233  09A2  1683               	bsf	3,5	;RP0=1, select bank1
  2234  09A3  1303               	bcf	3,6	;RP1=0, select bank1
  2235  09A4  083B               	movf	(pow@y+1)^(0+128),w
  2236  09A5  1283               	bcf	3,5	;RP0=0, select bank0
  2237  09A6  1303               	bcf	3,6	;RP1=0, select bank0
  2238  09A7  00A1               	movwf	___fleq@ff1+1
  2239  09A8  1683               	bsf	3,5	;RP0=1, select bank1
  2240  09A9  1303               	bcf	3,6	;RP1=0, select bank1
  2241  09AA  083A               	movf	pow@y^(0+128),w
  2242  09AB  1283               	bcf	3,5	;RP0=0, select bank0
  2243  09AC  1303               	bcf	3,6	;RP1=0, select bank0
  2244  09AD  00A0               	movwf	___fleq@ff1
  2245  09AE  3000               	movlw	0
  2246  09AF  00A7               	movwf	___fleq@ff2+3
  2247  09B0  3000               	movlw	0
  2248  09B1  00A6               	movwf	___fleq@ff2+2
  2249  09B2  3000               	movlw	0
  2250  09B3  00A5               	movwf	___fleq@ff2+1
  2251  09B4  3000               	movlw	0
  2252  09B5  00A4               	movwf	___fleq@ff2
  2253  09B6  160A  118A  202F  120A  158A  	fcall	___fleq
  2254  09BB  1C03               	btfss	3,0
  2255  09BC  29BE               	goto	u6051
  2256  09BD  29BF               	goto	u6050
  2257  09BE                     u6051:
  2258  09BE  29CA               	goto	l3697
  2259  09BF                     u6050:
  2260  09BF                     l3693:
  2261  09BF  303F               	movlw	63
  2262  09C0  1683               	bsf	3,5	;RP0=1, select bank1
  2263  09C1  1303               	bcf	3,6	;RP1=0, select bank1
  2264  09C2  00B9               	movwf	(?_pow+3)^(0+128)
  2265  09C3  3080               	movlw	128
  2266  09C4  00B8               	movwf	(?_pow+2)^(0+128)
  2267  09C5  3000               	movlw	0
  2268  09C6  00B7               	movwf	(?_pow+1)^(0+128)
  2269  09C7  3000               	movlw	0
  2270  09C8  00B6               	movwf	?_pow^(0+128)
  2271  09C9  2B1A               	goto	l627
  2272  09CA                     l3697:
  2273  09CA  1683               	bsf	3,5	;RP0=1, select bank1
  2274  09CB  1303               	bcf	3,6	;RP1=0, select bank1
  2275  09CC  0839               	movf	(pow@x+3)^(0+128),w
  2276  09CD  00F3               	movwf	___flge@ff1+3
  2277  09CE  0838               	movf	(pow@x+2)^(0+128),w
  2278  09CF  00F2               	movwf	___flge@ff1+2
  2279  09D0  0837               	movf	(pow@x+1)^(0+128),w
  2280  09D1  00F1               	movwf	___flge@ff1+1
  2281  09D2  0836               	movf	pow@x^(0+128),w
  2282  09D3  00F0               	movwf	___flge@ff1
  2283  09D4  3000               	movlw	0
  2284  09D5  00F7               	movwf	___flge@ff2+3
  2285  09D6  3000               	movlw	0
  2286  09D7  00F6               	movwf	___flge@ff2+2
  2287  09D8  3000               	movlw	0
  2288  09D9  00F5               	movwf	___flge@ff2+1
  2289  09DA  3000               	movlw	0
  2290  09DB  00F4               	movwf	___flge@ff2
  2291  09DC  160A  118A  22AC  120A  158A  	fcall	___flge
  2292  09E1  1803               	btfsc	3,0
  2293  09E2  29E4               	goto	u6061
  2294  09E3  29E5               	goto	u6060
  2295  09E4                     u6061:
  2296  09E4  2A82               	goto	l3709
  2297  09E5                     u6060:
  2298  09E5                     l3699:
  2299  09E5  1683               	bsf	3,5	;RP0=1, select bank1
  2300  09E6  1303               	bcf	3,6	;RP1=0, select bank1
  2301  09E7  083D               	movf	(pow@y+3)^(0+128),w
  2302  09E8  1283               	bcf	3,5	;RP0=0, select bank0
  2303  09E9  1303               	bcf	3,6	;RP1=0, select bank0
  2304  09EA  00E4               	movwf	___fltol@f1+3
  2305  09EB  1683               	bsf	3,5	;RP0=1, select bank1
  2306  09EC  1303               	bcf	3,6	;RP1=0, select bank1
  2307  09ED  083C               	movf	(pow@y+2)^(0+128),w
  2308  09EE  1283               	bcf	3,5	;RP0=0, select bank0
  2309  09EF  1303               	bcf	3,6	;RP1=0, select bank0
  2310  09F0  00E3               	movwf	___fltol@f1+2
  2311  09F1  1683               	bsf	3,5	;RP0=1, select bank1
  2312  09F2  1303               	bcf	3,6	;RP1=0, select bank1
  2313  09F3  083B               	movf	(pow@y+1)^(0+128),w
  2314  09F4  1283               	bcf	3,5	;RP0=0, select bank0
  2315  09F5  1303               	bcf	3,6	;RP1=0, select bank0
  2316  09F6  00E2               	movwf	___fltol@f1+1
  2317  09F7  1683               	bsf	3,5	;RP0=1, select bank1
  2318  09F8  1303               	bcf	3,6	;RP1=0, select bank1
  2319  09F9  083A               	movf	pow@y^(0+128),w
  2320  09FA  1283               	bcf	3,5	;RP0=0, select bank0
  2321  09FB  1303               	bcf	3,6	;RP1=0, select bank0
  2322  09FC  00E1               	movwf	___fltol@f1
  2323  09FD  160A  118A  219B  120A  158A  	fcall	___fltol
  2324  0A02  1283               	bcf	3,5	;RP0=0, select bank0
  2325  0A03  1303               	bcf	3,6	;RP1=0, select bank0
  2326  0A04  0864               	movf	?___fltol+3,w
  2327  0A05  1683               	bsf	3,5	;RP0=1, select bank1
  2328  0A06  1303               	bcf	3,6	;RP1=0, select bank1
  2329  0A07  00CB               	movwf	(pow@yi+3)^(0+128)
  2330  0A08  1283               	bcf	3,5	;RP0=0, select bank0
  2331  0A09  1303               	bcf	3,6	;RP1=0, select bank0
  2332  0A0A  0863               	movf	?___fltol+2,w
  2333  0A0B  1683               	bsf	3,5	;RP0=1, select bank1
  2334  0A0C  1303               	bcf	3,6	;RP1=0, select bank1
  2335  0A0D  00CA               	movwf	(pow@yi+2)^(0+128)
  2336  0A0E  1283               	bcf	3,5	;RP0=0, select bank0
  2337  0A0F  1303               	bcf	3,6	;RP1=0, select bank0
  2338  0A10  0862               	movf	?___fltol+1,w
  2339  0A11  1683               	bsf	3,5	;RP0=1, select bank1
  2340  0A12  1303               	bcf	3,6	;RP1=0, select bank1
  2341  0A13  00C9               	movwf	(pow@yi+1)^(0+128)
  2342  0A14  1283               	bcf	3,5	;RP0=0, select bank0
  2343  0A15  1303               	bcf	3,6	;RP1=0, select bank0
  2344  0A16  0861               	movf	?___fltol,w
  2345  0A17  1683               	bsf	3,5	;RP0=1, select bank1
  2346  0A18  1303               	bcf	3,6	;RP1=0, select bank1
  2347  0A19  00C8               	movwf	pow@yi^(0+128)
  2348  0A1A  084B               	movf	(pow@yi+3)^(0+128),w
  2349  0A1B  00F3               	movwf	___xxtofl@val+3
  2350  0A1C  084A               	movf	(pow@yi+2)^(0+128),w
  2351  0A1D  00F2               	movwf	___xxtofl@val+2
  2352  0A1E  0849               	movf	(pow@yi+1)^(0+128),w
  2353  0A1F  00F1               	movwf	___xxtofl@val+1
  2354  0A20  0848               	movf	pow@yi^(0+128),w
  2355  0A21  00F0               	movwf	___xxtofl@val
  2356  0A22  3000               	movlw	0
  2357  0A23  160A  118A  234E  120A  158A  	fcall	___xxtofl
  2358  0A28  0873               	movf	?___xxtofl+3,w
  2359  0A29  1283               	bcf	3,5	;RP0=0, select bank0
  2360  0A2A  1303               	bcf	3,6	;RP1=0, select bank0
  2361  0A2B  00A3               	movwf	___fleq@ff1+3
  2362  0A2C  0872               	movf	?___xxtofl+2,w
  2363  0A2D  00A2               	movwf	___fleq@ff1+2
  2364  0A2E  0871               	movf	?___xxtofl+1,w
  2365  0A2F  00A1               	movwf	___fleq@ff1+1
  2366  0A30  0870               	movf	?___xxtofl,w
  2367  0A31  00A0               	movwf	___fleq@ff1
  2368  0A32  1683               	bsf	3,5	;RP0=1, select bank1
  2369  0A33  1303               	bcf	3,6	;RP1=0, select bank1
  2370  0A34  083D               	movf	(pow@y+3)^(0+128),w
  2371  0A35  1283               	bcf	3,5	;RP0=0, select bank0
  2372  0A36  1303               	bcf	3,6	;RP1=0, select bank0
  2373  0A37  00A7               	movwf	___fleq@ff2+3
  2374  0A38  1683               	bsf	3,5	;RP0=1, select bank1
  2375  0A39  1303               	bcf	3,6	;RP1=0, select bank1
  2376  0A3A  083C               	movf	(pow@y+2)^(0+128),w
  2377  0A3B  1283               	bcf	3,5	;RP0=0, select bank0
  2378  0A3C  1303               	bcf	3,6	;RP1=0, select bank0
  2379  0A3D  00A6               	movwf	___fleq@ff2+2
  2380  0A3E  1683               	bsf	3,5	;RP0=1, select bank1
  2381  0A3F  1303               	bcf	3,6	;RP1=0, select bank1
  2382  0A40  083B               	movf	(pow@y+1)^(0+128),w
  2383  0A41  1283               	bcf	3,5	;RP0=0, select bank0
  2384  0A42  1303               	bcf	3,6	;RP1=0, select bank0
  2385  0A43  00A5               	movwf	___fleq@ff2+1
  2386  0A44  1683               	bsf	3,5	;RP0=1, select bank1
  2387  0A45  1303               	bcf	3,6	;RP1=0, select bank1
  2388  0A46  083A               	movf	pow@y^(0+128),w
  2389  0A47  1283               	bcf	3,5	;RP0=0, select bank0
  2390  0A48  1303               	bcf	3,6	;RP1=0, select bank0
  2391  0A49  00A4               	movwf	___fleq@ff2
  2392  0A4A  160A  118A  202F  120A  158A  	fcall	___fleq
  2393  0A4F  1803               	btfsc	3,0
  2394  0A50  2A52               	goto	u6071
  2395  0A51  2A53               	goto	u6070
  2396  0A52                     u6071:
  2397  0A52  2A64               	goto	l3705
  2398  0A53                     u6070:
  2399  0A53                     l3701:
  2400  0A53  3021               	movlw	33
  2401  0A54  1683               	bsf	3,5	;RP0=1, select bank3
  2402  0A55  1703               	bsf	3,6	;RP1=1, select bank3
  2403  0A56  009A               	movwf	_errno^(0+384)
  2404  0A57  3000               	movlw	0
  2405  0A58  009B               	movwf	(_errno^(0+384)+1)
  2406  0A59  3000               	movlw	0
  2407  0A5A  1683               	bsf	3,5	;RP0=1, select bank1
  2408  0A5B  1303               	bcf	3,6	;RP1=0, select bank1
  2409  0A5C  00B9               	movwf	(?_pow+3)^(0+128)
  2410  0A5D  3000               	movlw	0
  2411  0A5E  00B8               	movwf	(?_pow+2)^(0+128)
  2412  0A5F  3000               	movlw	0
  2413  0A60  00B7               	movwf	(?_pow+1)^(0+128)
  2414  0A61  3000               	movlw	0
  2415  0A62  00B6               	movwf	?_pow^(0+128)
  2416  0A63  2B1A               	goto	l627
  2417  0A64                     l3705:
  2418  0A64  1683               	bsf	3,5	;RP0=1, select bank1
  2419  0A65  1303               	bcf	3,6	;RP1=0, select bank1
  2420  0A66  0848               	movf	pow@yi^(0+128),w
  2421  0A67  3901               	andlw	1
  2422  0A68  00BE               	movwf	??_pow^(0+128)
  2423  0A69  083E               	movf	??_pow^(0+128),w
  2424  0A6A  00C7               	movwf	pow@sign^(0+128)
  2425  0A6B                     l3707:
  2426  0A6B  0839               	movf	(pow@x+3)^(0+128),w
  2427  0A6C  00F3               	movwf	___flneg@f1+3
  2428  0A6D  0838               	movf	(pow@x+2)^(0+128),w
  2429  0A6E  00F2               	movwf	___flneg@f1+2
  2430  0A6F  0837               	movf	(pow@x+1)^(0+128),w
  2431  0A70  00F1               	movwf	___flneg@f1+1
  2432  0A71  0836               	movf	pow@x^(0+128),w
  2433  0A72  00F0               	movwf	___flneg@f1
  2434  0A73  160A  158A  27AC  120A  158A  	fcall	___flneg
  2435  0A78  0873               	movf	?___flneg+3,w
  2436  0A79  1683               	bsf	3,5	;RP0=1, select bank1
  2437  0A7A  1303               	bcf	3,6	;RP1=0, select bank1
  2438  0A7B  00B9               	movwf	(pow@x+3)^(0+128)
  2439  0A7C  0872               	movf	?___flneg+2,w
  2440  0A7D  00B8               	movwf	(pow@x+2)^(0+128)
  2441  0A7E  0871               	movf	?___flneg+1,w
  2442  0A7F  00B7               	movwf	(pow@x+1)^(0+128)
  2443  0A80  0870               	movf	?___flneg,w
  2444  0A81  00B6               	movwf	pow@x^(0+128)
  2445  0A82                     l3709:
  2446  0A82  1683               	bsf	3,5	;RP0=1, select bank1
  2447  0A83  1303               	bcf	3,6	;RP1=0, select bank1
  2448  0A84  0839               	movf	(pow@x+3)^(0+128),w
  2449  0A85  00A7               	movwf	(log@x+3)^(0+128)
  2450  0A86  0838               	movf	(pow@x+2)^(0+128),w
  2451  0A87  00A6               	movwf	(log@x+2)^(0+128)
  2452  0A88  0837               	movf	(pow@x+1)^(0+128),w
  2453  0A89  00A5               	movwf	(log@x+1)^(0+128)
  2454  0A8A  0836               	movf	pow@x^(0+128),w
  2455  0A8B  00A4               	movwf	log@x^(0+128)
  2456  0A8C  160A  118A  2688  120A  158A  	fcall	_log
  2457  0A91  1683               	bsf	3,5	;RP0=1, select bank1
  2458  0A92  1303               	bcf	3,6	;RP1=0, select bank1
  2459  0A93  0827               	movf	(?_log+3)^(0+128),w
  2460  0A94  00C2               	movwf	(_pow$880+3)^(0+128)
  2461  0A95  0826               	movf	(?_log+2)^(0+128),w
  2462  0A96  00C1               	movwf	(_pow$880+2)^(0+128)
  2463  0A97  0825               	movf	(?_log+1)^(0+128),w
  2464  0A98  00C0               	movwf	(_pow$880+1)^(0+128)
  2465  0A99  0824               	movf	?_log^(0+128),w
  2466  0A9A  00BF               	movwf	_pow$880^(0+128)
  2467  0A9B                     l3711:
  2468  0A9B  083D               	movf	(pow@y+3)^(0+128),w
  2469  0A9C  1283               	bcf	3,5	;RP0=0, select bank0
  2470  0A9D  1303               	bcf	3,6	;RP1=0, select bank0
  2471  0A9E  00B6               	movwf	___flmul@b+3
  2472  0A9F  1683               	bsf	3,5	;RP0=1, select bank1
  2473  0AA0  1303               	bcf	3,6	;RP1=0, select bank1
  2474  0AA1  083C               	movf	(pow@y+2)^(0+128),w
  2475  0AA2  1283               	bcf	3,5	;RP0=0, select bank0
  2476  0AA3  1303               	bcf	3,6	;RP1=0, select bank0
  2477  0AA4  00B5               	movwf	___flmul@b+2
  2478  0AA5  1683               	bsf	3,5	;RP0=1, select bank1
  2479  0AA6  1303               	bcf	3,6	;RP1=0, select bank1
  2480  0AA7  083B               	movf	(pow@y+1)^(0+128),w
  2481  0AA8  1283               	bcf	3,5	;RP0=0, select bank0
  2482  0AA9  1303               	bcf	3,6	;RP1=0, select bank0
  2483  0AAA  00B4               	movwf	___flmul@b+1
  2484  0AAB  1683               	bsf	3,5	;RP0=1, select bank1
  2485  0AAC  1303               	bcf	3,6	;RP1=0, select bank1
  2486  0AAD  083A               	movf	pow@y^(0+128),w
  2487  0AAE  1283               	bcf	3,5	;RP0=0, select bank0
  2488  0AAF  1303               	bcf	3,6	;RP1=0, select bank0
  2489  0AB0  00B3               	movwf	___flmul@b
  2490  0AB1  1683               	bsf	3,5	;RP0=1, select bank1
  2491  0AB2  1303               	bcf	3,6	;RP1=0, select bank1
  2492  0AB3  0842               	movf	(_pow$880+3)^(0+128),w
  2493  0AB4  1283               	bcf	3,5	;RP0=0, select bank0
  2494  0AB5  1303               	bcf	3,6	;RP1=0, select bank0
  2495  0AB6  00BA               	movwf	___flmul@a+3
  2496  0AB7  1683               	bsf	3,5	;RP0=1, select bank1
  2497  0AB8  1303               	bcf	3,6	;RP1=0, select bank1
  2498  0AB9  0841               	movf	(_pow$880+2)^(0+128),w
  2499  0ABA  1283               	bcf	3,5	;RP0=0, select bank0
  2500  0ABB  1303               	bcf	3,6	;RP1=0, select bank0
  2501  0ABC  00B9               	movwf	___flmul@a+2
  2502  0ABD  1683               	bsf	3,5	;RP0=1, select bank1
  2503  0ABE  1303               	bcf	3,6	;RP1=0, select bank1
  2504  0ABF  0840               	movf	(_pow$880+1)^(0+128),w
  2505  0AC0  1283               	bcf	3,5	;RP0=0, select bank0
  2506  0AC1  1303               	bcf	3,6	;RP1=0, select bank0
  2507  0AC2  00B8               	movwf	___flmul@a+1
  2508  0AC3  1683               	bsf	3,5	;RP0=1, select bank1
  2509  0AC4  1303               	bcf	3,6	;RP1=0, select bank1
  2510  0AC5  083F               	movf	_pow$880^(0+128),w
  2511  0AC6  1283               	bcf	3,5	;RP0=0, select bank0
  2512  0AC7  1303               	bcf	3,6	;RP1=0, select bank0
  2513  0AC8  00B7               	movwf	___flmul@a
  2514  0AC9  120A  118A  2489  120A  158A  	fcall	___flmul
  2515  0ACE  1283               	bcf	3,5	;RP0=0, select bank0
  2516  0ACF  1303               	bcf	3,6	;RP1=0, select bank0
  2517  0AD0  0836               	movf	?___flmul+3,w
  2518  0AD1  1683               	bsf	3,5	;RP0=1, select bank1
  2519  0AD2  1303               	bcf	3,6	;RP1=0, select bank1
  2520  0AD3  00C6               	movwf	(_pow$881+3)^(0+128)
  2521  0AD4  1283               	bcf	3,5	;RP0=0, select bank0
  2522  0AD5  1303               	bcf	3,6	;RP1=0, select bank0
  2523  0AD6  0835               	movf	?___flmul+2,w
  2524  0AD7  1683               	bsf	3,5	;RP0=1, select bank1
  2525  0AD8  1303               	bcf	3,6	;RP1=0, select bank1
  2526  0AD9  00C5               	movwf	(_pow$881+2)^(0+128)
  2527  0ADA  1283               	bcf	3,5	;RP0=0, select bank0
  2528  0ADB  1303               	bcf	3,6	;RP1=0, select bank0
  2529  0ADC  0834               	movf	?___flmul+1,w
  2530  0ADD  1683               	bsf	3,5	;RP0=1, select bank1
  2531  0ADE  1303               	bcf	3,6	;RP1=0, select bank1
  2532  0ADF  00C4               	movwf	(_pow$881+1)^(0+128)
  2533  0AE0  1283               	bcf	3,5	;RP0=0, select bank0
  2534  0AE1  1303               	bcf	3,6	;RP1=0, select bank0
  2535  0AE2  0833               	movf	?___flmul,w
  2536  0AE3  1683               	bsf	3,5	;RP0=1, select bank1
  2537  0AE4  1303               	bcf	3,6	;RP1=0, select bank1
  2538  0AE5  00C3               	movwf	_pow$881^(0+128)
  2539  0AE6                     l3713:
  2540  0AE6  0846               	movf	(_pow$881+3)^(0+128),w
  2541  0AE7  00AD               	movwf	(exp@x+3)^(0+128)
  2542  0AE8  0845               	movf	(_pow$881+2)^(0+128),w
  2543  0AE9  00AC               	movwf	(exp@x+2)^(0+128)
  2544  0AEA  0844               	movf	(_pow$881+1)^(0+128),w
  2545  0AEB  00AB               	movwf	(exp@x+1)^(0+128)
  2546  0AEC  0843               	movf	_pow$881^(0+128),w
  2547  0AED  00AA               	movwf	exp@x^(0+128)
  2548  0AEE  120A  158A  231B  120A  158A  	fcall	_exp
  2549  0AF3  1683               	bsf	3,5	;RP0=1, select bank1
  2550  0AF4  1303               	bcf	3,6	;RP1=0, select bank1
  2551  0AF5  082D               	movf	(?_exp+3)^(0+128),w
  2552  0AF6  00B9               	movwf	(pow@x+3)^(0+128)
  2553  0AF7  082C               	movf	(?_exp+2)^(0+128),w
  2554  0AF8  00B8               	movwf	(pow@x+2)^(0+128)
  2555  0AF9  082B               	movf	(?_exp+1)^(0+128),w
  2556  0AFA  00B7               	movwf	(pow@x+1)^(0+128)
  2557  0AFB  082A               	movf	?_exp^(0+128),w
  2558  0AFC  00B6               	movwf	pow@x^(0+128)
  2559  0AFD                     l3715:
  2560  0AFD  0847               	movf	pow@sign^(0+128),w
  2561  0AFE  1903               	btfsc	3,2
  2562  0AFF  2B01               	goto	u6081
  2563  0B00  2B02               	goto	u6080
  2564  0B01                     u6081:
  2565  0B01  2B1A               	goto	l631
  2566  0B02                     u6080:
  2567  0B02                     l3717:
  2568  0B02  0839               	movf	(pow@x+3)^(0+128),w
  2569  0B03  00F3               	movwf	___flneg@f1+3
  2570  0B04  0838               	movf	(pow@x+2)^(0+128),w
  2571  0B05  00F2               	movwf	___flneg@f1+2
  2572  0B06  0837               	movf	(pow@x+1)^(0+128),w
  2573  0B07  00F1               	movwf	___flneg@f1+1
  2574  0B08  0836               	movf	pow@x^(0+128),w
  2575  0B09  00F0               	movwf	___flneg@f1
  2576  0B0A  160A  158A  27AC  120A  158A  	fcall	___flneg
  2577  0B0F  0873               	movf	?___flneg+3,w
  2578  0B10  1683               	bsf	3,5	;RP0=1, select bank1
  2579  0B11  1303               	bcf	3,6	;RP1=0, select bank1
  2580  0B12  00B9               	movwf	(?_pow+3)^(0+128)
  2581  0B13  0872               	movf	?___flneg+2,w
  2582  0B14  00B8               	movwf	(?_pow+2)^(0+128)
  2583  0B15  0871               	movf	?___flneg+1,w
  2584  0B16  00B7               	movwf	(?_pow+1)^(0+128)
  2585  0B17  0870               	movf	?___flneg,w
  2586  0B18  00B6               	movwf	?_pow^(0+128)
  2587  0B19  2B1A               	goto	l627
  2588  0B1A                     l631:
  2589  0B1A                     l627:
  2590  0B1A  0008               	return
  2591  0B1B                     __end_of_pow:
  2592                           
  2593                           	psect	text3
  2594  1688                     __ptext3:	
  2595 ;; *************** function _log *****************
  2596 ;; Defined at:
  2597 ;;		line 5 in file "C:\Program Files\Microchip\xc8\v2.36\pic\sources\c90\common\log.c"
  2598 ;; Parameters:    Size  Location     Type
  2599 ;;  x               4    4[BANK1 ] unsigned char 
  2600 ;; Auto vars:     Size  Location     Type
  2601 ;;  exponent        2   78[BANK0 ] int 
  2602 ;; Return value:  Size  Location     Type
  2603 ;;                  4    4[BANK1 ] int 
  2604 ;; Registers used:
  2605 ;;		wreg, fsr0l, fsr0h, status,2, status,0, btemp+1, pclath, cstack
  2606 ;; Tracked objects:
  2607 ;;		On entry : 0/0
  2608 ;;		On exit  : 0/0
  2609 ;;		Unchanged: 0/0
  2610 ;; Data sizes:     COMMON   BANK0   BANK1   BANK3   BANK2
  2611 ;;      Params:         0       0       4       0       0
  2612 ;;      Locals:         0       2       0       0       0
  2613 ;;      Temps:          0       1       0       0       0
  2614 ;;      Totals:         0       3       4       0       0
  2615 ;;Total ram usage:        7 bytes
  2616 ;; Hardware stack levels used: 1
  2617 ;; Hardware stack levels required when called: 3
  2618 ;; This function calls:
  2619 ;;		___fladd
  2620 ;;		___fleq
  2621 ;;		___flge
  2622 ;;		___flmul
  2623 ;;		___xxtofl
  2624 ;;		_eval_poly
  2625 ;;		_frexp
  2626 ;; This function is called by:
  2627 ;;		_pow
  2628 ;; This function uses a non-reentrant model
  2629 ;;
  2630                           
  2631  1688                     _log:	
  2632                           ;psect for function _log
  2633                           
  2634  1688                     l3613:	
  2635                           ;incstack = 0
  2636                           ; Regs used in _log: [wreg-fsr0h+status,2+status,0+btemp+1+pclath+cstack]
  2637                           
  2638  1688  1683               	bsf	3,5	;RP0=1, select bank1
  2639  1689  1303               	bcf	3,6	;RP1=0, select bank1
  2640  168A  0827               	movf	(log@x+3)^(0+128),w
  2641  168B  00F3               	movwf	___flge@ff1+3
  2642  168C  0826               	movf	(log@x+2)^(0+128),w
  2643  168D  00F2               	movwf	___flge@ff1+2
  2644  168E  0825               	movf	(log@x+1)^(0+128),w
  2645  168F  00F1               	movwf	___flge@ff1+1
  2646  1690  0824               	movf	log@x^(0+128),w
  2647  1691  00F0               	movwf	___flge@ff1
  2648  1692  3000               	movlw	0
  2649  1693  00F7               	movwf	___flge@ff2+3
  2650  1694  3000               	movlw	0
  2651  1695  00F6               	movwf	___flge@ff2+2
  2652  1696  3000               	movlw	0
  2653  1697  00F5               	movwf	___flge@ff2+1
  2654  1698  3000               	movlw	0
  2655  1699  00F4               	movwf	___flge@ff2
  2656  169A  160A  118A  22AC  160A  118A  	fcall	___flge
  2657  169F  1803               	btfsc	3,0
  2658  16A0  2EA2               	goto	u5931
  2659  16A1  2EA3               	goto	u5930
  2660  16A2                     u5931:
  2661  16A2  2EB4               	goto	l3619
  2662  16A3                     u5930:
  2663  16A3                     l3615:
  2664  16A3  3021               	movlw	33
  2665  16A4  1683               	bsf	3,5	;RP0=1, select bank3
  2666  16A5  1703               	bsf	3,6	;RP1=1, select bank3
  2667  16A6  009A               	movwf	_errno^(0+384)
  2668  16A7  3000               	movlw	0
  2669  16A8  009B               	movwf	(_errno^(0+384)+1)
  2670  16A9  3000               	movlw	0
  2671  16AA  1683               	bsf	3,5	;RP0=1, select bank1
  2672  16AB  1303               	bcf	3,6	;RP1=0, select bank1
  2673  16AC  00A7               	movwf	(?_log+3)^(0+128)
  2674  16AD  3000               	movlw	0
  2675  16AE  00A6               	movwf	(?_log+2)^(0+128)
  2676  16AF  3000               	movlw	0
  2677  16B0  00A5               	movwf	(?_log+1)^(0+128)
  2678  16B1  3000               	movlw	0
  2679  16B2  00A4               	movwf	?_log^(0+128)
  2680  16B3  2FFF               	goto	l695
  2681  16B4                     l3619:
  2682  16B4  1683               	bsf	3,5	;RP0=1, select bank1
  2683  16B5  1303               	bcf	3,6	;RP1=0, select bank1
  2684  16B6  0827               	movf	(log@x+3)^(0+128),w
  2685  16B7  1283               	bcf	3,5	;RP0=0, select bank0
  2686  16B8  1303               	bcf	3,6	;RP1=0, select bank0
  2687  16B9  00A3               	movwf	___fleq@ff1+3
  2688  16BA  1683               	bsf	3,5	;RP0=1, select bank1
  2689  16BB  1303               	bcf	3,6	;RP1=0, select bank1
  2690  16BC  0826               	movf	(log@x+2)^(0+128),w
  2691  16BD  1283               	bcf	3,5	;RP0=0, select bank0
  2692  16BE  1303               	bcf	3,6	;RP1=0, select bank0
  2693  16BF  00A2               	movwf	___fleq@ff1+2
  2694  16C0  1683               	bsf	3,5	;RP0=1, select bank1
  2695  16C1  1303               	bcf	3,6	;RP1=0, select bank1
  2696  16C2  0825               	movf	(log@x+1)^(0+128),w
  2697  16C3  1283               	bcf	3,5	;RP0=0, select bank0
  2698  16C4  1303               	bcf	3,6	;RP1=0, select bank0
  2699  16C5  00A1               	movwf	___fleq@ff1+1
  2700  16C6  1683               	bsf	3,5	;RP0=1, select bank1
  2701  16C7  1303               	bcf	3,6	;RP1=0, select bank1
  2702  16C8  0824               	movf	log@x^(0+128),w
  2703  16C9  1283               	bcf	3,5	;RP0=0, select bank0
  2704  16CA  1303               	bcf	3,6	;RP1=0, select bank0
  2705  16CB  00A0               	movwf	___fleq@ff1
  2706  16CC  3000               	movlw	0
  2707  16CD  00A7               	movwf	___fleq@ff2+3
  2708  16CE  3000               	movlw	0
  2709  16CF  00A6               	movwf	___fleq@ff2+2
  2710  16D0  3000               	movlw	0
  2711  16D1  00A5               	movwf	___fleq@ff2+1
  2712  16D2  3000               	movlw	0
  2713  16D3  00A4               	movwf	___fleq@ff2
  2714  16D4  160A  118A  202F  160A  118A  	fcall	___fleq
  2715  16D9  1C03               	btfss	3,0
  2716  16DA  2EDC               	goto	u5941
  2717  16DB  2EDD               	goto	u5940
  2718  16DC                     u5941:
  2719  16DC  2EEE               	goto	l3625
  2720  16DD                     u5940:
  2721  16DD                     l3621:
  2722  16DD  3022               	movlw	34
  2723  16DE  1683               	bsf	3,5	;RP0=1, select bank3
  2724  16DF  1703               	bsf	3,6	;RP1=1, select bank3
  2725  16E0  009A               	movwf	_errno^(0+384)
  2726  16E1  3000               	movlw	0
  2727  16E2  009B               	movwf	(_errno^(0+384)+1)
  2728  16E3  3000               	movlw	0
  2729  16E4  1683               	bsf	3,5	;RP0=1, select bank1
  2730  16E5  1303               	bcf	3,6	;RP1=0, select bank1
  2731  16E6  00A7               	movwf	(?_log+3)^(0+128)
  2732  16E7  3000               	movlw	0
  2733  16E8  00A6               	movwf	(?_log+2)^(0+128)
  2734  16E9  3000               	movlw	0
  2735  16EA  00A5               	movwf	(?_log+1)^(0+128)
  2736  16EB  3000               	movlw	0
  2737  16EC  00A4               	movwf	?_log^(0+128)
  2738  16ED  2FFF               	goto	l695
  2739  16EE                     l3625:
  2740  16EE  30BF               	movlw	191
  2741  16EF  1283               	bcf	3,5	;RP0=0, select bank0
  2742  16F0  1303               	bcf	3,6	;RP1=0, select bank0
  2743  16F1  00D0               	movwf	___fladd@b+3
  2744  16F2  3080               	movlw	128
  2745  16F3  00CF               	movwf	___fladd@b+2
  2746  16F4  3000               	movlw	0
  2747  16F5  00CE               	movwf	___fladd@b+1
  2748  16F6  3000               	movlw	0
  2749  16F7  00CD               	movwf	___fladd@b
  2750  16F8  3040               	movlw	64
  2751  16F9  00B6               	movwf	___flmul@b+3
  2752  16FA  3000               	movlw	0
  2753  16FB  00B5               	movwf	___flmul@b+2
  2754  16FC  3000               	movlw	0
  2755  16FD  00B4               	movwf	___flmul@b+1
  2756  16FE  3000               	movlw	0
  2757  16FF  00B3               	movwf	___flmul@b
  2758  1700  306E               	movlw	(low (log@exponent| 0))& (0+255)
  2759  1701  00ED               	movwf	??_log
  2760  1702  086D               	movf	??_log,w
  2761  1703  00B0               	movwf	frexp@eptr
  2762  1704  1683               	bsf	3,5	;RP0=1, select bank1
  2763  1705  1303               	bcf	3,6	;RP1=0, select bank1
  2764  1706  0827               	movf	(log@x+3)^(0+128),w
  2765  1707  1283               	bcf	3,5	;RP0=0, select bank0
  2766  1708  1303               	bcf	3,6	;RP1=0, select bank0
  2767  1709  00AF               	movwf	frexp@value+3
  2768  170A  1683               	bsf	3,5	;RP0=1, select bank1
  2769  170B  1303               	bcf	3,6	;RP1=0, select bank1
  2770  170C  0826               	movf	(log@x+2)^(0+128),w
  2771  170D  1283               	bcf	3,5	;RP0=0, select bank0
  2772  170E  1303               	bcf	3,6	;RP1=0, select bank0
  2773  170F  00AE               	movwf	frexp@value+2
  2774  1710  1683               	bsf	3,5	;RP0=1, select bank1
  2775  1711  1303               	bcf	3,6	;RP1=0, select bank1
  2776  1712  0825               	movf	(log@x+1)^(0+128),w
  2777  1713  1283               	bcf	3,5	;RP0=0, select bank0
  2778  1714  1303               	bcf	3,6	;RP1=0, select bank0
  2779  1715  00AD               	movwf	frexp@value+1
  2780  1716  1683               	bsf	3,5	;RP0=1, select bank1
  2781  1717  1303               	bcf	3,6	;RP1=0, select bank1
  2782  1718  0824               	movf	log@x^(0+128),w
  2783  1719  1283               	bcf	3,5	;RP0=0, select bank0
  2784  171A  1303               	bcf	3,6	;RP1=0, select bank0
  2785  171B  00AC               	movwf	frexp@value
  2786  171C  160A  118A  20D8  160A  118A  	fcall	_frexp
  2787  1721  1283               	bcf	3,5	;RP0=0, select bank0
  2788  1722  1303               	bcf	3,6	;RP1=0, select bank0
  2789  1723  082F               	movf	?_frexp+3,w
  2790  1724  00BA               	movwf	___flmul@a+3
  2791  1725  082E               	movf	?_frexp+2,w
  2792  1726  00B9               	movwf	___flmul@a+2
  2793  1727  082D               	movf	?_frexp+1,w
  2794  1728  00B8               	movwf	___flmul@a+1
  2795  1729  082C               	movf	?_frexp,w
  2796  172A  00B7               	movwf	___flmul@a
  2797  172B  120A  118A  2489  160A  118A  	fcall	___flmul
  2798  1730  1283               	bcf	3,5	;RP0=0, select bank0
  2799  1731  1303               	bcf	3,6	;RP1=0, select bank0
  2800  1732  0836               	movf	?___flmul+3,w
  2801  1733  00D4               	movwf	___fladd@a+3
  2802  1734  0835               	movf	?___flmul+2,w
  2803  1735  00D3               	movwf	___fladd@a+2
  2804  1736  0834               	movf	?___flmul+1,w
  2805  1737  00D2               	movwf	___fladd@a+1
  2806  1738  0833               	movf	?___flmul,w
  2807  1739  00D1               	movwf	___fladd@a
  2808  173A  120A  158A  2578  160A  118A  	fcall	___fladd
  2809  173F  1283               	bcf	3,5	;RP0=0, select bank0
  2810  1740  1303               	bcf	3,6	;RP1=0, select bank0
  2811  1741  0850               	movf	?___fladd+3,w
  2812  1742  1683               	bsf	3,5	;RP0=1, select bank1
  2813  1743  1303               	bcf	3,6	;RP1=0, select bank1
  2814  1744  00A7               	movwf	(log@x+3)^(0+128)
  2815  1745  1283               	bcf	3,5	;RP0=0, select bank0
  2816  1746  1303               	bcf	3,6	;RP1=0, select bank0
  2817  1747  084F               	movf	?___fladd+2,w
  2818  1748  1683               	bsf	3,5	;RP0=1, select bank1
  2819  1749  1303               	bcf	3,6	;RP1=0, select bank1
  2820  174A  00A6               	movwf	(log@x+2)^(0+128)
  2821  174B  1283               	bcf	3,5	;RP0=0, select bank0
  2822  174C  1303               	bcf	3,6	;RP1=0, select bank0
  2823  174D  084E               	movf	?___fladd+1,w
  2824  174E  1683               	bsf	3,5	;RP0=1, select bank1
  2825  174F  1303               	bcf	3,6	;RP1=0, select bank1
  2826  1750  00A5               	movwf	(log@x+1)^(0+128)
  2827  1751  1283               	bcf	3,5	;RP0=0, select bank0
  2828  1752  1303               	bcf	3,6	;RP1=0, select bank0
  2829  1753  084D               	movf	?___fladd,w
  2830  1754  1683               	bsf	3,5	;RP0=1, select bank1
  2831  1755  1303               	bcf	3,6	;RP1=0, select bank1
  2832  1756  00A4               	movwf	log@x^(0+128)
  2833  1757                     l3627:
  2834  1757  30FF               	movlw	255
  2835  1758  1283               	bcf	3,5	;RP0=0, select bank0
  2836  1759  1303               	bcf	3,6	;RP1=0, select bank0
  2837  175A  07EE               	addwf	log@exponent,f
  2838  175B  1803               	skipnc
  2839  175C  0AEF               	incf	log@exponent+1,f
  2840  175D  30FF               	movlw	255
  2841  175E  07EF               	addwf	log@exponent+1,f
  2842  175F                     l3629:
  2843  175F  1683               	bsf	3,5	;RP0=1, select bank1
  2844  1760  1303               	bcf	3,6	;RP1=0, select bank1
  2845  1761  0827               	movf	(log@x+3)^(0+128),w
  2846  1762  1283               	bcf	3,5	;RP0=0, select bank0
  2847  1763  1303               	bcf	3,6	;RP1=0, select bank0
  2848  1764  00E4               	movwf	eval_poly@x+3
  2849  1765  1683               	bsf	3,5	;RP0=1, select bank1
  2850  1766  1303               	bcf	3,6	;RP1=0, select bank1
  2851  1767  0826               	movf	(log@x+2)^(0+128),w
  2852  1768  1283               	bcf	3,5	;RP0=0, select bank0
  2853  1769  1303               	bcf	3,6	;RP1=0, select bank0
  2854  176A  00E3               	movwf	eval_poly@x+2
  2855  176B  1683               	bsf	3,5	;RP0=1, select bank1
  2856  176C  1303               	bcf	3,6	;RP1=0, select bank1
  2857  176D  0825               	movf	(log@x+1)^(0+128),w
  2858  176E  1283               	bcf	3,5	;RP0=0, select bank0
  2859  176F  1303               	bcf	3,6	;RP1=0, select bank0
  2860  1770  00E2               	movwf	eval_poly@x+1
  2861  1771  1683               	bsf	3,5	;RP0=1, select bank1
  2862  1772  1303               	bcf	3,6	;RP1=0, select bank1
  2863  1773  0824               	movf	log@x^(0+128),w
  2864  1774  1283               	bcf	3,5	;RP0=0, select bank0
  2865  1775  1303               	bcf	3,6	;RP1=0, select bank0
  2866  1776  00E1               	movwf	eval_poly@x
  2867  1777  3029               	movlw	(low ((log@coeff-__stringbase)| (0+32768)))& (0+255)
  2868  1778  00ED               	movwf	??_log
  2869  1779  086D               	movf	??_log,w
  2870  177A  00E5               	movwf	eval_poly@d
  2871  177B  3008               	movlw	8
  2872  177C  00E6               	movwf	eval_poly@n
  2873  177D  3000               	movlw	0
  2874  177E  00E7               	movwf	eval_poly@n+1
  2875  177F  160A  118A  24C8  160A  118A  	fcall	_eval_poly
  2876  1784  1283               	bcf	3,5	;RP0=0, select bank0
  2877  1785  1303               	bcf	3,6	;RP1=0, select bank0
  2878  1786  0864               	movf	?_eval_poly+3,w
  2879  1787  1683               	bsf	3,5	;RP0=1, select bank1
  2880  1788  1303               	bcf	3,6	;RP1=0, select bank1
  2881  1789  00A7               	movwf	(log@x+3)^(0+128)
  2882  178A  1283               	bcf	3,5	;RP0=0, select bank0
  2883  178B  1303               	bcf	3,6	;RP1=0, select bank0
  2884  178C  0863               	movf	?_eval_poly+2,w
  2885  178D  1683               	bsf	3,5	;RP0=1, select bank1
  2886  178E  1303               	bcf	3,6	;RP1=0, select bank1
  2887  178F  00A6               	movwf	(log@x+2)^(0+128)
  2888  1790  1283               	bcf	3,5	;RP0=0, select bank0
  2889  1791  1303               	bcf	3,6	;RP1=0, select bank0
  2890  1792  0862               	movf	?_eval_poly+1,w
  2891  1793  1683               	bsf	3,5	;RP0=1, select bank1
  2892  1794  1303               	bcf	3,6	;RP1=0, select bank1
  2893  1795  00A5               	movwf	(log@x+1)^(0+128)
  2894  1796  1283               	bcf	3,5	;RP0=0, select bank0
  2895  1797  1303               	bcf	3,6	;RP1=0, select bank0
  2896  1798  0861               	movf	?_eval_poly,w
  2897  1799  1683               	bsf	3,5	;RP0=1, select bank1
  2898  179A  1303               	bcf	3,6	;RP1=0, select bank1
  2899  179B  00A4               	movwf	log@x^(0+128)
  2900  179C                     l3631:
  2901  179C  0827               	movf	(log@x+3)^(0+128),w
  2902  179D  1283               	bcf	3,5	;RP0=0, select bank0
  2903  179E  1303               	bcf	3,6	;RP1=0, select bank0
  2904  179F  00D0               	movwf	___fladd@b+3
  2905  17A0  1683               	bsf	3,5	;RP0=1, select bank1
  2906  17A1  1303               	bcf	3,6	;RP1=0, select bank1
  2907  17A2  0826               	movf	(log@x+2)^(0+128),w
  2908  17A3  1283               	bcf	3,5	;RP0=0, select bank0
  2909  17A4  1303               	bcf	3,6	;RP1=0, select bank0
  2910  17A5  00CF               	movwf	___fladd@b+2
  2911  17A6  1683               	bsf	3,5	;RP0=1, select bank1
  2912  17A7  1303               	bcf	3,6	;RP1=0, select bank1
  2913  17A8  0825               	movf	(log@x+1)^(0+128),w
  2914  17A9  1283               	bcf	3,5	;RP0=0, select bank0
  2915  17AA  1303               	bcf	3,6	;RP1=0, select bank0
  2916  17AB  00CE               	movwf	___fladd@b+1
  2917  17AC  1683               	bsf	3,5	;RP0=1, select bank1
  2918  17AD  1303               	bcf	3,6	;RP1=0, select bank1
  2919  17AE  0824               	movf	log@x^(0+128),w
  2920  17AF  1283               	bcf	3,5	;RP0=0, select bank0
  2921  17B0  1303               	bcf	3,6	;RP1=0, select bank0
  2922  17B1  00CD               	movwf	___fladd@b
  2923  17B2  303F               	movlw	63
  2924  17B3  00B6               	movwf	___flmul@b+3
  2925  17B4  3031               	movlw	49
  2926  17B5  00B5               	movwf	___flmul@b+2
  2927  17B6  3072               	movlw	114
  2928  17B7  00B4               	movwf	___flmul@b+1
  2929  17B8  3018               	movlw	24
  2930  17B9  00B3               	movwf	___flmul@b
  2931  17BA  086E               	movf	log@exponent,w
  2932  17BB  00F0               	movwf	___xxtofl@val
  2933  17BC  086F               	movf	log@exponent+1,w
  2934  17BD  00F1               	movwf	___xxtofl@val+1
  2935  17BE  3000               	movlw	0
  2936  17BF  1BF1               	btfsc	___xxtofl@val+1,7
  2937  17C0  30FF               	movlw	255
  2938  17C1  00F2               	movwf	___xxtofl@val+2
  2939  17C2  00F3               	movwf	___xxtofl@val+3
  2940  17C3  3001               	movlw	1
  2941  17C4  160A  118A  234E  160A  118A  	fcall	___xxtofl
  2942  17C9  0873               	movf	?___xxtofl+3,w
  2943  17CA  1283               	bcf	3,5	;RP0=0, select bank0
  2944  17CB  1303               	bcf	3,6	;RP1=0, select bank0
  2945  17CC  00BA               	movwf	___flmul@a+3
  2946  17CD  0872               	movf	?___xxtofl+2,w
  2947  17CE  00B9               	movwf	___flmul@a+2
  2948  17CF  0871               	movf	?___xxtofl+1,w
  2949  17D0  00B8               	movwf	___flmul@a+1
  2950  17D1  0870               	movf	?___xxtofl,w
  2951  17D2  00B7               	movwf	___flmul@a
  2952  17D3  120A  118A  2489  160A  118A  	fcall	___flmul
  2953  17D8  1283               	bcf	3,5	;RP0=0, select bank0
  2954  17D9  1303               	bcf	3,6	;RP1=0, select bank0
  2955  17DA  0836               	movf	?___flmul+3,w
  2956  17DB  00D4               	movwf	___fladd@a+3
  2957  17DC  0835               	movf	?___flmul+2,w
  2958  17DD  00D3               	movwf	___fladd@a+2
  2959  17DE  0834               	movf	?___flmul+1,w
  2960  17DF  00D2               	movwf	___fladd@a+1
  2961  17E0  0833               	movf	?___flmul,w
  2962  17E1  00D1               	movwf	___fladd@a
  2963  17E2  120A  158A  2578  160A  118A  	fcall	___fladd
  2964  17E7  1283               	bcf	3,5	;RP0=0, select bank0
  2965  17E8  1303               	bcf	3,6	;RP1=0, select bank0
  2966  17E9  0850               	movf	?___fladd+3,w
  2967  17EA  1683               	bsf	3,5	;RP0=1, select bank1
  2968  17EB  1303               	bcf	3,6	;RP1=0, select bank1
  2969  17EC  00A7               	movwf	(?_log+3)^(0+128)
  2970  17ED  1283               	bcf	3,5	;RP0=0, select bank0
  2971  17EE  1303               	bcf	3,6	;RP1=0, select bank0
  2972  17EF  084F               	movf	?___fladd+2,w
  2973  17F0  1683               	bsf	3,5	;RP0=1, select bank1
  2974  17F1  1303               	bcf	3,6	;RP1=0, select bank1
  2975  17F2  00A6               	movwf	(?_log+2)^(0+128)
  2976  17F3  1283               	bcf	3,5	;RP0=0, select bank0
  2977  17F4  1303               	bcf	3,6	;RP1=0, select bank0
  2978  17F5  084E               	movf	?___fladd+1,w
  2979  17F6  1683               	bsf	3,5	;RP0=1, select bank1
  2980  17F7  1303               	bcf	3,6	;RP1=0, select bank1
  2981  17F8  00A5               	movwf	(?_log+1)^(0+128)
  2982  17F9  1283               	bcf	3,5	;RP0=0, select bank0
  2983  17FA  1303               	bcf	3,6	;RP1=0, select bank0
  2984  17FB  084D               	movf	?___fladd,w
  2985  17FC  1683               	bsf	3,5	;RP0=1, select bank1
  2986  17FD  1303               	bcf	3,6	;RP1=0, select bank1
  2987  17FE  00A4               	movwf	?_log^(0+128)
  2988  17FF                     l695:
  2989  17FF  0008               	return
  2990  1800                     __end_of_log:
  2991                           
  2992                           	psect	text4
  2993  0B1B                     __ptext4:	
  2994 ;; *************** function _exp *****************
  2995 ;; Defined at:
  2996 ;;		line 12 in file "C:\Program Files\Microchip\xc8\v2.36\pic\sources\c90\common\exp.c"
  2997 ;; Parameters:    Size  Location     Type
  2998 ;;  x               4   10[BANK1 ] int 
  2999 ;; Auto vars:     Size  Location     Type
  3000 ;;  exponent        2   19[BANK1 ] int 
  3001 ;;  sign            1   21[BANK1 ] unsigned char 
  3002 ;; Return value:  Size  Location     Type
  3003 ;;                  4   10[BANK1 ] unsigned char 
  3004 ;; Registers used:
  3005 ;;		wreg, fsr0l, fsr0h, status,2, status,0, btemp+1, pclath, cstack
  3006 ;; Tracked objects:
  3007 ;;		On entry : 0/0
  3008 ;;		On exit  : 0/0
  3009 ;;		Unchanged: 0/0
  3010 ;; Data sizes:     COMMON   BANK0   BANK1   BANK3   BANK2
  3011 ;;      Params:         0       0       4       0       0
  3012 ;;      Locals:         0       0       7       0       0
  3013 ;;      Temps:          0       0       1       0       0
  3014 ;;      Totals:         0       0      12       0       0
  3015 ;;Total ram usage:       12 bytes
  3016 ;; Hardware stack levels used: 1
  3017 ;; Hardware stack levels required when called: 3
  3018 ;; This function calls:
  3019 ;;		___fldiv
  3020 ;;		___fleq
  3021 ;;		___flge
  3022 ;;		___flmul
  3023 ;;		___flneg
  3024 ;;		___flsub
  3025 ;;		___fltol
  3026 ;;		___xxtofl
  3027 ;;		_eval_poly
  3028 ;;		_floor
  3029 ;;		_ldexp
  3030 ;; This function is called by:
  3031 ;;		_pow
  3032 ;; This function uses a non-reentrant model
  3033 ;;
  3034                           
  3035  0B1B                     _exp:	
  3036                           ;psect for function _exp
  3037                           
  3038  0B1B                     l3635:	
  3039                           ;incstack = 0
  3040                           ; Regs used in _exp: [wreg-fsr0h+status,2+status,0+btemp+1+pclath+cstack]
  3041                           
  3042  0B1B  1683               	bsf	3,5	;RP0=1, select bank1
  3043  0B1C  1303               	bcf	3,6	;RP1=0, select bank1
  3044  0B1D  082D               	movf	(exp@x+3)^(0+128),w
  3045  0B1E  1283               	bcf	3,5	;RP0=0, select bank0
  3046  0B1F  1303               	bcf	3,6	;RP1=0, select bank0
  3047  0B20  00A3               	movwf	___fleq@ff1+3
  3048  0B21  1683               	bsf	3,5	;RP0=1, select bank1
  3049  0B22  1303               	bcf	3,6	;RP1=0, select bank1
  3050  0B23  082C               	movf	(exp@x+2)^(0+128),w
  3051  0B24  1283               	bcf	3,5	;RP0=0, select bank0
  3052  0B25  1303               	bcf	3,6	;RP1=0, select bank0
  3053  0B26  00A2               	movwf	___fleq@ff1+2
  3054  0B27  1683               	bsf	3,5	;RP0=1, select bank1
  3055  0B28  1303               	bcf	3,6	;RP1=0, select bank1
  3056  0B29  082B               	movf	(exp@x+1)^(0+128),w
  3057  0B2A  1283               	bcf	3,5	;RP0=0, select bank0
  3058  0B2B  1303               	bcf	3,6	;RP1=0, select bank0
  3059  0B2C  00A1               	movwf	___fleq@ff1+1
  3060  0B2D  1683               	bsf	3,5	;RP0=1, select bank1
  3061  0B2E  1303               	bcf	3,6	;RP1=0, select bank1
  3062  0B2F  082A               	movf	exp@x^(0+128),w
  3063  0B30  1283               	bcf	3,5	;RP0=0, select bank0
  3064  0B31  1303               	bcf	3,6	;RP1=0, select bank0
  3065  0B32  00A0               	movwf	___fleq@ff1
  3066  0B33  3000               	movlw	0
  3067  0B34  00A7               	movwf	___fleq@ff2+3
  3068  0B35  3000               	movlw	0
  3069  0B36  00A6               	movwf	___fleq@ff2+2
  3070  0B37  3000               	movlw	0
  3071  0B38  00A5               	movwf	___fleq@ff2+1
  3072  0B39  3000               	movlw	0
  3073  0B3A  00A4               	movwf	___fleq@ff2
  3074  0B3B  160A  118A  202F  120A  158A  	fcall	___fleq
  3075  0B40  1C03               	btfss	3,0
  3076  0B41  2B43               	goto	u5951
  3077  0B42  2B44               	goto	u5950
  3078  0B43                     u5951:
  3079  0B43  2B4F               	goto	l3641
  3080  0B44                     u5950:
  3081  0B44                     l3637:
  3082  0B44  303F               	movlw	63
  3083  0B45  1683               	bsf	3,5	;RP0=1, select bank1
  3084  0B46  1303               	bcf	3,6	;RP1=0, select bank1
  3085  0B47  00AD               	movwf	(?_exp+3)^(0+128)
  3086  0B48  3080               	movlw	128
  3087  0B49  00AC               	movwf	(?_exp+2)^(0+128)
  3088  0B4A  3000               	movlw	0
  3089  0B4B  00AB               	movwf	(?_exp+1)^(0+128)
  3090  0B4C  3000               	movlw	0
  3091  0B4D  00AA               	movwf	?_exp^(0+128)
  3092  0B4E  2D77               	goto	l647
  3093  0B4F                     l3641:
  3094  0B4F  3044               	movlw	68
  3095  0B50  00F3               	movwf	___flge@ff1+3
  3096  0B51  3031               	movlw	49
  3097  0B52  00F2               	movwf	___flge@ff1+2
  3098  0B53  3072               	movlw	114
  3099  0B54  00F1               	movwf	___flge@ff1+1
  3100  0B55  3018               	movlw	24
  3101  0B56  00F0               	movwf	___flge@ff1
  3102  0B57  1683               	bsf	3,5	;RP0=1, select bank1
  3103  0B58  1303               	bcf	3,6	;RP1=0, select bank1
  3104  0B59  082D               	movf	(exp@x+3)^(0+128),w
  3105  0B5A  00F7               	movwf	___flge@ff2+3
  3106  0B5B  082C               	movf	(exp@x+2)^(0+128),w
  3107  0B5C  00F6               	movwf	___flge@ff2+2
  3108  0B5D  082B               	movf	(exp@x+1)^(0+128),w
  3109  0B5E  00F5               	movwf	___flge@ff2+1
  3110  0B5F  082A               	movf	exp@x^(0+128),w
  3111  0B60  00F4               	movwf	___flge@ff2
  3112  0B61  160A  118A  22AC  120A  158A  	fcall	___flge
  3113  0B66  1803               	btfsc	3,0
  3114  0B67  2B69               	goto	u5961
  3115  0B68  2B6A               	goto	u5960
  3116  0B69                     u5961:
  3117  0B69  2B7B               	goto	l3647
  3118  0B6A                     u5960:
  3119  0B6A                     l3643:
  3120  0B6A  3022               	movlw	34
  3121  0B6B  1683               	bsf	3,5	;RP0=1, select bank3
  3122  0B6C  1703               	bsf	3,6	;RP1=1, select bank3
  3123  0B6D  009A               	movwf	_errno^(0+384)
  3124  0B6E  3000               	movlw	0
  3125  0B6F  009B               	movwf	(_errno^(0+384)+1)
  3126  0B70  307F               	movlw	127
  3127  0B71  1683               	bsf	3,5	;RP0=1, select bank1
  3128  0B72  1303               	bcf	3,6	;RP1=0, select bank1
  3129  0B73  00AD               	movwf	(?_exp+3)^(0+128)
  3130  0B74  307F               	movlw	127
  3131  0B75  00AC               	movwf	(?_exp+2)^(0+128)
  3132  0B76  30FF               	movlw	255
  3133  0B77  00AB               	movwf	(?_exp+1)^(0+128)
  3134  0B78  30FF               	movlw	255
  3135  0B79  00AA               	movwf	?_exp^(0+128)
  3136  0B7A  2D77               	goto	l647
  3137  0B7B                     l3647:
  3138  0B7B  1683               	bsf	3,5	;RP0=1, select bank1
  3139  0B7C  1303               	bcf	3,6	;RP1=0, select bank1
  3140  0B7D  082D               	movf	(exp@x+3)^(0+128),w
  3141  0B7E  00F3               	movwf	___flge@ff1+3
  3142  0B7F  082C               	movf	(exp@x+2)^(0+128),w
  3143  0B80  00F2               	movwf	___flge@ff1+2
  3144  0B81  082B               	movf	(exp@x+1)^(0+128),w
  3145  0B82  00F1               	movwf	___flge@ff1+1
  3146  0B83  082A               	movf	exp@x^(0+128),w
  3147  0B84  00F0               	movwf	___flge@ff1
  3148  0B85  30C4               	movlw	196
  3149  0B86  00F7               	movwf	___flge@ff2+3
  3150  0B87  303A               	movlw	58
  3151  0B88  00F6               	movwf	___flge@ff2+2
  3152  0B89  3048               	movlw	72
  3153  0B8A  00F5               	movwf	___flge@ff2+1
  3154  0B8B  3087               	movlw	135
  3155  0B8C  00F4               	movwf	___flge@ff2
  3156  0B8D  160A  118A  22AC  120A  158A  	fcall	___flge
  3157  0B92  1803               	btfsc	3,0
  3158  0B93  2B95               	goto	u5971
  3159  0B94  2B96               	goto	u5970
  3160  0B95                     u5971:
  3161  0B95  2BA7               	goto	l3653
  3162  0B96                     u5970:
  3163  0B96                     l3649:
  3164  0B96  3022               	movlw	34
  3165  0B97  1683               	bsf	3,5	;RP0=1, select bank3
  3166  0B98  1703               	bsf	3,6	;RP1=1, select bank3
  3167  0B99  009A               	movwf	_errno^(0+384)
  3168  0B9A  3000               	movlw	0
  3169  0B9B  009B               	movwf	(_errno^(0+384)+1)
  3170  0B9C  3000               	movlw	0
  3171  0B9D  1683               	bsf	3,5	;RP0=1, select bank1
  3172  0B9E  1303               	bcf	3,6	;RP1=0, select bank1
  3173  0B9F  00AD               	movwf	(?_exp+3)^(0+128)
  3174  0BA0  3000               	movlw	0
  3175  0BA1  00AC               	movwf	(?_exp+2)^(0+128)
  3176  0BA2  3000               	movlw	0
  3177  0BA3  00AB               	movwf	(?_exp+1)^(0+128)
  3178  0BA4  3000               	movlw	0
  3179  0BA5  00AA               	movwf	?_exp^(0+128)
  3180  0BA6  2D77               	goto	l647
  3181  0BA7                     l3653:
  3182  0BA7  1683               	bsf	3,5	;RP0=1, select bank1
  3183  0BA8  1303               	bcf	3,6	;RP1=0, select bank1
  3184  0BA9  082D               	movf	(exp@x+3)^(0+128),w
  3185  0BAA  00F3               	movwf	___flge@ff1+3
  3186  0BAB  082C               	movf	(exp@x+2)^(0+128),w
  3187  0BAC  00F2               	movwf	___flge@ff1+2
  3188  0BAD  082B               	movf	(exp@x+1)^(0+128),w
  3189  0BAE  00F1               	movwf	___flge@ff1+1
  3190  0BAF  082A               	movf	exp@x^(0+128),w
  3191  0BB0  00F0               	movwf	___flge@ff1
  3192  0BB1  3000               	movlw	0
  3193  0BB2  00F7               	movwf	___flge@ff2+3
  3194  0BB3  3000               	movlw	0
  3195  0BB4  00F6               	movwf	___flge@ff2+2
  3196  0BB5  3000               	movlw	0
  3197  0BB6  00F5               	movwf	___flge@ff2+1
  3198  0BB7  3000               	movlw	0
  3199  0BB8  00F4               	movwf	___flge@ff2
  3200  0BB9  160A  118A  22AC  120A  158A  	fcall	___flge
  3201  0BBE  1C03               	btfss	3,0
  3202  0BBF  2BC1               	goto	u5981
  3203  0BC0  2BC3               	goto	u5980
  3204  0BC1                     u5981:
  3205  0BC1  3001               	movlw	1
  3206  0BC2  2BC4               	goto	u5990
  3207  0BC3                     u5980:
  3208  0BC3  3000               	movlw	0
  3209  0BC4                     u5990:
  3210  0BC4  1683               	bsf	3,5	;RP0=1, select bank1
  3211  0BC5  1303               	bcf	3,6	;RP1=0, select bank1
  3212  0BC6  00AE               	movwf	??_exp^(0+128)
  3213  0BC7  082E               	movf	??_exp^(0+128),w
  3214  0BC8  00B5               	movwf	exp@sign^(0+128)
  3215  0BC9                     l3655:
  3216  0BC9  0835               	movf	exp@sign^(0+128),w
  3217  0BCA  1903               	btfsc	3,2
  3218  0BCB  2BCD               	goto	u6001
  3219  0BCC  2BCE               	goto	u6000
  3220  0BCD                     u6001:
  3221  0BCD  2BE5               	goto	l3659
  3222  0BCE                     u6000:
  3223  0BCE                     l3657:
  3224  0BCE  082D               	movf	(exp@x+3)^(0+128),w
  3225  0BCF  00F3               	movwf	___flneg@f1+3
  3226  0BD0  082C               	movf	(exp@x+2)^(0+128),w
  3227  0BD1  00F2               	movwf	___flneg@f1+2
  3228  0BD2  082B               	movf	(exp@x+1)^(0+128),w
  3229  0BD3  00F1               	movwf	___flneg@f1+1
  3230  0BD4  082A               	movf	exp@x^(0+128),w
  3231  0BD5  00F0               	movwf	___flneg@f1
  3232  0BD6  160A  158A  27AC  120A  158A  	fcall	___flneg
  3233  0BDB  0873               	movf	?___flneg+3,w
  3234  0BDC  1683               	bsf	3,5	;RP0=1, select bank1
  3235  0BDD  1303               	bcf	3,6	;RP1=0, select bank1
  3236  0BDE  00AD               	movwf	(exp@x+3)^(0+128)
  3237  0BDF  0872               	movf	?___flneg+2,w
  3238  0BE0  00AC               	movwf	(exp@x+2)^(0+128)
  3239  0BE1  0871               	movf	?___flneg+1,w
  3240  0BE2  00AB               	movwf	(exp@x+1)^(0+128)
  3241  0BE3  0870               	movf	?___flneg,w
  3242  0BE4  00AA               	movwf	exp@x^(0+128)
  3243  0BE5                     l3659:
  3244  0BE5  303F               	movlw	63
  3245  0BE6  1283               	bcf	3,5	;RP0=0, select bank0
  3246  0BE7  1303               	bcf	3,6	;RP1=0, select bank0
  3247  0BE8  00B6               	movwf	___flmul@b+3
  3248  0BE9  30B8               	movlw	184
  3249  0BEA  00B5               	movwf	___flmul@b+2
  3250  0BEB  30AA               	movlw	170
  3251  0BEC  00B4               	movwf	___flmul@b+1
  3252  0BED  303B               	movlw	59
  3253  0BEE  00B3               	movwf	___flmul@b
  3254  0BEF  1683               	bsf	3,5	;RP0=1, select bank1
  3255  0BF0  1303               	bcf	3,6	;RP1=0, select bank1
  3256  0BF1  082D               	movf	(exp@x+3)^(0+128),w
  3257  0BF2  1283               	bcf	3,5	;RP0=0, select bank0
  3258  0BF3  1303               	bcf	3,6	;RP1=0, select bank0
  3259  0BF4  00BA               	movwf	___flmul@a+3
  3260  0BF5  1683               	bsf	3,5	;RP0=1, select bank1
  3261  0BF6  1303               	bcf	3,6	;RP1=0, select bank1
  3262  0BF7  082C               	movf	(exp@x+2)^(0+128),w
  3263  0BF8  1283               	bcf	3,5	;RP0=0, select bank0
  3264  0BF9  1303               	bcf	3,6	;RP1=0, select bank0
  3265  0BFA  00B9               	movwf	___flmul@a+2
  3266  0BFB  1683               	bsf	3,5	;RP0=1, select bank1
  3267  0BFC  1303               	bcf	3,6	;RP1=0, select bank1
  3268  0BFD  082B               	movf	(exp@x+1)^(0+128),w
  3269  0BFE  1283               	bcf	3,5	;RP0=0, select bank0
  3270  0BFF  1303               	bcf	3,6	;RP1=0, select bank0
  3271  0C00  00B8               	movwf	___flmul@a+1
  3272  0C01  1683               	bsf	3,5	;RP0=1, select bank1
  3273  0C02  1303               	bcf	3,6	;RP1=0, select bank1
  3274  0C03  082A               	movf	exp@x^(0+128),w
  3275  0C04  1283               	bcf	3,5	;RP0=0, select bank0
  3276  0C05  1303               	bcf	3,6	;RP1=0, select bank0
  3277  0C06  00B7               	movwf	___flmul@a
  3278  0C07  120A  118A  2489  120A  158A  	fcall	___flmul
  3279  0C0C  1283               	bcf	3,5	;RP0=0, select bank0
  3280  0C0D  1303               	bcf	3,6	;RP1=0, select bank0
  3281  0C0E  0836               	movf	?___flmul+3,w
  3282  0C0F  1683               	bsf	3,5	;RP0=1, select bank1
  3283  0C10  1303               	bcf	3,6	;RP1=0, select bank1
  3284  0C11  00AD               	movwf	(exp@x+3)^(0+128)
  3285  0C12  1283               	bcf	3,5	;RP0=0, select bank0
  3286  0C13  1303               	bcf	3,6	;RP1=0, select bank0
  3287  0C14  0835               	movf	?___flmul+2,w
  3288  0C15  1683               	bsf	3,5	;RP0=1, select bank1
  3289  0C16  1303               	bcf	3,6	;RP1=0, select bank1
  3290  0C17  00AC               	movwf	(exp@x+2)^(0+128)
  3291  0C18  1283               	bcf	3,5	;RP0=0, select bank0
  3292  0C19  1303               	bcf	3,6	;RP1=0, select bank0
  3293  0C1A  0834               	movf	?___flmul+1,w
  3294  0C1B  1683               	bsf	3,5	;RP0=1, select bank1
  3295  0C1C  1303               	bcf	3,6	;RP1=0, select bank1
  3296  0C1D  00AB               	movwf	(exp@x+1)^(0+128)
  3297  0C1E  1283               	bcf	3,5	;RP0=0, select bank0
  3298  0C1F  1303               	bcf	3,6	;RP1=0, select bank0
  3299  0C20  0833               	movf	?___flmul,w
  3300  0C21  1683               	bsf	3,5	;RP0=1, select bank1
  3301  0C22  1303               	bcf	3,6	;RP1=0, select bank1
  3302  0C23  00AA               	movwf	exp@x^(0+128)
  3303  0C24                     l3661:
  3304  0C24  082D               	movf	(exp@x+3)^(0+128),w
  3305  0C25  1283               	bcf	3,5	;RP0=0, select bank0
  3306  0C26  1303               	bcf	3,6	;RP1=0, select bank0
  3307  0C27  00EF               	movwf	floor@x+3
  3308  0C28  1683               	bsf	3,5	;RP0=1, select bank1
  3309  0C29  1303               	bcf	3,6	;RP1=0, select bank1
  3310  0C2A  082C               	movf	(exp@x+2)^(0+128),w
  3311  0C2B  1283               	bcf	3,5	;RP0=0, select bank0
  3312  0C2C  1303               	bcf	3,6	;RP1=0, select bank0
  3313  0C2D  00EE               	movwf	floor@x+2
  3314  0C2E  1683               	bsf	3,5	;RP0=1, select bank1
  3315  0C2F  1303               	bcf	3,6	;RP1=0, select bank1
  3316  0C30  082B               	movf	(exp@x+1)^(0+128),w
  3317  0C31  1283               	bcf	3,5	;RP0=0, select bank0
  3318  0C32  1303               	bcf	3,6	;RP1=0, select bank0
  3319  0C33  00ED               	movwf	floor@x+1
  3320  0C34  1683               	bsf	3,5	;RP0=1, select bank1
  3321  0C35  1303               	bcf	3,6	;RP1=0, select bank1
  3322  0C36  082A               	movf	exp@x^(0+128),w
  3323  0C37  1283               	bcf	3,5	;RP0=0, select bank0
  3324  0C38  1303               	bcf	3,6	;RP1=0, select bank0
  3325  0C39  00EC               	movwf	floor@x
  3326  0C3A  120A  158A  2057  120A  158A  	fcall	_floor
  3327  0C3F  1283               	bcf	3,5	;RP0=0, select bank0
  3328  0C40  1303               	bcf	3,6	;RP1=0, select bank0
  3329  0C41  086F               	movf	?_floor+3,w
  3330  0C42  1683               	bsf	3,5	;RP0=1, select bank1
  3331  0C43  1303               	bcf	3,6	;RP1=0, select bank1
  3332  0C44  00B2               	movwf	(_exp$882+3)^(0+128)
  3333  0C45  1283               	bcf	3,5	;RP0=0, select bank0
  3334  0C46  1303               	bcf	3,6	;RP1=0, select bank0
  3335  0C47  086E               	movf	?_floor+2,w
  3336  0C48  1683               	bsf	3,5	;RP0=1, select bank1
  3337  0C49  1303               	bcf	3,6	;RP1=0, select bank1
  3338  0C4A  00B1               	movwf	(_exp$882+2)^(0+128)
  3339  0C4B  1283               	bcf	3,5	;RP0=0, select bank0
  3340  0C4C  1303               	bcf	3,6	;RP1=0, select bank0
  3341  0C4D  086D               	movf	?_floor+1,w
  3342  0C4E  1683               	bsf	3,5	;RP0=1, select bank1
  3343  0C4F  1303               	bcf	3,6	;RP1=0, select bank1
  3344  0C50  00B0               	movwf	(_exp$882+1)^(0+128)
  3345  0C51  1283               	bcf	3,5	;RP0=0, select bank0
  3346  0C52  1303               	bcf	3,6	;RP1=0, select bank0
  3347  0C53  086C               	movf	?_floor,w
  3348  0C54  1683               	bsf	3,5	;RP0=1, select bank1
  3349  0C55  1303               	bcf	3,6	;RP1=0, select bank1
  3350  0C56  00AF               	movwf	_exp$882^(0+128)
  3351  0C57                     l3663:
  3352  0C57  0832               	movf	(_exp$882+3)^(0+128),w
  3353  0C58  1283               	bcf	3,5	;RP0=0, select bank0
  3354  0C59  1303               	bcf	3,6	;RP1=0, select bank0
  3355  0C5A  00E4               	movwf	___fltol@f1+3
  3356  0C5B  1683               	bsf	3,5	;RP0=1, select bank1
  3357  0C5C  1303               	bcf	3,6	;RP1=0, select bank1
  3358  0C5D  0831               	movf	(_exp$882+2)^(0+128),w
  3359  0C5E  1283               	bcf	3,5	;RP0=0, select bank0
  3360  0C5F  1303               	bcf	3,6	;RP1=0, select bank0
  3361  0C60  00E3               	movwf	___fltol@f1+2
  3362  0C61  1683               	bsf	3,5	;RP0=1, select bank1
  3363  0C62  1303               	bcf	3,6	;RP1=0, select bank1
  3364  0C63  0830               	movf	(_exp$882+1)^(0+128),w
  3365  0C64  1283               	bcf	3,5	;RP0=0, select bank0
  3366  0C65  1303               	bcf	3,6	;RP1=0, select bank0
  3367  0C66  00E2               	movwf	___fltol@f1+1
  3368  0C67  1683               	bsf	3,5	;RP0=1, select bank1
  3369  0C68  1303               	bcf	3,6	;RP1=0, select bank1
  3370  0C69  082F               	movf	_exp$882^(0+128),w
  3371  0C6A  1283               	bcf	3,5	;RP0=0, select bank0
  3372  0C6B  1303               	bcf	3,6	;RP1=0, select bank0
  3373  0C6C  00E1               	movwf	___fltol@f1
  3374  0C6D  160A  118A  219B  120A  158A  	fcall	___fltol
  3375  0C72  1283               	bcf	3,5	;RP0=0, select bank0
  3376  0C73  1303               	bcf	3,6	;RP1=0, select bank0
  3377  0C74  0862               	movf	?___fltol+1,w
  3378  0C75  1683               	bsf	3,5	;RP0=1, select bank1
  3379  0C76  1303               	bcf	3,6	;RP1=0, select bank1
  3380  0C77  00B4               	movwf	(exp@exponent+1)^(0+128)
  3381  0C78  1283               	bcf	3,5	;RP0=0, select bank0
  3382  0C79  1303               	bcf	3,6	;RP1=0, select bank0
  3383  0C7A  0861               	movf	?___fltol,w
  3384  0C7B  1683               	bsf	3,5	;RP0=1, select bank1
  3385  0C7C  1303               	bcf	3,6	;RP1=0, select bank1
  3386  0C7D  00B3               	movwf	exp@exponent^(0+128)
  3387  0C7E                     l3665:
  3388  0C7E  0833               	movf	exp@exponent^(0+128),w
  3389  0C7F  00F0               	movwf	___xxtofl@val
  3390  0C80  0834               	movf	(exp@exponent+1)^(0+128),w
  3391  0C81  00F1               	movwf	___xxtofl@val+1
  3392  0C82  3000               	movlw	0
  3393  0C83  1BF1               	btfsc	___xxtofl@val+1,7
  3394  0C84  30FF               	movlw	255
  3395  0C85  00F2               	movwf	___xxtofl@val+2
  3396  0C86  00F3               	movwf	___xxtofl@val+3
  3397  0C87  3001               	movlw	1
  3398  0C88  160A  118A  234E  120A  158A  	fcall	___xxtofl
  3399  0C8D  0873               	movf	?___xxtofl+3,w
  3400  0C8E  1283               	bcf	3,5	;RP0=0, select bank0
  3401  0C8F  1303               	bcf	3,6	;RP1=0, select bank0
  3402  0C90  00E4               	movwf	___flsub@a+3
  3403  0C91  0872               	movf	?___xxtofl+2,w
  3404  0C92  00E3               	movwf	___flsub@a+2
  3405  0C93  0871               	movf	?___xxtofl+1,w
  3406  0C94  00E2               	movwf	___flsub@a+1
  3407  0C95  0870               	movf	?___xxtofl,w
  3408  0C96  00E1               	movwf	___flsub@a
  3409  0C97  1683               	bsf	3,5	;RP0=1, select bank1
  3410  0C98  1303               	bcf	3,6	;RP1=0, select bank1
  3411  0C99  082D               	movf	(exp@x+3)^(0+128),w
  3412  0C9A  1283               	bcf	3,5	;RP0=0, select bank0
  3413  0C9B  1303               	bcf	3,6	;RP1=0, select bank0
  3414  0C9C  00E8               	movwf	___flsub@b+3
  3415  0C9D  1683               	bsf	3,5	;RP0=1, select bank1
  3416  0C9E  1303               	bcf	3,6	;RP1=0, select bank1
  3417  0C9F  082C               	movf	(exp@x+2)^(0+128),w
  3418  0CA0  1283               	bcf	3,5	;RP0=0, select bank0
  3419  0CA1  1303               	bcf	3,6	;RP1=0, select bank0
  3420  0CA2  00E7               	movwf	___flsub@b+2
  3421  0CA3  1683               	bsf	3,5	;RP0=1, select bank1
  3422  0CA4  1303               	bcf	3,6	;RP1=0, select bank1
  3423  0CA5  082B               	movf	(exp@x+1)^(0+128),w
  3424  0CA6  1283               	bcf	3,5	;RP0=0, select bank0
  3425  0CA7  1303               	bcf	3,6	;RP1=0, select bank0
  3426  0CA8  00E6               	movwf	___flsub@b+1
  3427  0CA9  1683               	bsf	3,5	;RP0=1, select bank1
  3428  0CAA  1303               	bcf	3,6	;RP1=0, select bank1
  3429  0CAB  082A               	movf	exp@x^(0+128),w
  3430  0CAC  1283               	bcf	3,5	;RP0=0, select bank0
  3431  0CAD  1303               	bcf	3,6	;RP1=0, select bank0
  3432  0CAE  00E5               	movwf	___flsub@b
  3433  0CAF  160A  158A  27B7  120A  158A  	fcall	___flsub
  3434  0CB4  1283               	bcf	3,5	;RP0=0, select bank0
  3435  0CB5  1303               	bcf	3,6	;RP1=0, select bank0
  3436  0CB6  0864               	movf	?___flsub+3,w
  3437  0CB7  1683               	bsf	3,5	;RP0=1, select bank1
  3438  0CB8  1303               	bcf	3,6	;RP1=0, select bank1
  3439  0CB9  00AD               	movwf	(exp@x+3)^(0+128)
  3440  0CBA  1283               	bcf	3,5	;RP0=0, select bank0
  3441  0CBB  1303               	bcf	3,6	;RP1=0, select bank0
  3442  0CBC  0863               	movf	?___flsub+2,w
  3443  0CBD  1683               	bsf	3,5	;RP0=1, select bank1
  3444  0CBE  1303               	bcf	3,6	;RP1=0, select bank1
  3445  0CBF  00AC               	movwf	(exp@x+2)^(0+128)
  3446  0CC0  1283               	bcf	3,5	;RP0=0, select bank0
  3447  0CC1  1303               	bcf	3,6	;RP1=0, select bank0
  3448  0CC2  0862               	movf	?___flsub+1,w
  3449  0CC3  1683               	bsf	3,5	;RP0=1, select bank1
  3450  0CC4  1303               	bcf	3,6	;RP1=0, select bank1
  3451  0CC5  00AB               	movwf	(exp@x+1)^(0+128)
  3452  0CC6  1283               	bcf	3,5	;RP0=0, select bank0
  3453  0CC7  1303               	bcf	3,6	;RP1=0, select bank0
  3454  0CC8  0861               	movf	?___flsub,w
  3455  0CC9  1683               	bsf	3,5	;RP0=1, select bank1
  3456  0CCA  1303               	bcf	3,6	;RP1=0, select bank1
  3457  0CCB  00AA               	movwf	exp@x^(0+128)
  3458  0CCC                     l3667:
  3459  0CCC  082D               	movf	(exp@x+3)^(0+128),w
  3460  0CCD  1283               	bcf	3,5	;RP0=0, select bank0
  3461  0CCE  1303               	bcf	3,6	;RP1=0, select bank0
  3462  0CCF  00E4               	movwf	eval_poly@x+3
  3463  0CD0  1683               	bsf	3,5	;RP0=1, select bank1
  3464  0CD1  1303               	bcf	3,6	;RP1=0, select bank1
  3465  0CD2  082C               	movf	(exp@x+2)^(0+128),w
  3466  0CD3  1283               	bcf	3,5	;RP0=0, select bank0
  3467  0CD4  1303               	bcf	3,6	;RP1=0, select bank0
  3468  0CD5  00E3               	movwf	eval_poly@x+2
  3469  0CD6  1683               	bsf	3,5	;RP0=1, select bank1
  3470  0CD7  1303               	bcf	3,6	;RP1=0, select bank1
  3471  0CD8  082B               	movf	(exp@x+1)^(0+128),w
  3472  0CD9  1283               	bcf	3,5	;RP0=0, select bank0
  3473  0CDA  1303               	bcf	3,6	;RP1=0, select bank0
  3474  0CDB  00E2               	movwf	eval_poly@x+1
  3475  0CDC  1683               	bsf	3,5	;RP0=1, select bank1
  3476  0CDD  1303               	bcf	3,6	;RP1=0, select bank1
  3477  0CDE  082A               	movf	exp@x^(0+128),w
  3478  0CDF  1283               	bcf	3,5	;RP0=0, select bank0
  3479  0CE0  1303               	bcf	3,6	;RP1=0, select bank0
  3480  0CE1  00E1               	movwf	eval_poly@x
  3481  0CE2  3001               	movlw	(low ((exp@coeff-__stringbase)| (0+32768)))& (0+255)
  3482  0CE3  1683               	bsf	3,5	;RP0=1, select bank1
  3483  0CE4  1303               	bcf	3,6	;RP1=0, select bank1
  3484  0CE5  00AE               	movwf	??_exp^(0+128)
  3485  0CE6  082E               	movf	??_exp^(0+128),w
  3486  0CE7  1283               	bcf	3,5	;RP0=0, select bank0
  3487  0CE8  1303               	bcf	3,6	;RP1=0, select bank0
  3488  0CE9  00E5               	movwf	eval_poly@d
  3489  0CEA  3009               	movlw	9
  3490  0CEB  00E6               	movwf	eval_poly@n
  3491  0CEC  3000               	movlw	0
  3492  0CED  00E7               	movwf	eval_poly@n+1
  3493  0CEE  160A  118A  24C8  120A  158A  	fcall	_eval_poly
  3494  0CF3  1283               	bcf	3,5	;RP0=0, select bank0
  3495  0CF4  1303               	bcf	3,6	;RP1=0, select bank0
  3496  0CF5  0864               	movf	?_eval_poly+3,w
  3497  0CF6  1683               	bsf	3,5	;RP0=1, select bank1
  3498  0CF7  1303               	bcf	3,6	;RP1=0, select bank1
  3499  0CF8  00A7               	movwf	(ldexp@value+3)^(0+128)
  3500  0CF9  1283               	bcf	3,5	;RP0=0, select bank0
  3501  0CFA  1303               	bcf	3,6	;RP1=0, select bank0
  3502  0CFB  0863               	movf	?_eval_poly+2,w
  3503  0CFC  1683               	bsf	3,5	;RP0=1, select bank1
  3504  0CFD  1303               	bcf	3,6	;RP1=0, select bank1
  3505  0CFE  00A6               	movwf	(ldexp@value+2)^(0+128)
  3506  0CFF  1283               	bcf	3,5	;RP0=0, select bank0
  3507  0D00  1303               	bcf	3,6	;RP1=0, select bank0
  3508  0D01  0862               	movf	?_eval_poly+1,w
  3509  0D02  1683               	bsf	3,5	;RP0=1, select bank1
  3510  0D03  1303               	bcf	3,6	;RP1=0, select bank1
  3511  0D04  00A5               	movwf	(ldexp@value+1)^(0+128)
  3512  0D05  1283               	bcf	3,5	;RP0=0, select bank0
  3513  0D06  1303               	bcf	3,6	;RP1=0, select bank0
  3514  0D07  0861               	movf	?_eval_poly,w
  3515  0D08  1683               	bsf	3,5	;RP0=1, select bank1
  3516  0D09  1303               	bcf	3,6	;RP1=0, select bank1
  3517  0D0A  00A4               	movwf	ldexp@value^(0+128)
  3518  0D0B  0834               	movf	(exp@exponent+1)^(0+128),w
  3519  0D0C  00A9               	movwf	(ldexp@newexp+1)^(0+128)
  3520  0D0D  0833               	movf	exp@exponent^(0+128),w
  3521  0D0E  00A8               	movwf	ldexp@newexp^(0+128)
  3522  0D0F  160A  118A  25A4  120A  158A  	fcall	_ldexp
  3523  0D14  1683               	bsf	3,5	;RP0=1, select bank1
  3524  0D15  1303               	bcf	3,6	;RP1=0, select bank1
  3525  0D16  0827               	movf	(?_ldexp+3)^(0+128),w
  3526  0D17  00AD               	movwf	(exp@x+3)^(0+128)
  3527  0D18  0826               	movf	(?_ldexp+2)^(0+128),w
  3528  0D19  00AC               	movwf	(exp@x+2)^(0+128)
  3529  0D1A  0825               	movf	(?_ldexp+1)^(0+128),w
  3530  0D1B  00AB               	movwf	(exp@x+1)^(0+128)
  3531  0D1C  0824               	movf	?_ldexp^(0+128),w
  3532  0D1D  00AA               	movwf	exp@x^(0+128)
  3533  0D1E                     l3669:
  3534  0D1E  0835               	movf	exp@sign^(0+128),w
  3535  0D1F  1903               	btfsc	3,2
  3536  0D20  2D22               	goto	u6011
  3537  0D21  2D23               	goto	u6010
  3538  0D22                     u6011:
  3539  0D22  2D77               	goto	l651
  3540  0D23                     u6010:
  3541  0D23                     l3671:
  3542  0D23  082D               	movf	(exp@x+3)^(0+128),w
  3543  0D24  1283               	bcf	3,5	;RP0=0, select bank0
  3544  0D25  1303               	bcf	3,6	;RP1=0, select bank0
  3545  0D26  00A3               	movwf	___fleq@ff1+3
  3546  0D27  1683               	bsf	3,5	;RP0=1, select bank1
  3547  0D28  1303               	bcf	3,6	;RP1=0, select bank1
  3548  0D29  082C               	movf	(exp@x+2)^(0+128),w
  3549  0D2A  1283               	bcf	3,5	;RP0=0, select bank0
  3550  0D2B  1303               	bcf	3,6	;RP1=0, select bank0
  3551  0D2C  00A2               	movwf	___fleq@ff1+2
  3552  0D2D  1683               	bsf	3,5	;RP0=1, select bank1
  3553  0D2E  1303               	bcf	3,6	;RP1=0, select bank1
  3554  0D2F  082B               	movf	(exp@x+1)^(0+128),w
  3555  0D30  1283               	bcf	3,5	;RP0=0, select bank0
  3556  0D31  1303               	bcf	3,6	;RP1=0, select bank0
  3557  0D32  00A1               	movwf	___fleq@ff1+1
  3558  0D33  1683               	bsf	3,5	;RP0=1, select bank1
  3559  0D34  1303               	bcf	3,6	;RP1=0, select bank1
  3560  0D35  082A               	movf	exp@x^(0+128),w
  3561  0D36  1283               	bcf	3,5	;RP0=0, select bank0
  3562  0D37  1303               	bcf	3,6	;RP1=0, select bank0
  3563  0D38  00A0               	movwf	___fleq@ff1
  3564  0D39  307F               	movlw	127
  3565  0D3A  00A7               	movwf	___fleq@ff2+3
  3566  0D3B  307F               	movlw	127
  3567  0D3C  00A6               	movwf	___fleq@ff2+2
  3568  0D3D  30FF               	movlw	255
  3569  0D3E  00A5               	movwf	___fleq@ff2+1
  3570  0D3F  30FF               	movlw	255
  3571  0D40  00A4               	movwf	___fleq@ff2
  3572  0D41  160A  118A  202F  120A  158A  	fcall	___fleq
  3573  0D46  1C03               	btfss	3,0
  3574  0D47  2D49               	goto	u6021
  3575  0D48  2D4A               	goto	u6020
  3576  0D49                     u6021:
  3577  0D49  2D55               	goto	l3677
  3578  0D4A                     u6020:
  3579  0D4A                     l3673:
  3580  0D4A  3000               	movlw	0
  3581  0D4B  1683               	bsf	3,5	;RP0=1, select bank1
  3582  0D4C  1303               	bcf	3,6	;RP1=0, select bank1
  3583  0D4D  00AD               	movwf	(?_exp+3)^(0+128)
  3584  0D4E  3000               	movlw	0
  3585  0D4F  00AC               	movwf	(?_exp+2)^(0+128)
  3586  0D50  3000               	movlw	0
  3587  0D51  00AB               	movwf	(?_exp+1)^(0+128)
  3588  0D52  3000               	movlw	0
  3589  0D53  00AA               	movwf	?_exp^(0+128)
  3590  0D54  2D77               	goto	l647
  3591  0D55                     l3677:
  3592  0D55  1683               	bsf	3,5	;RP0=1, select bank1
  3593  0D56  1303               	bcf	3,6	;RP1=0, select bank1
  3594  0D57  082D               	movf	(exp@x+3)^(0+128),w
  3595  0D58  00F3               	movwf	___fldiv@a+3
  3596  0D59  082C               	movf	(exp@x+2)^(0+128),w
  3597  0D5A  00F2               	movwf	___fldiv@a+2
  3598  0D5B  082B               	movf	(exp@x+1)^(0+128),w
  3599  0D5C  00F1               	movwf	___fldiv@a+1
  3600  0D5D  082A               	movf	exp@x^(0+128),w
  3601  0D5E  00F0               	movwf	___fldiv@a
  3602  0D5F  303F               	movlw	63
  3603  0D60  00F7               	movwf	___fldiv@b+3
  3604  0D61  3080               	movlw	128
  3605  0D62  00F6               	movwf	___fldiv@b+2
  3606  0D63  3000               	movlw	0
  3607  0D64  00F5               	movwf	___fldiv@b+1
  3608  0D65  3000               	movlw	0
  3609  0D66  00F4               	movwf	___fldiv@b
  3610  0D67  120A  118A  201A  120A  158A  	fcall	___fldiv
  3611  0D6C  0873               	movf	?___fldiv+3,w
  3612  0D6D  1683               	bsf	3,5	;RP0=1, select bank1
  3613  0D6E  1303               	bcf	3,6	;RP1=0, select bank1
  3614  0D6F  00AD               	movwf	(?_exp+3)^(0+128)
  3615  0D70  0872               	movf	?___fldiv+2,w
  3616  0D71  00AC               	movwf	(?_exp+2)^(0+128)
  3617  0D72  0871               	movf	?___fldiv+1,w
  3618  0D73  00AB               	movwf	(?_exp+1)^(0+128)
  3619  0D74  0870               	movf	?___fldiv,w
  3620  0D75  00AA               	movwf	?_exp^(0+128)
  3621  0D76  2D77               	goto	l647
  3622  0D77                     l651:
  3623  0D77                     l647:
  3624  0D77  0008               	return
  3625  0D78                     __end_of_exp:
  3626                           
  3627                           	psect	text5
  3628  15A4                     __ptext5:	
  3629 ;; *************** function _ldexp *****************
  3630 ;; Defined at:
  3631 ;;		line 277 in file "C:\Program Files\Microchip\xc8\v2.36\pic\sources\c90\common\frexp.c"
  3632 ;; Parameters:    Size  Location     Type
  3633 ;;  value           4    4[BANK1 ] unsigned char 
  3634 ;;  newexp          2    8[BANK1 ] int 
  3635 ;; Auto vars:     Size  Location     Type
  3636 ;;		None
  3637 ;; Return value:  Size  Location     Type
  3638 ;;                  4    4[BANK1 ] int 
  3639 ;; Registers used:
  3640 ;;		wreg, status,2, status,0, btemp+1, pclath, cstack
  3641 ;; Tracked objects:
  3642 ;;		On entry : 0/0
  3643 ;;		On exit  : 0/0
  3644 ;;		Unchanged: 0/0
  3645 ;; Data sizes:     COMMON   BANK0   BANK1   BANK3   BANK2
  3646 ;;      Params:         0       0       6       0       0
  3647 ;;      Locals:         0       0       0       0       0
  3648 ;;      Temps:          0       2       0       0       0
  3649 ;;      Totals:         0       2       6       0       0
  3650 ;;Total ram usage:        8 bytes
  3651 ;; Hardware stack levels used: 1
  3652 ;; Hardware stack levels required when called: 1
  3653 ;; This function calls:
  3654 ;;		___fleq
  3655 ;;		___flge
  3656 ;; This function is called by:
  3657 ;;		_exp
  3658 ;; This function uses a non-reentrant model
  3659 ;;
  3660                           
  3661  15A4                     _ldexp:	
  3662                           ;psect for function _ldexp
  3663                           
  3664  15A4                     l3575:	
  3665                           ;incstack = 0
  3666                           ; Regs used in _ldexp: [wreg+status,2+status,0+btemp+1+pclath+cstack]
  3667                           
  3668  15A4  1683               	bsf	3,5	;RP0=1, select bank1
  3669  15A5  1303               	bcf	3,6	;RP1=0, select bank1
  3670  15A6  0827               	movf	(ldexp@value+3)^(0+128),w
  3671  15A7  1283               	bcf	3,5	;RP0=0, select bank0
  3672  15A8  1303               	bcf	3,6	;RP1=0, select bank0
  3673  15A9  00A3               	movwf	___fleq@ff1+3
  3674  15AA  1683               	bsf	3,5	;RP0=1, select bank1
  3675  15AB  1303               	bcf	3,6	;RP1=0, select bank1
  3676  15AC  0826               	movf	(ldexp@value+2)^(0+128),w
  3677  15AD  1283               	bcf	3,5	;RP0=0, select bank0
  3678  15AE  1303               	bcf	3,6	;RP1=0, select bank0
  3679  15AF  00A2               	movwf	___fleq@ff1+2
  3680  15B0  1683               	bsf	3,5	;RP0=1, select bank1
  3681  15B1  1303               	bcf	3,6	;RP1=0, select bank1
  3682  15B2  0825               	movf	(ldexp@value+1)^(0+128),w
  3683  15B3  1283               	bcf	3,5	;RP0=0, select bank0
  3684  15B4  1303               	bcf	3,6	;RP1=0, select bank0
  3685  15B5  00A1               	movwf	___fleq@ff1+1
  3686  15B6  1683               	bsf	3,5	;RP0=1, select bank1
  3687  15B7  1303               	bcf	3,6	;RP1=0, select bank1
  3688  15B8  0824               	movf	ldexp@value^(0+128),w
  3689  15B9  1283               	bcf	3,5	;RP0=0, select bank0
  3690  15BA  1303               	bcf	3,6	;RP1=0, select bank0
  3691  15BB  00A0               	movwf	___fleq@ff1
  3692  15BC  3000               	movlw	0
  3693  15BD  00A7               	movwf	___fleq@ff2+3
  3694  15BE  3000               	movlw	0
  3695  15BF  00A6               	movwf	___fleq@ff2+2
  3696  15C0  3000               	movlw	0
  3697  15C1  00A5               	movwf	___fleq@ff2+1
  3698  15C2  3000               	movlw	0
  3699  15C3  00A4               	movwf	___fleq@ff2
  3700  15C4  160A  118A  202F  160A  118A  	fcall	___fleq
  3701  15C9  1C03               	btfss	3,0
  3702  15CA  2DCC               	goto	u5891
  3703  15CB  2DCD               	goto	u5890
  3704  15CC                     u5891:
  3705  15CC  2DD8               	goto	l3581
  3706  15CD                     u5890:
  3707  15CD                     l3577:
  3708  15CD  3000               	movlw	0
  3709  15CE  1683               	bsf	3,5	;RP0=1, select bank1
  3710  15CF  1303               	bcf	3,6	;RP1=0, select bank1
  3711  15D0  00A7               	movwf	(?_ldexp+3)^(0+128)
  3712  15D1  3000               	movlw	0
  3713  15D2  00A6               	movwf	(?_ldexp+2)^(0+128)
  3714  15D3  3000               	movlw	0
  3715  15D4  00A5               	movwf	(?_ldexp+1)^(0+128)
  3716  15D5  3000               	movlw	0
  3717  15D6  00A4               	movwf	?_ldexp^(0+128)
  3718  15D7  2E87               	goto	l677
  3719  15D8                     l3581:
  3720  15D8  1683               	bsf	3,5	;RP0=1, select bank1
  3721  15D9  1303               	bcf	3,6	;RP1=0, select bank1
  3722  15DA  0827               	movf	(ldexp@value^(0+128)+3),w
  3723  15DB  397F               	andlw	127
  3724  15DC  1283               	bcf	3,5	;RP0=0, select bank0
  3725  15DD  1303               	bcf	3,6	;RP1=0, select bank0
  3726  15DE  00ED               	movwf	??_ldexp
  3727  15DF  01EE               	clrf	??_ldexp+1
  3728  15E0  1003               	clrc
  3729  15E1  0DED               	rlf	??_ldexp,f
  3730  15E2  0DEE               	rlf	??_ldexp+1,f
  3731  15E3  086D               	movf	??_ldexp,w
  3732  15E4  1683               	bsf	3,5	;RP0=1, select bank1
  3733  15E5  1303               	bcf	3,6	;RP1=0, select bank1
  3734  15E6  07A8               	addwf	ldexp@newexp^(0+128),f
  3735  15E7  1803               	skipnc
  3736  15E8  0AA9               	incf	(ldexp@newexp+1)^(0+128),f
  3737  15E9  1283               	bcf	3,5	;RP0=0, select bank0
  3738  15EA  1303               	bcf	3,6	;RP1=0, select bank0
  3739  15EB  086E               	movf	??_ldexp+1,w
  3740  15EC  1683               	bsf	3,5	;RP0=1, select bank1
  3741  15ED  1303               	bcf	3,6	;RP1=0, select bank1
  3742  15EE  07A9               	addwf	(ldexp@newexp+1)^(0+128),f
  3743  15EF  0D26               	rlf	(ldexp@value^(0+128)+2),w
  3744  15F0  0D26               	rlf	(ldexp@value^(0+128)+2),w
  3745  15F1  3901               	andlw	1
  3746  15F2  1283               	bcf	3,5	;RP0=0, select bank0
  3747  15F3  1303               	bcf	3,6	;RP1=0, select bank0
  3748  15F4  00ED               	movwf	??_ldexp
  3749  15F5  01EE               	clrf	??_ldexp+1
  3750  15F6  086D               	movf	??_ldexp,w
  3751  15F7  1683               	bsf	3,5	;RP0=1, select bank1
  3752  15F8  1303               	bcf	3,6	;RP1=0, select bank1
  3753  15F9  07A8               	addwf	ldexp@newexp^(0+128),f
  3754  15FA  1803               	skipnc
  3755  15FB  0AA9               	incf	(ldexp@newexp+1)^(0+128),f
  3756  15FC  1283               	bcf	3,5	;RP0=0, select bank0
  3757  15FD  1303               	bcf	3,6	;RP1=0, select bank0
  3758  15FE  086E               	movf	??_ldexp+1,w
  3759  15FF  1683               	bsf	3,5	;RP0=1, select bank1
  3760  1600  1303               	bcf	3,6	;RP1=0, select bank1
  3761  1601  07A9               	addwf	(ldexp@newexp+1)^(0+128),f
  3762  1602                     l3583:
  3763  1602  1FA9               	btfss	(ldexp@newexp+1)^(0+128),7
  3764  1603  2E05               	goto	u5901
  3765  1604  2E06               	goto	u5900
  3766  1605                     u5901:
  3767  1605  2E17               	goto	l3591
  3768  1606                     u5900:
  3769  1606                     l3585:
  3770  1606  3022               	movlw	34
  3771  1607  1683               	bsf	3,5	;RP0=1, select bank3
  3772  1608  1703               	bsf	3,6	;RP1=1, select bank3
  3773  1609  009A               	movwf	_errno^(0+384)
  3774  160A  3000               	movlw	0
  3775  160B  009B               	movwf	(_errno^(0+384)+1)
  3776  160C  3000               	movlw	0
  3777  160D  1683               	bsf	3,5	;RP0=1, select bank1
  3778  160E  1303               	bcf	3,6	;RP1=0, select bank1
  3779  160F  00A7               	movwf	(?_ldexp+3)^(0+128)
  3780  1610  3000               	movlw	0
  3781  1611  00A6               	movwf	(?_ldexp+2)^(0+128)
  3782  1612  3000               	movlw	0
  3783  1613  00A5               	movwf	(?_ldexp+1)^(0+128)
  3784  1614  3000               	movlw	0
  3785  1615  00A4               	movwf	?_ldexp^(0+128)
  3786  1616  2E87               	goto	l677
  3787  1617                     l3591:
  3788  1617  0829               	movf	(ldexp@newexp+1)^(0+128),w
  3789  1618  3A80               	xorlw	128
  3790  1619  00FF               	movwf	btemp+1
  3791  161A  3081               	movlw	129
  3792  161B  027F               	subwf	btemp+1,w
  3793  161C  1D03               	skipz
  3794  161D  2E20               	goto	u5915
  3795  161E  3000               	movlw	0
  3796  161F  0228               	subwf	ldexp@newexp^(0+128),w
  3797  1620                     u5915:
  3798  1620  1C03               	skipc
  3799  1621  2E23               	goto	u5911
  3800  1622  2E24               	goto	u5910
  3801  1623                     u5911:
  3802  1623  2E5B               	goto	l3607
  3803  1624                     u5910:
  3804  1624                     l3593:
  3805  1624  3022               	movlw	34
  3806  1625  1683               	bsf	3,5	;RP0=1, select bank3
  3807  1626  1703               	bsf	3,6	;RP1=1, select bank3
  3808  1627  009A               	movwf	_errno^(0+384)
  3809  1628  3000               	movlw	0
  3810  1629  009B               	movwf	(_errno^(0+384)+1)
  3811  162A                     l3595:
  3812  162A  1683               	bsf	3,5	;RP0=1, select bank1
  3813  162B  1303               	bcf	3,6	;RP1=0, select bank1
  3814  162C  0827               	movf	(ldexp@value+3)^(0+128),w
  3815  162D  00F3               	movwf	___flge@ff1+3
  3816  162E  0826               	movf	(ldexp@value+2)^(0+128),w
  3817  162F  00F2               	movwf	___flge@ff1+2
  3818  1630  0825               	movf	(ldexp@value+1)^(0+128),w
  3819  1631  00F1               	movwf	___flge@ff1+1
  3820  1632  0824               	movf	ldexp@value^(0+128),w
  3821  1633  00F0               	movwf	___flge@ff1
  3822  1634  3000               	movlw	0
  3823  1635  00F7               	movwf	___flge@ff2+3
  3824  1636  3000               	movlw	0
  3825  1637  00F6               	movwf	___flge@ff2+2
  3826  1638  3000               	movlw	0
  3827  1639  00F5               	movwf	___flge@ff2+1
  3828  163A  3000               	movlw	0
  3829  163B  00F4               	movwf	___flge@ff2
  3830  163C  160A  118A  22AC  160A  118A  	fcall	___flge
  3831  1641  1803               	btfsc	3,0
  3832  1642  2E44               	goto	u5921
  3833  1643  2E45               	goto	u5920
  3834  1644                     u5921:
  3835  1644  2E50               	goto	l3603
  3836  1645                     u5920:
  3837  1645                     l3597:
  3838  1645  30FF               	movlw	255
  3839  1646  1683               	bsf	3,5	;RP0=1, select bank1
  3840  1647  1303               	bcf	3,6	;RP1=0, select bank1
  3841  1648  00A7               	movwf	(?_ldexp+3)^(0+128)
  3842  1649  307F               	movlw	127
  3843  164A  00A6               	movwf	(?_ldexp+2)^(0+128)
  3844  164B  30FF               	movlw	255
  3845  164C  00A5               	movwf	(?_ldexp+1)^(0+128)
  3846  164D  30FF               	movlw	255
  3847  164E  00A4               	movwf	?_ldexp^(0+128)
  3848  164F  2E87               	goto	l677
  3849  1650                     l3603:
  3850  1650  307F               	movlw	127
  3851  1651  1683               	bsf	3,5	;RP0=1, select bank1
  3852  1652  1303               	bcf	3,6	;RP1=0, select bank1
  3853  1653  00A7               	movwf	(?_ldexp+3)^(0+128)
  3854  1654  307F               	movlw	127
  3855  1655  00A6               	movwf	(?_ldexp+2)^(0+128)
  3856  1656  30FF               	movlw	255
  3857  1657  00A5               	movwf	(?_ldexp+1)^(0+128)
  3858  1658  30FF               	movlw	255
  3859  1659  00A4               	movwf	?_ldexp^(0+128)
  3860  165A  2E87               	goto	l677
  3861  165B                     l3607:
  3862  165B  1683               	bsf	3,5	;RP0=1, select bank1
  3863  165C  1303               	bcf	3,6	;RP1=0, select bank1
  3864  165D  0829               	movf	(ldexp@newexp+1)^(0+128),w
  3865  165E  1283               	bcf	3,5	;RP0=0, select bank0
  3866  165F  1303               	bcf	3,6	;RP1=0, select bank0
  3867  1660  00EE               	movwf	??_ldexp+1
  3868  1661  1683               	bsf	3,5	;RP0=1, select bank1
  3869  1662  1303               	bcf	3,6	;RP1=0, select bank1
  3870  1663  0828               	movf	ldexp@newexp^(0+128),w
  3871  1664  1283               	bcf	3,5	;RP0=0, select bank0
  3872  1665  1303               	bcf	3,6	;RP1=0, select bank0
  3873  1666  00ED               	movwf	??_ldexp
  3874  1667  0D6E               	rlf	??_ldexp+1,w
  3875  1668  0CEE               	rrf	??_ldexp+1,f
  3876  1669  0CED               	rrf	??_ldexp,f
  3877  166A  1683               	bsf	3,5	;RP0=1, select bank1
  3878  166B  1303               	bcf	3,6	;RP1=0, select bank1
  3879  166C  0827               	movf	(ldexp@value^(0+128)+3),w
  3880  166D  1283               	bcf	3,5	;RP0=0, select bank0
  3881  166E  1303               	bcf	3,6	;RP1=0, select bank0
  3882  166F  066D               	xorwf	??_ldexp,w
  3883  1670  3980               	andlw	-128
  3884  1671  066D               	xorwf	??_ldexp,w
  3885  1672  1683               	bsf	3,5	;RP0=1, select bank1
  3886  1673  1303               	bcf	3,6	;RP1=0, select bank1
  3887  1674  00A7               	movwf	(ldexp@value^(0+128)+3)
  3888  1675  0828               	movf	ldexp@newexp^(0+128),w
  3889  1676  3901               	andlw	1
  3890  1677  1283               	bcf	3,5	;RP0=0, select bank0
  3891  1678  1303               	bcf	3,6	;RP1=0, select bank0
  3892  1679  00ED               	movwf	??_ldexp
  3893  167A  0CED               	rrf	??_ldexp,f
  3894  167B  0CED               	rrf	??_ldexp,f
  3895  167C  1683               	bsf	3,5	;RP0=1, select bank1
  3896  167D  1303               	bcf	3,6	;RP1=0, select bank1
  3897  167E  0826               	movf	(ldexp@value^(0+128)+2),w
  3898  167F  1283               	bcf	3,5	;RP0=0, select bank0
  3899  1680  1303               	bcf	3,6	;RP1=0, select bank0
  3900  1681  066D               	xorwf	??_ldexp,w
  3901  1682  397F               	andlw	-129
  3902  1683  066D               	xorwf	??_ldexp,w
  3903  1684  1683               	bsf	3,5	;RP0=1, select bank1
  3904  1685  1303               	bcf	3,6	;RP1=0, select bank1
  3905  1686  00A6               	movwf	(ldexp@value^(0+128)+2)
  3906  1687                     l3609:
  3907  1687                     l677:
  3908  1687  0008               	return
  3909  1688                     __end_of_ldexp:
  3910                           
  3911                           	psect	text6
  3912  0857                     __ptext6:	
  3913 ;; *************** function _floor *****************
  3914 ;; Defined at:
  3915 ;;		line 13 in file "C:\Program Files\Microchip\xc8\v2.36\pic\sources\c90\common\floor.c"
  3916 ;; Parameters:    Size  Location     Type
  3917 ;;  x               4   76[BANK0 ] int 
  3918 ;; Auto vars:     Size  Location     Type
  3919 ;;  i               4    1[BANK1 ] int 
  3920 ;;  expon           2    5[BANK1 ] int 
  3921 ;; Return value:  Size  Location     Type
  3922 ;;                  4   76[BANK0 ] int 
  3923 ;; Registers used:
  3924 ;;		wreg, fsr0l, fsr0h, status,2, status,0, btemp+1, pclath, cstack
  3925 ;; Tracked objects:
  3926 ;;		On entry : 0/0
  3927 ;;		On exit  : 0/0
  3928 ;;		Unchanged: 0/0
  3929 ;; Data sizes:     COMMON   BANK0   BANK1   BANK3   BANK2
  3930 ;;      Params:         0       4       0       0       0
  3931 ;;      Locals:         0       0       6       0       0
  3932 ;;      Temps:          0       0       1       0       0
  3933 ;;      Totals:         0       4       7       0       0
  3934 ;;Total ram usage:       11 bytes
  3935 ;; Hardware stack levels used: 1
  3936 ;; Hardware stack levels required when called: 2
  3937 ;; This function calls:
  3938 ;;		___fladd
  3939 ;;		___flge
  3940 ;;		___fltol
  3941 ;;		___xxtofl
  3942 ;;		_frexp
  3943 ;; This function is called by:
  3944 ;;		_exp
  3945 ;; This function uses a non-reentrant model
  3946 ;;
  3947                           
  3948  0857                     _floor:	
  3949                           ;psect for function _floor
  3950                           
  3951  0857                     l3537:	
  3952                           ;incstack = 0
  3953                           ; Regs used in _floor: [wreg-fsr0h+status,2+status,0+btemp+1+pclath+cstack]
  3954                           
  3955  0857  1283               	bcf	3,5	;RP0=0, select bank0
  3956  0858  1303               	bcf	3,6	;RP1=0, select bank0
  3957  0859  086F               	movf	floor@x+3,w
  3958  085A  00AF               	movwf	frexp@value+3
  3959  085B  086E               	movf	floor@x+2,w
  3960  085C  00AE               	movwf	frexp@value+2
  3961  085D  086D               	movf	floor@x+1,w
  3962  085E  00AD               	movwf	frexp@value+1
  3963  085F  086C               	movf	floor@x,w
  3964  0860  00AC               	movwf	frexp@value
  3965  0861  30A5               	movlw	(low (floor@expon| 0))& (0+255)
  3966  0862  1683               	bsf	3,5	;RP0=1, select bank1
  3967  0863  1303               	bcf	3,6	;RP1=0, select bank1
  3968  0864  00A0               	movwf	??_floor^(0+128)
  3969  0865  0820               	movf	??_floor^(0+128),w
  3970  0866  1283               	bcf	3,5	;RP0=0, select bank0
  3971  0867  1303               	bcf	3,6	;RP1=0, select bank0
  3972  0868  00B0               	movwf	frexp@eptr
  3973  0869  160A  118A  20D8  120A  158A  	fcall	_frexp
  3974  086E                     l3539:
  3975  086E  1683               	bsf	3,5	;RP0=1, select bank1
  3976  086F  1303               	bcf	3,6	;RP1=0, select bank1
  3977  0870  1FA6               	btfss	(floor@expon+1)^(0+128),7
  3978  0871  2873               	goto	u5821
  3979  0872  2874               	goto	u5820
  3980  0873                     u5821:
  3981  0873  28A5               	goto	l3551
  3982  0874                     u5820:
  3983  0874                     l3541:
  3984  0874  1283               	bcf	3,5	;RP0=0, select bank0
  3985  0875  1303               	bcf	3,6	;RP1=0, select bank0
  3986  0876  086F               	movf	floor@x+3,w
  3987  0877  00F3               	movwf	___flge@ff1+3
  3988  0878  086E               	movf	floor@x+2,w
  3989  0879  00F2               	movwf	___flge@ff1+2
  3990  087A  086D               	movf	floor@x+1,w
  3991  087B  00F1               	movwf	___flge@ff1+1
  3992  087C  086C               	movf	floor@x,w
  3993  087D  00F0               	movwf	___flge@ff1
  3994  087E  3000               	movlw	0
  3995  087F  00F7               	movwf	___flge@ff2+3
  3996  0880  3000               	movlw	0
  3997  0881  00F6               	movwf	___flge@ff2+2
  3998  0882  3000               	movlw	0
  3999  0883  00F5               	movwf	___flge@ff2+1
  4000  0884  3000               	movlw	0
  4001  0885  00F4               	movwf	___flge@ff2
  4002  0886  160A  118A  22AC  120A  158A  	fcall	___flge
  4003  088B  1803               	btfsc	3,0
  4004  088C  288E               	goto	u5831
  4005  088D  288F               	goto	u5830
  4006  088E                     u5831:
  4007  088E  289A               	goto	l3547
  4008  088F                     u5830:
  4009  088F                     l3543:
  4010  088F  30BF               	movlw	191
  4011  0890  1283               	bcf	3,5	;RP0=0, select bank0
  4012  0891  1303               	bcf	3,6	;RP1=0, select bank0
  4013  0892  00EF               	movwf	?_floor+3
  4014  0893  3080               	movlw	128
  4015  0894  00EE               	movwf	?_floor+2
  4016  0895  3000               	movlw	0
  4017  0896  00ED               	movwf	?_floor+1
  4018  0897  3000               	movlw	0
  4019  0898  00EC               	movwf	?_floor
  4020  0899  293F               	goto	l665
  4021  089A                     l3547:
  4022  089A  3000               	movlw	0
  4023  089B  1283               	bcf	3,5	;RP0=0, select bank0
  4024  089C  1303               	bcf	3,6	;RP1=0, select bank0
  4025  089D  00EF               	movwf	?_floor+3
  4026  089E  3000               	movlw	0
  4027  089F  00EE               	movwf	?_floor+2
  4028  08A0  3000               	movlw	0
  4029  08A1  00ED               	movwf	?_floor+1
  4030  08A2  3000               	movlw	0
  4031  08A3  00EC               	movwf	?_floor
  4032  08A4  293F               	goto	l665
  4033  08A5                     l3551:
  4034  08A5  3000               	movlw	0
  4035  08A6  0226               	subwf	(floor@expon+1)^(0+128),w
  4036  08A7  301D               	movlw	29
  4037  08A8  1903               	skipnz
  4038  08A9  0225               	subwf	floor@expon^(0+128),w
  4039  08AA  1C03               	skipc
  4040  08AB  28AD               	goto	u5841
  4041  08AC  28AE               	goto	u5840
  4042  08AD                     u5841:
  4043  08AD  28AF               	goto	l3555
  4044  08AE                     u5840:
  4045  08AE                     l3553:
  4046  08AE  293F               	goto	l665
  4047  08AF                     l3555:
  4048  08AF  1283               	bcf	3,5	;RP0=0, select bank0
  4049  08B0  1303               	bcf	3,6	;RP1=0, select bank0
  4050  08B1  086F               	movf	floor@x+3,w
  4051  08B2  00E4               	movwf	___fltol@f1+3
  4052  08B3  086E               	movf	floor@x+2,w
  4053  08B4  00E3               	movwf	___fltol@f1+2
  4054  08B5  086D               	movf	floor@x+1,w
  4055  08B6  00E2               	movwf	___fltol@f1+1
  4056  08B7  086C               	movf	floor@x,w
  4057  08B8  00E1               	movwf	___fltol@f1
  4058  08B9  160A  118A  219B  120A  158A  	fcall	___fltol
  4059  08BE  1283               	bcf	3,5	;RP0=0, select bank0
  4060  08BF  1303               	bcf	3,6	;RP1=0, select bank0
  4061  08C0  0864               	movf	?___fltol+3,w
  4062  08C1  00F3               	movwf	___xxtofl@val+3
  4063  08C2  0863               	movf	?___fltol+2,w
  4064  08C3  00F2               	movwf	___xxtofl@val+2
  4065  08C4  0862               	movf	?___fltol+1,w
  4066  08C5  00F1               	movwf	___xxtofl@val+1
  4067  08C6  0861               	movf	?___fltol,w
  4068  08C7  00F0               	movwf	___xxtofl@val
  4069  08C8  3001               	movlw	1
  4070  08C9  160A  118A  234E  120A  158A  	fcall	___xxtofl
  4071  08CE  0873               	movf	?___xxtofl+3,w
  4072  08CF  1683               	bsf	3,5	;RP0=1, select bank1
  4073  08D0  1303               	bcf	3,6	;RP1=0, select bank1
  4074  08D1  00A4               	movwf	(floor@i+3)^(0+128)
  4075  08D2  0872               	movf	?___xxtofl+2,w
  4076  08D3  00A3               	movwf	(floor@i+2)^(0+128)
  4077  08D4  0871               	movf	?___xxtofl+1,w
  4078  08D5  00A2               	movwf	(floor@i+1)^(0+128)
  4079  08D6  0870               	movf	?___xxtofl,w
  4080  08D7  00A1               	movwf	floor@i^(0+128)
  4081  08D8  1283               	bcf	3,5	;RP0=0, select bank0
  4082  08D9  1303               	bcf	3,6	;RP1=0, select bank0
  4083  08DA  086F               	movf	floor@x+3,w
  4084  08DB  00F3               	movwf	___flge@ff1+3
  4085  08DC  086E               	movf	floor@x+2,w
  4086  08DD  00F2               	movwf	___flge@ff1+2
  4087  08DE  086D               	movf	floor@x+1,w
  4088  08DF  00F1               	movwf	___flge@ff1+1
  4089  08E0  086C               	movf	floor@x,w
  4090  08E1  00F0               	movwf	___flge@ff1
  4091  08E2  1683               	bsf	3,5	;RP0=1, select bank1
  4092  08E3  1303               	bcf	3,6	;RP1=0, select bank1
  4093  08E4  0824               	movf	(floor@i+3)^(0+128),w
  4094  08E5  00F7               	movwf	___flge@ff2+3
  4095  08E6  0823               	movf	(floor@i+2)^(0+128),w
  4096  08E7  00F6               	movwf	___flge@ff2+2
  4097  08E8  0822               	movf	(floor@i+1)^(0+128),w
  4098  08E9  00F5               	movwf	___flge@ff2+1
  4099  08EA  0821               	movf	floor@i^(0+128),w
  4100  08EB  00F4               	movwf	___flge@ff2
  4101  08EC  160A  118A  22AC  120A  158A  	fcall	___flge
  4102  08F1  1803               	btfsc	3,0
  4103  08F2  28F4               	goto	u5851
  4104  08F3  28F5               	goto	u5850
  4105  08F4                     u5851:
  4106  08F4  2927               	goto	l3561
  4107  08F5                     u5850:
  4108  08F5                     l3557:
  4109  08F5  30BF               	movlw	191
  4110  08F6  1283               	bcf	3,5	;RP0=0, select bank0
  4111  08F7  1303               	bcf	3,6	;RP1=0, select bank0
  4112  08F8  00D0               	movwf	___fladd@b+3
  4113  08F9  3080               	movlw	128
  4114  08FA  00CF               	movwf	___fladd@b+2
  4115  08FB  3000               	movlw	0
  4116  08FC  00CE               	movwf	___fladd@b+1
  4117  08FD  3000               	movlw	0
  4118  08FE  00CD               	movwf	___fladd@b
  4119  08FF  1683               	bsf	3,5	;RP0=1, select bank1
  4120  0900  1303               	bcf	3,6	;RP1=0, select bank1
  4121  0901  0824               	movf	(floor@i+3)^(0+128),w
  4122  0902  1283               	bcf	3,5	;RP0=0, select bank0
  4123  0903  1303               	bcf	3,6	;RP1=0, select bank0
  4124  0904  00D4               	movwf	___fladd@a+3
  4125  0905  1683               	bsf	3,5	;RP0=1, select bank1
  4126  0906  1303               	bcf	3,6	;RP1=0, select bank1
  4127  0907  0823               	movf	(floor@i+2)^(0+128),w
  4128  0908  1283               	bcf	3,5	;RP0=0, select bank0
  4129  0909  1303               	bcf	3,6	;RP1=0, select bank0
  4130  090A  00D3               	movwf	___fladd@a+2
  4131  090B  1683               	bsf	3,5	;RP0=1, select bank1
  4132  090C  1303               	bcf	3,6	;RP1=0, select bank1
  4133  090D  0822               	movf	(floor@i+1)^(0+128),w
  4134  090E  1283               	bcf	3,5	;RP0=0, select bank0
  4135  090F  1303               	bcf	3,6	;RP1=0, select bank0
  4136  0910  00D2               	movwf	___fladd@a+1
  4137  0911  1683               	bsf	3,5	;RP0=1, select bank1
  4138  0912  1303               	bcf	3,6	;RP1=0, select bank1
  4139  0913  0821               	movf	floor@i^(0+128),w
  4140  0914  1283               	bcf	3,5	;RP0=0, select bank0
  4141  0915  1303               	bcf	3,6	;RP1=0, select bank0
  4142  0916  00D1               	movwf	___fladd@a
  4143  0917  120A  158A  2578  120A  158A  	fcall	___fladd
  4144  091C  1283               	bcf	3,5	;RP0=0, select bank0
  4145  091D  1303               	bcf	3,6	;RP1=0, select bank0
  4146  091E  0850               	movf	?___fladd+3,w
  4147  091F  00EF               	movwf	?_floor+3
  4148  0920  084F               	movf	?___fladd+2,w
  4149  0921  00EE               	movwf	?_floor+2
  4150  0922  084E               	movf	?___fladd+1,w
  4151  0923  00ED               	movwf	?_floor+1
  4152  0924  084D               	movf	?___fladd,w
  4153  0925  00EC               	movwf	?_floor
  4154  0926  293F               	goto	l665
  4155  0927                     l3561:
  4156  0927  1683               	bsf	3,5	;RP0=1, select bank1
  4157  0928  1303               	bcf	3,6	;RP1=0, select bank1
  4158  0929  0824               	movf	(floor@i+3)^(0+128),w
  4159  092A  1283               	bcf	3,5	;RP0=0, select bank0
  4160  092B  1303               	bcf	3,6	;RP1=0, select bank0
  4161  092C  00EF               	movwf	?_floor+3
  4162  092D  1683               	bsf	3,5	;RP0=1, select bank1
  4163  092E  1303               	bcf	3,6	;RP1=0, select bank1
  4164  092F  0823               	movf	(floor@i+2)^(0+128),w
  4165  0930  1283               	bcf	3,5	;RP0=0, select bank0
  4166  0931  1303               	bcf	3,6	;RP1=0, select bank0
  4167  0932  00EE               	movwf	?_floor+2
  4168  0933  1683               	bsf	3,5	;RP0=1, select bank1
  4169  0934  1303               	bcf	3,6	;RP1=0, select bank1
  4170  0935  0822               	movf	(floor@i+1)^(0+128),w
  4171  0936  1283               	bcf	3,5	;RP0=0, select bank0
  4172  0937  1303               	bcf	3,6	;RP1=0, select bank0
  4173  0938  00ED               	movwf	?_floor+1
  4174  0939  1683               	bsf	3,5	;RP0=1, select bank1
  4175  093A  1303               	bcf	3,6	;RP1=0, select bank1
  4176  093B  0821               	movf	floor@i^(0+128),w
  4177  093C  1283               	bcf	3,5	;RP0=0, select bank0
  4178  093D  1303               	bcf	3,6	;RP1=0, select bank0
  4179  093E  00EC               	movwf	?_floor
  4180  093F                     l665:
  4181  093F  0008               	return
  4182  0940                     __end_of_floor:
  4183                           
  4184                           	psect	text7
  4185  10D8                     __ptext7:	
  4186 ;; *************** function _frexp *****************
  4187 ;; Defined at:
  4188 ;;		line 254 in file "C:\Program Files\Microchip\xc8\v2.36\pic\sources\c90\common\frexp.c"
  4189 ;; Parameters:    Size  Location     Type
  4190 ;;  value           4   12[BANK0 ] int 
  4191 ;;  eptr            1   16[BANK0 ] PTR int 
  4192 ;;		 -> log@exponent(2), floor@expon(2), 
  4193 ;; Auto vars:     Size  Location     Type
  4194 ;;		None
  4195 ;; Return value:  Size  Location     Type
  4196 ;;                  4   12[BANK0 ] PTR int 
  4197 ;; Registers used:
  4198 ;;		wreg, fsr0l, fsr0h, status,2, status,0, btemp+1, pclath, cstack
  4199 ;; Tracked objects:
  4200 ;;		On entry : 0/0
  4201 ;;		On exit  : 0/0
  4202 ;;		Unchanged: 0/0
  4203 ;; Data sizes:     COMMON   BANK0   BANK1   BANK3   BANK2
  4204 ;;      Params:         0       5       0       0       0
  4205 ;;      Locals:         0       0       0       0       0
  4206 ;;      Temps:          0       2       0       0       0
  4207 ;;      Totals:         0       7       0       0       0
  4208 ;;Total ram usage:        7 bytes
  4209 ;; Hardware stack levels used: 1
  4210 ;; Hardware stack levels required when called: 1
  4211 ;; This function calls:
  4212 ;;		___fleq
  4213 ;; This function is called by:
  4214 ;;		_floor
  4215 ;;		_log
  4216 ;; This function uses a non-reentrant model
  4217 ;;
  4218                           
  4219  10D8                     _frexp:	
  4220                           ;psect for function _frexp
  4221                           
  4222  10D8                     l3511:	
  4223                           ;incstack = 0
  4224                           ; Regs used in _frexp: [wreg-fsr0h+status,2+status,0+btemp+1+pclath+cstack]
  4225                           
  4226  10D8  1283               	bcf	3,5	;RP0=0, select bank0
  4227  10D9  1303               	bcf	3,6	;RP1=0, select bank0
  4228  10DA  082F               	movf	frexp@value+3,w
  4229  10DB  00A3               	movwf	___fleq@ff1+3
  4230  10DC  082E               	movf	frexp@value+2,w
  4231  10DD  00A2               	movwf	___fleq@ff1+2
  4232  10DE  082D               	movf	frexp@value+1,w
  4233  10DF  00A1               	movwf	___fleq@ff1+1
  4234  10E0  082C               	movf	frexp@value,w
  4235  10E1  00A0               	movwf	___fleq@ff1
  4236  10E2  3000               	movlw	0
  4237  10E3  00A7               	movwf	___fleq@ff2+3
  4238  10E4  3000               	movlw	0
  4239  10E5  00A6               	movwf	___fleq@ff2+2
  4240  10E6  3000               	movlw	0
  4241  10E7  00A5               	movwf	___fleq@ff2+1
  4242  10E8  3000               	movlw	0
  4243  10E9  00A4               	movwf	___fleq@ff2
  4244  10EA  160A  118A  202F  160A  118A  	fcall	___fleq
  4245  10EF  1C03               	btfss	3,0
  4246  10F0  28F2               	goto	u5811
  4247  10F1  28F3               	goto	u5810
  4248  10F2                     u5811:
  4249  10F2  2904               	goto	l3519
  4250  10F3                     u5810:
  4251  10F3                     l3513:
  4252  10F3  1283               	bcf	3,5	;RP0=0, select bank0
  4253  10F4  1303               	bcf	3,6	;RP1=0, select bank0
  4254  10F5  0830               	movf	frexp@eptr,w
  4255  10F6  0084               	movwf	4
  4256  10F7  1383               	bcf	3,7	;select IRP bank0
  4257  10F8  0180               	clrf	0
  4258  10F9  0A84               	incf	4,f
  4259  10FA  0180               	clrf	0
  4260  10FB                     l3515:
  4261  10FB  3000               	movlw	0
  4262  10FC  00AF               	movwf	?_frexp+3
  4263  10FD  3000               	movlw	0
  4264  10FE  00AE               	movwf	?_frexp+2
  4265  10FF  3000               	movlw	0
  4266  1100  00AD               	movwf	?_frexp+1
  4267  1101  3000               	movlw	0
  4268  1102  00AC               	movwf	?_frexp
  4269  1103  2933               	goto	l673
  4270  1104                     l3519:
  4271  1104  1283               	bcf	3,5	;RP0=0, select bank0
  4272  1105  1303               	bcf	3,6	;RP1=0, select bank0
  4273  1106  082F               	movf	frexp@value+3,w
  4274  1107  397F               	andlw	127
  4275  1108  00B1               	movwf	??_frexp
  4276  1109  01B2               	clrf	??_frexp+1
  4277  110A  1003               	clrc
  4278  110B  0DB1               	rlf	??_frexp,f
  4279  110C  0DB2               	rlf	??_frexp+1,f
  4280  110D  0830               	movf	frexp@eptr,w
  4281  110E  0084               	movwf	4
  4282  110F  0831               	movf	??_frexp,w
  4283  1110  1383               	bcf	3,7	;select IRP bank0
  4284  1111  0080               	movwf	0
  4285  1112  0A84               	incf	4,f
  4286  1113  0832               	movf	??_frexp+1,w
  4287  1114  0080               	movwf	0
  4288  1115  0D2E               	rlf	frexp@value+2,w
  4289  1116  0D2E               	rlf	frexp@value+2,w
  4290  1117  3901               	andlw	1
  4291  1118  00B1               	movwf	??_frexp
  4292  1119  01B2               	clrf	??_frexp+1
  4293  111A  0830               	movf	frexp@eptr,w
  4294  111B  0084               	movwf	4
  4295  111C  0831               	movf	??_frexp,w
  4296  111D  0480               	iorwf	0,f
  4297  111E  0A84               	incf	4,f
  4298  111F  0832               	movf	??_frexp+1,w
  4299  1120  0480               	iorwf	0,f
  4300  1121                     l3521:
  4301  1121  0830               	movf	frexp@eptr,w
  4302  1122  0084               	movwf	4
  4303  1123  3082               	movlw	130
  4304  1124  0780               	addwf	0,f
  4305  1125  0F84               	incfsz	4,f
  4306  1126  0800               	movf	0,w
  4307  1127  1803               	skipnc
  4308  1128  0A00               	incf	0,w
  4309  1129  00FF               	movwf	btemp+1
  4310  112A  30FF               	movlw	255
  4311  112B  077F               	addwf	btemp+1,w
  4312  112C  0080               	movwf	0
  4313  112D  0384               	decf	4,f
  4314  112E                     l3523:
  4315  112E  082F               	movf	frexp@value+3,w
  4316  112F  3980               	andlw	-128
  4317  1130  383F               	iorlw	63
  4318  1131  00AF               	movwf	frexp@value+3
  4319  1132                     l3525:
  4320  1132  13AE               	bcf	frexp@value+2,7
  4321  1133                     l3527:
  4322  1133                     l673:
  4323  1133  0008               	return
  4324  1134                     __end_of_frexp:
  4325                           
  4326                           	psect	text8
  4327  102F                     __ptext8:	
  4328 ;; *************** function ___fleq *****************
  4329 ;; Defined at:
  4330 ;;		line 4 in file "C:\Program Files\Microchip\xc8\v2.36\pic\sources\c90\common\fleq.c"
  4331 ;; Parameters:    Size  Location     Type
  4332 ;;  ff1             4    0[BANK0 ] PTR int 
  4333 ;;  ff2             4    4[BANK0 ] PTR int 
  4334 ;; Auto vars:     Size  Location     Type
  4335 ;;		None
  4336 ;; Return value:  Size  Location     Type
  4337 ;;		None               void
  4338 ;; Registers used:
  4339 ;;		wreg, status,2, status,0
  4340 ;; Tracked objects:
  4341 ;;		On entry : 0/0
  4342 ;;		On exit  : 0/0
  4343 ;;		Unchanged: 0/0
  4344 ;; Data sizes:     COMMON   BANK0   BANK1   BANK3   BANK2
  4345 ;;      Params:         0       8       0       0       0
  4346 ;;      Locals:         0       0       0       0       0
  4347 ;;      Temps:          0       4       0       0       0
  4348 ;;      Totals:         0      12       0       0       0
  4349 ;;Total ram usage:       12 bytes
  4350 ;; Hardware stack levels used: 1
  4351 ;; This function calls:
  4352 ;;		Nothing
  4353 ;; This function is called by:
  4354 ;;		_pow
  4355 ;;		_exp
  4356 ;;		_frexp
  4357 ;;		_ldexp
  4358 ;;		_log
  4359 ;; This function uses a non-reentrant model
  4360 ;;
  4361                           
  4362  102F                     ___fleq:	
  4363                           ;psect for function ___fleq
  4364                           
  4365  102F                     l3087:	
  4366                           ;incstack = 0
  4367                           ; Regs used in ___fleq: [wreg+status,2+status,0]
  4368                           
  4369  102F  3000               	movlw	0
  4370  1030  1283               	bcf	3,5	;RP0=0, select bank0
  4371  1031  1303               	bcf	3,6	;RP1=0, select bank0
  4372  1032  0520               	andwf	___fleq@ff1,w
  4373  1033  00A8               	movwf	??___fleq
  4374  1034  3000               	movlw	0
  4375  1035  0521               	andwf	___fleq@ff1+1,w
  4376  1036  00A9               	movwf	??___fleq+1
  4377  1037  3080               	movlw	128
  4378  1038  0522               	andwf	___fleq@ff1+2,w
  4379  1039  00AA               	movwf	??___fleq+2
  4380  103A  307F               	movlw	127
  4381  103B  0523               	andwf	___fleq@ff1+3,w
  4382  103C  00AB               	movwf	??___fleq+3
  4383  103D  082B               	movf	??___fleq+3,w
  4384  103E  042A               	iorwf	??___fleq+2,w
  4385  103F  0429               	iorwf	??___fleq+1,w
  4386  1040  0428               	iorwf	??___fleq,w
  4387  1041  1D03               	skipz
  4388  1042  2844               	goto	u4711
  4389  1043  2845               	goto	u4710
  4390  1044                     u4711:
  4391  1044  284D               	goto	l337
  4392  1045                     u4710:
  4393  1045                     l3089:
  4394  1045  3000               	movlw	0
  4395  1046  00A3               	movwf	___fleq@ff1+3
  4396  1047  3000               	movlw	0
  4397  1048  00A2               	movwf	___fleq@ff1+2
  4398  1049  3000               	movlw	0
  4399  104A  00A1               	movwf	___fleq@ff1+1
  4400  104B  3000               	movlw	0
  4401  104C  00A0               	movwf	___fleq@ff1
  4402  104D                     l337:
  4403  104D  3000               	movlw	0
  4404  104E  0524               	andwf	___fleq@ff2,w
  4405  104F  00A8               	movwf	??___fleq
  4406  1050  3000               	movlw	0
  4407  1051  0525               	andwf	___fleq@ff2+1,w
  4408  1052  00A9               	movwf	??___fleq+1
  4409  1053  3080               	movlw	128
  4410  1054  0526               	andwf	___fleq@ff2+2,w
  4411  1055  00AA               	movwf	??___fleq+2
  4412  1056  307F               	movlw	127
  4413  1057  0527               	andwf	___fleq@ff2+3,w
  4414  1058  00AB               	movwf	??___fleq+3
  4415  1059  082B               	movf	??___fleq+3,w
  4416  105A  042A               	iorwf	??___fleq+2,w
  4417  105B  0429               	iorwf	??___fleq+1,w
  4418  105C  0428               	iorwf	??___fleq,w
  4419  105D  1D03               	skipz
  4420  105E  2860               	goto	u4721
  4421  105F  2861               	goto	u4720
  4422  1060                     u4721:
  4423  1060  2869               	goto	l338
  4424  1061                     u4720:
  4425  1061                     l3091:
  4426  1061  3000               	movlw	0
  4427  1062  00A7               	movwf	___fleq@ff2+3
  4428  1063  3000               	movlw	0
  4429  1064  00A6               	movwf	___fleq@ff2+2
  4430  1065  3000               	movlw	0
  4431  1066  00A5               	movwf	___fleq@ff2+1
  4432  1067  3000               	movlw	0
  4433  1068  00A4               	movwf	___fleq@ff2
  4434  1069                     l338:
  4435  1069  0827               	movf	___fleq@ff2+3,w
  4436  106A  0623               	xorwf	___fleq@ff1+3,w
  4437  106B  1D03               	skipz
  4438  106C  2877               	goto	u4735
  4439  106D  0826               	movf	___fleq@ff2+2,w
  4440  106E  0622               	xorwf	___fleq@ff1+2,w
  4441  106F  1D03               	skipz
  4442  1070  2877               	goto	u4735
  4443  1071  0825               	movf	___fleq@ff2+1,w
  4444  1072  0621               	xorwf	___fleq@ff1+1,w
  4445  1073  1D03               	skipz
  4446  1074  2877               	goto	u4735
  4447  1075  0824               	movf	___fleq@ff2,w
  4448  1076  0620               	xorwf	___fleq@ff1,w
  4449  1077                     u4735:
  4450  1077  1903               	skipnz
  4451  1078  287A               	goto	u4731
  4452  1079  287B               	goto	u4730
  4453  107A                     u4731:
  4454  107A  287D               	goto	l3095
  4455  107B                     u4730:
  4456  107B                     l3093:
  4457  107B  1003               	clrc
  4458  107C  287E               	goto	l339
  4459  107D                     l3095:
  4460  107D  1403               	setc
  4461  107E                     l339:
  4462  107E  0008               	return
  4463  107F                     __end_of___fleq:
  4464                           
  4465                           	psect	text9
  4466  134E                     __ptext9:	
  4467 ;; *************** function ___xxtofl *****************
  4468 ;; Defined at:
  4469 ;;		line 10 in file "C:\Program Files\Microchip\xc8\v2.36\pic\sources\c90\common\xxtofl.c"
  4470 ;; Parameters:    Size  Location     Type
  4471 ;;  sign            1    wreg     unsigned char 
  4472 ;;  val             4    0[COMMON] long 
  4473 ;; Auto vars:     Size  Location     Type
  4474 ;;  sign            1    8[COMMON] unsigned char 
  4475 ;;  arg             4   10[COMMON] unsigned long 
  4476 ;;  exp             1    9[COMMON] unsigned char 
  4477 ;; Return value:  Size  Location     Type
  4478 ;;                  4    0[COMMON] unsigned char 
  4479 ;; Registers used:
  4480 ;;		wreg, status,2, status,0
  4481 ;; Tracked objects:
  4482 ;;		On entry : 0/0
  4483 ;;		On exit  : 0/0
  4484 ;;		Unchanged: 0/0
  4485 ;; Data sizes:     COMMON   BANK0   BANK1   BANK3   BANK2
  4486 ;;      Params:         4       0       0       0       0
  4487 ;;      Locals:         6       0       0       0       0
  4488 ;;      Temps:          4       0       0       0       0
  4489 ;;      Totals:        14       0       0       0       0
  4490 ;;Total ram usage:       14 bytes
  4491 ;; Hardware stack levels used: 1
  4492 ;; This function calls:
  4493 ;;		Nothing
  4494 ;; This function is called by:
  4495 ;;		_pot_value
  4496 ;;		_pow
  4497 ;;		_exp
  4498 ;;		_floor
  4499 ;;		_log
  4500 ;; This function uses a non-reentrant model
  4501 ;;
  4502                           
  4503  134E                     ___xxtofl:	
  4504                           ;psect for function ___xxtofl
  4505                           
  4506                           
  4507                           ;incstack = 0
  4508                           ; Regs used in ___xxtofl: [wreg+status,2+status,0]
  4509                           ;___xxtofl@sign stored from wreg
  4510  134E  00F8               	movwf	___xxtofl@sign
  4511  134F                     l3467:
  4512  134F  0878               	movf	___xxtofl@sign,w
  4513  1350  1903               	btfsc	3,2
  4514  1351  2B53               	goto	u5671
  4515  1352  2B54               	goto	u5670
  4516  1353                     u5671:
  4517  1353  2B68               	goto	l3473
  4518  1354                     u5670:
  4519  1354                     l3469:
  4520  1354  1FF3               	btfss	___xxtofl@val+3,7
  4521  1355  2B57               	goto	u5681
  4522  1356  2B58               	goto	u5680
  4523  1357                     u5681:
  4524  1357  2B68               	goto	l3473
  4525  1358                     u5680:
  4526  1358                     l3471:
  4527  1358  0970               	comf	___xxtofl@val,w
  4528  1359  00FA               	movwf	___xxtofl@arg
  4529  135A  0971               	comf	___xxtofl@val+1,w
  4530  135B  00FB               	movwf	___xxtofl@arg+1
  4531  135C  0972               	comf	___xxtofl@val+2,w
  4532  135D  00FC               	movwf	___xxtofl@arg+2
  4533  135E  0973               	comf	___xxtofl@val+3,w
  4534  135F  00FD               	movwf	___xxtofl@arg+3
  4535  1360  0AFA               	incf	___xxtofl@arg,f
  4536  1361  1903               	skipnz
  4537  1362  0AFB               	incf	___xxtofl@arg+1,f
  4538  1363  1903               	skipnz
  4539  1364  0AFC               	incf	___xxtofl@arg+2,f
  4540  1365  1903               	skipnz
  4541  1366  0AFD               	incf	___xxtofl@arg+3,f
  4542  1367  2B70               	goto	l601
  4543  1368                     l3473:
  4544  1368  0873               	movf	___xxtofl@val+3,w
  4545  1369  00FD               	movwf	___xxtofl@arg+3
  4546  136A  0872               	movf	___xxtofl@val+2,w
  4547  136B  00FC               	movwf	___xxtofl@arg+2
  4548  136C  0871               	movf	___xxtofl@val+1,w
  4549  136D  00FB               	movwf	___xxtofl@arg+1
  4550  136E  0870               	movf	___xxtofl@val,w
  4551  136F  00FA               	movwf	___xxtofl@arg
  4552  1370                     l601:
  4553  1370  0873               	movf	___xxtofl@val+3,w
  4554  1371  0472               	iorwf	___xxtofl@val+2,w
  4555  1372  0471               	iorwf	___xxtofl@val+1,w
  4556  1373  0470               	iorwf	___xxtofl@val,w
  4557  1374  1D03               	skipz
  4558  1375  2B77               	goto	u5691
  4559  1376  2B78               	goto	u5690
  4560  1377                     u5691:
  4561  1377  2B81               	goto	l3479
  4562  1378                     u5690:
  4563  1378                     l3475:
  4564  1378  3000               	movlw	0
  4565  1379  00F3               	movwf	?___xxtofl+3
  4566  137A  3000               	movlw	0
  4567  137B  00F2               	movwf	?___xxtofl+2
  4568  137C  3000               	movlw	0
  4569  137D  00F1               	movwf	?___xxtofl+1
  4570  137E  3000               	movlw	0
  4571  137F  00F0               	movwf	?___xxtofl
  4572  1380  2C07               	goto	l603
  4573  1381                     l3479:
  4574  1381  3096               	movlw	150
  4575  1382  00F4               	movwf	??___xxtofl
  4576  1383  0874               	movf	??___xxtofl,w
  4577  1384  00F9               	movwf	___xxtofl@exp
  4578  1385  2B93               	goto	l3483
  4579  1386                     l3481:
  4580  1386  3001               	movlw	1
  4581  1387  00F4               	movwf	??___xxtofl
  4582  1388  0874               	movf	??___xxtofl,w
  4583  1389  07F9               	addwf	___xxtofl@exp,f
  4584  138A  3001               	movlw	1
  4585  138B                     u5705:
  4586  138B  1003               	clrc
  4587  138C  0CFD               	rrf	___xxtofl@arg+3,f
  4588  138D  0CFC               	rrf	___xxtofl@arg+2,f
  4589  138E  0CFB               	rrf	___xxtofl@arg+1,f
  4590  138F  0CFA               	rrf	___xxtofl@arg,f
  4591  1390  3EFF               	addlw	-1
  4592  1391  1D03               	skipz
  4593  1392  2B8B               	goto	u5705
  4594  1393                     l3483:
  4595  1393  30FE               	movlw	254
  4596  1394  057D               	andwf	___xxtofl@arg+3,w
  4597  1395  1D03               	btfss	3,2
  4598  1396  2B98               	goto	u5711
  4599  1397  2B99               	goto	u5710
  4600  1398                     u5711:
  4601  1398  2B86               	goto	l3481
  4602  1399                     u5710:
  4603  1399  2BB5               	goto	l607
  4604  139A                     l3485:
  4605  139A  3001               	movlw	1
  4606  139B  00F4               	movwf	??___xxtofl
  4607  139C  0874               	movf	??___xxtofl,w
  4608  139D  07F9               	addwf	___xxtofl@exp,f
  4609  139E                     l3487:
  4610  139E  3001               	movlw	1
  4611  139F  07FA               	addwf	___xxtofl@arg,f
  4612  13A0  3000               	movlw	0
  4613  13A1  1803               	skipnc
  4614  13A2  3001               	movlw	1
  4615  13A3  07FB               	addwf	___xxtofl@arg+1,f
  4616  13A4  3000               	movlw	0
  4617  13A5  1803               	skipnc
  4618  13A6  3001               	movlw	1
  4619  13A7  07FC               	addwf	___xxtofl@arg+2,f
  4620  13A8  3000               	movlw	0
  4621  13A9  1803               	skipnc
  4622  13AA  3001               	movlw	1
  4623  13AB  07FD               	addwf	___xxtofl@arg+3,f
  4624  13AC                     l3489:
  4625  13AC  3001               	movlw	1
  4626  13AD                     u5725:
  4627  13AD  1003               	clrc
  4628  13AE  0CFD               	rrf	___xxtofl@arg+3,f
  4629  13AF  0CFC               	rrf	___xxtofl@arg+2,f
  4630  13B0  0CFB               	rrf	___xxtofl@arg+1,f
  4631  13B1  0CFA               	rrf	___xxtofl@arg,f
  4632  13B2  3EFF               	addlw	-1
  4633  13B3  1D03               	skipz
  4634  13B4  2BAD               	goto	u5725
  4635  13B5                     l607:
  4636  13B5  30FF               	movlw	255
  4637  13B6  057D               	andwf	___xxtofl@arg+3,w
  4638  13B7  1D03               	btfss	3,2
  4639  13B8  2BBA               	goto	u5731
  4640  13B9  2BBB               	goto	u5730
  4641  13BA                     u5731:
  4642  13BA  2B9A               	goto	l3485
  4643  13BB                     u5730:
  4644  13BB  2BC7               	goto	l3493
  4645  13BC                     l3491:
  4646  13BC  3001               	movlw	1
  4647  13BD  02F9               	subwf	___xxtofl@exp,f
  4648  13BE  3001               	movlw	1
  4649  13BF  00F4               	movwf	??___xxtofl
  4650  13C0                     u5745:
  4651  13C0  1003               	clrc
  4652  13C1  0DFA               	rlf	___xxtofl@arg,f
  4653  13C2  0DFB               	rlf	___xxtofl@arg+1,f
  4654  13C3  0DFC               	rlf	___xxtofl@arg+2,f
  4655  13C4  0DFD               	rlf	___xxtofl@arg+3,f
  4656  13C5  0BF4               	decfsz	??___xxtofl,f
  4657  13C6  2BC0               	goto	u5745
  4658  13C7                     l3493:
  4659  13C7  1BFC               	btfsc	___xxtofl@arg+2,7
  4660  13C8  2BCA               	goto	u5751
  4661  13C9  2BCB               	goto	u5750
  4662  13CA                     u5751:
  4663  13CA  2BD1               	goto	l614
  4664  13CB                     u5750:
  4665  13CB                     l3495:
  4666  13CB  3002               	movlw	2
  4667  13CC  0279               	subwf	___xxtofl@exp,w
  4668  13CD  1803               	skipnc
  4669  13CE  2BD0               	goto	u5761
  4670  13CF  2BD1               	goto	u5760
  4671  13D0                     u5761:
  4672  13D0  2BBC               	goto	l3491
  4673  13D1                     u5760:
  4674  13D1                     l614:
  4675  13D1  1879               	btfsc	___xxtofl@exp,0
  4676  13D2  2BD4               	goto	u5771
  4677  13D3  2BD5               	goto	u5770
  4678  13D4                     u5771:
  4679  13D4  2BDD               	goto	l615
  4680  13D5                     u5770:
  4681  13D5                     l3497:
  4682  13D5  30FF               	movlw	255
  4683  13D6  05FA               	andwf	___xxtofl@arg,f
  4684  13D7  30FF               	movlw	255
  4685  13D8  05FB               	andwf	___xxtofl@arg+1,f
  4686  13D9  307F               	movlw	127
  4687  13DA  05FC               	andwf	___xxtofl@arg+2,f
  4688  13DB  30FF               	movlw	255
  4689  13DC  05FD               	andwf	___xxtofl@arg+3,f
  4690  13DD                     l615:
  4691  13DD  1003               	clrc
  4692  13DE  0CF9               	rrf	___xxtofl@exp,f
  4693  13DF                     l3499:
  4694  13DF  0879               	movf	___xxtofl@exp,w
  4695  13E0  00F4               	movwf	??___xxtofl
  4696  13E1  01F5               	clrf	??___xxtofl+1
  4697  13E2  01F6               	clrf	??___xxtofl+2
  4698  13E3  01F7               	clrf	??___xxtofl+3
  4699  13E4  3018               	movlw	24
  4700  13E5                     u5785:
  4701  13E5  1003               	clrc
  4702  13E6  0DF4               	rlf	??___xxtofl,f
  4703  13E7  0DF5               	rlf	??___xxtofl+1,f
  4704  13E8  0DF6               	rlf	??___xxtofl+2,f
  4705  13E9  0DF7               	rlf	??___xxtofl+3,f
  4706  13EA                     u5780:
  4707  13EA  3EFF               	addlw	-1
  4708  13EB  1D03               	skipz
  4709  13EC  2BE5               	goto	u5785
  4710  13ED  0874               	movf	??___xxtofl,w
  4711  13EE  04FA               	iorwf	___xxtofl@arg,f
  4712  13EF  0875               	movf	??___xxtofl+1,w
  4713  13F0  04FB               	iorwf	___xxtofl@arg+1,f
  4714  13F1  0876               	movf	??___xxtofl+2,w
  4715  13F2  04FC               	iorwf	___xxtofl@arg+2,f
  4716  13F3  0877               	movf	??___xxtofl+3,w
  4717  13F4  04FD               	iorwf	___xxtofl@arg+3,f
  4718  13F5                     l3501:
  4719  13F5  0878               	movf	___xxtofl@sign,w
  4720  13F6  1903               	btfsc	3,2
  4721  13F7  2BF9               	goto	u5791
  4722  13F8  2BFA               	goto	u5790
  4723  13F9                     u5791:
  4724  13F9  2BFF               	goto	l3507
  4725  13FA                     u5790:
  4726  13FA                     l3503:
  4727  13FA  1FF3               	btfss	___xxtofl@val+3,7
  4728  13FB  2BFD               	goto	u5801
  4729  13FC  2BFE               	goto	u5800
  4730  13FD                     u5801:
  4731  13FD  2BFF               	goto	l3507
  4732  13FE                     u5800:
  4733  13FE                     l3505:
  4734  13FE  17FD               	bsf	___xxtofl@arg+3,7
  4735  13FF                     l3507:
  4736  13FF  087D               	movf	___xxtofl@arg+3,w
  4737  1400  00F3               	movwf	?___xxtofl+3
  4738  1401  087C               	movf	___xxtofl@arg+2,w
  4739  1402  00F2               	movwf	?___xxtofl+2
  4740  1403  087B               	movf	___xxtofl@arg+1,w
  4741  1404  00F1               	movwf	?___xxtofl+1
  4742  1405  087A               	movf	___xxtofl@arg,w
  4743  1406  00F0               	movwf	?___xxtofl
  4744  1407                     l603:
  4745  1407  0008               	return
  4746  1408                     __end_of___xxtofl:
  4747                           
  4748                           	psect	text10
  4749  119B                     __ptext10:	
  4750 ;; *************** function ___fltol *****************
  4751 ;; Defined at:
  4752 ;;		line 43 in file "C:\Program Files\Microchip\xc8\v2.36\pic\sources\c90\common\fltol.c"
  4753 ;; Parameters:    Size  Location     Type
  4754 ;;  f1              4   65[BANK0 ] unsigned char 
  4755 ;; Auto vars:     Size  Location     Type
  4756 ;;  exp1            1   75[BANK0 ] unsigned char 
  4757 ;;  sign1           1   74[BANK0 ] unsigned char 
  4758 ;; Return value:  Size  Location     Type
  4759 ;;                  4   65[BANK0 ] long 
  4760 ;; Registers used:
  4761 ;;		wreg, status,2, status,0
  4762 ;; Tracked objects:
  4763 ;;		On entry : 0/0
  4764 ;;		On exit  : 0/0
  4765 ;;		Unchanged: 0/0
  4766 ;; Data sizes:     COMMON   BANK0   BANK1   BANK3   BANK2
  4767 ;;      Params:         0       4       0       0       0
  4768 ;;      Locals:         0       2       0       0       0
  4769 ;;      Temps:          0       5       0       0       0
  4770 ;;      Totals:         0      11       0       0       0
  4771 ;;Total ram usage:       11 bytes
  4772 ;; Hardware stack levels used: 1
  4773 ;; This function calls:
  4774 ;;		Nothing
  4775 ;; This function is called by:
  4776 ;;		_pot_value
  4777 ;;		_pow
  4778 ;;		_exp
  4779 ;;		_floor
  4780 ;; This function uses a non-reentrant model
  4781 ;;
  4782                           
  4783  119B                     ___fltol:	
  4784                           ;psect for function ___fltol
  4785                           
  4786  119B                     l1987:	
  4787                           ;incstack = 0
  4788                           ; Regs used in ___fltol: [wreg+status,2+status,0]
  4789                           
  4790  119B  1003               	clrc
  4791  119C  1283               	bcf	3,5	;RP0=0, select bank0
  4792  119D  1303               	bcf	3,6	;RP1=0, select bank0
  4793  119E  0D63               	rlf	___fltol@f1+2,w
  4794  119F  0D64               	rlf	___fltol@f1+3,w
  4795  11A0  00E5               	movwf	??___fltol
  4796  11A1  0865               	movf	??___fltol,w
  4797  11A2  00EB               	movwf	___fltol@exp1
  4798  11A3  086B               	movf	___fltol@exp1,w
  4799  11A4  1D03               	btfss	3,2
  4800  11A5  29A7               	goto	u2491
  4801  11A6  29A8               	goto	u2490
  4802  11A7                     u2491:
  4803  11A7  29B1               	goto	l1993
  4804  11A8                     u2490:
  4805  11A8                     l1989:
  4806  11A8  3000               	movlw	0
  4807  11A9  00E4               	movwf	?___fltol+3
  4808  11AA  3000               	movlw	0
  4809  11AB  00E3               	movwf	?___fltol+2
  4810  11AC  3000               	movlw	0
  4811  11AD  00E2               	movwf	?___fltol+1
  4812  11AE  3000               	movlw	0
  4813  11AF  00E1               	movwf	?___fltol
  4814  11B0  2A16               	goto	l354
  4815  11B1                     l1993:
  4816  11B1  0861               	movf	___fltol@f1,w
  4817  11B2  00E5               	movwf	??___fltol
  4818  11B3  0862               	movf	___fltol@f1+1,w
  4819  11B4  00E6               	movwf	??___fltol+1
  4820  11B5  0863               	movf	___fltol@f1+2,w
  4821  11B6  00E7               	movwf	??___fltol+2
  4822  11B7  0864               	movf	___fltol@f1+3,w
  4823  11B8  00E8               	movwf	??___fltol+3
  4824  11B9  301F               	movlw	31
  4825  11BA                     u2505:
  4826  11BA  1003               	clrc
  4827  11BB  0CE8               	rrf	??___fltol+3,f
  4828  11BC  0CE7               	rrf	??___fltol+2,f
  4829  11BD  0CE6               	rrf	??___fltol+1,f
  4830  11BE  0CE5               	rrf	??___fltol,f
  4831  11BF                     u2500:
  4832  11BF  3EFF               	addlw	-1
  4833  11C0  1D03               	skipz
  4834  11C1  29BA               	goto	u2505
  4835  11C2  0865               	movf	??___fltol,w
  4836  11C3  00E9               	movwf	??___fltol+4
  4837  11C4  0869               	movf	??___fltol+4,w
  4838  11C5  00EA               	movwf	___fltol@sign1
  4839  11C6                     l1995:
  4840  11C6  17E3               	bsf	___fltol@f1+2,7
  4841  11C7                     l1997:
  4842  11C7  30FF               	movlw	255
  4843  11C8  05E1               	andwf	___fltol@f1,f
  4844  11C9  30FF               	movlw	255
  4845  11CA  05E2               	andwf	___fltol@f1+1,f
  4846  11CB  30FF               	movlw	255
  4847  11CC  05E3               	andwf	___fltol@f1+2,f
  4848  11CD  3000               	movlw	0
  4849  11CE  05E4               	andwf	___fltol@f1+3,f
  4850  11CF                     l1999:
  4851  11CF  3096               	movlw	150
  4852  11D0  02EB               	subwf	___fltol@exp1,f
  4853  11D1                     l2001:
  4854  11D1  1FEB               	btfss	___fltol@exp1,7
  4855  11D2  29D4               	goto	u2511
  4856  11D3  29D5               	goto	u2510
  4857  11D4                     u2511:
  4858  11D4  29EF               	goto	l2011
  4859  11D5                     u2510:
  4860  11D5                     l2003:
  4861  11D5  086B               	movf	___fltol@exp1,w
  4862  11D6  3A80               	xorlw	128
  4863  11D7  3E97               	addlw	151
  4864  11D8  1803               	skipnc
  4865  11D9  29DB               	goto	u2521
  4866  11DA  29DC               	goto	u2520
  4867  11DB                     u2521:
  4868  11DB  29DD               	goto	l2009
  4869  11DC                     u2520:
  4870  11DC  29A8               	goto	l1989
  4871  11DD                     l2009:
  4872  11DD  3001               	movlw	1
  4873  11DE                     u2535:
  4874  11DE  1003               	clrc
  4875  11DF  0CE4               	rrf	___fltol@f1+3,f
  4876  11E0  0CE3               	rrf	___fltol@f1+2,f
  4877  11E1  0CE2               	rrf	___fltol@f1+1,f
  4878  11E2  0CE1               	rrf	___fltol@f1,f
  4879  11E3  3EFF               	addlw	-1
  4880  11E4  1D03               	skipz
  4881  11E5  29DE               	goto	u2535
  4882  11E6  3001               	movlw	1
  4883  11E7  00E5               	movwf	??___fltol
  4884  11E8  0865               	movf	??___fltol,w
  4885  11E9  07EB               	addwf	___fltol@exp1,f
  4886  11EA  1D03               	btfss	3,2
  4887  11EB  29ED               	goto	u2541
  4888  11EC  29EE               	goto	u2540
  4889  11ED                     u2541:
  4890  11ED  29DD               	goto	l2009
  4891  11EE                     u2540:
  4892  11EE  2A06               	goto	l2019
  4893  11EF                     l2011:
  4894  11EF  3020               	movlw	32
  4895  11F0  026B               	subwf	___fltol@exp1,w
  4896  11F1  1C03               	skipc
  4897  11F2  29F4               	goto	u2551
  4898  11F3  29F5               	goto	u2550
  4899  11F4                     u2551:
  4900  11F4  2A01               	goto	l361
  4901  11F5                     u2550:
  4902  11F5  29A8               	goto	l1989
  4903  11F6                     l2017:
  4904  11F6  3001               	movlw	1
  4905  11F7  00E5               	movwf	??___fltol
  4906  11F8                     u2565:
  4907  11F8  1003               	clrc
  4908  11F9  0DE1               	rlf	___fltol@f1,f
  4909  11FA  0DE2               	rlf	___fltol@f1+1,f
  4910  11FB  0DE3               	rlf	___fltol@f1+2,f
  4911  11FC  0DE4               	rlf	___fltol@f1+3,f
  4912  11FD  0BE5               	decfsz	??___fltol,f
  4913  11FE  29F8               	goto	u2565
  4914  11FF  3001               	movlw	1
  4915  1200  02EB               	subwf	___fltol@exp1,f
  4916  1201                     l361:
  4917  1201  086B               	movf	___fltol@exp1,w
  4918  1202  1D03               	btfss	3,2
  4919  1203  2A05               	goto	u2571
  4920  1204  2A06               	goto	u2570
  4921  1205                     u2571:
  4922  1205  29F6               	goto	l2017
  4923  1206                     u2570:
  4924  1206                     l2019:
  4925  1206  086A               	movf	___fltol@sign1,w
  4926  1207  1903               	btfsc	3,2
  4927  1208  2A0A               	goto	u2581
  4928  1209  2A0B               	goto	u2580
  4929  120A                     u2581:
  4930  120A  2A16               	goto	l364
  4931  120B                     u2580:
  4932  120B                     l2021:
  4933  120B  09E1               	comf	___fltol@f1,f
  4934  120C  09E2               	comf	___fltol@f1+1,f
  4935  120D  09E3               	comf	___fltol@f1+2,f
  4936  120E  09E4               	comf	___fltol@f1+3,f
  4937  120F  0AE1               	incf	___fltol@f1,f
  4938  1210  1903               	skipnz
  4939  1211  0AE2               	incf	___fltol@f1+1,f
  4940  1212  1903               	skipnz
  4941  1213  0AE3               	incf	___fltol@f1+2,f
  4942  1214  1903               	skipnz
  4943  1215  0AE4               	incf	___fltol@f1+3,f
  4944  1216                     l364:
  4945  1216                     l354:
  4946  1216  0008               	return
  4947  1217                     __end_of___fltol:
  4948                           
  4949                           	psect	text11
  4950  12AC                     __ptext11:	
  4951 ;; *************** function ___flge *****************
  4952 ;; Defined at:
  4953 ;;		line 4 in file "C:\Program Files\Microchip\xc8\v2.36\pic\sources\c90\common\flge.c"
  4954 ;; Parameters:    Size  Location     Type
  4955 ;;  ff1             4    0[COMMON] long 
  4956 ;;  ff2             4    4[COMMON] long 
  4957 ;; Auto vars:     Size  Location     Type
  4958 ;;		None
  4959 ;; Return value:  Size  Location     Type
  4960 ;;		None               void
  4961 ;; Registers used:
  4962 ;;		wreg, status,2, status,0
  4963 ;; Tracked objects:
  4964 ;;		On entry : 0/0
  4965 ;;		On exit  : 0/0
  4966 ;;		Unchanged: 0/0
  4967 ;; Data sizes:     COMMON   BANK0   BANK1   BANK3   BANK2
  4968 ;;      Params:         8       0       0       0       0
  4969 ;;      Locals:         0       0       0       0       0
  4970 ;;      Temps:          4       0       0       0       0
  4971 ;;      Totals:        12       0       0       0       0
  4972 ;;Total ram usage:       12 bytes
  4973 ;; Hardware stack levels used: 1
  4974 ;; This function calls:
  4975 ;;		Nothing
  4976 ;; This function is called by:
  4977 ;;		_pow
  4978 ;;		_exp
  4979 ;;		_floor
  4980 ;;		_ldexp
  4981 ;;		_log
  4982 ;; This function uses a non-reentrant model
  4983 ;;
  4984                           
  4985  12AC                     ___flge:	
  4986                           ;psect for function ___flge
  4987                           
  4988  12AC                     l3113:	
  4989                           ;incstack = 0
  4990                           ; Regs used in ___flge: [wreg+status,2+status,0]
  4991                           
  4992  12AC  3000               	movlw	0
  4993  12AD  0570               	andwf	___flge@ff1,w
  4994  12AE  00F8               	movwf	??___flge
  4995  12AF  3000               	movlw	0
  4996  12B0  0571               	andwf	___flge@ff1+1,w
  4997  12B1  00F9               	movwf	??___flge+1
  4998  12B2  3080               	movlw	128
  4999  12B3  0572               	andwf	___flge@ff1+2,w
  5000  12B4  00FA               	movwf	??___flge+2
  5001  12B5  307F               	movlw	127
  5002  12B6  0573               	andwf	___flge@ff1+3,w
  5003  12B7  00FB               	movwf	??___flge+3
  5004  12B8  087B               	movf	??___flge+3,w
  5005  12B9  047A               	iorwf	??___flge+2,w
  5006  12BA  0479               	iorwf	??___flge+1,w
  5007  12BB  0478               	iorwf	??___flge,w
  5008  12BC  1D03               	skipz
  5009  12BD  2ABF               	goto	u4771
  5010  12BE  2AC0               	goto	u4770
  5011  12BF                     u4771:
  5012  12BF  2AC8               	goto	l342
  5013  12C0                     u4770:
  5014  12C0                     l3115:
  5015  12C0  3000               	movlw	0
  5016  12C1  00F3               	movwf	___flge@ff1+3
  5017  12C2  3000               	movlw	0
  5018  12C3  00F2               	movwf	___flge@ff1+2
  5019  12C4  3000               	movlw	0
  5020  12C5  00F1               	movwf	___flge@ff1+1
  5021  12C6  3000               	movlw	0
  5022  12C7  00F0               	movwf	___flge@ff1
  5023  12C8                     l342:
  5024  12C8  3000               	movlw	0
  5025  12C9  0574               	andwf	___flge@ff2,w
  5026  12CA  00F8               	movwf	??___flge
  5027  12CB  3000               	movlw	0
  5028  12CC  0575               	andwf	___flge@ff2+1,w
  5029  12CD  00F9               	movwf	??___flge+1
  5030  12CE  3080               	movlw	128
  5031  12CF  0576               	andwf	___flge@ff2+2,w
  5032  12D0  00FA               	movwf	??___flge+2
  5033  12D1  307F               	movlw	127
  5034  12D2  0577               	andwf	___flge@ff2+3,w
  5035  12D3  00FB               	movwf	??___flge+3
  5036  12D4  087B               	movf	??___flge+3,w
  5037  12D5  047A               	iorwf	??___flge+2,w
  5038  12D6  0479               	iorwf	??___flge+1,w
  5039  12D7  0478               	iorwf	??___flge,w
  5040  12D8  1D03               	skipz
  5041  12D9  2ADB               	goto	u4781
  5042  12DA  2ADC               	goto	u4780
  5043  12DB                     u4781:
  5044  12DB  2AE4               	goto	l3119
  5045  12DC                     u4780:
  5046  12DC                     l3117:
  5047  12DC  3000               	movlw	0
  5048  12DD  00F7               	movwf	___flge@ff2+3
  5049  12DE  3000               	movlw	0
  5050  12DF  00F6               	movwf	___flge@ff2+2
  5051  12E0  3000               	movlw	0
  5052  12E1  00F5               	movwf	___flge@ff2+1
  5053  12E2  3000               	movlw	0
  5054  12E3  00F4               	movwf	___flge@ff2
  5055  12E4                     l3119:
  5056  12E4  1FF3               	btfss	___flge@ff1+3,7
  5057  12E5  2AE7               	goto	u4791
  5058  12E6  2AE8               	goto	u4790
  5059  12E7                     u4791:
  5060  12E7  2B0C               	goto	l3123
  5061  12E8                     u4790:
  5062  12E8                     l3121:
  5063  12E8  3000               	movlw	0
  5064  12E9  00F8               	movwf	??___flge
  5065  12EA  3000               	movlw	0
  5066  12EB  00F9               	movwf	??___flge+1
  5067  12EC  3000               	movlw	0
  5068  12ED  00FA               	movwf	??___flge+2
  5069  12EE  3080               	movlw	128
  5070  12EF  00FB               	movwf	??___flge+3
  5071  12F0  0870               	movf	___flge@ff1,w
  5072  12F1  02F8               	subwf	??___flge,f
  5073  12F2  0871               	movf	___flge@ff1+1,w
  5074  12F3  1C03               	skipc
  5075  12F4  0F71               	incfsz	___flge@ff1+1,w
  5076  12F5  2AF7               	goto	u4801
  5077  12F6  2AF8               	goto	u4802
  5078  12F7                     u4801:
  5079  12F7  02F9               	subwf	??___flge+1,f
  5080  12F8                     u4802:
  5081  12F8  0872               	movf	___flge@ff1+2,w
  5082  12F9  1C03               	skipc
  5083  12FA  0F72               	incfsz	___flge@ff1+2,w
  5084  12FB  2AFD               	goto	u4803
  5085  12FC  2AFE               	goto	u4804
  5086  12FD                     u4803:
  5087  12FD  02FA               	subwf	??___flge+2,f
  5088  12FE                     u4804:
  5089  12FE  0873               	movf	___flge@ff1+3,w
  5090  12FF  1C03               	skipc
  5091  1300  0F73               	incfsz	___flge@ff1+3,w
  5092  1301  2B03               	goto	u4805
  5093  1302  2B04               	goto	u4806
  5094  1303                     u4805:
  5095  1303  02FB               	subwf	??___flge+3,f
  5096  1304                     u4806:
  5097  1304  087B               	movf	??___flge+3,w
  5098  1305  00F3               	movwf	___flge@ff1+3
  5099  1306  087A               	movf	??___flge+2,w
  5100  1307  00F2               	movwf	___flge@ff1+2
  5101  1308  0879               	movf	??___flge+1,w
  5102  1309  00F1               	movwf	___flge@ff1+1
  5103  130A  0878               	movf	??___flge,w
  5104  130B  00F0               	movwf	___flge@ff1
  5105  130C                     l3123:
  5106  130C  1FF7               	btfss	___flge@ff2+3,7
  5107  130D  2B0F               	goto	u4811
  5108  130E  2B10               	goto	u4810
  5109  130F                     u4811:
  5110  130F  2B34               	goto	l345
  5111  1310                     u4810:
  5112  1310                     l3125:
  5113  1310  3000               	movlw	0
  5114  1311  00F8               	movwf	??___flge
  5115  1312  3000               	movlw	0
  5116  1313  00F9               	movwf	??___flge+1
  5117  1314  3000               	movlw	0
  5118  1315  00FA               	movwf	??___flge+2
  5119  1316  3080               	movlw	128
  5120  1317  00FB               	movwf	??___flge+3
  5121  1318  0874               	movf	___flge@ff2,w
  5122  1319  02F8               	subwf	??___flge,f
  5123  131A  0875               	movf	___flge@ff2+1,w
  5124  131B  1C03               	skipc
  5125  131C  0F75               	incfsz	___flge@ff2+1,w
  5126  131D  2B1F               	goto	u4821
  5127  131E  2B20               	goto	u4822
  5128  131F                     u4821:
  5129  131F  02F9               	subwf	??___flge+1,f
  5130  1320                     u4822:
  5131  1320  0876               	movf	___flge@ff2+2,w
  5132  1321  1C03               	skipc
  5133  1322  0F76               	incfsz	___flge@ff2+2,w
  5134  1323  2B25               	goto	u4823
  5135  1324  2B26               	goto	u4824
  5136  1325                     u4823:
  5137  1325  02FA               	subwf	??___flge+2,f
  5138  1326                     u4824:
  5139  1326  0877               	movf	___flge@ff2+3,w
  5140  1327  1C03               	skipc
  5141  1328  0F77               	incfsz	___flge@ff2+3,w
  5142  1329  2B2B               	goto	u4825
  5143  132A  2B2C               	goto	u4826
  5144  132B                     u4825:
  5145  132B  02FB               	subwf	??___flge+3,f
  5146  132C                     u4826:
  5147  132C  087B               	movf	??___flge+3,w
  5148  132D  00F7               	movwf	___flge@ff2+3
  5149  132E  087A               	movf	??___flge+2,w
  5150  132F  00F6               	movwf	___flge@ff2+2
  5151  1330  0879               	movf	??___flge+1,w
  5152  1331  00F5               	movwf	___flge@ff2+1
  5153  1332  0878               	movf	??___flge,w
  5154  1333  00F4               	movwf	___flge@ff2
  5155  1334                     l345:
  5156  1334  3080               	movlw	128
  5157  1335  06F3               	xorwf	___flge@ff1+3,f
  5158  1336  3080               	movlw	128
  5159  1337  06F7               	xorwf	___flge@ff2+3,f
  5160  1338  0877               	movf	___flge@ff2+3,w
  5161  1339  0273               	subwf	___flge@ff1+3,w
  5162  133A  1D03               	skipz
  5163  133B  2B46               	goto	u4835
  5164  133C  0876               	movf	___flge@ff2+2,w
  5165  133D  0272               	subwf	___flge@ff1+2,w
  5166  133E  1D03               	skipz
  5167  133F  2B46               	goto	u4835
  5168  1340  0875               	movf	___flge@ff2+1,w
  5169  1341  0271               	subwf	___flge@ff1+1,w
  5170  1342  1D03               	skipz
  5171  1343  2B46               	goto	u4835
  5172  1344  0874               	movf	___flge@ff2,w
  5173  1345  0270               	subwf	___flge@ff1,w
  5174  1346                     u4835:
  5175  1346  1803               	skipnc
  5176  1347  2B49               	goto	u4831
  5177  1348  2B4A               	goto	u4830
  5178  1349                     u4831:
  5179  1349  2B4C               	goto	l3129
  5180  134A                     u4830:
  5181  134A                     l3127:
  5182  134A  1003               	clrc
  5183  134B  2B4D               	goto	l346
  5184  134C                     l3129:
  5185  134C  1403               	setc
  5186  134D                     l346:
  5187  134D  0008               	return
  5188  134E                     __end_of___flge:
  5189                           
  5190                           	psect	text12
  5191  14C8                     __ptext12:	
  5192 ;; *************** function _eval_poly *****************
  5193 ;; Defined at:
  5194 ;;		line 4 in file "C:\Program Files\Microchip\xc8\v2.36\pic\sources\c90\common\evalpoly.c"
  5195 ;; Parameters:    Size  Location     Type
  5196 ;;  x               4   65[BANK0 ] long 
  5197 ;;  d               1   69[BANK0 ] PTR const 
  5198 ;;		 -> log@coeff(36), exp@coeff(40), 
  5199 ;;  n               2   70[BANK0 ] int 
  5200 ;; Auto vars:     Size  Location     Type
  5201 ;;  res             4    0[BANK1 ] int 
  5202 ;; Return value:  Size  Location     Type
  5203 ;;                  4   65[BANK0 ] int 
  5204 ;; Registers used:
  5205 ;;		wreg, fsr0l, fsr0h, status,2, status,0, btemp+1, pclath, cstack
  5206 ;; Tracked objects:
  5207 ;;		On entry : 0/0
  5208 ;;		On exit  : 0/0
  5209 ;;		Unchanged: 0/0
  5210 ;; Data sizes:     COMMON   BANK0   BANK1   BANK3   BANK2
  5211 ;;      Params:         0       7       0       0       0
  5212 ;;      Locals:         0       0       4       0       0
  5213 ;;      Temps:          0       5       0       0       0
  5214 ;;      Totals:         0      12       4       0       0
  5215 ;;Total ram usage:       16 bytes
  5216 ;; Hardware stack levels used: 1
  5217 ;; Hardware stack levels required when called: 2
  5218 ;; This function calls:
  5219 ;;		___fladd
  5220 ;;		___flmul
  5221 ;; This function is called by:
  5222 ;;		_exp
  5223 ;;		_log
  5224 ;; This function uses a non-reentrant model
  5225 ;;
  5226                           
  5227  14C8                     _eval_poly:	
  5228                           ;psect for function _eval_poly
  5229                           
  5230  14C8                     l3565:	
  5231                           ;incstack = 0
  5232                           ; Regs used in _eval_poly: [wreg-fsr0h+status,2+status,0+btemp+1+pclath+cstack]
  5233                           
  5234  14C8  1283               	bcf	3,5	;RP0=0, select bank0
  5235  14C9  1303               	bcf	3,6	;RP1=0, select bank0
  5236  14CA  0866               	movf	eval_poly@n,w
  5237  14CB  00E8               	movwf	??_eval_poly
  5238  14CC  3001               	movlw	1
  5239  14CD                     u5865:
  5240  14CD  1003               	clrc
  5241  14CE  0DE8               	rlf	??_eval_poly,f
  5242  14CF  3EFF               	addlw	-1
  5243  14D0  1D03               	skipz
  5244  14D1  2CCD               	goto	u5865
  5245  14D2  1003               	clrc
  5246  14D3  0D68               	rlf	??_eval_poly,w
  5247  14D4  0765               	addwf	eval_poly@d,w
  5248  14D5  0084               	movwf	4
  5249  14D6  120A  158A  2000  160A  118A  	fcall	stringdir
  5250  14DB  00E9               	movwf	??_eval_poly+1
  5251  14DC  120A  158A  2000  160A  118A  	fcall	stringdir
  5252  14E1  00EA               	movwf	??_eval_poly+2
  5253  14E2  120A  158A  2000  160A  118A  	fcall	stringdir
  5254  14E7  00EB               	movwf	??_eval_poly+3
  5255  14E8  120A  158A  2000  160A  118A  	fcall	stringdir
  5256  14ED  00EC               	movwf	??_eval_poly+4
  5257  14EE  086C               	movf	??_eval_poly+4,w
  5258  14EF  1683               	bsf	3,5	;RP0=1, select bank1
  5259  14F0  1303               	bcf	3,6	;RP1=0, select bank1
  5260  14F1  00A3               	movwf	(eval_poly@res+3)^(0+128)
  5261  14F2  1283               	bcf	3,5	;RP0=0, select bank0
  5262  14F3  1303               	bcf	3,6	;RP1=0, select bank0
  5263  14F4  086B               	movf	??_eval_poly+3,w
  5264  14F5  1683               	bsf	3,5	;RP0=1, select bank1
  5265  14F6  1303               	bcf	3,6	;RP1=0, select bank1
  5266  14F7  00A2               	movwf	(eval_poly@res+2)^(0+128)
  5267  14F8  1283               	bcf	3,5	;RP0=0, select bank0
  5268  14F9  1303               	bcf	3,6	;RP1=0, select bank0
  5269  14FA  086A               	movf	??_eval_poly+2,w
  5270  14FB  1683               	bsf	3,5	;RP0=1, select bank1
  5271  14FC  1303               	bcf	3,6	;RP1=0, select bank1
  5272  14FD  00A1               	movwf	(eval_poly@res+1)^(0+128)
  5273  14FE  1283               	bcf	3,5	;RP0=0, select bank0
  5274  14FF  1303               	bcf	3,6	;RP1=0, select bank0
  5275  1500  0869               	movf	??_eval_poly+1,w
  5276  1501  1683               	bsf	3,5	;RP0=1, select bank1
  5277  1502  1303               	bcf	3,6	;RP1=0, select bank1
  5278  1503  00A0               	movwf	eval_poly@res^(0+128)
  5279  1504  2D83               	goto	l3569
  5280  1505                     l3567:
  5281  1505  30FF               	movlw	255
  5282  1506  07E6               	addwf	eval_poly@n,f
  5283  1507  1803               	skipnc
  5284  1508  0AE7               	incf	eval_poly@n+1,f
  5285  1509  30FF               	movlw	255
  5286  150A  07E7               	addwf	eval_poly@n+1,f
  5287  150B  0866               	movf	eval_poly@n,w
  5288  150C  00E8               	movwf	??_eval_poly
  5289  150D  3001               	movlw	1
  5290  150E                     u5875:
  5291  150E  1003               	clrc
  5292  150F  0DE8               	rlf	??_eval_poly,f
  5293  1510  3EFF               	addlw	-1
  5294  1511  1D03               	skipz
  5295  1512  2D0E               	goto	u5875
  5296  1513  1003               	clrc
  5297  1514  0D68               	rlf	??_eval_poly,w
  5298  1515  0765               	addwf	eval_poly@d,w
  5299  1516  0084               	movwf	4
  5300  1517  120A  158A  2000  160A  118A  	fcall	stringdir
  5301  151C  00E9               	movwf	??_eval_poly+1
  5302  151D  120A  158A  2000  160A  118A  	fcall	stringdir
  5303  1522  00EA               	movwf	??_eval_poly+2
  5304  1523  120A  158A  2000  160A  118A  	fcall	stringdir
  5305  1528  00EB               	movwf	??_eval_poly+3
  5306  1529  120A  158A  2000  160A  118A  	fcall	stringdir
  5307  152E  00EC               	movwf	??_eval_poly+4
  5308  152F  086C               	movf	??_eval_poly+4,w
  5309  1530  00D0               	movwf	___fladd@b+3
  5310  1531  086B               	movf	??_eval_poly+3,w
  5311  1532  00CF               	movwf	___fladd@b+2
  5312  1533  086A               	movf	??_eval_poly+2,w
  5313  1534  00CE               	movwf	___fladd@b+1
  5314  1535  0869               	movf	??_eval_poly+1,w
  5315  1536  00CD               	movwf	___fladd@b
  5316  1537  1683               	bsf	3,5	;RP0=1, select bank1
  5317  1538  1303               	bcf	3,6	;RP1=0, select bank1
  5318  1539  0823               	movf	(eval_poly@res+3)^(0+128),w
  5319  153A  1283               	bcf	3,5	;RP0=0, select bank0
  5320  153B  1303               	bcf	3,6	;RP1=0, select bank0
  5321  153C  00B6               	movwf	___flmul@b+3
  5322  153D  1683               	bsf	3,5	;RP0=1, select bank1
  5323  153E  1303               	bcf	3,6	;RP1=0, select bank1
  5324  153F  0822               	movf	(eval_poly@res+2)^(0+128),w
  5325  1540  1283               	bcf	3,5	;RP0=0, select bank0
  5326  1541  1303               	bcf	3,6	;RP1=0, select bank0
  5327  1542  00B5               	movwf	___flmul@b+2
  5328  1543  1683               	bsf	3,5	;RP0=1, select bank1
  5329  1544  1303               	bcf	3,6	;RP1=0, select bank1
  5330  1545  0821               	movf	(eval_poly@res+1)^(0+128),w
  5331  1546  1283               	bcf	3,5	;RP0=0, select bank0
  5332  1547  1303               	bcf	3,6	;RP1=0, select bank0
  5333  1548  00B4               	movwf	___flmul@b+1
  5334  1549  1683               	bsf	3,5	;RP0=1, select bank1
  5335  154A  1303               	bcf	3,6	;RP1=0, select bank1
  5336  154B  0820               	movf	eval_poly@res^(0+128),w
  5337  154C  1283               	bcf	3,5	;RP0=0, select bank0
  5338  154D  1303               	bcf	3,6	;RP1=0, select bank0
  5339  154E  00B3               	movwf	___flmul@b
  5340  154F  0864               	movf	eval_poly@x+3,w
  5341  1550  00BA               	movwf	___flmul@a+3
  5342  1551  0863               	movf	eval_poly@x+2,w
  5343  1552  00B9               	movwf	___flmul@a+2
  5344  1553  0862               	movf	eval_poly@x+1,w
  5345  1554  00B8               	movwf	___flmul@a+1
  5346  1555  0861               	movf	eval_poly@x,w
  5347  1556  00B7               	movwf	___flmul@a
  5348  1557  120A  118A  2489  160A  118A  	fcall	___flmul
  5349  155C  1283               	bcf	3,5	;RP0=0, select bank0
  5350  155D  1303               	bcf	3,6	;RP1=0, select bank0
  5351  155E  0836               	movf	?___flmul+3,w
  5352  155F  00D4               	movwf	___fladd@a+3
  5353  1560  0835               	movf	?___flmul+2,w
  5354  1561  00D3               	movwf	___fladd@a+2
  5355  1562  0834               	movf	?___flmul+1,w
  5356  1563  00D2               	movwf	___fladd@a+1
  5357  1564  0833               	movf	?___flmul,w
  5358  1565  00D1               	movwf	___fladd@a
  5359  1566  120A  158A  2578  160A  118A  	fcall	___fladd
  5360  156B  1283               	bcf	3,5	;RP0=0, select bank0
  5361  156C  1303               	bcf	3,6	;RP1=0, select bank0
  5362  156D  0850               	movf	?___fladd+3,w
  5363  156E  1683               	bsf	3,5	;RP0=1, select bank1
  5364  156F  1303               	bcf	3,6	;RP1=0, select bank1
  5365  1570  00A3               	movwf	(eval_poly@res+3)^(0+128)
  5366  1571  1283               	bcf	3,5	;RP0=0, select bank0
  5367  1572  1303               	bcf	3,6	;RP1=0, select bank0
  5368  1573  084F               	movf	?___fladd+2,w
  5369  1574  1683               	bsf	3,5	;RP0=1, select bank1
  5370  1575  1303               	bcf	3,6	;RP1=0, select bank1
  5371  1576  00A2               	movwf	(eval_poly@res+2)^(0+128)
  5372  1577  1283               	bcf	3,5	;RP0=0, select bank0
  5373  1578  1303               	bcf	3,6	;RP1=0, select bank0
  5374  1579  084E               	movf	?___fladd+1,w
  5375  157A  1683               	bsf	3,5	;RP0=1, select bank1
  5376  157B  1303               	bcf	3,6	;RP1=0, select bank1
  5377  157C  00A1               	movwf	(eval_poly@res+1)^(0+128)
  5378  157D  1283               	bcf	3,5	;RP0=0, select bank0
  5379  157E  1303               	bcf	3,6	;RP1=0, select bank0
  5380  157F  084D               	movf	?___fladd,w
  5381  1580  1683               	bsf	3,5	;RP0=1, select bank1
  5382  1581  1303               	bcf	3,6	;RP1=0, select bank1
  5383  1582  00A0               	movwf	eval_poly@res^(0+128)
  5384  1583                     l3569:
  5385  1583  1283               	bcf	3,5	;RP0=0, select bank0
  5386  1584  1303               	bcf	3,6	;RP1=0, select bank0
  5387  1585  0866               	movf	eval_poly@n,w
  5388  1586  0467               	iorwf	eval_poly@n+1,w
  5389  1587  1D03               	btfss	3,2
  5390  1588  2D8A               	goto	u5881
  5391  1589  2D8B               	goto	u5880
  5392  158A                     u5881:
  5393  158A  2D05               	goto	l3567
  5394  158B                     u5880:
  5395  158B                     l3571:
  5396  158B  1683               	bsf	3,5	;RP0=1, select bank1
  5397  158C  1303               	bcf	3,6	;RP1=0, select bank1
  5398  158D  0823               	movf	(eval_poly@res+3)^(0+128),w
  5399  158E  1283               	bcf	3,5	;RP0=0, select bank0
  5400  158F  1303               	bcf	3,6	;RP1=0, select bank0
  5401  1590  00E4               	movwf	?_eval_poly+3
  5402  1591  1683               	bsf	3,5	;RP0=1, select bank1
  5403  1592  1303               	bcf	3,6	;RP1=0, select bank1
  5404  1593  0822               	movf	(eval_poly@res+2)^(0+128),w
  5405  1594  1283               	bcf	3,5	;RP0=0, select bank0
  5406  1595  1303               	bcf	3,6	;RP1=0, select bank0
  5407  1596  00E3               	movwf	?_eval_poly+2
  5408  1597  1683               	bsf	3,5	;RP0=1, select bank1
  5409  1598  1303               	bcf	3,6	;RP1=0, select bank1
  5410  1599  0821               	movf	(eval_poly@res+1)^(0+128),w
  5411  159A  1283               	bcf	3,5	;RP0=0, select bank0
  5412  159B  1303               	bcf	3,6	;RP1=0, select bank0
  5413  159C  00E2               	movwf	?_eval_poly+1
  5414  159D  1683               	bsf	3,5	;RP0=1, select bank1
  5415  159E  1303               	bcf	3,6	;RP1=0, select bank1
  5416  159F  0820               	movf	eval_poly@res^(0+128),w
  5417  15A0  1283               	bcf	3,5	;RP0=0, select bank0
  5418  15A1  1303               	bcf	3,6	;RP1=0, select bank0
  5419  15A2  00E1               	movwf	?_eval_poly
  5420  15A3                     l658:
  5421  15A3  0008               	return
  5422  15A4                     __end_of_eval_poly:
  5423                           
  5424                           	psect	text13
  5425  0489                     __ptext13:	
  5426 ;; *************** function ___flmul *****************
  5427 ;; Defined at:
  5428 ;;		line 8 in file "C:\Program Files\Microchip\xc8\v2.36\pic\sources\c90\common\sprcmul.c"
  5429 ;; Parameters:    Size  Location     Type
  5430 ;;  b               4   19[BANK0 ] int 
  5431 ;;  a               4   23[BANK0 ] int 
  5432 ;; Auto vars:     Size  Location     Type
  5433 ;;  prod            4   39[BANK0 ] struct .
  5434 ;;  grs             4   34[BANK0 ] unsigned long 
  5435 ;;  temp            2   43[BANK0 ] struct .
  5436 ;;  bexp            1   38[BANK0 ] unsigned char 
  5437 ;;  aexp            1   33[BANK0 ] unsigned char 
  5438 ;;  sign            1   32[BANK0 ] unsigned char 
  5439 ;; Return value:  Size  Location     Type
  5440 ;;                  4   19[BANK0 ] unsigned char 
  5441 ;; Registers used:
  5442 ;;		wreg, status,2, status,0, btemp+1, pclath, cstack
  5443 ;; Tracked objects:
  5444 ;;		On entry : 0/0
  5445 ;;		On exit  : 0/0
  5446 ;;		Unchanged: 0/0
  5447 ;; Data sizes:     COMMON   BANK0   BANK1   BANK3   BANK2
  5448 ;;      Params:         0       8       0       0       0
  5449 ;;      Locals:         0      13       0       0       0
  5450 ;;      Temps:          0       5       0       0       0
  5451 ;;      Totals:         0      26       0       0       0
  5452 ;;Total ram usage:       26 bytes
  5453 ;; Hardware stack levels used: 1
  5454 ;; Hardware stack levels required when called: 1
  5455 ;; This function calls:
  5456 ;;		__Umul8_16
  5457 ;; This function is called by:
  5458 ;;		_pot_value
  5459 ;;		_pow
  5460 ;;		_exp
  5461 ;;		_eval_poly
  5462 ;;		_log
  5463 ;; This function uses a non-reentrant model
  5464 ;;
  5465                           
  5466  0489                     ___flmul:	
  5467                           ;psect for function ___flmul
  5468                           
  5469  0489                     l3327:	
  5470                           ;incstack = 0
  5471                           ; Regs used in ___flmul: [wreg+status,2+status,0+btemp+1+pclath+cstack]
  5472                           
  5473  0489  1283               	bcf	3,5	;RP0=0, select bank0
  5474  048A  1303               	bcf	3,6	;RP1=0, select bank0
  5475  048B  0836               	movf	___flmul@b+3,w
  5476  048C  3980               	andlw	128
  5477  048D  00BB               	movwf	??___flmul
  5478  048E  083B               	movf	??___flmul,w
  5479  048F  00C0               	movwf	___flmul@sign
  5480  0490                     l3329:
  5481  0490  0836               	movf	___flmul@b+3,w
  5482  0491  00BB               	movwf	??___flmul
  5483  0492  073B               	addwf	??___flmul,w
  5484  0493  00BC               	movwf	??___flmul+1
  5485  0494  083C               	movf	??___flmul+1,w
  5486  0495  00C6               	movwf	___flmul@bexp
  5487  0496                     l3331:
  5488  0496  1FB5               	btfss	___flmul@b+2,7
  5489  0497  2C99               	goto	u5301
  5490  0498  2C9A               	goto	u5300
  5491  0499                     u5301:
  5492  0499  2C9B               	goto	l3335
  5493  049A                     u5300:
  5494  049A                     l3333:
  5495  049A  1446               	bsf	___flmul@bexp,0
  5496  049B                     l3335:
  5497  049B  0846               	movf	___flmul@bexp,w
  5498  049C  1903               	btfsc	3,2
  5499  049D  2C9F               	goto	u5311
  5500  049E  2CA0               	goto	u5310
  5501  049F                     u5311:
  5502  049F  2CAF               	goto	l3343
  5503  04A0                     u5310:
  5504  04A0                     l3337:
  5505  04A0  0A46               	incf	___flmul@bexp,w
  5506  04A1  1D03               	btfss	3,2
  5507  04A2  2CA4               	goto	u5321
  5508  04A3  2CA5               	goto	u5320
  5509  04A4                     u5321:
  5510  04A4  2CAD               	goto	l3341
  5511  04A5                     u5320:
  5512  04A5                     l3339:
  5513  04A5  3000               	movlw	0
  5514  04A6  00B6               	movwf	___flmul@b+3
  5515  04A7  3000               	movlw	0
  5516  04A8  00B5               	movwf	___flmul@b+2
  5517  04A9  3000               	movlw	0
  5518  04AA  00B4               	movwf	___flmul@b+1
  5519  04AB  3000               	movlw	0
  5520  04AC  00B3               	movwf	___flmul@b
  5521  04AD                     l3341:
  5522  04AD  17B5               	bsf	___flmul@b+2,7
  5523  04AE  2CB7               	goto	l3345
  5524  04AF                     l3343:
  5525  04AF  3000               	movlw	0
  5526  04B0  00B6               	movwf	___flmul@b+3
  5527  04B1  3000               	movlw	0
  5528  04B2  00B5               	movwf	___flmul@b+2
  5529  04B3  3000               	movlw	0
  5530  04B4  00B4               	movwf	___flmul@b+1
  5531  04B5  3000               	movlw	0
  5532  04B6  00B3               	movwf	___flmul@b
  5533  04B7                     l3345:
  5534  04B7  083A               	movf	___flmul@a+3,w
  5535  04B8  3980               	andlw	128
  5536  04B9  00BB               	movwf	??___flmul
  5537  04BA  083B               	movf	??___flmul,w
  5538  04BB  06C0               	xorwf	___flmul@sign,f
  5539  04BC                     l3347:
  5540  04BC  083A               	movf	___flmul@a+3,w
  5541  04BD  00BB               	movwf	??___flmul
  5542  04BE  073B               	addwf	??___flmul,w
  5543  04BF  00BC               	movwf	??___flmul+1
  5544  04C0  083C               	movf	??___flmul+1,w
  5545  04C1  00C1               	movwf	___flmul@aexp
  5546  04C2                     l3349:
  5547  04C2  1FB9               	btfss	___flmul@a+2,7
  5548  04C3  2CC5               	goto	u5331
  5549  04C4  2CC6               	goto	u5330
  5550  04C5                     u5331:
  5551  04C5  2CC7               	goto	l3353
  5552  04C6                     u5330:
  5553  04C6                     l3351:
  5554  04C6  1441               	bsf	___flmul@aexp,0
  5555  04C7                     l3353:
  5556  04C7  0841               	movf	___flmul@aexp,w
  5557  04C8  1903               	btfsc	3,2
  5558  04C9  2CCB               	goto	u5341
  5559  04CA  2CCC               	goto	u5340
  5560  04CB                     u5341:
  5561  04CB  2CDB               	goto	l3361
  5562  04CC                     u5340:
  5563  04CC                     l3355:
  5564  04CC  0A41               	incf	___flmul@aexp,w
  5565  04CD  1D03               	btfss	3,2
  5566  04CE  2CD0               	goto	u5351
  5567  04CF  2CD1               	goto	u5350
  5568  04D0                     u5351:
  5569  04D0  2CD9               	goto	l3359
  5570  04D1                     u5350:
  5571  04D1                     l3357:
  5572  04D1  3000               	movlw	0
  5573  04D2  00BA               	movwf	___flmul@a+3
  5574  04D3  3000               	movlw	0
  5575  04D4  00B9               	movwf	___flmul@a+2
  5576  04D5  3000               	movlw	0
  5577  04D6  00B8               	movwf	___flmul@a+1
  5578  04D7  3000               	movlw	0
  5579  04D8  00B7               	movwf	___flmul@a
  5580  04D9                     l3359:
  5581  04D9  17B9               	bsf	___flmul@a+2,7
  5582  04DA  2CE3               	goto	l3363
  5583  04DB                     l3361:
  5584  04DB  3000               	movlw	0
  5585  04DC  00BA               	movwf	___flmul@a+3
  5586  04DD  3000               	movlw	0
  5587  04DE  00B9               	movwf	___flmul@a+2
  5588  04DF  3000               	movlw	0
  5589  04E0  00B8               	movwf	___flmul@a+1
  5590  04E1  3000               	movlw	0
  5591  04E2  00B7               	movwf	___flmul@a
  5592  04E3                     l3363:
  5593  04E3  0841               	movf	___flmul@aexp,w
  5594  04E4  1903               	btfsc	3,2
  5595  04E5  2CE7               	goto	u5361
  5596  04E6  2CE8               	goto	u5360
  5597  04E7                     u5361:
  5598  04E7  2CED               	goto	l3367
  5599  04E8                     u5360:
  5600  04E8                     l3365:
  5601  04E8  0846               	movf	___flmul@bexp,w
  5602  04E9  1D03               	btfss	3,2
  5603  04EA  2CEC               	goto	u5371
  5604  04EB  2CED               	goto	u5370
  5605  04EC                     u5371:
  5606  04EC  2CF6               	goto	l3371
  5607  04ED                     u5370:
  5608  04ED                     l3367:
  5609  04ED  3000               	movlw	0
  5610  04EE  00B6               	movwf	?___flmul+3
  5611  04EF  3000               	movlw	0
  5612  04F0  00B5               	movwf	?___flmul+2
  5613  04F1  3000               	movlw	0
  5614  04F2  00B4               	movwf	?___flmul+1
  5615  04F3  3000               	movlw	0
  5616  04F4  00B3               	movwf	?___flmul
  5617  04F5  2FE9               	goto	l557
  5618  04F6                     l3371:
  5619  04F6  0833               	movf	___flmul@b,w
  5620  04F7  00BB               	movwf	??___flmul
  5621  04F8  083B               	movf	??___flmul,w
  5622  04F9  00F0               	movwf	__Umul8_16@multiplicand
  5623  04FA  0839               	movf	___flmul@a+2,w
  5624  04FB  160A  118A  2008  120A  118A  	fcall	__Umul8_16
  5625  0500  0871               	movf	?__Umul8_16+1,w
  5626  0501  1283               	bcf	3,5	;RP0=0, select bank0
  5627  0502  1303               	bcf	3,6	;RP1=0, select bank0
  5628  0503  00CC               	movwf	___flmul@temp+1
  5629  0504  0870               	movf	?__Umul8_16,w
  5630  0505  00CB               	movwf	___flmul@temp
  5631  0506                     l3373:
  5632  0506  084B               	movf	___flmul@temp,w
  5633  0507  00BB               	movwf	??___flmul
  5634  0508  01BC               	clrf	??___flmul+1
  5635  0509  01BD               	clrf	??___flmul+2
  5636  050A  01BE               	clrf	??___flmul+3
  5637  050B  083E               	movf	??___flmul+3,w
  5638  050C  00C5               	movwf	___flmul@grs+3
  5639  050D  083D               	movf	??___flmul+2,w
  5640  050E  00C4               	movwf	___flmul@grs+2
  5641  050F  083C               	movf	??___flmul+1,w
  5642  0510  00C3               	movwf	___flmul@grs+1
  5643  0511  083B               	movf	??___flmul,w
  5644  0512  00C2               	movwf	___flmul@grs
  5645  0513                     l3375:
  5646  0513  084C               	movf	___flmul@temp+1,w
  5647  0514  00BB               	movwf	??___flmul
  5648  0515  01BC               	clrf	??___flmul+1
  5649  0516  01BD               	clrf	??___flmul+2
  5650  0517  01BE               	clrf	??___flmul+3
  5651  0518  083E               	movf	??___flmul+3,w
  5652  0519  00CA               	movwf	___flmul@prod+3
  5653  051A  083D               	movf	??___flmul+2,w
  5654  051B  00C9               	movwf	___flmul@prod+2
  5655  051C  083C               	movf	??___flmul+1,w
  5656  051D  00C8               	movwf	___flmul@prod+1
  5657  051E  083B               	movf	??___flmul,w
  5658  051F  00C7               	movwf	___flmul@prod
  5659  0520  0834               	movf	___flmul@b+1,w
  5660  0521  00BB               	movwf	??___flmul
  5661  0522  083B               	movf	??___flmul,w
  5662  0523  00F0               	movwf	__Umul8_16@multiplicand
  5663  0524  0838               	movf	___flmul@a+1,w
  5664  0525  160A  118A  2008  120A  118A  	fcall	__Umul8_16
  5665  052A  0871               	movf	?__Umul8_16+1,w
  5666  052B  1283               	bcf	3,5	;RP0=0, select bank0
  5667  052C  1303               	bcf	3,6	;RP1=0, select bank0
  5668  052D  00CC               	movwf	___flmul@temp+1
  5669  052E  0870               	movf	?__Umul8_16,w
  5670  052F  00CB               	movwf	___flmul@temp
  5671  0530                     l3377:
  5672  0530  084B               	movf	___flmul@temp,w
  5673  0531  00BB               	movwf	??___flmul
  5674  0532  01BC               	clrf	??___flmul+1
  5675  0533  01BD               	clrf	??___flmul+2
  5676  0534  01BE               	clrf	??___flmul+3
  5677  0535  083B               	movf	??___flmul,w
  5678  0536  07C2               	addwf	___flmul@grs,f
  5679  0537  083C               	movf	??___flmul+1,w
  5680  0538  1103               	clrz
  5681  0539  1803               	skipnc
  5682  053A  3E01               	addlw	1
  5683  053B  1903               	skipnz
  5684  053C  2D3E               	goto	u5381
  5685  053D  07C3               	addwf	___flmul@grs+1,f
  5686  053E                     u5381:
  5687  053E  083D               	movf	??___flmul+2,w
  5688  053F  1103               	clrz
  5689  0540  1803               	skipnc
  5690  0541  3E01               	addlw	1
  5691  0542  1903               	skipnz
  5692  0543  2D45               	goto	u5382
  5693  0544  07C4               	addwf	___flmul@grs+2,f
  5694  0545                     u5382:
  5695  0545  083E               	movf	??___flmul+3,w
  5696  0546  1103               	clrz
  5697  0547  1803               	skipnc
  5698  0548  3E01               	addlw	1
  5699  0549  1903               	skipnz
  5700  054A  2D4C               	goto	u5383
  5701  054B  07C5               	addwf	___flmul@grs+3,f
  5702  054C                     u5383:
  5703  054C                     l3379:
  5704  054C  084C               	movf	___flmul@temp+1,w
  5705  054D  00BB               	movwf	??___flmul
  5706  054E  01BC               	clrf	??___flmul+1
  5707  054F  01BD               	clrf	??___flmul+2
  5708  0550  01BE               	clrf	??___flmul+3
  5709  0551  083B               	movf	??___flmul,w
  5710  0552  07C7               	addwf	___flmul@prod,f
  5711  0553  083C               	movf	??___flmul+1,w
  5712  0554  1103               	clrz
  5713  0555  1803               	skipnc
  5714  0556  3E01               	addlw	1
  5715  0557  1903               	skipnz
  5716  0558  2D5A               	goto	u5391
  5717  0559  07C8               	addwf	___flmul@prod+1,f
  5718  055A                     u5391:
  5719  055A  083D               	movf	??___flmul+2,w
  5720  055B  1103               	clrz
  5721  055C  1803               	skipnc
  5722  055D  3E01               	addlw	1
  5723  055E  1903               	skipnz
  5724  055F  2D61               	goto	u5392
  5725  0560  07C9               	addwf	___flmul@prod+2,f
  5726  0561                     u5392:
  5727  0561  083E               	movf	??___flmul+3,w
  5728  0562  1103               	clrz
  5729  0563  1803               	skipnc
  5730  0564  3E01               	addlw	1
  5731  0565  1903               	skipnz
  5732  0566  2D68               	goto	u5393
  5733  0567  07CA               	addwf	___flmul@prod+3,f
  5734  0568                     u5393:
  5735  0568  0835               	movf	___flmul@b+2,w
  5736  0569  00BB               	movwf	??___flmul
  5737  056A  083B               	movf	??___flmul,w
  5738  056B  00F0               	movwf	__Umul8_16@multiplicand
  5739  056C  0837               	movf	___flmul@a,w
  5740  056D  160A  118A  2008  120A  118A  	fcall	__Umul8_16
  5741  0572  0871               	movf	?__Umul8_16+1,w
  5742  0573  1283               	bcf	3,5	;RP0=0, select bank0
  5743  0574  1303               	bcf	3,6	;RP1=0, select bank0
  5744  0575  00CC               	movwf	___flmul@temp+1
  5745  0576  0870               	movf	?__Umul8_16,w
  5746  0577  00CB               	movwf	___flmul@temp
  5747  0578                     l3381:
  5748  0578  084B               	movf	___flmul@temp,w
  5749  0579  00BB               	movwf	??___flmul
  5750  057A  01BC               	clrf	??___flmul+1
  5751  057B  01BD               	clrf	??___flmul+2
  5752  057C  01BE               	clrf	??___flmul+3
  5753  057D  083B               	movf	??___flmul,w
  5754  057E  07C2               	addwf	___flmul@grs,f
  5755  057F  083C               	movf	??___flmul+1,w
  5756  0580  1103               	clrz
  5757  0581  1803               	skipnc
  5758  0582  3E01               	addlw	1
  5759  0583  1903               	skipnz
  5760  0584  2D86               	goto	u5401
  5761  0585  07C3               	addwf	___flmul@grs+1,f
  5762  0586                     u5401:
  5763  0586  083D               	movf	??___flmul+2,w
  5764  0587  1103               	clrz
  5765  0588  1803               	skipnc
  5766  0589  3E01               	addlw	1
  5767  058A  1903               	skipnz
  5768  058B  2D8D               	goto	u5402
  5769  058C  07C4               	addwf	___flmul@grs+2,f
  5770  058D                     u5402:
  5771  058D  083E               	movf	??___flmul+3,w
  5772  058E  1103               	clrz
  5773  058F  1803               	skipnc
  5774  0590  3E01               	addlw	1
  5775  0591  1903               	skipnz
  5776  0592  2D94               	goto	u5403
  5777  0593  07C5               	addwf	___flmul@grs+3,f
  5778  0594                     u5403:
  5779  0594                     l3383:
  5780  0594  084C               	movf	___flmul@temp+1,w
  5781  0595  00BB               	movwf	??___flmul
  5782  0596  01BC               	clrf	??___flmul+1
  5783  0597  01BD               	clrf	??___flmul+2
  5784  0598  01BE               	clrf	??___flmul+3
  5785  0599  083B               	movf	??___flmul,w
  5786  059A  07C7               	addwf	___flmul@prod,f
  5787  059B  083C               	movf	??___flmul+1,w
  5788  059C  1103               	clrz
  5789  059D  1803               	skipnc
  5790  059E  3E01               	addlw	1
  5791  059F  1903               	skipnz
  5792  05A0  2DA2               	goto	u5411
  5793  05A1  07C8               	addwf	___flmul@prod+1,f
  5794  05A2                     u5411:
  5795  05A2  083D               	movf	??___flmul+2,w
  5796  05A3  1103               	clrz
  5797  05A4  1803               	skipnc
  5798  05A5  3E01               	addlw	1
  5799  05A6  1903               	skipnz
  5800  05A7  2DA9               	goto	u5412
  5801  05A8  07C9               	addwf	___flmul@prod+2,f
  5802  05A9                     u5412:
  5803  05A9  083E               	movf	??___flmul+3,w
  5804  05AA  1103               	clrz
  5805  05AB  1803               	skipnc
  5806  05AC  3E01               	addlw	1
  5807  05AD  1903               	skipnz
  5808  05AE  2DB0               	goto	u5413
  5809  05AF  07CA               	addwf	___flmul@prod+3,f
  5810  05B0                     u5413:
  5811  05B0                     l3385:
  5812  05B0  3008               	movlw	8
  5813  05B1  00BB               	movwf	??___flmul
  5814  05B2                     u5425:
  5815  05B2  1003               	clrc
  5816  05B3  0DC2               	rlf	___flmul@grs,f
  5817  05B4  0DC3               	rlf	___flmul@grs+1,f
  5818  05B5  0DC4               	rlf	___flmul@grs+2,f
  5819  05B6  0DC5               	rlf	___flmul@grs+3,f
  5820  05B7  0BBB               	decfsz	??___flmul,f
  5821  05B8  2DB2               	goto	u5425
  5822  05B9                     l3387:
  5823  05B9  0834               	movf	___flmul@b+1,w
  5824  05BA  00BB               	movwf	??___flmul
  5825  05BB  083B               	movf	??___flmul,w
  5826  05BC  00F0               	movwf	__Umul8_16@multiplicand
  5827  05BD  0837               	movf	___flmul@a,w
  5828  05BE  160A  118A  2008  120A  118A  	fcall	__Umul8_16
  5829  05C3  0871               	movf	?__Umul8_16+1,w
  5830  05C4  1283               	bcf	3,5	;RP0=0, select bank0
  5831  05C5  1303               	bcf	3,6	;RP1=0, select bank0
  5832  05C6  00CC               	movwf	___flmul@temp+1
  5833  05C7  0870               	movf	?__Umul8_16,w
  5834  05C8  00CB               	movwf	___flmul@temp
  5835  05C9                     l3389:
  5836  05C9  084B               	movf	___flmul@temp,w
  5837  05CA  00BB               	movwf	??___flmul
  5838  05CB  084C               	movf	___flmul@temp+1,w
  5839  05CC  00BC               	movwf	??___flmul+1
  5840  05CD  01BD               	clrf	??___flmul+2
  5841  05CE  01BE               	clrf	??___flmul+3
  5842  05CF  083B               	movf	??___flmul,w
  5843  05D0  07C2               	addwf	___flmul@grs,f
  5844  05D1  083C               	movf	??___flmul+1,w
  5845  05D2  1103               	clrz
  5846  05D3  1803               	skipnc
  5847  05D4  3E01               	addlw	1
  5848  05D5  1903               	skipnz
  5849  05D6  2DD8               	goto	u5431
  5850  05D7  07C3               	addwf	___flmul@grs+1,f
  5851  05D8                     u5431:
  5852  05D8  083D               	movf	??___flmul+2,w
  5853  05D9  1103               	clrz
  5854  05DA  1803               	skipnc
  5855  05DB  3E01               	addlw	1
  5856  05DC  1903               	skipnz
  5857  05DD  2DDF               	goto	u5432
  5858  05DE  07C4               	addwf	___flmul@grs+2,f
  5859  05DF                     u5432:
  5860  05DF  083E               	movf	??___flmul+3,w
  5861  05E0  1103               	clrz
  5862  05E1  1803               	skipnc
  5863  05E2  3E01               	addlw	1
  5864  05E3  1903               	skipnz
  5865  05E4  2DE6               	goto	u5433
  5866  05E5  07C5               	addwf	___flmul@grs+3,f
  5867  05E6                     u5433:
  5868  05E6                     l3391:
  5869  05E6  0833               	movf	___flmul@b,w
  5870  05E7  00BB               	movwf	??___flmul
  5871  05E8  083B               	movf	??___flmul,w
  5872  05E9  00F0               	movwf	__Umul8_16@multiplicand
  5873  05EA  0838               	movf	___flmul@a+1,w
  5874  05EB  160A  118A  2008  120A  118A  	fcall	__Umul8_16
  5875  05F0  0871               	movf	?__Umul8_16+1,w
  5876  05F1  1283               	bcf	3,5	;RP0=0, select bank0
  5877  05F2  1303               	bcf	3,6	;RP1=0, select bank0
  5878  05F3  00CC               	movwf	___flmul@temp+1
  5879  05F4  0870               	movf	?__Umul8_16,w
  5880  05F5  00CB               	movwf	___flmul@temp
  5881  05F6                     l3393:
  5882  05F6  084B               	movf	___flmul@temp,w
  5883  05F7  00BB               	movwf	??___flmul
  5884  05F8  084C               	movf	___flmul@temp+1,w
  5885  05F9  00BC               	movwf	??___flmul+1
  5886  05FA  01BD               	clrf	??___flmul+2
  5887  05FB  01BE               	clrf	??___flmul+3
  5888  05FC  083B               	movf	??___flmul,w
  5889  05FD  07C2               	addwf	___flmul@grs,f
  5890  05FE  083C               	movf	??___flmul+1,w
  5891  05FF  1103               	clrz
  5892  0600  1803               	skipnc
  5893  0601  3E01               	addlw	1
  5894  0602  1903               	skipnz
  5895  0603  2E05               	goto	u5441
  5896  0604  07C3               	addwf	___flmul@grs+1,f
  5897  0605                     u5441:
  5898  0605  083D               	movf	??___flmul+2,w
  5899  0606  1103               	clrz
  5900  0607  1803               	skipnc
  5901  0608  3E01               	addlw	1
  5902  0609  1903               	skipnz
  5903  060A  2E0C               	goto	u5442
  5904  060B  07C4               	addwf	___flmul@grs+2,f
  5905  060C                     u5442:
  5906  060C  083E               	movf	??___flmul+3,w
  5907  060D  1103               	clrz
  5908  060E  1803               	skipnc
  5909  060F  3E01               	addlw	1
  5910  0610  1903               	skipnz
  5911  0611  2E13               	goto	u5443
  5912  0612  07C5               	addwf	___flmul@grs+3,f
  5913  0613                     u5443:
  5914  0613                     l3395:
  5915  0613  3008               	movlw	8
  5916  0614  00BB               	movwf	??___flmul
  5917  0615                     u5455:
  5918  0615  1003               	clrc
  5919  0616  0DC2               	rlf	___flmul@grs,f
  5920  0617  0DC3               	rlf	___flmul@grs+1,f
  5921  0618  0DC4               	rlf	___flmul@grs+2,f
  5922  0619  0DC5               	rlf	___flmul@grs+3,f
  5923  061A  0BBB               	decfsz	??___flmul,f
  5924  061B  2E15               	goto	u5455
  5925  061C  0833               	movf	___flmul@b,w
  5926  061D  00BB               	movwf	??___flmul
  5927  061E  083B               	movf	??___flmul,w
  5928  061F  00F0               	movwf	__Umul8_16@multiplicand
  5929  0620  0837               	movf	___flmul@a,w
  5930  0621  160A  118A  2008  120A  118A  	fcall	__Umul8_16
  5931  0626  0871               	movf	?__Umul8_16+1,w
  5932  0627  1283               	bcf	3,5	;RP0=0, select bank0
  5933  0628  1303               	bcf	3,6	;RP1=0, select bank0
  5934  0629  00CC               	movwf	___flmul@temp+1
  5935  062A  0870               	movf	?__Umul8_16,w
  5936  062B  00CB               	movwf	___flmul@temp
  5937  062C                     l3397:
  5938  062C  084B               	movf	___flmul@temp,w
  5939  062D  00BB               	movwf	??___flmul
  5940  062E  084C               	movf	___flmul@temp+1,w
  5941  062F  00BC               	movwf	??___flmul+1
  5942  0630  01BD               	clrf	??___flmul+2
  5943  0631  01BE               	clrf	??___flmul+3
  5944  0632  083B               	movf	??___flmul,w
  5945  0633  07C2               	addwf	___flmul@grs,f
  5946  0634  083C               	movf	??___flmul+1,w
  5947  0635  1103               	clrz
  5948  0636  1803               	skipnc
  5949  0637  3E01               	addlw	1
  5950  0638  1903               	skipnz
  5951  0639  2E3B               	goto	u5461
  5952  063A  07C3               	addwf	___flmul@grs+1,f
  5953  063B                     u5461:
  5954  063B  083D               	movf	??___flmul+2,w
  5955  063C  1103               	clrz
  5956  063D  1803               	skipnc
  5957  063E  3E01               	addlw	1
  5958  063F  1903               	skipnz
  5959  0640  2E42               	goto	u5462
  5960  0641  07C4               	addwf	___flmul@grs+2,f
  5961  0642                     u5462:
  5962  0642  083E               	movf	??___flmul+3,w
  5963  0643  1103               	clrz
  5964  0644  1803               	skipnc
  5965  0645  3E01               	addlw	1
  5966  0646  1903               	skipnz
  5967  0647  2E49               	goto	u5463
  5968  0648  07C5               	addwf	___flmul@grs+3,f
  5969  0649                     u5463:
  5970  0649                     l3399:
  5971  0649  0834               	movf	___flmul@b+1,w
  5972  064A  00BB               	movwf	??___flmul
  5973  064B  083B               	movf	??___flmul,w
  5974  064C  00F0               	movwf	__Umul8_16@multiplicand
  5975  064D  0839               	movf	___flmul@a+2,w
  5976  064E  160A  118A  2008  120A  118A  	fcall	__Umul8_16
  5977  0653  0871               	movf	?__Umul8_16+1,w
  5978  0654  1283               	bcf	3,5	;RP0=0, select bank0
  5979  0655  1303               	bcf	3,6	;RP1=0, select bank0
  5980  0656  00CC               	movwf	___flmul@temp+1
  5981  0657  0870               	movf	?__Umul8_16,w
  5982  0658  00CB               	movwf	___flmul@temp
  5983  0659  084B               	movf	___flmul@temp,w
  5984  065A  00BB               	movwf	??___flmul
  5985  065B  084C               	movf	___flmul@temp+1,w
  5986  065C  00BC               	movwf	??___flmul+1
  5987  065D  01BD               	clrf	??___flmul+2
  5988  065E  01BE               	clrf	??___flmul+3
  5989  065F  083B               	movf	??___flmul,w
  5990  0660  07C7               	addwf	___flmul@prod,f
  5991  0661  083C               	movf	??___flmul+1,w
  5992  0662  1103               	clrz
  5993  0663  1803               	skipnc
  5994  0664  3E01               	addlw	1
  5995  0665  1903               	skipnz
  5996  0666  2E68               	goto	u5471
  5997  0667  07C8               	addwf	___flmul@prod+1,f
  5998  0668                     u5471:
  5999  0668  083D               	movf	??___flmul+2,w
  6000  0669  1103               	clrz
  6001  066A  1803               	skipnc
  6002  066B  3E01               	addlw	1
  6003  066C  1903               	skipnz
  6004  066D  2E6F               	goto	u5472
  6005  066E  07C9               	addwf	___flmul@prod+2,f
  6006  066F                     u5472:
  6007  066F  083E               	movf	??___flmul+3,w
  6008  0670  1103               	clrz
  6009  0671  1803               	skipnc
  6010  0672  3E01               	addlw	1
  6011  0673  1903               	skipnz
  6012  0674  2E76               	goto	u5473
  6013  0675  07CA               	addwf	___flmul@prod+3,f
  6014  0676                     u5473:
  6015  0676                     l3401:
  6016  0676  0835               	movf	___flmul@b+2,w
  6017  0677  00BB               	movwf	??___flmul
  6018  0678  083B               	movf	??___flmul,w
  6019  0679  00F0               	movwf	__Umul8_16@multiplicand
  6020  067A  0838               	movf	___flmul@a+1,w
  6021  067B  160A  118A  2008  120A  118A  	fcall	__Umul8_16
  6022  0680  0871               	movf	?__Umul8_16+1,w
  6023  0681  1283               	bcf	3,5	;RP0=0, select bank0
  6024  0682  1303               	bcf	3,6	;RP1=0, select bank0
  6025  0683  00CC               	movwf	___flmul@temp+1
  6026  0684  0870               	movf	?__Umul8_16,w
  6027  0685  00CB               	movwf	___flmul@temp
  6028  0686                     l3403:
  6029  0686  084B               	movf	___flmul@temp,w
  6030  0687  00BB               	movwf	??___flmul
  6031  0688  084C               	movf	___flmul@temp+1,w
  6032  0689  00BC               	movwf	??___flmul+1
  6033  068A  01BD               	clrf	??___flmul+2
  6034  068B  01BE               	clrf	??___flmul+3
  6035  068C  083B               	movf	??___flmul,w
  6036  068D  07C7               	addwf	___flmul@prod,f
  6037  068E  083C               	movf	??___flmul+1,w
  6038  068F  1103               	clrz
  6039  0690  1803               	skipnc
  6040  0691  3E01               	addlw	1
  6041  0692  1903               	skipnz
  6042  0693  2E95               	goto	u5481
  6043  0694  07C8               	addwf	___flmul@prod+1,f
  6044  0695                     u5481:
  6045  0695  083D               	movf	??___flmul+2,w
  6046  0696  1103               	clrz
  6047  0697  1803               	skipnc
  6048  0698  3E01               	addlw	1
  6049  0699  1903               	skipnz
  6050  069A  2E9C               	goto	u5482
  6051  069B  07C9               	addwf	___flmul@prod+2,f
  6052  069C                     u5482:
  6053  069C  083E               	movf	??___flmul+3,w
  6054  069D  1103               	clrz
  6055  069E  1803               	skipnc
  6056  069F  3E01               	addlw	1
  6057  06A0  1903               	skipnz
  6058  06A1  2EA3               	goto	u5483
  6059  06A2  07CA               	addwf	___flmul@prod+3,f
  6060  06A3                     u5483:
  6061  06A3  0835               	movf	___flmul@b+2,w
  6062  06A4  00BB               	movwf	??___flmul
  6063  06A5  083B               	movf	??___flmul,w
  6064  06A6  00F0               	movwf	__Umul8_16@multiplicand
  6065  06A7  0839               	movf	___flmul@a+2,w
  6066  06A8  160A  118A  2008  120A  118A  	fcall	__Umul8_16
  6067  06AD  0871               	movf	?__Umul8_16+1,w
  6068  06AE  1283               	bcf	3,5	;RP0=0, select bank0
  6069  06AF  1303               	bcf	3,6	;RP1=0, select bank0
  6070  06B0  00CC               	movwf	___flmul@temp+1
  6071  06B1  0870               	movf	?__Umul8_16,w
  6072  06B2  00CB               	movwf	___flmul@temp
  6073  06B3                     l3405:
  6074  06B3  084B               	movf	___flmul@temp,w
  6075  06B4  00BB               	movwf	??___flmul
  6076  06B5  084C               	movf	___flmul@temp+1,w
  6077  06B6  00BC               	movwf	??___flmul+1
  6078  06B7  01BD               	clrf	??___flmul+2
  6079  06B8  01BE               	clrf	??___flmul+3
  6080  06B9  3008               	movlw	8
  6081  06BA                     u5495:
  6082  06BA  1003               	clrc
  6083  06BB  0DBB               	rlf	??___flmul,f
  6084  06BC  0DBC               	rlf	??___flmul+1,f
  6085  06BD  0DBD               	rlf	??___flmul+2,f
  6086  06BE  0DBE               	rlf	??___flmul+3,f
  6087  06BF                     u5490:
  6088  06BF  3EFF               	addlw	-1
  6089  06C0  1D03               	skipz
  6090  06C1  2EBA               	goto	u5495
  6091  06C2  083B               	movf	??___flmul,w
  6092  06C3  07C7               	addwf	___flmul@prod,f
  6093  06C4  083C               	movf	??___flmul+1,w
  6094  06C5  1103               	clrz
  6095  06C6  1803               	skipnc
  6096  06C7  3E01               	addlw	1
  6097  06C8  1903               	skipnz
  6098  06C9  2ECB               	goto	u5501
  6099  06CA  07C8               	addwf	___flmul@prod+1,f
  6100  06CB                     u5501:
  6101  06CB  083D               	movf	??___flmul+2,w
  6102  06CC  1103               	clrz
  6103  06CD  1803               	skipnc
  6104  06CE  3E01               	addlw	1
  6105  06CF  1903               	skipnz
  6106  06D0  2ED2               	goto	u5502
  6107  06D1  07C9               	addwf	___flmul@prod+2,f
  6108  06D2                     u5502:
  6109  06D2  083E               	movf	??___flmul+3,w
  6110  06D3  1103               	clrz
  6111  06D4  1803               	skipnc
  6112  06D5  3E01               	addlw	1
  6113  06D6  1903               	skipnz
  6114  06D7  2ED9               	goto	u5503
  6115  06D8  07CA               	addwf	___flmul@prod+3,f
  6116  06D9                     u5503:
  6117  06D9                     l3407:
  6118  06D9  0842               	movf	___flmul@grs,w
  6119  06DA  00BB               	movwf	??___flmul
  6120  06DB  0843               	movf	___flmul@grs+1,w
  6121  06DC  00BC               	movwf	??___flmul+1
  6122  06DD  0844               	movf	___flmul@grs+2,w
  6123  06DE  00BD               	movwf	??___flmul+2
  6124  06DF  0845               	movf	___flmul@grs+3,w
  6125  06E0  00BE               	movwf	??___flmul+3
  6126  06E1  3018               	movlw	24
  6127  06E2                     u5515:
  6128  06E2  1003               	clrc
  6129  06E3  0CBE               	rrf	??___flmul+3,f
  6130  06E4  0CBD               	rrf	??___flmul+2,f
  6131  06E5  0CBC               	rrf	??___flmul+1,f
  6132  06E6  0CBB               	rrf	??___flmul,f
  6133  06E7                     u5510:
  6134  06E7  3EFF               	addlw	-1
  6135  06E8  1D03               	skipz
  6136  06E9  2EE2               	goto	u5515
  6137  06EA  083B               	movf	??___flmul,w
  6138  06EB  07C7               	addwf	___flmul@prod,f
  6139  06EC  083C               	movf	??___flmul+1,w
  6140  06ED  1103               	clrz
  6141  06EE  1803               	skipnc
  6142  06EF  3E01               	addlw	1
  6143  06F0  1903               	skipnz
  6144  06F1  2EF3               	goto	u5521
  6145  06F2  07C8               	addwf	___flmul@prod+1,f
  6146  06F3                     u5521:
  6147  06F3  083D               	movf	??___flmul+2,w
  6148  06F4  1103               	clrz
  6149  06F5  1803               	skipnc
  6150  06F6  3E01               	addlw	1
  6151  06F7  1903               	skipnz
  6152  06F8  2EFA               	goto	u5522
  6153  06F9  07C9               	addwf	___flmul@prod+2,f
  6154  06FA                     u5522:
  6155  06FA  083E               	movf	??___flmul+3,w
  6156  06FB  1103               	clrz
  6157  06FC  1803               	skipnc
  6158  06FD  3E01               	addlw	1
  6159  06FE  1903               	skipnz
  6160  06FF  2F01               	goto	u5523
  6161  0700  07CA               	addwf	___flmul@prod+3,f
  6162  0701                     u5523:
  6163  0701                     l3409:
  6164  0701  3008               	movlw	8
  6165  0702  00BB               	movwf	??___flmul
  6166  0703                     u5535:
  6167  0703  1003               	clrc
  6168  0704  0DC2               	rlf	___flmul@grs,f
  6169  0705  0DC3               	rlf	___flmul@grs+1,f
  6170  0706  0DC4               	rlf	___flmul@grs+2,f
  6171  0707  0DC5               	rlf	___flmul@grs+3,f
  6172  0708  0BBB               	decfsz	??___flmul,f
  6173  0709  2F03               	goto	u5535
  6174  070A                     l3411:
  6175  070A  0846               	movf	___flmul@bexp,w
  6176  070B  0741               	addwf	___flmul@aexp,w
  6177  070C  00BB               	movwf	??___flmul
  6178  070D  01BC               	clrf	??___flmul+1
  6179  070E  0DBC               	rlf	??___flmul+1,f
  6180  070F  083B               	movf	??___flmul,w
  6181  0710  3E82               	addlw	130
  6182  0711  00CB               	movwf	___flmul@temp
  6183  0712  083C               	movf	??___flmul+1,w
  6184  0713  1803               	skipnc
  6185  0714  3E01               	addlw	1
  6186  0715  3EFF               	addlw	255
  6187  0716  00CC               	movwf	___flmul@temp+1
  6188  0717  2F35               	goto	l3423
  6189  0718                     l3413:
  6190  0718  3001               	movlw	1
  6191  0719  00BB               	movwf	??___flmul
  6192  071A                     u5545:
  6193  071A  1003               	clrc
  6194  071B  0DC7               	rlf	___flmul@prod,f
  6195  071C  0DC8               	rlf	___flmul@prod+1,f
  6196  071D  0DC9               	rlf	___flmul@prod+2,f
  6197  071E  0DCA               	rlf	___flmul@prod+3,f
  6198  071F  0BBB               	decfsz	??___flmul,f
  6199  0720  2F1A               	goto	u5545
  6200  0721                     l3415:
  6201  0721  1FC5               	btfss	___flmul@grs+3,7
  6202  0722  2F24               	goto	u5551
  6203  0723  2F25               	goto	u5550
  6204  0724                     u5551:
  6205  0724  2F26               	goto	l3419
  6206  0725                     u5550:
  6207  0725                     l3417:
  6208  0725  1447               	bsf	___flmul@prod,0
  6209  0726                     l3419:
  6210  0726  3001               	movlw	1
  6211  0727  00BB               	movwf	??___flmul
  6212  0728                     u5565:
  6213  0728  1003               	clrc
  6214  0729  0DC2               	rlf	___flmul@grs,f
  6215  072A  0DC3               	rlf	___flmul@grs+1,f
  6216  072B  0DC4               	rlf	___flmul@grs+2,f
  6217  072C  0DC5               	rlf	___flmul@grs+3,f
  6218  072D  0BBB               	decfsz	??___flmul,f
  6219  072E  2F28               	goto	u5565
  6220  072F                     l3421:
  6221  072F  30FF               	movlw	255
  6222  0730  07CB               	addwf	___flmul@temp,f
  6223  0731  1803               	skipnc
  6224  0732  0ACC               	incf	___flmul@temp+1,f
  6225  0733  30FF               	movlw	255
  6226  0734  07CC               	addwf	___flmul@temp+1,f
  6227  0735                     l3423:
  6228  0735  1FC9               	btfss	___flmul@prod+2,7
  6229  0736  2F38               	goto	u5571
  6230  0737  2F39               	goto	u5570
  6231  0738                     u5571:
  6232  0738  2F18               	goto	l3413
  6233  0739                     u5570:
  6234  0739                     l3425:
  6235  0739  01C1               	clrf	___flmul@aexp
  6236  073A                     l3427:
  6237  073A  1FC5               	btfss	___flmul@grs+3,7
  6238  073B  2F3D               	goto	u5581
  6239  073C  2F3E               	goto	u5580
  6240  073D                     u5581:
  6241  073D  2F5A               	goto	l3435
  6242  073E                     u5580:
  6243  073E                     l3429:
  6244  073E  30FF               	movlw	255
  6245  073F  0542               	andwf	___flmul@grs,w
  6246  0740  00BB               	movwf	??___flmul
  6247  0741  30FF               	movlw	255
  6248  0742  0543               	andwf	___flmul@grs+1,w
  6249  0743  00BC               	movwf	??___flmul+1
  6250  0744  30FF               	movlw	255
  6251  0745  0544               	andwf	___flmul@grs+2,w
  6252  0746  00BD               	movwf	??___flmul+2
  6253  0747  307F               	movlw	127
  6254  0748  0545               	andwf	___flmul@grs+3,w
  6255  0749  00BE               	movwf	??___flmul+3
  6256  074A  083E               	movf	??___flmul+3,w
  6257  074B  043D               	iorwf	??___flmul+2,w
  6258  074C  043C               	iorwf	??___flmul+1,w
  6259  074D  043B               	iorwf	??___flmul,w
  6260  074E  1903               	skipnz
  6261  074F  2F51               	goto	u5591
  6262  0750  2F52               	goto	u5590
  6263  0751                     u5591:
  6264  0751  2F55               	goto	l563
  6265  0752                     u5590:
  6266  0752                     l3431:
  6267  0752  01C1               	clrf	___flmul@aexp
  6268  0753  0AC1               	incf	___flmul@aexp,f
  6269  0754  2F5A               	goto	l3435
  6270  0755                     l563:
  6271  0755  1C47               	btfss	___flmul@prod,0
  6272  0756  2F58               	goto	u5601
  6273  0757  2F59               	goto	u5600
  6274  0758                     u5601:
  6275  0758  2F5A               	goto	l3435
  6276  0759                     u5600:
  6277  0759  2F52               	goto	l3431
  6278  075A                     l3435:
  6279  075A  0841               	movf	___flmul@aexp,w
  6280  075B  1903               	btfsc	3,2
  6281  075C  2F5E               	goto	u5611
  6282  075D  2F5F               	goto	u5610
  6283  075E                     u5611:
  6284  075E  2F90               	goto	l3445
  6285  075F                     u5610:
  6286  075F                     l3437:
  6287  075F  3001               	movlw	1
  6288  0760  07C7               	addwf	___flmul@prod,f
  6289  0761  3000               	movlw	0
  6290  0762  1803               	skipnc
  6291  0763  3001               	movlw	1
  6292  0764  07C8               	addwf	___flmul@prod+1,f
  6293  0765  3000               	movlw	0
  6294  0766  1803               	skipnc
  6295  0767  3001               	movlw	1
  6296  0768  07C9               	addwf	___flmul@prod+2,f
  6297  0769  3000               	movlw	0
  6298  076A  1803               	skipnc
  6299  076B  3001               	movlw	1
  6300  076C  07CA               	addwf	___flmul@prod+3,f
  6301  076D                     l3439:
  6302  076D  1C4A               	btfss	___flmul@prod+3,0
  6303  076E  2F70               	goto	u5621
  6304  076F  2F71               	goto	u5620
  6305  0770                     u5621:
  6306  0770  2F90               	goto	l3445
  6307  0771                     u5620:
  6308  0771                     l3441:
  6309  0771  0847               	movf	___flmul@prod,w
  6310  0772  00BB               	movwf	??___flmul
  6311  0773  0848               	movf	___flmul@prod+1,w
  6312  0774  00BC               	movwf	??___flmul+1
  6313  0775  0849               	movf	___flmul@prod+2,w
  6314  0776  00BD               	movwf	??___flmul+2
  6315  0777  084A               	movf	___flmul@prod+3,w
  6316  0778  00BE               	movwf	??___flmul+3
  6317  0779  3001               	movlw	1
  6318  077A  00BF               	movwf	??___flmul+4
  6319  077B                     u5635:
  6320  077B  0D3E               	rlf	??___flmul+3,w
  6321  077C  0CBE               	rrf	??___flmul+3,f
  6322  077D  0CBD               	rrf	??___flmul+2,f
  6323  077E  0CBC               	rrf	??___flmul+1,f
  6324  077F  0CBB               	rrf	??___flmul,f
  6325  0780                     u5630:
  6326  0780  0BBF               	decfsz	??___flmul+4,f
  6327  0781  2F7B               	goto	u5635
  6328  0782  083E               	movf	??___flmul+3,w
  6329  0783  00CA               	movwf	___flmul@prod+3
  6330  0784  083D               	movf	??___flmul+2,w
  6331  0785  00C9               	movwf	___flmul@prod+2
  6332  0786  083C               	movf	??___flmul+1,w
  6333  0787  00C8               	movwf	___flmul@prod+1
  6334  0788  083B               	movf	??___flmul,w
  6335  0789  00C7               	movwf	___flmul@prod
  6336  078A                     l3443:
  6337  078A  3001               	movlw	1
  6338  078B  07CB               	addwf	___flmul@temp,f
  6339  078C  1803               	skipnc
  6340  078D  0ACC               	incf	___flmul@temp+1,f
  6341  078E  3000               	movlw	0
  6342  078F  07CC               	addwf	___flmul@temp+1,f
  6343  0790                     l3445:
  6344  0790  084C               	movf	___flmul@temp+1,w
  6345  0791  3A80               	xorlw	128
  6346  0792  00FF               	movwf	btemp+1
  6347  0793  3080               	movlw	128
  6348  0794  027F               	subwf	btemp+1,w
  6349  0795  1D03               	skipz
  6350  0796  2F99               	goto	u5645
  6351  0797  30FF               	movlw	255
  6352  0798  024B               	subwf	___flmul@temp,w
  6353  0799                     u5645:
  6354  0799  1C03               	skipc
  6355  079A  2F9C               	goto	u5641
  6356  079B  2F9D               	goto	u5640
  6357  079C                     u5641:
  6358  079C  2FA8               	goto	l3449
  6359  079D                     u5640:
  6360  079D                     l3447:
  6361  079D  307F               	movlw	127
  6362  079E  1283               	bcf	3,5	;RP0=0, select bank0
  6363  079F  1303               	bcf	3,6	;RP1=0, select bank0
  6364  07A0  00CA               	movwf	___flmul@prod+3
  6365  07A1  3080               	movlw	128
  6366  07A2  00C9               	movwf	___flmul@prod+2
  6367  07A3  3000               	movlw	0
  6368  07A4  00C8               	movwf	___flmul@prod+1
  6369  07A5  3000               	movlw	0
  6370  07A6  00C7               	movwf	___flmul@prod
  6371  07A7  2FDD               	goto	l569
  6372  07A8                     l3449:
  6373  07A8  1283               	bcf	3,5	;RP0=0, select bank0
  6374  07A9  1303               	bcf	3,6	;RP1=0, select bank0
  6375  07AA  084C               	movf	___flmul@temp+1,w
  6376  07AB  3A80               	xorlw	128
  6377  07AC  00FF               	movwf	btemp+1
  6378  07AD  3080               	movlw	128
  6379  07AE  027F               	subwf	btemp+1,w
  6380  07AF  1D03               	skipz
  6381  07B0  2FB3               	goto	u5655
  6382  07B1  3001               	movlw	1
  6383  07B2  024B               	subwf	___flmul@temp,w
  6384  07B3                     u5655:
  6385  07B3  1803               	skipnc
  6386  07B4  2FB6               	goto	u5651
  6387  07B5  2FB7               	goto	u5650
  6388  07B6                     u5651:
  6389  07B6  2FC3               	goto	l3455
  6390  07B7                     u5650:
  6391  07B7                     l3451:
  6392  07B7  3000               	movlw	0
  6393  07B8  1283               	bcf	3,5	;RP0=0, select bank0
  6394  07B9  1303               	bcf	3,6	;RP1=0, select bank0
  6395  07BA  00CA               	movwf	___flmul@prod+3
  6396  07BB  3000               	movlw	0
  6397  07BC  00C9               	movwf	___flmul@prod+2
  6398  07BD  3000               	movlw	0
  6399  07BE  00C8               	movwf	___flmul@prod+1
  6400  07BF  3000               	movlw	0
  6401  07C0  00C7               	movwf	___flmul@prod
  6402  07C1                     l3453:
  6403  07C1  01C0               	clrf	___flmul@sign
  6404  07C2  2FDD               	goto	l569
  6405  07C3                     l3455:
  6406  07C3  1283               	bcf	3,5	;RP0=0, select bank0
  6407  07C4  1303               	bcf	3,6	;RP1=0, select bank0
  6408  07C5  084B               	movf	___flmul@temp,w
  6409  07C6  00BB               	movwf	??___flmul
  6410  07C7  083B               	movf	??___flmul,w
  6411  07C8  00C6               	movwf	___flmul@bexp
  6412  07C9  30FF               	movlw	255
  6413  07CA  05C7               	andwf	___flmul@prod,f
  6414  07CB  30FF               	movlw	255
  6415  07CC  05C8               	andwf	___flmul@prod+1,f
  6416  07CD  307F               	movlw	127
  6417  07CE  05C9               	andwf	___flmul@prod+2,f
  6418  07CF  3000               	movlw	0
  6419  07D0  05CA               	andwf	___flmul@prod+3,f
  6420  07D1                     l3457:
  6421  07D1  1C46               	btfss	___flmul@bexp,0
  6422  07D2  2FD4               	goto	u5661
  6423  07D3  2FD5               	goto	u5660
  6424  07D4                     u5661:
  6425  07D4  2FD6               	goto	l3461
  6426  07D5                     u5660:
  6427  07D5                     l3459:
  6428  07D5  17C9               	bsf	___flmul@prod+2,7
  6429  07D6                     l3461:
  6430  07D6  0846               	movf	___flmul@bexp,w
  6431  07D7  00BB               	movwf	??___flmul
  6432  07D8  1003               	clrc
  6433  07D9  0C3B               	rrf	??___flmul,w
  6434  07DA  00BC               	movwf	??___flmul+1
  6435  07DB  083C               	movf	??___flmul+1,w
  6436  07DC  00CA               	movwf	___flmul@prod+3
  6437  07DD                     l569:
  6438  07DD  0840               	movf	___flmul@sign,w
  6439  07DE  00BB               	movwf	??___flmul
  6440  07DF  083B               	movf	??___flmul,w
  6441  07E0  04CA               	iorwf	___flmul@prod+3,f
  6442  07E1                     l3463:
  6443  07E1  084A               	movf	___flmul@prod+3,w
  6444  07E2  00B6               	movwf	?___flmul+3
  6445  07E3  0849               	movf	___flmul@prod+2,w
  6446  07E4  00B5               	movwf	?___flmul+2
  6447  07E5  0848               	movf	___flmul@prod+1,w
  6448  07E6  00B4               	movwf	?___flmul+1
  6449  07E7  0847               	movf	___flmul@prod,w
  6450  07E8  00B3               	movwf	?___flmul
  6451  07E9                     l557:
  6452  07E9  0008               	return
  6453  07EA                     __end_of___flmul:
  6454                           
  6455                           	psect	text14
  6456  1008                     __ptext14:	
  6457 ;; *************** function __Umul8_16 *****************
  6458 ;; Defined at:
  6459 ;;		line 4 in file "C:\Program Files\Microchip\xc8\v2.36\pic\sources\c90\common\Umul8_16.c"
  6460 ;; Parameters:    Size  Location     Type
  6461 ;;  multiplier      1    wreg     unsigned char 
  6462 ;;  multiplicand    1    0[COMMON] unsigned char 
  6463 ;; Auto vars:     Size  Location     Type
  6464 ;;  multiplier      1    8[COMMON] unsigned char 
  6465 ;;  word_mpld       2    6[COMMON] unsigned int 
  6466 ;;  product         2    4[COMMON] unsigned int 
  6467 ;; Return value:  Size  Location     Type
  6468 ;;                  2    0[COMMON] unsigned int 
  6469 ;; Registers used:
  6470 ;;		wreg, status,2, status,0
  6471 ;; Tracked objects:
  6472 ;;		On entry : 0/0
  6473 ;;		On exit  : 0/0
  6474 ;;		Unchanged: 0/0
  6475 ;; Data sizes:     COMMON   BANK0   BANK1   BANK3   BANK2
  6476 ;;      Params:         2       0       0       0       0
  6477 ;;      Locals:         5       0       0       0       0
  6478 ;;      Temps:          2       0       0       0       0
  6479 ;;      Totals:         9       0       0       0       0
  6480 ;;Total ram usage:        9 bytes
  6481 ;; Hardware stack levels used: 1
  6482 ;; This function calls:
  6483 ;;		Nothing
  6484 ;; This function is called by:
  6485 ;;		___flmul
  6486 ;; This function uses a non-reentrant model
  6487 ;;
  6488                           
  6489  1008                     __Umul8_16:	
  6490                           ;psect for function __Umul8_16
  6491                           
  6492                           
  6493                           ;incstack = 0
  6494                           ; Regs used in __Umul8_16: [wreg+status,2+status,0]
  6495                           ;__Umul8_16@multiplier stored from wreg
  6496  1008  00F8               	movwf	__Umul8_16@multiplier
  6497  1009                     l3099:
  6498  1009  01F4               	clrf	__Umul8_16@product
  6499  100A  01F5               	clrf	__Umul8_16@product+1
  6500  100B                     l3101:
  6501  100B  0870               	movf	__Umul8_16@multiplicand,w
  6502  100C  00F2               	movwf	??__Umul8_16
  6503  100D  01F3               	clrf	??__Umul8_16+1
  6504  100E  0872               	movf	??__Umul8_16,w
  6505  100F  00F6               	movwf	__Umul8_16@word_mpld
  6506  1010  0873               	movf	??__Umul8_16+1,w
  6507  1011  00F7               	movwf	__Umul8_16@word_mpld+1
  6508  1012                     l3103:
  6509  1012  1C78               	btfss	__Umul8_16@multiplier,0
  6510  1013  2815               	goto	u4741
  6511  1014  2816               	goto	u4740
  6512  1015                     u4741:
  6513  1015  281C               	goto	l576
  6514  1016                     u4740:
  6515  1016                     l3105:
  6516  1016  0876               	movf	__Umul8_16@word_mpld,w
  6517  1017  07F4               	addwf	__Umul8_16@product,f
  6518  1018  1803               	skipnc
  6519  1019  0AF5               	incf	__Umul8_16@product+1,f
  6520  101A  0877               	movf	__Umul8_16@word_mpld+1,w
  6521  101B  07F5               	addwf	__Umul8_16@product+1,f
  6522  101C                     l576:
  6523  101C  3001               	movlw	1
  6524  101D                     u4755:
  6525  101D  1003               	clrc
  6526  101E  0DF6               	rlf	__Umul8_16@word_mpld,f
  6527  101F  0DF7               	rlf	__Umul8_16@word_mpld+1,f
  6528  1020  3EFF               	addlw	-1
  6529  1021  1D03               	skipz
  6530  1022  281D               	goto	u4755
  6531  1023  1003               	clrc
  6532  1024  0CF8               	rrf	__Umul8_16@multiplier,f
  6533  1025                     l3107:
  6534  1025  0878               	movf	__Umul8_16@multiplier,w
  6535  1026  1D03               	btfss	3,2
  6536  1027  2829               	goto	u4761
  6537  1028  282A               	goto	u4760
  6538  1029                     u4761:
  6539  1029  2812               	goto	l3103
  6540  102A                     u4760:
  6541  102A                     l3109:
  6542  102A  0875               	movf	__Umul8_16@product+1,w
  6543  102B  00F1               	movwf	?__Umul8_16+1
  6544  102C  0874               	movf	__Umul8_16@product,w
  6545  102D  00F0               	movwf	?__Umul8_16
  6546  102E                     l578:
  6547  102E  0008               	return
  6548  102F                     __end_of__Umul8_16:
  6549                           
  6550                           	psect	text15
  6551  1FB7                     __ptext15:	
  6552 ;; *************** function ___flsub *****************
  6553 ;; Defined at:
  6554 ;;		line 242 in file "C:\Program Files\Microchip\xc8\v2.36\pic\sources\c90\common\sprcadd.c"
  6555 ;; Parameters:    Size  Location     Type
  6556 ;;  a               4   65[BANK0 ] unsigned int 
  6557 ;;  b               4   69[BANK0 ] unsigned int 
  6558 ;; Auto vars:     Size  Location     Type
  6559 ;;		None
  6560 ;; Return value:  Size  Location     Type
  6561 ;;                  4   65[BANK0 ] unsigned int 
  6562 ;; Registers used:
  6563 ;;		wreg, status,2, status,0, btemp+1, pclath, cstack
  6564 ;; Tracked objects:
  6565 ;;		On entry : 0/0
  6566 ;;		On exit  : 0/0
  6567 ;;		Unchanged: 0/0
  6568 ;; Data sizes:     COMMON   BANK0   BANK1   BANK3   BANK2
  6569 ;;      Params:         0       8       0       0       0
  6570 ;;      Locals:         0       0       0       0       0
  6571 ;;      Temps:          0       0       0       0       0
  6572 ;;      Totals:         0       8       0       0       0
  6573 ;;Total ram usage:        8 bytes
  6574 ;; Hardware stack levels used: 1
  6575 ;; Hardware stack levels required when called: 1
  6576 ;; This function calls:
  6577 ;;		___fladd
  6578 ;; This function is called by:
  6579 ;;		_exp
  6580 ;; This function uses a non-reentrant model
  6581 ;;
  6582                           
  6583  1FB7                     ___flsub:	
  6584                           ;psect for function ___flsub
  6585                           
  6586  1FB7                     l3531:	
  6587                           ;incstack = 0
  6588                           ; Regs used in ___flsub: [wreg+status,2+status,0+btemp+1+pclath+cstack]
  6589                           
  6590  1FB7  3080               	movlw	128
  6591  1FB8  1283               	bcf	3,5	;RP0=0, select bank0
  6592  1FB9  1303               	bcf	3,6	;RP1=0, select bank0
  6593  1FBA  06E4               	xorwf	___flsub@a+3,f
  6594  1FBB                     l3533:
  6595  1FBB  0868               	movf	___flsub@b+3,w
  6596  1FBC  00D0               	movwf	___fladd@b+3
  6597  1FBD  0867               	movf	___flsub@b+2,w
  6598  1FBE  00CF               	movwf	___fladd@b+2
  6599  1FBF  0866               	movf	___flsub@b+1,w
  6600  1FC0  00CE               	movwf	___fladd@b+1
  6601  1FC1  0865               	movf	___flsub@b,w
  6602  1FC2  00CD               	movwf	___fladd@b
  6603  1FC3  0864               	movf	___flsub@a+3,w
  6604  1FC4  00D4               	movwf	___fladd@a+3
  6605  1FC5  0863               	movf	___flsub@a+2,w
  6606  1FC6  00D3               	movwf	___fladd@a+2
  6607  1FC7  0862               	movf	___flsub@a+1,w
  6608  1FC8  00D2               	movwf	___fladd@a+1
  6609  1FC9  0861               	movf	___flsub@a,w
  6610  1FCA  00D1               	movwf	___fladd@a
  6611  1FCB  120A  158A  2578  160A  158A  	fcall	___fladd
  6612  1FD0  1283               	bcf	3,5	;RP0=0, select bank0
  6613  1FD1  1303               	bcf	3,6	;RP1=0, select bank0
  6614  1FD2  0850               	movf	?___fladd+3,w
  6615  1FD3  00E4               	movwf	?___flsub+3
  6616  1FD4  084F               	movf	?___fladd+2,w
  6617  1FD5  00E3               	movwf	?___flsub+2
  6618  1FD6  084E               	movf	?___fladd+1,w
  6619  1FD7  00E2               	movwf	?___flsub+1
  6620  1FD8  084D               	movf	?___fladd,w
  6621  1FD9  00E1               	movwf	?___flsub
  6622  1FDA                     l507:
  6623  1FDA  0008               	return
  6624  1FDB                     __end_of___flsub:
  6625                           
  6626                           	psect	text16
  6627  0D78                     __ptext16:	
  6628 ;; *************** function ___fladd *****************
  6629 ;; Defined at:
  6630 ;;		line 10 in file "C:\Program Files\Microchip\xc8\v2.36\pic\sources\c90\common\sprcadd.c"
  6631 ;; Parameters:    Size  Location     Type
  6632 ;;  b               4   45[BANK0 ] unsigned int 
  6633 ;;  a               4   49[BANK0 ] unsigned int 
  6634 ;; Auto vars:     Size  Location     Type
  6635 ;;  grs             1   64[BANK0 ] unsigned char 
  6636 ;;  bexp            1   63[BANK0 ] unsigned char 
  6637 ;;  aexp            1   62[BANK0 ] unsigned char 
  6638 ;;  signs           1   61[BANK0 ] unsigned char 
  6639 ;; Return value:  Size  Location     Type
  6640 ;;                  4   45[BANK0 ] unsigned char 
  6641 ;; Registers used:
  6642 ;;		wreg, status,2, status,0, btemp+1
  6643 ;; Tracked objects:
  6644 ;;		On entry : 0/0
  6645 ;;		On exit  : 0/0
  6646 ;;		Unchanged: 0/0
  6647 ;; Data sizes:     COMMON   BANK0   BANK1   BANK3   BANK2
  6648 ;;      Params:         0       8       0       0       0
  6649 ;;      Locals:         0       4       0       0       0
  6650 ;;      Temps:          0       8       0       0       0
  6651 ;;      Totals:         0      20       0       0       0
  6652 ;;Total ram usage:       20 bytes
  6653 ;; Hardware stack levels used: 1
  6654 ;; This function calls:
  6655 ;;		Nothing
  6656 ;; This function is called by:
  6657 ;;		_pot_value
  6658 ;;		___flsub
  6659 ;;		_eval_poly
  6660 ;;		_floor
  6661 ;;		_log
  6662 ;; This function uses a non-reentrant model
  6663 ;;
  6664                           
  6665  0D78                     ___fladd:	
  6666                           ;psect for function ___fladd
  6667                           
  6668  0D78                     l3133:	
  6669                           ;incstack = 0
  6670                           ; Regs used in ___fladd: [wreg+status,2+status,0+btemp+1]
  6671                           
  6672  0D78  1283               	bcf	3,5	;RP0=0, select bank0
  6673  0D79  1303               	bcf	3,6	;RP1=0, select bank0
  6674  0D7A  0850               	movf	___fladd@b+3,w
  6675  0D7B  3980               	andlw	128
  6676  0D7C  00D5               	movwf	??___fladd
  6677  0D7D  0855               	movf	??___fladd,w
  6678  0D7E  00DD               	movwf	___fladd@signs
  6679  0D7F                     l3135:
  6680  0D7F  0850               	movf	___fladd@b+3,w
  6681  0D80  00D5               	movwf	??___fladd
  6682  0D81  0755               	addwf	??___fladd,w
  6683  0D82  00D6               	movwf	??___fladd+1
  6684  0D83  0856               	movf	??___fladd+1,w
  6685  0D84  00DF               	movwf	___fladd@bexp
  6686  0D85                     l3137:
  6687  0D85  1FCF               	btfss	___fladd@b+2,7
  6688  0D86  2D88               	goto	u4841
  6689  0D87  2D89               	goto	u4840
  6690  0D88                     u4841:
  6691  0D88  2D8A               	goto	l3141
  6692  0D89                     u4840:
  6693  0D89                     l3139:
  6694  0D89  145F               	bsf	___fladd@bexp,0
  6695  0D8A                     l3141:
  6696  0D8A  085F               	movf	___fladd@bexp,w
  6697  0D8B  1903               	btfsc	3,2
  6698  0D8C  2D8E               	goto	u4851
  6699  0D8D  2D8F               	goto	u4850
  6700  0D8E                     u4851:
  6701  0D8E  2D9F               	goto	l3151
  6702  0D8F                     u4850:
  6703  0D8F                     l3143:
  6704  0D8F  0A5F               	incf	___fladd@bexp,w
  6705  0D90  1D03               	btfss	3,2
  6706  0D91  2D93               	goto	u4861
  6707  0D92  2D94               	goto	u4860
  6708  0D93                     u4861:
  6709  0D93  2D9C               	goto	l3147
  6710  0D94                     u4860:
  6711  0D94                     l3145:
  6712  0D94  3000               	movlw	0
  6713  0D95  00D0               	movwf	___fladd@b+3
  6714  0D96  3000               	movlw	0
  6715  0D97  00CF               	movwf	___fladd@b+2
  6716  0D98  3000               	movlw	0
  6717  0D99  00CE               	movwf	___fladd@b+1
  6718  0D9A  3000               	movlw	0
  6719  0D9B  00CD               	movwf	___fladd@b
  6720  0D9C                     l3147:
  6721  0D9C  17CF               	bsf	___fladd@b+2,7
  6722  0D9D                     l3149:
  6723  0D9D  01D0               	clrf	___fladd@b+3
  6724  0D9E  2DA7               	goto	l3153
  6725  0D9F                     l3151:
  6726  0D9F  3000               	movlw	0
  6727  0DA0  00D0               	movwf	___fladd@b+3
  6728  0DA1  3000               	movlw	0
  6729  0DA2  00CF               	movwf	___fladd@b+2
  6730  0DA3  3000               	movlw	0
  6731  0DA4  00CE               	movwf	___fladd@b+1
  6732  0DA5  3000               	movlw	0
  6733  0DA6  00CD               	movwf	___fladd@b
  6734  0DA7                     l3153:
  6735  0DA7  0854               	movf	___fladd@a+3,w
  6736  0DA8  3980               	andlw	128
  6737  0DA9  00D5               	movwf	??___fladd
  6738  0DAA  0855               	movf	??___fladd,w
  6739  0DAB  00DE               	movwf	___fladd@aexp
  6740  0DAC                     l3155:
  6741  0DAC  085E               	movf	___fladd@aexp,w
  6742  0DAD  065D               	xorwf	___fladd@signs,w
  6743  0DAE  1903               	skipnz
  6744  0DAF  2DB1               	goto	u4871
  6745  0DB0  2DB2               	goto	u4870
  6746  0DB1                     u4871:
  6747  0DB1  2DB3               	goto	l3159
  6748  0DB2                     u4870:
  6749  0DB2                     l3157:
  6750  0DB2  175D               	bsf	___fladd@signs,6
  6751  0DB3                     l3159:
  6752  0DB3  0854               	movf	___fladd@a+3,w
  6753  0DB4  00D5               	movwf	??___fladd
  6754  0DB5  0755               	addwf	??___fladd,w
  6755  0DB6  00D6               	movwf	??___fladd+1
  6756  0DB7  0856               	movf	??___fladd+1,w
  6757  0DB8  00DE               	movwf	___fladd@aexp
  6758  0DB9                     l3161:
  6759  0DB9  1FD3               	btfss	___fladd@a+2,7
  6760  0DBA  2DBC               	goto	u4881
  6761  0DBB  2DBD               	goto	u4880
  6762  0DBC                     u4881:
  6763  0DBC  2DBE               	goto	l3165
  6764  0DBD                     u4880:
  6765  0DBD                     l3163:
  6766  0DBD  145E               	bsf	___fladd@aexp,0
  6767  0DBE                     l3165:
  6768  0DBE  085E               	movf	___fladd@aexp,w
  6769  0DBF  1903               	btfsc	3,2
  6770  0DC0  2DC2               	goto	u4891
  6771  0DC1  2DC3               	goto	u4890
  6772  0DC2                     u4891:
  6773  0DC2  2DD3               	goto	l3175
  6774  0DC3                     u4890:
  6775  0DC3                     l3167:
  6776  0DC3  0A5E               	incf	___fladd@aexp,w
  6777  0DC4  1D03               	btfss	3,2
  6778  0DC5  2DC7               	goto	u4901
  6779  0DC6  2DC8               	goto	u4900
  6780  0DC7                     u4901:
  6781  0DC7  2DD0               	goto	l3171
  6782  0DC8                     u4900:
  6783  0DC8                     l3169:
  6784  0DC8  3000               	movlw	0
  6785  0DC9  00D4               	movwf	___fladd@a+3
  6786  0DCA  3000               	movlw	0
  6787  0DCB  00D3               	movwf	___fladd@a+2
  6788  0DCC  3000               	movlw	0
  6789  0DCD  00D2               	movwf	___fladd@a+1
  6790  0DCE  3000               	movlw	0
  6791  0DCF  00D1               	movwf	___fladd@a
  6792  0DD0                     l3171:
  6793  0DD0  17D3               	bsf	___fladd@a+2,7
  6794  0DD1                     l3173:
  6795  0DD1  01D4               	clrf	___fladd@a+3
  6796  0DD2  2DDB               	goto	l461
  6797  0DD3                     l3175:
  6798  0DD3  3000               	movlw	0
  6799  0DD4  00D4               	movwf	___fladd@a+3
  6800  0DD5  3000               	movlw	0
  6801  0DD6  00D3               	movwf	___fladd@a+2
  6802  0DD7  3000               	movlw	0
  6803  0DD8  00D2               	movwf	___fladd@a+1
  6804  0DD9  3000               	movlw	0
  6805  0DDA  00D1               	movwf	___fladd@a
  6806  0DDB                     l461:
  6807  0DDB  085F               	movf	___fladd@bexp,w
  6808  0DDC  025E               	subwf	___fladd@aexp,w
  6809  0DDD  1803               	skipnc
  6810  0DDE  2DE0               	goto	u4911
  6811  0DDF  2DE1               	goto	u4910
  6812  0DE0                     u4911:
  6813  0DE0  2E25               	goto	l3211
  6814  0DE1                     u4910:
  6815  0DE1                     l3177:
  6816  0DE1  1F5D               	btfss	___fladd@signs,6
  6817  0DE2  2DE4               	goto	u4921
  6818  0DE3  2DE5               	goto	u4920
  6819  0DE4                     u4921:
  6820  0DE4  2DE9               	goto	l3181
  6821  0DE5                     u4920:
  6822  0DE5                     l3179:
  6823  0DE5  3080               	movlw	128
  6824  0DE6  00D5               	movwf	??___fladd
  6825  0DE7  0855               	movf	??___fladd,w
  6826  0DE8  06DD               	xorwf	___fladd@signs,f
  6827  0DE9                     l3181:
  6828  0DE9  085F               	movf	___fladd@bexp,w
  6829  0DEA  00D5               	movwf	??___fladd
  6830  0DEB  0855               	movf	??___fladd,w
  6831  0DEC  00E0               	movwf	___fladd@grs
  6832  0DED                     l3183:
  6833  0DED  085E               	movf	___fladd@aexp,w
  6834  0DEE  00D5               	movwf	??___fladd
  6835  0DEF  0855               	movf	??___fladd,w
  6836  0DF0  00DF               	movwf	___fladd@bexp
  6837  0DF1                     l3185:
  6838  0DF1  0860               	movf	___fladd@grs,w
  6839  0DF2  00D5               	movwf	??___fladd
  6840  0DF3  0855               	movf	??___fladd,w
  6841  0DF4  00DE               	movwf	___fladd@aexp
  6842  0DF5                     l3187:
  6843  0DF5  084D               	movf	___fladd@b,w
  6844  0DF6  00D5               	movwf	??___fladd
  6845  0DF7  0855               	movf	??___fladd,w
  6846  0DF8  00E0               	movwf	___fladd@grs
  6847  0DF9                     l3189:
  6848  0DF9  0851               	movf	___fladd@a,w
  6849  0DFA  00D5               	movwf	??___fladd
  6850  0DFB  0855               	movf	??___fladd,w
  6851  0DFC  00CD               	movwf	___fladd@b
  6852  0DFD                     l3191:
  6853  0DFD  0860               	movf	___fladd@grs,w
  6854  0DFE  00D5               	movwf	??___fladd
  6855  0DFF  0855               	movf	??___fladd,w
  6856  0E00  00D1               	movwf	___fladd@a
  6857  0E01                     l3193:
  6858  0E01  084E               	movf	___fladd@b+1,w
  6859  0E02  00D5               	movwf	??___fladd
  6860  0E03  0855               	movf	??___fladd,w
  6861  0E04  00E0               	movwf	___fladd@grs
  6862  0E05                     l3195:
  6863  0E05  0852               	movf	___fladd@a+1,w
  6864  0E06  00D5               	movwf	??___fladd
  6865  0E07  0855               	movf	??___fladd,w
  6866  0E08  00CE               	movwf	___fladd@b+1
  6867  0E09                     l3197:
  6868  0E09  0860               	movf	___fladd@grs,w
  6869  0E0A  00D5               	movwf	??___fladd
  6870  0E0B  0855               	movf	??___fladd,w
  6871  0E0C  00D2               	movwf	___fladd@a+1
  6872  0E0D                     l3199:
  6873  0E0D  084F               	movf	___fladd@b+2,w
  6874  0E0E  00D5               	movwf	??___fladd
  6875  0E0F  0855               	movf	??___fladd,w
  6876  0E10  00E0               	movwf	___fladd@grs
  6877  0E11                     l3201:
  6878  0E11  0853               	movf	___fladd@a+2,w
  6879  0E12  00D5               	movwf	??___fladd
  6880  0E13  0855               	movf	??___fladd,w
  6881  0E14  00CF               	movwf	___fladd@b+2
  6882  0E15                     l3203:
  6883  0E15  0860               	movf	___fladd@grs,w
  6884  0E16  00D5               	movwf	??___fladd
  6885  0E17  0855               	movf	??___fladd,w
  6886  0E18  00D3               	movwf	___fladd@a+2
  6887  0E19                     l3205:
  6888  0E19  0850               	movf	___fladd@b+3,w
  6889  0E1A  00D5               	movwf	??___fladd
  6890  0E1B  0855               	movf	??___fladd,w
  6891  0E1C  00E0               	movwf	___fladd@grs
  6892  0E1D                     l3207:
  6893  0E1D  0854               	movf	___fladd@a+3,w
  6894  0E1E  00D5               	movwf	??___fladd
  6895  0E1F  0855               	movf	??___fladd,w
  6896  0E20  00D0               	movwf	___fladd@b+3
  6897  0E21                     l3209:
  6898  0E21  0860               	movf	___fladd@grs,w
  6899  0E22  00D5               	movwf	??___fladd
  6900  0E23  0855               	movf	??___fladd,w
  6901  0E24  00D4               	movwf	___fladd@a+3
  6902  0E25                     l3211:
  6903  0E25  01E0               	clrf	___fladd@grs
  6904  0E26                     l3213:
  6905  0E26  085E               	movf	___fladd@aexp,w
  6906  0E27  00D5               	movwf	??___fladd
  6907  0E28  01D6               	clrf	??___fladd+1
  6908  0E29  0856               	movf	??___fladd+1,w
  6909  0E2A  00D8               	movwf	??___fladd+3
  6910  0E2B  085F               	movf	___fladd@bexp,w
  6911  0E2C  0255               	subwf	??___fladd,w
  6912  0E2D  00D7               	movwf	??___fladd+2
  6913  0E2E  1C03               	skipc
  6914  0E2F  03D8               	decf	??___fladd+3,f
  6915  0E30  0858               	movf	??___fladd+3,w
  6916  0E31  3A80               	xorlw	128
  6917  0E32  00FF               	movwf	btemp+1
  6918  0E33  3080               	movlw	128
  6919  0E34  027F               	subwf	btemp+1,w
  6920  0E35  1D03               	skipz
  6921  0E36  2E39               	goto	u4935
  6922  0E37  301A               	movlw	26
  6923  0E38  0257               	subwf	??___fladd+2,w
  6924  0E39                     u4935:
  6925  0E39  1C03               	skipc
  6926  0E3A  2E3C               	goto	u4931
  6927  0E3B  2E3D               	goto	u4930
  6928  0E3C                     u4931:
  6929  0E3C  2E7A               	goto	l3229
  6930  0E3D                     u4930:
  6931  0E3D                     l3215:
  6932  0E3D  1283               	bcf	3,5	;RP0=0, select bank0
  6933  0E3E  1303               	bcf	3,6	;RP1=0, select bank0
  6934  0E3F  0850               	movf	___fladd@b+3,w
  6935  0E40  044F               	iorwf	___fladd@b+2,w
  6936  0E41  044E               	iorwf	___fladd@b+1,w
  6937  0E42  044D               	iorwf	___fladd@b,w
  6938  0E43  1D03               	skipz
  6939  0E44  2E46               	goto	u4941
  6940  0E45  2E48               	goto	u4940
  6941  0E46                     u4941:
  6942  0E46  3001               	movlw	1
  6943  0E47  2E49               	goto	u4950
  6944  0E48                     u4940:
  6945  0E48  3000               	movlw	0
  6946  0E49                     u4950:
  6947  0E49  00D5               	movwf	??___fladd
  6948  0E4A  0855               	movf	??___fladd,w
  6949  0E4B  00E0               	movwf	___fladd@grs
  6950  0E4C  3000               	movlw	0
  6951  0E4D  00D0               	movwf	___fladd@b+3
  6952  0E4E  3000               	movlw	0
  6953  0E4F  00CF               	movwf	___fladd@b+2
  6954  0E50  3000               	movlw	0
  6955  0E51  00CE               	movwf	___fladd@b+1
  6956  0E52  3000               	movlw	0
  6957  0E53  00CD               	movwf	___fladd@b
  6958  0E54  085E               	movf	___fladd@aexp,w
  6959  0E55  00D5               	movwf	??___fladd
  6960  0E56  0855               	movf	??___fladd,w
  6961  0E57  00DF               	movwf	___fladd@bexp
  6962  0E58  2E82               	goto	l465
  6963  0E59                     l467:
  6964  0E59  1C60               	btfss	___fladd@grs,0
  6965  0E5A  2E5C               	goto	u4961
  6966  0E5B  2E5D               	goto	u4960
  6967  0E5C                     u4961:
  6968  0E5C  2E66               	goto	l3219
  6969  0E5D                     u4960:
  6970  0E5D                     l3217:
  6971  0E5D  0860               	movf	___fladd@grs,w
  6972  0E5E  00D5               	movwf	??___fladd
  6973  0E5F  1003               	clrc
  6974  0E60  0C55               	rrf	??___fladd,w
  6975  0E61  3801               	iorlw	1
  6976  0E62  00D6               	movwf	??___fladd+1
  6977  0E63  0856               	movf	??___fladd+1,w
  6978  0E64  00E0               	movwf	___fladd@grs
  6979  0E65  2E68               	goto	l3221
  6980  0E66                     l3219:
  6981  0E66  1003               	clrc
  6982  0E67  0CE0               	rrf	___fladd@grs,f
  6983  0E68                     l3221:
  6984  0E68  1C4D               	btfss	___fladd@b,0
  6985  0E69  2E6B               	goto	u4971
  6986  0E6A  2E6C               	goto	u4970
  6987  0E6B                     u4971:
  6988  0E6B  2E6D               	goto	l3225
  6989  0E6C                     u4970:
  6990  0E6C                     l3223:
  6991  0E6C  17E0               	bsf	___fladd@grs,7
  6992  0E6D                     l3225:
  6993  0E6D  3001               	movlw	1
  6994  0E6E  00D5               	movwf	??___fladd
  6995  0E6F                     u4985:
  6996  0E6F  0D50               	rlf	___fladd@b+3,w
  6997  0E70  0CD0               	rrf	___fladd@b+3,f
  6998  0E71  0CCF               	rrf	___fladd@b+2,f
  6999  0E72  0CCE               	rrf	___fladd@b+1,f
  7000  0E73  0CCD               	rrf	___fladd@b,f
  7001  0E74  0BD5               	decfsz	??___fladd& (0+127),f
  7002  0E75  2E6F               	goto	u4985
  7003  0E76                     l3227:
  7004  0E76  3001               	movlw	1
  7005  0E77  00D5               	movwf	??___fladd
  7006  0E78  0855               	movf	??___fladd,w
  7007  0E79  07DF               	addwf	___fladd@bexp,f
  7008  0E7A                     l3229:
  7009  0E7A  1283               	bcf	3,5	;RP0=0, select bank0
  7010  0E7B  1303               	bcf	3,6	;RP1=0, select bank0
  7011  0E7C  085E               	movf	___fladd@aexp,w
  7012  0E7D  025F               	subwf	___fladd@bexp,w
  7013  0E7E  1C03               	skipc
  7014  0E7F  2E81               	goto	u4991
  7015  0E80  2E82               	goto	u4990
  7016  0E81                     u4991:
  7017  0E81  2E59               	goto	l467
  7018  0E82                     u4990:
  7019  0E82                     l465:
  7020  0E82  1B5D               	btfsc	___fladd@signs,6
  7021  0E83  2E85               	goto	u5001
  7022  0E84  2E86               	goto	u5000
  7023  0E85                     u5001:
  7024  0E85  2ED1               	goto	l3255
  7025  0E86                     u5000:
  7026  0E86                     l3231:
  7027  0E86  085F               	movf	___fladd@bexp,w
  7028  0E87  1D03               	btfss	3,2
  7029  0E88  2E8A               	goto	u5011
  7030  0E89  2E8B               	goto	u5010
  7031  0E8A                     u5011:
  7032  0E8A  2E94               	goto	l3237
  7033  0E8B                     u5010:
  7034  0E8B                     l3233:
  7035  0E8B  3000               	movlw	0
  7036  0E8C  00D0               	movwf	?___fladd+3
  7037  0E8D  3000               	movlw	0
  7038  0E8E  00CF               	movwf	?___fladd+2
  7039  0E8F  3000               	movlw	0
  7040  0E90  00CE               	movwf	?___fladd+1
  7041  0E91  3000               	movlw	0
  7042  0E92  00CD               	movwf	?___fladd
  7043  0E93  2FFF               	goto	l474
  7044  0E94                     l3237:
  7045  0E94  0851               	movf	___fladd@a,w
  7046  0E95  07CD               	addwf	___fladd@b,f
  7047  0E96  0852               	movf	___fladd@a+1,w
  7048  0E97  1103               	clrz
  7049  0E98  1803               	skipnc
  7050  0E99  3E01               	addlw	1
  7051  0E9A  1903               	skipnz
  7052  0E9B  2E9D               	goto	u5021
  7053  0E9C  07CE               	addwf	___fladd@b+1,f
  7054  0E9D                     u5021:
  7055  0E9D  0853               	movf	___fladd@a+2,w
  7056  0E9E  1103               	clrz
  7057  0E9F  1803               	skipnc
  7058  0EA0  3E01               	addlw	1
  7059  0EA1  1903               	skipnz
  7060  0EA2  2EA4               	goto	u5022
  7061  0EA3  07CF               	addwf	___fladd@b+2,f
  7062  0EA4                     u5022:
  7063  0EA4  0854               	movf	___fladd@a+3,w
  7064  0EA5  1103               	clrz
  7065  0EA6  1803               	skipnc
  7066  0EA7  3E01               	addlw	1
  7067  0EA8  1903               	skipnz
  7068  0EA9  2EAB               	goto	u5023
  7069  0EAA  07D0               	addwf	___fladd@b+3,f
  7070  0EAB                     u5023:
  7071  0EAB                     l3239:
  7072  0EAB  1C50               	btfss	___fladd@b+3,0
  7073  0EAC  2EAE               	goto	u5031
  7074  0EAD  2EAF               	goto	u5030
  7075  0EAE                     u5031:
  7076  0EAE  2F85               	goto	l3289
  7077  0EAF                     u5030:
  7078  0EAF                     l3241:
  7079  0EAF  1C60               	btfss	___fladd@grs,0
  7080  0EB0  2EB2               	goto	u5041
  7081  0EB1  2EB3               	goto	u5040
  7082  0EB2                     u5041:
  7083  0EB2  2EBC               	goto	l3245
  7084  0EB3                     u5040:
  7085  0EB3                     l3243:
  7086  0EB3  0860               	movf	___fladd@grs,w
  7087  0EB4  00D5               	movwf	??___fladd
  7088  0EB5  1003               	clrc
  7089  0EB6  0C55               	rrf	??___fladd,w
  7090  0EB7  3801               	iorlw	1
  7091  0EB8  00D6               	movwf	??___fladd+1
  7092  0EB9  0856               	movf	??___fladd+1,w
  7093  0EBA  00E0               	movwf	___fladd@grs
  7094  0EBB  2EBE               	goto	l3247
  7095  0EBC                     l3245:
  7096  0EBC  1003               	clrc
  7097  0EBD  0CE0               	rrf	___fladd@grs,f
  7098  0EBE                     l3247:
  7099  0EBE  1C4D               	btfss	___fladd@b,0
  7100  0EBF  2EC1               	goto	u5051
  7101  0EC0  2EC2               	goto	u5050
  7102  0EC1                     u5051:
  7103  0EC1  2EC3               	goto	l3251
  7104  0EC2                     u5050:
  7105  0EC2                     l3249:
  7106  0EC2  17E0               	bsf	___fladd@grs,7
  7107  0EC3                     l3251:
  7108  0EC3  3001               	movlw	1
  7109  0EC4  00D5               	movwf	??___fladd
  7110  0EC5                     u5065:
  7111  0EC5  0D50               	rlf	___fladd@b+3,w
  7112  0EC6  0CD0               	rrf	___fladd@b+3,f
  7113  0EC7  0CCF               	rrf	___fladd@b+2,f
  7114  0EC8  0CCE               	rrf	___fladd@b+1,f
  7115  0EC9  0CCD               	rrf	___fladd@b,f
  7116  0ECA  0BD5               	decfsz	??___fladd& (0+127),f
  7117  0ECB  2EC5               	goto	u5065
  7118  0ECC                     l3253:
  7119  0ECC  3001               	movlw	1
  7120  0ECD  00D5               	movwf	??___fladd
  7121  0ECE  0855               	movf	??___fladd,w
  7122  0ECF  07DF               	addwf	___fladd@bexp,f
  7123  0ED0  2F85               	goto	l3289
  7124  0ED1                     l3255:
  7125  0ED1  0850               	movf	___fladd@b+3,w
  7126  0ED2  3A80               	xorlw	128
  7127  0ED3  00FF               	movwf	btemp+1
  7128  0ED4  0854               	movf	___fladd@a+3,w
  7129  0ED5  3A80               	xorlw	128
  7130  0ED6  027F               	subwf	btemp+1,w
  7131  0ED7  1D03               	skipz
  7132  0ED8  2EE3               	goto	u5073
  7133  0ED9  0853               	movf	___fladd@a+2,w
  7134  0EDA  024F               	subwf	___fladd@b+2,w
  7135  0EDB  1D03               	skipz
  7136  0EDC  2EE3               	goto	u5073
  7137  0EDD  0852               	movf	___fladd@a+1,w
  7138  0EDE  024E               	subwf	___fladd@b+1,w
  7139  0EDF  1D03               	skipz
  7140  0EE0  2EE3               	goto	u5073
  7141  0EE1  0851               	movf	___fladd@a,w
  7142  0EE2  024D               	subwf	___fladd@b,w
  7143  0EE3                     u5073:
  7144  0EE3  1803               	skipnc
  7145  0EE4  2EE6               	goto	u5071
  7146  0EE5  2EE7               	goto	u5070
  7147  0EE6                     u5071:
  7148  0EE6  2F3F               	goto	l3265
  7149  0EE7                     u5070:
  7150  0EE7                     l3257:
  7151  0EE7  30FF               	movlw	255
  7152  0EE8  00D5               	movwf	??___fladd
  7153  0EE9  30FF               	movlw	255
  7154  0EEA  00D6               	movwf	??___fladd+1
  7155  0EEB  30FF               	movlw	255
  7156  0EEC  00D7               	movwf	??___fladd+2
  7157  0EED  30FF               	movlw	255
  7158  0EEE  00D8               	movwf	??___fladd+3
  7159  0EEF  0851               	movf	___fladd@a,w
  7160  0EF0  00D9               	movwf	??___fladd+4
  7161  0EF1  0852               	movf	___fladd@a+1,w
  7162  0EF2  00DA               	movwf	??___fladd+5
  7163  0EF3  0853               	movf	___fladd@a+2,w
  7164  0EF4  00DB               	movwf	??___fladd+6
  7165  0EF5  0854               	movf	___fladd@a+3,w
  7166  0EF6  00DC               	movwf	??___fladd+7
  7167  0EF7  084D               	movf	___fladd@b,w
  7168  0EF8  02D9               	subwf	??___fladd+4,f
  7169  0EF9  084E               	movf	___fladd@b+1,w
  7170  0EFA  1C03               	skipc
  7171  0EFB  0F4E               	incfsz	___fladd@b+1,w
  7172  0EFC  2EFE               	goto	u5081
  7173  0EFD  2EFF               	goto	u5082
  7174  0EFE                     u5081:
  7175  0EFE  02DA               	subwf	??___fladd+5,f
  7176  0EFF                     u5082:
  7177  0EFF  084F               	movf	___fladd@b+2,w
  7178  0F00  1C03               	skipc
  7179  0F01  0F4F               	incfsz	___fladd@b+2,w
  7180  0F02  2F04               	goto	u5083
  7181  0F03  2F05               	goto	u5084
  7182  0F04                     u5083:
  7183  0F04  02DB               	subwf	??___fladd+6,f
  7184  0F05                     u5084:
  7185  0F05  0850               	movf	___fladd@b+3,w
  7186  0F06  1C03               	skipc
  7187  0F07  0F50               	incfsz	___fladd@b+3,w
  7188  0F08  2F0A               	goto	u5085
  7189  0F09  2F0B               	goto	u5086
  7190  0F0A                     u5085:
  7191  0F0A  02DC               	subwf	??___fladd+7,f
  7192  0F0B                     u5086:
  7193  0F0B  0859               	movf	??___fladd+4,w
  7194  0F0C  07D5               	addwf	??___fladd,f
  7195  0F0D  085A               	movf	??___fladd+5,w
  7196  0F0E  1803               	skipnc
  7197  0F0F  0F5A               	incfsz	??___fladd+5,w
  7198  0F10  2F12               	goto	u5090
  7199  0F11  2F13               	goto	u5091
  7200  0F12                     u5090:
  7201  0F12  07D6               	addwf	??___fladd+1,f
  7202  0F13                     u5091:
  7203  0F13  085B               	movf	??___fladd+6,w
  7204  0F14  1803               	skipnc
  7205  0F15  0F5B               	incfsz	??___fladd+6,w
  7206  0F16  2F18               	goto	u5092
  7207  0F17  2F19               	goto	u5093
  7208  0F18                     u5092:
  7209  0F18  07D7               	addwf	??___fladd+2,f
  7210  0F19                     u5093:
  7211  0F19  085C               	movf	??___fladd+7,w
  7212  0F1A  1803               	skipnc
  7213  0F1B  0A5C               	incf	??___fladd+7,w
  7214  0F1C  07D8               	addwf	??___fladd+3,f
  7215  0F1D  0858               	movf	??___fladd+3,w
  7216  0F1E  00D0               	movwf	___fladd@b+3
  7217  0F1F  0857               	movf	??___fladd+2,w
  7218  0F20  00CF               	movwf	___fladd@b+2
  7219  0F21  0856               	movf	??___fladd+1,w
  7220  0F22  00CE               	movwf	___fladd@b+1
  7221  0F23  0855               	movf	??___fladd,w
  7222  0F24  00CD               	movwf	___fladd@b
  7223  0F25                     l3259:
  7224  0F25  3080               	movlw	128
  7225  0F26  00D5               	movwf	??___fladd
  7226  0F27  0855               	movf	??___fladd,w
  7227  0F28  06DD               	xorwf	___fladd@signs,f
  7228  0F29  09E0               	comf	___fladd@grs,f
  7229  0F2A  0AE0               	incf	___fladd@grs,f
  7230  0F2B                     l3261:
  7231  0F2B  0860               	movf	___fladd@grs,w
  7232  0F2C  1D03               	btfss	3,2
  7233  0F2D  2F2F               	goto	u5101
  7234  0F2E  2F30               	goto	u5100
  7235  0F2F                     u5101:
  7236  0F2F  2F4D               	goto	l482
  7237  0F30                     u5100:
  7238  0F30                     l3263:
  7239  0F30  3001               	movlw	1
  7240  0F31  07CD               	addwf	___fladd@b,f
  7241  0F32  3000               	movlw	0
  7242  0F33  1803               	skipnc
  7243  0F34  3001               	movlw	1
  7244  0F35  07CE               	addwf	___fladd@b+1,f
  7245  0F36  3000               	movlw	0
  7246  0F37  1803               	skipnc
  7247  0F38  3001               	movlw	1
  7248  0F39  07CF               	addwf	___fladd@b+2,f
  7249  0F3A  3000               	movlw	0
  7250  0F3B  1803               	skipnc
  7251  0F3C  3001               	movlw	1
  7252  0F3D  07D0               	addwf	___fladd@b+3,f
  7253  0F3E  2F4D               	goto	l482
  7254  0F3F                     l3265:
  7255  0F3F  0851               	movf	___fladd@a,w
  7256  0F40  02CD               	subwf	___fladd@b,f
  7257  0F41  0852               	movf	___fladd@a+1,w
  7258  0F42  1C03               	skipc
  7259  0F43  0F52               	incfsz	___fladd@a+1,w
  7260  0F44  02CE               	subwf	___fladd@b+1,f
  7261  0F45  0853               	movf	___fladd@a+2,w
  7262  0F46  1C03               	skipc
  7263  0F47  0F53               	incfsz	___fladd@a+2,w
  7264  0F48  02CF               	subwf	___fladd@b+2,f
  7265  0F49  0854               	movf	___fladd@a+3,w
  7266  0F4A  1C03               	skipc
  7267  0F4B  0F54               	incfsz	___fladd@a+3,w
  7268  0F4C  02D0               	subwf	___fladd@b+3,f
  7269  0F4D                     l482:
  7270  0F4D  0850               	movf	___fladd@b+3,w
  7271  0F4E  044F               	iorwf	___fladd@b+2,w
  7272  0F4F  044E               	iorwf	___fladd@b+1,w
  7273  0F50  044D               	iorwf	___fladd@b,w
  7274  0F51  1D03               	skipz
  7275  0F52  2F54               	goto	u5111
  7276  0F53  2F55               	goto	u5110
  7277  0F54                     u5111:
  7278  0F54  2F81               	goto	l3287
  7279  0F55                     u5110:
  7280  0F55                     l3267:
  7281  0F55  0860               	movf	___fladd@grs,w
  7282  0F56  1D03               	btfss	3,2
  7283  0F57  2F59               	goto	u5121
  7284  0F58  2F5A               	goto	u5120
  7285  0F59                     u5121:
  7286  0F59  2F81               	goto	l3287
  7287  0F5A                     u5120:
  7288  0F5A                     l3269:
  7289  0F5A  3000               	movlw	0
  7290  0F5B  00D0               	movwf	?___fladd+3
  7291  0F5C  3000               	movlw	0
  7292  0F5D  00CF               	movwf	?___fladd+2
  7293  0F5E  3000               	movlw	0
  7294  0F5F  00CE               	movwf	?___fladd+1
  7295  0F60  3000               	movlw	0
  7296  0F61  00CD               	movwf	?___fladd
  7297  0F62  2FFF               	goto	l474
  7298  0F63                     l3273:
  7299  0F63  3001               	movlw	1
  7300  0F64  00D5               	movwf	??___fladd
  7301  0F65                     u5135:
  7302  0F65  1003               	clrc
  7303  0F66  0DCD               	rlf	___fladd@b,f
  7304  0F67  0DCE               	rlf	___fladd@b+1,f
  7305  0F68  0DCF               	rlf	___fladd@b+2,f
  7306  0F69  0DD0               	rlf	___fladd@b+3,f
  7307  0F6A  0BD5               	decfsz	??___fladd,f
  7308  0F6B  2F65               	goto	u5135
  7309  0F6C                     l3275:
  7310  0F6C  1FE0               	btfss	___fladd@grs,7
  7311  0F6D  2F6F               	goto	u5141
  7312  0F6E  2F70               	goto	u5140
  7313  0F6F                     u5141:
  7314  0F6F  2F71               	goto	l486
  7315  0F70                     u5140:
  7316  0F70                     l3277:
  7317  0F70  144D               	bsf	___fladd@b,0
  7318  0F71                     l486:
  7319  0F71  1C60               	btfss	___fladd@grs,0
  7320  0F72  2F74               	goto	u5151
  7321  0F73  2F75               	goto	u5150
  7322  0F74                     u5151:
  7323  0F74  2F78               	goto	l3281
  7324  0F75                     u5150:
  7325  0F75                     l3279:
  7326  0F75  1403               	setc
  7327  0F76  0DE0               	rlf	___fladd@grs,f
  7328  0F77  2F7A               	goto	l3283
  7329  0F78                     l3281:
  7330  0F78  1003               	clrc
  7331  0F79  0DE0               	rlf	___fladd@grs,f
  7332  0F7A                     l3283:
  7333  0F7A  085F               	movf	___fladd@bexp,w
  7334  0F7B  1903               	btfsc	3,2
  7335  0F7C  2F7E               	goto	u5161
  7336  0F7D  2F7F               	goto	u5160
  7337  0F7E                     u5161:
  7338  0F7E  2F81               	goto	l3287
  7339  0F7F                     u5160:
  7340  0F7F                     l3285:
  7341  0F7F  3001               	movlw	1
  7342  0F80  02DF               	subwf	___fladd@bexp,f
  7343  0F81                     l3287:
  7344  0F81  1FCF               	btfss	___fladd@b+2,7
  7345  0F82  2F84               	goto	u5171
  7346  0F83  2F85               	goto	u5170
  7347  0F84                     u5171:
  7348  0F84  2F63               	goto	l3273
  7349  0F85                     u5170:
  7350  0F85                     l3289:
  7351  0F85  01DE               	clrf	___fladd@aexp
  7352  0F86                     l3291:
  7353  0F86  1FE0               	btfss	___fladd@grs,7
  7354  0F87  2F89               	goto	u5181
  7355  0F88  2F8A               	goto	u5180
  7356  0F89                     u5181:
  7357  0F89  2F98               	goto	l3299
  7358  0F8A                     u5180:
  7359  0F8A                     l3293:
  7360  0F8A  0860               	movf	___fladd@grs,w
  7361  0F8B  397F               	andlw	127
  7362  0F8C  1903               	btfsc	3,2
  7363  0F8D  2F8F               	goto	u5191
  7364  0F8E  2F90               	goto	u5190
  7365  0F8F                     u5191:
  7366  0F8F  2F93               	goto	l492
  7367  0F90                     u5190:
  7368  0F90                     l3295:
  7369  0F90  01DE               	clrf	___fladd@aexp
  7370  0F91  0ADE               	incf	___fladd@aexp,f
  7371  0F92  2F98               	goto	l3299
  7372  0F93                     l492:
  7373  0F93  1C4D               	btfss	___fladd@b,0
  7374  0F94  2F96               	goto	u5201
  7375  0F95  2F97               	goto	u5200
  7376  0F96                     u5201:
  7377  0F96  2F98               	goto	l3299
  7378  0F97                     u5200:
  7379  0F97  2F90               	goto	l3295
  7380  0F98                     l3299:
  7381  0F98  085E               	movf	___fladd@aexp,w
  7382  0F99  1903               	btfsc	3,2
  7383  0F9A  2F9C               	goto	u5211
  7384  0F9B  2F9D               	goto	u5210
  7385  0F9C                     u5211:
  7386  0F9C  2FD1               	goto	l495
  7387  0F9D                     u5210:
  7388  0F9D                     l3301:
  7389  0F9D  3001               	movlw	1
  7390  0F9E  07CD               	addwf	___fladd@b,f
  7391  0F9F  3000               	movlw	0
  7392  0FA0  1803               	skipnc
  7393  0FA1  3001               	movlw	1
  7394  0FA2  07CE               	addwf	___fladd@b+1,f
  7395  0FA3  3000               	movlw	0
  7396  0FA4  1803               	skipnc
  7397  0FA5  3001               	movlw	1
  7398  0FA6  07CF               	addwf	___fladd@b+2,f
  7399  0FA7  3000               	movlw	0
  7400  0FA8  1803               	skipnc
  7401  0FA9  3001               	movlw	1
  7402  0FAA  07D0               	addwf	___fladd@b+3,f
  7403  0FAB                     l3303:
  7404  0FAB  1C50               	btfss	___fladd@b+3,0
  7405  0FAC  2FAE               	goto	u5221
  7406  0FAD  2FAF               	goto	u5220
  7407  0FAE                     u5221:
  7408  0FAE  2FD1               	goto	l495
  7409  0FAF                     u5220:
  7410  0FAF                     l3305:
  7411  0FAF  084D               	movf	___fladd@b,w
  7412  0FB0  00D5               	movwf	??___fladd
  7413  0FB1  084E               	movf	___fladd@b+1,w
  7414  0FB2  00D6               	movwf	??___fladd+1
  7415  0FB3  084F               	movf	___fladd@b+2,w
  7416  0FB4  00D7               	movwf	??___fladd+2
  7417  0FB5  0850               	movf	___fladd@b+3,w
  7418  0FB6  00D8               	movwf	??___fladd+3
  7419  0FB7  3001               	movlw	1
  7420  0FB8  00D9               	movwf	??___fladd+4
  7421  0FB9                     u5235:
  7422  0FB9  0D58               	rlf	??___fladd+3,w
  7423  0FBA  0CD8               	rrf	??___fladd+3,f
  7424  0FBB  0CD7               	rrf	??___fladd+2,f
  7425  0FBC  0CD6               	rrf	??___fladd+1,f
  7426  0FBD  0CD5               	rrf	??___fladd,f
  7427  0FBE                     u5230:
  7428  0FBE  0BD9               	decfsz	??___fladd+4,f
  7429  0FBF  2FB9               	goto	u5235
  7430  0FC0  0858               	movf	??___fladd+3,w
  7431  0FC1  00D0               	movwf	___fladd@b+3
  7432  0FC2  0857               	movf	??___fladd+2,w
  7433  0FC3  00CF               	movwf	___fladd@b+2
  7434  0FC4  0856               	movf	??___fladd+1,w
  7435  0FC5  00CE               	movwf	___fladd@b+1
  7436  0FC6  0855               	movf	??___fladd,w
  7437  0FC7  00CD               	movwf	___fladd@b
  7438  0FC8  0A5F               	incf	___fladd@bexp,w
  7439  0FC9  1903               	btfsc	3,2
  7440  0FCA  2FCC               	goto	u5241
  7441  0FCB  2FCD               	goto	u5240
  7442  0FCC                     u5241:
  7443  0FCC  2FD1               	goto	l495
  7444  0FCD                     u5240:
  7445  0FCD                     l3307:
  7446  0FCD  3001               	movlw	1
  7447  0FCE  00D5               	movwf	??___fladd
  7448  0FCF  0855               	movf	??___fladd,w
  7449  0FD0  07DF               	addwf	___fladd@bexp,f
  7450  0FD1                     l495:
  7451  0FD1  0A5F               	incf	___fladd@bexp,w
  7452  0FD2  1903               	btfsc	3,2
  7453  0FD3  2FD5               	goto	u5251
  7454  0FD4  2FD6               	goto	u5250
  7455  0FD5                     u5251:
  7456  0FD5  2FDB               	goto	l3311
  7457  0FD6                     u5250:
  7458  0FD6                     l3309:
  7459  0FD6  085F               	movf	___fladd@bexp,w
  7460  0FD7  1D03               	btfss	3,2
  7461  0FD8  2FDA               	goto	u5261
  7462  0FD9  2FDB               	goto	u5260
  7463  0FDA                     u5261:
  7464  0FDA  2FE9               	goto	l3317
  7465  0FDB                     u5260:
  7466  0FDB                     l3311:
  7467  0FDB  3000               	movlw	0
  7468  0FDC  00D0               	movwf	___fladd@b+3
  7469  0FDD  3000               	movlw	0
  7470  0FDE  00CF               	movwf	___fladd@b+2
  7471  0FDF  3000               	movlw	0
  7472  0FE0  00CE               	movwf	___fladd@b+1
  7473  0FE1  3000               	movlw	0
  7474  0FE2  00CD               	movwf	___fladd@b
  7475  0FE3                     l3313:
  7476  0FE3  085F               	movf	___fladd@bexp,w
  7477  0FE4  1D03               	btfss	3,2
  7478  0FE5  2FE7               	goto	u5271
  7479  0FE6  2FE8               	goto	u5270
  7480  0FE7                     u5271:
  7481  0FE7  2FE9               	goto	l3317
  7482  0FE8                     u5270:
  7483  0FE8                     l3315:
  7484  0FE8  01DD               	clrf	___fladd@signs
  7485  0FE9                     l3317:
  7486  0FE9  1C5F               	btfss	___fladd@bexp,0
  7487  0FEA  2FEC               	goto	u5281
  7488  0FEB  2FED               	goto	u5280
  7489  0FEC                     u5281:
  7490  0FEC  2FEF               	goto	l3321
  7491  0FED                     u5280:
  7492  0FED                     l3319:
  7493  0FED  17CF               	bsf	___fladd@b+2,7
  7494  0FEE  2FF3               	goto	l503
  7495  0FEF                     l3321:
  7496  0FEF  307F               	movlw	127
  7497  0FF0  00D5               	movwf	??___fladd
  7498  0FF1  0855               	movf	??___fladd,w
  7499  0FF2  05CF               	andwf	___fladd@b+2,f
  7500  0FF3                     l503:
  7501  0FF3  085F               	movf	___fladd@bexp,w
  7502  0FF4  00D5               	movwf	??___fladd
  7503  0FF5  1003               	clrc
  7504  0FF6  0C55               	rrf	??___fladd,w
  7505  0FF7  00D6               	movwf	??___fladd+1
  7506  0FF8  0856               	movf	??___fladd+1,w
  7507  0FF9  00D0               	movwf	___fladd@b+3
  7508  0FFA                     l3323:
  7509  0FFA  1FDD               	btfss	___fladd@signs,7
  7510  0FFB  2FFD               	goto	u5291
  7511  0FFC  2FFE               	goto	u5290
  7512  0FFD                     u5291:
  7513  0FFD  2FFF               	goto	l504
  7514  0FFE                     u5290:
  7515  0FFE                     l3325:
  7516  0FFE  17D0               	bsf	___fladd@b+3,7
  7517  0FFF                     l504:
  7518  0FFF                     l474:
  7519  0FFF  0008               	return
  7520  1000                     __end_of___fladd:
  7521                           
  7522                           	psect	text17
  7523  1FAC                     __ptext17:	
  7524 ;; *************** function ___flneg *****************
  7525 ;; Defined at:
  7526 ;;		line 15 in file "C:\Program Files\Microchip\xc8\v2.36\pic\sources\c90\common\flneg.c"
  7527 ;; Parameters:    Size  Location     Type
  7528 ;;  f1              4    0[COMMON] unsigned char 
  7529 ;; Auto vars:     Size  Location     Type
  7530 ;;		None
  7531 ;; Return value:  Size  Location     Type
  7532 ;;                  4    0[COMMON] unsigned char 
  7533 ;; Registers used:
  7534 ;;		wreg
  7535 ;; Tracked objects:
  7536 ;;		On entry : 0/0
  7537 ;;		On exit  : 0/0
  7538 ;;		Unchanged: 0/0
  7539 ;; Data sizes:     COMMON   BANK0   BANK1   BANK3   BANK2
  7540 ;;      Params:         4       0       0       0       0
  7541 ;;      Locals:         0       0       0       0       0
  7542 ;;      Temps:          0       0       0       0       0
  7543 ;;      Totals:         4       0       0       0       0
  7544 ;;Total ram usage:        4 bytes
  7545 ;; Hardware stack levels used: 1
  7546 ;; This function calls:
  7547 ;;		Nothing
  7548 ;; This function is called by:
  7549 ;;		_pow
  7550 ;;		_exp
  7551 ;; This function uses a non-reentrant model
  7552 ;;
  7553                           
  7554  1FAC                     ___flneg:	
  7555                           ;psect for function ___flneg
  7556                           
  7557  1FAC                     l2421:	
  7558                           ;incstack = 0
  7559                           ; Regs used in ___flneg: [wreg]
  7560                           
  7561  1FAC  0873               	movf	___flneg@f1+3,w
  7562  1FAD  0472               	iorwf	___flneg@f1+2,w
  7563  1FAE  0471               	iorwf	___flneg@f1+1,w
  7564  1FAF  0470               	iorwf	___flneg@f1,w
  7565  1FB0  1903               	skipnz
  7566  1FB1  2FB3               	goto	u3571
  7567  1FB2  2FB4               	goto	u3570
  7568  1FB3                     u3571:
  7569  1FB3  2FB6               	goto	l2425
  7570  1FB4                     u3570:
  7571  1FB4                     l2423:
  7572  1FB4  3080               	movlw	128
  7573  1FB5  06F3               	xorwf	___flneg@f1+3,f
  7574  1FB6                     l2425:
  7575  1FB6                     l350:
  7576  1FB6  0008               	return
  7577  1FB7                     __end_of___flneg:
  7578                           
  7579                           	psect	text18
  7580  001A                     __ptext18:	
  7581 ;; *************** function ___fldiv *****************
  7582 ;; Defined at:
  7583 ;;		line 8 in file "C:\Program Files\Microchip\xc8\v2.36\pic\sources\c90\common\sprcdiv.c"
  7584 ;; Parameters:    Size  Location     Type
  7585 ;;  a               4    0[COMMON] unsigned char 
  7586 ;;  b               4    4[COMMON] unsigned char 
  7587 ;; Auto vars:     Size  Location     Type
  7588 ;;  grs             4    7[BANK0 ] unsigned long 
  7589 ;;  rem             4    0[BANK0 ] unsigned long 
  7590 ;;  new_exp         2    5[BANK0 ] int 
  7591 ;;  aexp            1   12[BANK0 ] unsigned char 
  7592 ;;  bexp            1   11[BANK0 ] unsigned char 
  7593 ;;  sign            1    4[BANK0 ] unsigned char 
  7594 ;; Return value:  Size  Location     Type
  7595 ;;                  4    0[COMMON] unsigned char 
  7596 ;; Registers used:
  7597 ;;		wreg, status,2, status,0, btemp+1
  7598 ;; Tracked objects:
  7599 ;;		On entry : 0/0
  7600 ;;		On exit  : 0/0
  7601 ;;		Unchanged: 0/0
  7602 ;; Data sizes:     COMMON   BANK0   BANK1   BANK3   BANK2
  7603 ;;      Params:         8       0       0       0       0
  7604 ;;      Locals:         0      13       0       0       0
  7605 ;;      Temps:          5       0       0       0       0
  7606 ;;      Totals:        13      13       0       0       0
  7607 ;;Total ram usage:       26 bytes
  7608 ;; Hardware stack levels used: 1
  7609 ;; This function calls:
  7610 ;;		Nothing
  7611 ;; This function is called by:
  7612 ;;		_exp
  7613 ;; This function uses a non-reentrant model
  7614 ;;
  7615                           
  7616  001A                     ___fldiv:	
  7617                           ;psect for function ___fldiv
  7618                           
  7619  001A                     l2435:	
  7620                           ;incstack = 0
  7621                           ; Regs used in ___fldiv: [wreg+status,2+status,0+btemp+1]
  7622                           
  7623  001A  0877               	movf	___fldiv@b+3,w
  7624  001B  3980               	andlw	128
  7625  001C  00F8               	movwf	??___fldiv
  7626  001D  0878               	movf	??___fldiv,w
  7627  001E  1283               	bcf	3,5	;RP0=0, select bank0
  7628  001F  1303               	bcf	3,6	;RP1=0, select bank0
  7629  0020  00A4               	movwf	___fldiv@sign
  7630  0021                     l2437:
  7631  0021  0877               	movf	___fldiv@b+3,w
  7632  0022  00F8               	movwf	??___fldiv
  7633  0023  0778               	addwf	??___fldiv,w
  7634  0024  00F9               	movwf	??___fldiv+1
  7635  0025  0879               	movf	??___fldiv+1,w
  7636  0026  00AB               	movwf	___fldiv@bexp
  7637  0027                     l2439:
  7638  0027  1FF6               	btfss	___fldiv@b+2,7
  7639  0028  282A               	goto	u3581
  7640  0029  282B               	goto	u3580
  7641  002A                     u3581:
  7642  002A  282C               	goto	l2443
  7643  002B                     u3580:
  7644  002B                     l2441:
  7645  002B  142B               	bsf	___fldiv@bexp,0
  7646  002C                     l2443:
  7647  002C  082B               	movf	___fldiv@bexp,w
  7648  002D  1903               	btfsc	3,2
  7649  002E  2830               	goto	u3591
  7650  002F  2831               	goto	u3590
  7651  0030                     u3591:
  7652  0030  2841               	goto	l2453
  7653  0031                     u3590:
  7654  0031                     l2445:
  7655  0031  0A2B               	incf	___fldiv@bexp,w
  7656  0032  1D03               	btfss	3,2
  7657  0033  2835               	goto	u3601
  7658  0034  2836               	goto	u3600
  7659  0035                     u3601:
  7660  0035  283E               	goto	l2449
  7661  0036                     u3600:
  7662  0036                     l2447:
  7663  0036  3000               	movlw	0
  7664  0037  00F7               	movwf	___fldiv@b+3
  7665  0038  3000               	movlw	0
  7666  0039  00F6               	movwf	___fldiv@b+2
  7667  003A  3000               	movlw	0
  7668  003B  00F5               	movwf	___fldiv@b+1
  7669  003C  3000               	movlw	0
  7670  003D  00F4               	movwf	___fldiv@b
  7671  003E                     l2449:
  7672  003E  17F6               	bsf	___fldiv@b+2,7
  7673  003F                     l2451:
  7674  003F  01F7               	clrf	___fldiv@b+3
  7675  0040  2849               	goto	l2455
  7676  0041                     l2453:
  7677  0041  3000               	movlw	0
  7678  0042  00F7               	movwf	___fldiv@b+3
  7679  0043  3000               	movlw	0
  7680  0044  00F6               	movwf	___fldiv@b+2
  7681  0045  3000               	movlw	0
  7682  0046  00F5               	movwf	___fldiv@b+1
  7683  0047  3000               	movlw	0
  7684  0048  00F4               	movwf	___fldiv@b
  7685  0049                     l2455:
  7686  0049  0873               	movf	___fldiv@a+3,w
  7687  004A  3980               	andlw	128
  7688  004B  00F8               	movwf	??___fldiv
  7689  004C  0878               	movf	??___fldiv,w
  7690  004D  06A4               	xorwf	___fldiv@sign,f
  7691  004E                     l2457:
  7692  004E  0873               	movf	___fldiv@a+3,w
  7693  004F  00F8               	movwf	??___fldiv
  7694  0050  0778               	addwf	??___fldiv,w
  7695  0051  00F9               	movwf	??___fldiv+1
  7696  0052  0879               	movf	??___fldiv+1,w
  7697  0053  00AC               	movwf	___fldiv@aexp
  7698  0054                     l2459:
  7699  0054  1FF2               	btfss	___fldiv@a+2,7
  7700  0055  2857               	goto	u3611
  7701  0056  2858               	goto	u3610
  7702  0057                     u3611:
  7703  0057  2859               	goto	l2463
  7704  0058                     u3610:
  7705  0058                     l2461:
  7706  0058  142C               	bsf	___fldiv@aexp,0
  7707  0059                     l2463:
  7708  0059  082C               	movf	___fldiv@aexp,w
  7709  005A  1903               	btfsc	3,2
  7710  005B  285D               	goto	u3621
  7711  005C  285E               	goto	u3620
  7712  005D                     u3621:
  7713  005D  286E               	goto	l2473
  7714  005E                     u3620:
  7715  005E                     l2465:
  7716  005E  0A2C               	incf	___fldiv@aexp,w
  7717  005F  1D03               	btfss	3,2
  7718  0060  2862               	goto	u3631
  7719  0061  2863               	goto	u3630
  7720  0062                     u3631:
  7721  0062  286B               	goto	l2469
  7722  0063                     u3630:
  7723  0063                     l2467:
  7724  0063  3000               	movlw	0
  7725  0064  00F3               	movwf	___fldiv@a+3
  7726  0065  3000               	movlw	0
  7727  0066  00F2               	movwf	___fldiv@a+2
  7728  0067  3000               	movlw	0
  7729  0068  00F1               	movwf	___fldiv@a+1
  7730  0069  3000               	movlw	0
  7731  006A  00F0               	movwf	___fldiv@a
  7732  006B                     l2469:
  7733  006B  17F2               	bsf	___fldiv@a+2,7
  7734  006C                     l2471:
  7735  006C  01F3               	clrf	___fldiv@a+3
  7736  006D  2876               	goto	l517
  7737  006E                     l2473:
  7738  006E  3000               	movlw	0
  7739  006F  00F3               	movwf	___fldiv@a+3
  7740  0070  3000               	movlw	0
  7741  0071  00F2               	movwf	___fldiv@a+2
  7742  0072  3000               	movlw	0
  7743  0073  00F1               	movwf	___fldiv@a+1
  7744  0074  3000               	movlw	0
  7745  0075  00F0               	movwf	___fldiv@a
  7746  0076                     l517:
  7747  0076  0873               	movf	___fldiv@a+3,w
  7748  0077  0472               	iorwf	___fldiv@a+2,w
  7749  0078  0471               	iorwf	___fldiv@a+1,w
  7750  0079  0470               	iorwf	___fldiv@a,w
  7751  007A  1D03               	skipz
  7752  007B  287D               	goto	u3641
  7753  007C  287E               	goto	u3640
  7754  007D                     u3641:
  7755  007D  2897               	goto	l2483
  7756  007E                     u3640:
  7757  007E                     l2475:
  7758  007E  3000               	movlw	0
  7759  007F  00F7               	movwf	___fldiv@b+3
  7760  0080  3000               	movlw	0
  7761  0081  00F6               	movwf	___fldiv@b+2
  7762  0082  3000               	movlw	0
  7763  0083  00F5               	movwf	___fldiv@b+1
  7764  0084  3000               	movlw	0
  7765  0085  00F4               	movwf	___fldiv@b
  7766  0086  3080               	movlw	128
  7767  0087  04F6               	iorwf	___fldiv@b+2,f
  7768  0088  307F               	movlw	127
  7769  0089  04F7               	iorwf	___fldiv@b+3,f
  7770  008A                     l2477:
  7771  008A  0824               	movf	___fldiv@sign,w
  7772  008B  00F8               	movwf	??___fldiv
  7773  008C  0878               	movf	??___fldiv,w
  7774  008D  04F7               	iorwf	___fldiv@b+3,f
  7775  008E                     l2479:
  7776  008E  0877               	movf	___fldiv@b+3,w
  7777  008F  00F3               	movwf	?___fldiv+3
  7778  0090  0876               	movf	___fldiv@b+2,w
  7779  0091  00F2               	movwf	?___fldiv+2
  7780  0092  0875               	movf	___fldiv@b+1,w
  7781  0093  00F1               	movwf	?___fldiv+1
  7782  0094  0874               	movf	___fldiv@b,w
  7783  0095  00F0               	movwf	?___fldiv
  7784  0096  29FC               	goto	l519
  7785  0097                     l2483:
  7786  0097  082B               	movf	___fldiv@bexp,w
  7787  0098  1D03               	btfss	3,2
  7788  0099  289B               	goto	u3651
  7789  009A  289C               	goto	u3650
  7790  009B                     u3651:
  7791  009B  28A5               	goto	l2489
  7792  009C                     u3650:
  7793  009C                     l2485:
  7794  009C  3000               	movlw	0
  7795  009D  00F3               	movwf	?___fldiv+3
  7796  009E  3000               	movlw	0
  7797  009F  00F2               	movwf	?___fldiv+2
  7798  00A0  3000               	movlw	0
  7799  00A1  00F1               	movwf	?___fldiv+1
  7800  00A2  3000               	movlw	0
  7801  00A3  00F0               	movwf	?___fldiv
  7802  00A4  29FC               	goto	l519
  7803  00A5                     l2489:
  7804  00A5  082B               	movf	___fldiv@bexp,w
  7805  00A6  00F8               	movwf	??___fldiv
  7806  00A7  01F9               	clrf	??___fldiv+1
  7807  00A8  0879               	movf	??___fldiv+1,w
  7808  00A9  00FB               	movwf	??___fldiv+3
  7809  00AA  082C               	movf	___fldiv@aexp,w
  7810  00AB  0278               	subwf	??___fldiv,w
  7811  00AC  00FA               	movwf	??___fldiv+2
  7812  00AD  1C03               	skipc
  7813  00AE  03FB               	decf	??___fldiv+3,f
  7814  00AF  087A               	movf	??___fldiv+2,w
  7815  00B0  3E7F               	addlw	127
  7816  00B1  00A5               	movwf	___fldiv@new_exp
  7817  00B2  087B               	movf	??___fldiv+3,w
  7818  00B3  1803               	skipnc
  7819  00B4  3E01               	addlw	1
  7820  00B5  3E00               	addlw	0
  7821  00B6  00A6               	movwf	___fldiv@new_exp+1
  7822  00B7                     l2491:
  7823  00B7  0877               	movf	___fldiv@b+3,w
  7824  00B8  00A3               	movwf	___fldiv@rem+3
  7825  00B9  0876               	movf	___fldiv@b+2,w
  7826  00BA  00A2               	movwf	___fldiv@rem+2
  7827  00BB  0875               	movf	___fldiv@b+1,w
  7828  00BC  00A1               	movwf	___fldiv@rem+1
  7829  00BD  0874               	movf	___fldiv@b,w
  7830  00BE  00A0               	movwf	___fldiv@rem
  7831  00BF                     l2493:
  7832  00BF  3000               	movlw	0
  7833  00C0  00F7               	movwf	___fldiv@b+3
  7834  00C1  3000               	movlw	0
  7835  00C2  00F6               	movwf	___fldiv@b+2
  7836  00C3  3000               	movlw	0
  7837  00C4  00F5               	movwf	___fldiv@b+1
  7838  00C5  3000               	movlw	0
  7839  00C6  00F4               	movwf	___fldiv@b
  7840  00C7                     l2495:
  7841  00C7  3000               	movlw	0
  7842  00C8  00AA               	movwf	___fldiv@grs+3
  7843  00C9  3000               	movlw	0
  7844  00CA  00A9               	movwf	___fldiv@grs+2
  7845  00CB  3000               	movlw	0
  7846  00CC  00A8               	movwf	___fldiv@grs+1
  7847  00CD  3000               	movlw	0
  7848  00CE  00A7               	movwf	___fldiv@grs
  7849  00CF                     l2497:
  7850  00CF  01AC               	clrf	___fldiv@aexp
  7851  00D0  2921               	goto	l2517
  7852  00D1                     l2499:
  7853  00D1  082C               	movf	___fldiv@aexp,w
  7854  00D2  1903               	btfsc	3,2
  7855  00D3  28D5               	goto	u3661
  7856  00D4  28D6               	goto	u3660
  7857  00D5                     u3661:
  7858  00D5  28F6               	goto	l2509
  7859  00D6                     u3660:
  7860  00D6                     l2501:
  7861  00D6  3001               	movlw	1
  7862  00D7  00F8               	movwf	??___fldiv
  7863  00D8                     u3675:
  7864  00D8  1003               	clrc
  7865  00D9  0DA0               	rlf	___fldiv@rem,f
  7866  00DA  0DA1               	rlf	___fldiv@rem+1,f
  7867  00DB  0DA2               	rlf	___fldiv@rem+2,f
  7868  00DC  0DA3               	rlf	___fldiv@rem+3,f
  7869  00DD  0BF8               	decfsz	??___fldiv,f
  7870  00DE  28D8               	goto	u3675
  7871  00DF  3001               	movlw	1
  7872  00E0  00F8               	movwf	??___fldiv
  7873  00E1                     u3685:
  7874  00E1  1003               	clrc
  7875  00E2  0DF4               	rlf	___fldiv@b,f
  7876  00E3  0DF5               	rlf	___fldiv@b+1,f
  7877  00E4  0DF6               	rlf	___fldiv@b+2,f
  7878  00E5  0DF7               	rlf	___fldiv@b+3,f
  7879  00E6  0BF8               	decfsz	??___fldiv,f
  7880  00E7  28E1               	goto	u3685
  7881  00E8                     l2503:
  7882  00E8  1FAA               	btfss	___fldiv@grs+3,7
  7883  00E9  28EB               	goto	u3691
  7884  00EA  28EC               	goto	u3690
  7885  00EB                     u3691:
  7886  00EB  28ED               	goto	l2507
  7887  00EC                     u3690:
  7888  00EC                     l2505:
  7889  00EC  1474               	bsf	___fldiv@b,0
  7890  00ED                     l2507:
  7891  00ED  3001               	movlw	1
  7892  00EE  00F8               	movwf	??___fldiv
  7893  00EF                     u3705:
  7894  00EF  1003               	clrc
  7895  00F0  0DA7               	rlf	___fldiv@grs,f
  7896  00F1  0DA8               	rlf	___fldiv@grs+1,f
  7897  00F2  0DA9               	rlf	___fldiv@grs+2,f
  7898  00F3  0DAA               	rlf	___fldiv@grs+3,f
  7899  00F4  0BF8               	decfsz	??___fldiv,f
  7900  00F5  28EF               	goto	u3705
  7901  00F6                     l2509:
  7902  00F6  0873               	movf	___fldiv@a+3,w
  7903  00F7  0223               	subwf	___fldiv@rem+3,w
  7904  00F8  1D03               	skipz
  7905  00F9  2904               	goto	u3715
  7906  00FA  0872               	movf	___fldiv@a+2,w
  7907  00FB  0222               	subwf	___fldiv@rem+2,w
  7908  00FC  1D03               	skipz
  7909  00FD  2904               	goto	u3715
  7910  00FE  0871               	movf	___fldiv@a+1,w
  7911  00FF  0221               	subwf	___fldiv@rem+1,w
  7912  0100  1D03               	skipz
  7913  0101  2904               	goto	u3715
  7914  0102  0870               	movf	___fldiv@a,w
  7915  0103  0220               	subwf	___fldiv@rem,w
  7916  0104                     u3715:
  7917  0104  1C03               	skipc
  7918  0105  2907               	goto	u3711
  7919  0106  2908               	goto	u3710
  7920  0107                     u3711:
  7921  0107  291D               	goto	l2515
  7922  0108                     u3710:
  7923  0108                     l2511:
  7924  0108  172A               	bsf	___fldiv@grs+3,6
  7925  0109                     l2513:
  7926  0109  0870               	movf	___fldiv@a,w
  7927  010A  02A0               	subwf	___fldiv@rem,f
  7928  010B  0871               	movf	___fldiv@a+1,w
  7929  010C  1C03               	skipc
  7930  010D  0F71               	incfsz	___fldiv@a+1,w
  7931  010E  2910               	goto	u3725
  7932  010F  2911               	goto	u3726
  7933  0110                     u3725:
  7934  0110  02A1               	subwf	___fldiv@rem+1,f
  7935  0111                     u3726:
  7936  0111  0872               	movf	___fldiv@a+2,w
  7937  0112  1C03               	skipc
  7938  0113  0F72               	incfsz	___fldiv@a+2,w
  7939  0114  2916               	goto	u3727
  7940  0115  2917               	goto	u3728
  7941  0116                     u3727:
  7942  0116  02A2               	subwf	___fldiv@rem+2,f
  7943  0117                     u3728:
  7944  0117  0873               	movf	___fldiv@a+3,w
  7945  0118  1C03               	skipc
  7946  0119  0F73               	incfsz	___fldiv@a+3,w
  7947  011A  291C               	goto	u3729
  7948  011B  291D               	goto	u3720
  7949  011C                     u3729:
  7950  011C  02A3               	subwf	___fldiv@rem+3,f
  7951  011D                     u3720:
  7952  011D                     l2515:
  7953  011D  3001               	movlw	1
  7954  011E  00F8               	movwf	??___fldiv
  7955  011F  0878               	movf	??___fldiv,w
  7956  0120  07AC               	addwf	___fldiv@aexp,f
  7957  0121                     l2517:
  7958  0121  301A               	movlw	26
  7959  0122  022C               	subwf	___fldiv@aexp,w
  7960  0123  1C03               	skipc
  7961  0124  2926               	goto	u3731
  7962  0125  2927               	goto	u3730
  7963  0126                     u3731:
  7964  0126  28D1               	goto	l2499
  7965  0127                     u3730:
  7966  0127                     l2519:
  7967  0127  0823               	movf	___fldiv@rem+3,w
  7968  0128  0422               	iorwf	___fldiv@rem+2,w
  7969  0129  0421               	iorwf	___fldiv@rem+1,w
  7970  012A  0420               	iorwf	___fldiv@rem,w
  7971  012B  1903               	skipnz
  7972  012C  292E               	goto	u3741
  7973  012D  292F               	goto	u3740
  7974  012E                     u3741:
  7975  012E  294E               	goto	l2533
  7976  012F                     u3740:
  7977  012F                     l2521:
  7978  012F  1427               	bsf	___fldiv@grs,0
  7979  0130  294E               	goto	l2533
  7980  0131                     l2523:
  7981  0131  3001               	movlw	1
  7982  0132  00F8               	movwf	??___fldiv
  7983  0133                     u3755:
  7984  0133  1003               	clrc
  7985  0134  0DF4               	rlf	___fldiv@b,f
  7986  0135  0DF5               	rlf	___fldiv@b+1,f
  7987  0136  0DF6               	rlf	___fldiv@b+2,f
  7988  0137  0DF7               	rlf	___fldiv@b+3,f
  7989  0138  0BF8               	decfsz	??___fldiv,f
  7990  0139  2933               	goto	u3755
  7991  013A                     l2525:
  7992  013A  1FAA               	btfss	___fldiv@grs+3,7
  7993  013B  293D               	goto	u3761
  7994  013C  293E               	goto	u3760
  7995  013D                     u3761:
  7996  013D  293F               	goto	l2529
  7997  013E                     u3760:
  7998  013E                     l2527:
  7999  013E  1474               	bsf	___fldiv@b,0
  8000  013F                     l2529:
  8001  013F  3001               	movlw	1
  8002  0140  00F8               	movwf	??___fldiv
  8003  0141                     u3775:
  8004  0141  1003               	clrc
  8005  0142  0DA7               	rlf	___fldiv@grs,f
  8006  0143  0DA8               	rlf	___fldiv@grs+1,f
  8007  0144  0DA9               	rlf	___fldiv@grs+2,f
  8008  0145  0DAA               	rlf	___fldiv@grs+3,f
  8009  0146  0BF8               	decfsz	??___fldiv,f
  8010  0147  2941               	goto	u3775
  8011  0148                     l2531:
  8012  0148  30FF               	movlw	255
  8013  0149  07A5               	addwf	___fldiv@new_exp,f
  8014  014A  1803               	skipnc
  8015  014B  0AA6               	incf	___fldiv@new_exp+1,f
  8016  014C  30FF               	movlw	255
  8017  014D  07A6               	addwf	___fldiv@new_exp+1,f
  8018  014E                     l2533:
  8019  014E  1FF6               	btfss	___fldiv@b+2,7
  8020  014F  2951               	goto	u3781
  8021  0150  2952               	goto	u3780
  8022  0151                     u3781:
  8023  0151  2931               	goto	l2523
  8024  0152                     u3780:
  8025  0152                     l2535:
  8026  0152  01AC               	clrf	___fldiv@aexp
  8027  0153                     l2537:
  8028  0153  1FAA               	btfss	___fldiv@grs+3,7
  8029  0154  2956               	goto	u3791
  8030  0155  2957               	goto	u3790
  8031  0156                     u3791:
  8032  0156  2973               	goto	l2545
  8033  0157                     u3790:
  8034  0157                     l2539:
  8035  0157  30FF               	movlw	255
  8036  0158  0527               	andwf	___fldiv@grs,w
  8037  0159  00F8               	movwf	??___fldiv
  8038  015A  30FF               	movlw	255
  8039  015B  0528               	andwf	___fldiv@grs+1,w
  8040  015C  00F9               	movwf	??___fldiv+1
  8041  015D  30FF               	movlw	255
  8042  015E  0529               	andwf	___fldiv@grs+2,w
  8043  015F  00FA               	movwf	??___fldiv+2
  8044  0160  307F               	movlw	127
  8045  0161  052A               	andwf	___fldiv@grs+3,w
  8046  0162  00FB               	movwf	??___fldiv+3
  8047  0163  087B               	movf	??___fldiv+3,w
  8048  0164  047A               	iorwf	??___fldiv+2,w
  8049  0165  0479               	iorwf	??___fldiv+1,w
  8050  0166  0478               	iorwf	??___fldiv,w
  8051  0167  1903               	skipnz
  8052  0168  296A               	goto	u3801
  8053  0169  296B               	goto	u3800
  8054  016A                     u3801:
  8055  016A  296E               	goto	l533
  8056  016B                     u3800:
  8057  016B                     l2541:
  8058  016B  01AC               	clrf	___fldiv@aexp
  8059  016C  0AAC               	incf	___fldiv@aexp,f
  8060  016D  2973               	goto	l2545
  8061  016E                     l533:
  8062  016E  1C74               	btfss	___fldiv@b,0
  8063  016F  2971               	goto	u3811
  8064  0170  2972               	goto	u3810
  8065  0171                     u3811:
  8066  0171  2973               	goto	l2545
  8067  0172                     u3810:
  8068  0172  296B               	goto	l2541
  8069  0173                     l2545:
  8070  0173  082C               	movf	___fldiv@aexp,w
  8071  0174  1903               	btfsc	3,2
  8072  0175  2977               	goto	u3821
  8073  0176  2978               	goto	u3820
  8074  0177                     u3821:
  8075  0177  29A9               	goto	l2555
  8076  0178                     u3820:
  8077  0178                     l2547:
  8078  0178  3001               	movlw	1
  8079  0179  07F4               	addwf	___fldiv@b,f
  8080  017A  3000               	movlw	0
  8081  017B  1803               	skipnc
  8082  017C  3001               	movlw	1
  8083  017D  07F5               	addwf	___fldiv@b+1,f
  8084  017E  3000               	movlw	0
  8085  017F  1803               	skipnc
  8086  0180  3001               	movlw	1
  8087  0181  07F6               	addwf	___fldiv@b+2,f
  8088  0182  3000               	movlw	0
  8089  0183  1803               	skipnc
  8090  0184  3001               	movlw	1
  8091  0185  07F7               	addwf	___fldiv@b+3,f
  8092  0186                     l2549:
  8093  0186  1C77               	btfss	___fldiv@b+3,0
  8094  0187  2989               	goto	u3831
  8095  0188  298A               	goto	u3830
  8096  0189                     u3831:
  8097  0189  29A9               	goto	l2555
  8098  018A                     u3830:
  8099  018A                     l2551:
  8100  018A  0874               	movf	___fldiv@b,w
  8101  018B  00F8               	movwf	??___fldiv
  8102  018C  0875               	movf	___fldiv@b+1,w
  8103  018D  00F9               	movwf	??___fldiv+1
  8104  018E  0876               	movf	___fldiv@b+2,w
  8105  018F  00FA               	movwf	??___fldiv+2
  8106  0190  0877               	movf	___fldiv@b+3,w
  8107  0191  00FB               	movwf	??___fldiv+3
  8108  0192  3001               	movlw	1
  8109  0193  00FC               	movwf	??___fldiv+4
  8110  0194                     u3845:
  8111  0194  0D7B               	rlf	??___fldiv+3,w
  8112  0195  0CFB               	rrf	??___fldiv+3,f
  8113  0196  0CFA               	rrf	??___fldiv+2,f
  8114  0197  0CF9               	rrf	??___fldiv+1,f
  8115  0198  0CF8               	rrf	??___fldiv,f
  8116  0199                     u3840:
  8117  0199  0BFC               	decfsz	??___fldiv+4,f
  8118  019A  2994               	goto	u3845
  8119  019B  087B               	movf	??___fldiv+3,w
  8120  019C  00F7               	movwf	___fldiv@b+3
  8121  019D  087A               	movf	??___fldiv+2,w
  8122  019E  00F6               	movwf	___fldiv@b+2
  8123  019F  0879               	movf	??___fldiv+1,w
  8124  01A0  00F5               	movwf	___fldiv@b+1
  8125  01A1  0878               	movf	??___fldiv,w
  8126  01A2  00F4               	movwf	___fldiv@b
  8127  01A3                     l2553:
  8128  01A3  3001               	movlw	1
  8129  01A4  07A5               	addwf	___fldiv@new_exp,f
  8130  01A5  1803               	skipnc
  8131  01A6  0AA6               	incf	___fldiv@new_exp+1,f
  8132  01A7  3000               	movlw	0
  8133  01A8  07A6               	addwf	___fldiv@new_exp+1,f
  8134  01A9                     l2555:
  8135  01A9  0826               	movf	___fldiv@new_exp+1,w
  8136  01AA  3A80               	xorlw	128
  8137  01AB  00FF               	movwf	btemp+1
  8138  01AC  3080               	movlw	128
  8139  01AD  027F               	subwf	btemp+1,w
  8140  01AE  1D03               	skipz
  8141  01AF  29B2               	goto	u3855
  8142  01B0  30FF               	movlw	255
  8143  01B1  0225               	subwf	___fldiv@new_exp,w
  8144  01B2                     u3855:
  8145  01B2  1C03               	skipc
  8146  01B3  29B5               	goto	u3851
  8147  01B4  29B6               	goto	u3850
  8148  01B5                     u3851:
  8149  01B5  29C4               	goto	l2559
  8150  01B6                     u3850:
  8151  01B6                     l2557:
  8152  01B6  30FF               	movlw	255
  8153  01B7  1283               	bcf	3,5	;RP0=0, select bank0
  8154  01B8  1303               	bcf	3,6	;RP1=0, select bank0
  8155  01B9  00A5               	movwf	___fldiv@new_exp
  8156  01BA  3000               	movlw	0
  8157  01BB  00A6               	movwf	___fldiv@new_exp+1
  8158  01BC  3000               	movlw	0
  8159  01BD  00F7               	movwf	___fldiv@b+3
  8160  01BE  3000               	movlw	0
  8161  01BF  00F6               	movwf	___fldiv@b+2
  8162  01C0  3000               	movlw	0
  8163  01C1  00F5               	movwf	___fldiv@b+1
  8164  01C2  3000               	movlw	0
  8165  01C3  00F4               	movwf	___fldiv@b
  8166  01C4                     l2559:
  8167  01C4  1283               	bcf	3,5	;RP0=0, select bank0
  8168  01C5  1303               	bcf	3,6	;RP1=0, select bank0
  8169  01C6  0826               	movf	___fldiv@new_exp+1,w
  8170  01C7  3A80               	xorlw	128
  8171  01C8  00FF               	movwf	btemp+1
  8172  01C9  3080               	movlw	128
  8173  01CA  027F               	subwf	btemp+1,w
  8174  01CB  1D03               	skipz
  8175  01CC  29CF               	goto	u3865
  8176  01CD  3001               	movlw	1
  8177  01CE  0225               	subwf	___fldiv@new_exp,w
  8178  01CF                     u3865:
  8179  01CF  1803               	skipnc
  8180  01D0  29D2               	goto	u3861
  8181  01D1  29D3               	goto	u3860
  8182  01D2                     u3861:
  8183  01D2  29E0               	goto	l539
  8184  01D3                     u3860:
  8185  01D3                     l2561:
  8186  01D3  1283               	bcf	3,5	;RP0=0, select bank0
  8187  01D4  1303               	bcf	3,6	;RP1=0, select bank0
  8188  01D5  01A5               	clrf	___fldiv@new_exp
  8189  01D6  01A6               	clrf	___fldiv@new_exp+1
  8190  01D7                     l2563:
  8191  01D7  3000               	movlw	0
  8192  01D8  00F7               	movwf	___fldiv@b+3
  8193  01D9  3000               	movlw	0
  8194  01DA  00F6               	movwf	___fldiv@b+2
  8195  01DB  3000               	movlw	0
  8196  01DC  00F5               	movwf	___fldiv@b+1
  8197  01DD  3000               	movlw	0
  8198  01DE  00F4               	movwf	___fldiv@b
  8199  01DF                     l2565:
  8200  01DF  01A4               	clrf	___fldiv@sign
  8201  01E0                     l539:
  8202  01E0  1283               	bcf	3,5	;RP0=0, select bank0
  8203  01E1  1303               	bcf	3,6	;RP1=0, select bank0
  8204  01E2  0825               	movf	___fldiv@new_exp,w
  8205  01E3  00F8               	movwf	??___fldiv
  8206  01E4  0878               	movf	??___fldiv,w
  8207  01E5  00AB               	movwf	___fldiv@bexp
  8208  01E6                     l2567:
  8209  01E6  1C2B               	btfss	___fldiv@bexp,0
  8210  01E7  29E9               	goto	u3871
  8211  01E8  29EA               	goto	u3870
  8212  01E9                     u3871:
  8213  01E9  29EC               	goto	l2571
  8214  01EA                     u3870:
  8215  01EA                     l2569:
  8216  01EA  17F6               	bsf	___fldiv@b+2,7
  8217  01EB  29F0               	goto	l541
  8218  01EC                     l2571:
  8219  01EC  307F               	movlw	127
  8220  01ED  00F8               	movwf	??___fldiv
  8221  01EE  0878               	movf	??___fldiv,w
  8222  01EF  05F6               	andwf	___fldiv@b+2,f
  8223  01F0                     l541:
  8224  01F0  082B               	movf	___fldiv@bexp,w
  8225  01F1  00F8               	movwf	??___fldiv
  8226  01F2  1003               	clrc
  8227  01F3  0C78               	rrf	??___fldiv,w
  8228  01F4  00F9               	movwf	??___fldiv+1
  8229  01F5  0879               	movf	??___fldiv+1,w
  8230  01F6  00F7               	movwf	___fldiv@b+3
  8231  01F7  0824               	movf	___fldiv@sign,w
  8232  01F8  00F8               	movwf	??___fldiv
  8233  01F9  0878               	movf	??___fldiv,w
  8234  01FA  04F7               	iorwf	___fldiv@b+3,f
  8235  01FB  288E               	goto	l2479
  8236  01FC                     l519:
  8237  01FC  0008               	return
  8238  01FD                     __end_of___fldiv:
  8239                           
  8240                           	psect	text19
  8241  0852                     __ptext19:	
  8242 ;; *************** function _lat_pulse *****************
  8243 ;; Defined at:
  8244 ;;		line 51 in file "ex7-1.c"
  8245 ;; Parameters:    Size  Location     Type
  8246 ;;		None
  8247 ;; Auto vars:     Size  Location     Type
  8248 ;;		None
  8249 ;; Return value:  Size  Location     Type
  8250 ;;                  1    wreg      void 
  8251 ;; Registers used:
  8252 ;;		None
  8253 ;; Tracked objects:
  8254 ;;		On entry : 0/0
  8255 ;;		On exit  : 0/0
  8256 ;;		Unchanged: 0/0
  8257 ;; Data sizes:     COMMON   BANK0   BANK1   BANK3   BANK2
  8258 ;;      Params:         0       0       0       0       0
  8259 ;;      Locals:         0       0       0       0       0
  8260 ;;      Temps:          0       0       0       0       0
  8261 ;;      Totals:         0       0       0       0       0
  8262 ;;Total ram usage:        0 bytes
  8263 ;; Hardware stack levels used: 1
  8264 ;; This function calls:
  8265 ;;		Nothing
  8266 ;; This function is called by:
  8267 ;;		_main
  8268 ;; This function uses a non-reentrant model
  8269 ;;
  8270                           
  8271  0852                     _lat_pulse:	
  8272                           ;psect for function _lat_pulse
  8273                           
  8274  0852                     l2845:	
  8275                           ;incstack = 0
  8276                           ; Regs used in _lat_pulse: []
  8277                           
  8278                           
  8279                           ;ex7-1.c: 54:     PORTDbits.RD2 = 1;
  8280  0852  1283               	bcf	3,5	;RP0=0, select bank0
  8281  0853  1303               	bcf	3,6	;RP1=0, select bank0
  8282  0854  1508               	bsf	8,2	;volatile
  8283                           
  8284                           ;ex7-1.c: 55:     PORTDbits.RD2 = 0;
  8285  0855  1108               	bcf	8,2	;volatile
  8286  0856                     l30:	
  8287                           ;ex7-1.c: 57:     return;
  8288                           
  8289  0856  0008               	return
  8290  0857                     __end_of_lat_pulse:
  8291                           
  8292                           	psect	text20
  8293  1217                     __ptext20:	
  8294 ;; *************** function _bit_shift *****************
  8295 ;; Defined at:
  8296 ;;		line 96 in file "ex7-1.c"
  8297 ;; Parameters:    Size  Location     Type
  8298 ;;  counter         2    9[COMMON] int 
  8299 ;; Auto vars:     Size  Location     Type
  8300 ;;  digit_2         2    2[BANK0 ] int 
  8301 ;;  digit_1         2    0[BANK0 ] int 
  8302 ;;  i               1    4[BANK0 ] unsigned char 
  8303 ;; Return value:  Size  Location     Type
  8304 ;;                  1    wreg      void 
  8305 ;; Registers used:
  8306 ;;		wreg, fsr0l, fsr0h, status,2, status,0, pclath, cstack
  8307 ;; Tracked objects:
  8308 ;;		On entry : 0/0
  8309 ;;		On exit  : 0/0
  8310 ;;		Unchanged: 0/0
  8311 ;; Data sizes:     COMMON   BANK0   BANK1   BANK3   BANK2
  8312 ;;      Params:         2       0       0       0       0
  8313 ;;      Locals:         0       5       0       0       0
  8314 ;;      Temps:          2       0       0       0       0
  8315 ;;      Totals:         4       5       0       0       0
  8316 ;;Total ram usage:        9 bytes
  8317 ;; Hardware stack levels used: 1
  8318 ;; Hardware stack levels required when called: 1
  8319 ;; This function calls:
  8320 ;;		___awdiv
  8321 ;;		___awmod
  8322 ;;		_clk_pulse
  8323 ;; This function is called by:
  8324 ;;		_main
  8325 ;; This function uses a non-reentrant model
  8326 ;;
  8327                           
  8328  1217                     _bit_shift:	
  8329                           ;psect for function _bit_shift
  8330                           
  8331  1217                     l2861:	
  8332                           ;incstack = 0
  8333                           ; Regs used in _bit_shift: [wreg-fsr0h+status,2+status,0+pclath+cstack]
  8334                           
  8335                           
  8336                           ;ex7-1.c: 101:     int digit_2 = 0;
  8337  1217  1283               	bcf	3,5	;RP0=0, select bank0
  8338  1218  1303               	bcf	3,6	;RP1=0, select bank0
  8339  1219  01A2               	clrf	bit_shift@digit_2
  8340  121A  01A3               	clrf	bit_shift@digit_2+1
  8341                           
  8342                           ;ex7-1.c: 102:     unsigned char i = 0;
  8343  121B  01A4               	clrf	bit_shift@i
  8344  121C                     l2863:
  8345                           
  8346                           ;ex7-1.c: 105:     digit_1 = counter/10;
  8347  121C  300A               	movlw	10
  8348  121D  00F0               	movwf	___awdiv@divisor
  8349  121E  3000               	movlw	0
  8350  121F  00F1               	movwf	___awdiv@divisor+1
  8351  1220  087A               	movf	bit_shift@counter+1,w
  8352  1221  00F3               	movwf	___awdiv@dividend+1
  8353  1222  0879               	movf	bit_shift@counter,w
  8354  1223  00F2               	movwf	___awdiv@dividend
  8355  1224  160A  118A  2134  160A  118A  	fcall	___awdiv
  8356  1229  0871               	movf	?___awdiv+1,w
  8357  122A  1283               	bcf	3,5	;RP0=0, select bank0
  8358  122B  1303               	bcf	3,6	;RP1=0, select bank0
  8359  122C  00A1               	movwf	bit_shift@digit_1+1
  8360  122D  0870               	movf	?___awdiv,w
  8361  122E  00A0               	movwf	bit_shift@digit_1
  8362  122F                     l2865:
  8363                           
  8364                           ;ex7-1.c: 106:     digit_2 = counter%10;
  8365  122F  300A               	movlw	10
  8366  1230  00F0               	movwf	___awmod@divisor
  8367  1231  3000               	movlw	0
  8368  1232  00F1               	movwf	___awmod@divisor+1
  8369  1233  087A               	movf	bit_shift@counter+1,w
  8370  1234  00F3               	movwf	___awmod@dividend+1
  8371  1235  0879               	movf	bit_shift@counter,w
  8372  1236  00F2               	movwf	___awmod@dividend
  8373  1237  160A  118A  207F  160A  118A  	fcall	___awmod
  8374  123C  0871               	movf	?___awmod+1,w
  8375  123D  1283               	bcf	3,5	;RP0=0, select bank0
  8376  123E  1303               	bcf	3,6	;RP1=0, select bank0
  8377  123F  00A3               	movwf	bit_shift@digit_2+1
  8378  1240  0870               	movf	?___awmod,w
  8379  1241  00A2               	movwf	bit_shift@digit_2
  8380                           
  8381                           ;ex7-1.c: 109:     for(i=0;i<7;i++){
  8382  1242  01A4               	clrf	bit_shift@i
  8383  1243                     l2871:
  8384                           
  8385                           ;ex7-1.c: 112:         if(((Com_Ca[digit_2]&(0b0000001<<i))>>i)==1){
  8386  1243  0822               	movf	bit_shift@digit_2,w
  8387  1244  3E90               	addlw	(low (_Com_Ca| (0+256)))& (0+255)
  8388  1245  0084               	movwf	4
  8389  1246  3001               	movlw	1
  8390  1247  00FB               	movwf	??_bit_shift
  8391  1248  0A24               	incf	bit_shift@i,w
  8392  1249  2A4C               	goto	u4354
  8393  124A                     u4355:
  8394  124A  1003               	clrc
  8395  124B  0DFB               	rlf	??_bit_shift,f
  8396  124C                     u4354:
  8397  124C  3EFF               	addlw	-1
  8398  124D  1D03               	skipz
  8399  124E  2A4A               	goto	u4355
  8400  124F  087B               	movf	??_bit_shift,w
  8401  1250  1783               	bsf	3,7	;select IRP bank3
  8402  1251  0500               	andwf	0,w
  8403  1252  00FC               	movwf	??_bit_shift+1
  8404  1253  0A24               	incf	bit_shift@i,w
  8405  1254  2A57               	goto	u4364
  8406  1255                     u4365:
  8407  1255  1003               	clrc
  8408  1256  0CFC               	rrf	??_bit_shift+1,f
  8409  1257                     u4364:
  8410  1257  3EFF               	addlw	-1
  8411  1258  1D03               	skipz
  8412  1259  2A55               	goto	u4365
  8413  125A  037C               	decf	??_bit_shift+1,w
  8414  125B  1D03               	btfss	3,2
  8415  125C  2A5E               	goto	u4371
  8416  125D  2A5F               	goto	u4370
  8417  125E                     u4371:
  8418  125E  2A61               	goto	l41
  8419  125F                     u4370:
  8420  125F                     l2873:
  8421                           
  8422                           ;ex7-1.c: 115:             PORTDbits.RD1 = 1;
  8423  125F  1488               	bsf	8,1	;volatile
  8424                           
  8425                           ;ex7-1.c: 117:         } else{
  8426  1260  2A62               	goto	l2875
  8427  1261                     l41:
  8428                           
  8429                           ;ex7-1.c: 120:             PORTDbits.RD1 = 0;
  8430  1261  1088               	bcf	8,1	;volatile
  8431  1262                     l2875:
  8432                           
  8433                           ;ex7-1.c: 125:         clk_pulse();
  8434  1262  160A  118A  2003  160A  118A  	fcall	_clk_pulse
  8435  1267                     l2877:
  8436                           
  8437                           ;ex7-1.c: 127:     }
  8438  1267  3001               	movlw	1
  8439  1268  00FB               	movwf	??_bit_shift
  8440  1269  087B               	movf	??_bit_shift,w
  8441  126A  1283               	bcf	3,5	;RP0=0, select bank0
  8442  126B  1303               	bcf	3,6	;RP1=0, select bank0
  8443  126C  07A4               	addwf	bit_shift@i,f
  8444  126D                     l2879:
  8445  126D  3007               	movlw	7
  8446  126E  0224               	subwf	bit_shift@i,w
  8447  126F  1C03               	skipc
  8448  1270  2A72               	goto	u4381
  8449  1271  2A73               	goto	u4380
  8450  1272                     u4381:
  8451  1272  2A43               	goto	l2871
  8452  1273                     u4380:
  8453  1273                     l2881:
  8454                           
  8455                           ;ex7-1.c: 130:     clk_pulse();
  8456  1273  160A  118A  2003  160A  118A  	fcall	_clk_pulse
  8457  1278                     l2883:
  8458  1278                     l2885:
  8459                           
  8460                           ;ex7-1.c: 137:     for(i=0;i<7;i++){
  8461  1278  1283               	bcf	3,5	;RP0=0, select bank0
  8462  1279  1303               	bcf	3,6	;RP1=0, select bank0
  8463  127A  01A4               	clrf	bit_shift@i
  8464  127B                     l2891:
  8465                           
  8466                           ;ex7-1.c: 140:         if(((Com_Ca[digit_1]&(0b0000001<<i))>>i)==1){
  8467  127B  0820               	movf	bit_shift@digit_1,w
  8468  127C  3E90               	addlw	(low (_Com_Ca| (0+256)))& (0+255)
  8469  127D  0084               	movwf	4
  8470  127E  3001               	movlw	1
  8471  127F  00FB               	movwf	??_bit_shift
  8472  1280  0A24               	incf	bit_shift@i,w
  8473  1281  2A84               	goto	u4394
  8474  1282                     u4395:
  8475  1282  1003               	clrc
  8476  1283  0DFB               	rlf	??_bit_shift,f
  8477  1284                     u4394:
  8478  1284  3EFF               	addlw	-1
  8479  1285  1D03               	skipz
  8480  1286  2A82               	goto	u4395
  8481  1287  087B               	movf	??_bit_shift,w
  8482  1288  1783               	bsf	3,7	;select IRP bank3
  8483  1289  0500               	andwf	0,w
  8484  128A  00FC               	movwf	??_bit_shift+1
  8485  128B  0A24               	incf	bit_shift@i,w
  8486  128C  2A8F               	goto	u4404
  8487  128D                     u4405:
  8488  128D  1003               	clrc
  8489  128E  0CFC               	rrf	??_bit_shift+1,f
  8490  128F                     u4404:
  8491  128F  3EFF               	addlw	-1
  8492  1290  1D03               	skipz
  8493  1291  2A8D               	goto	u4405
  8494  1292  037C               	decf	??_bit_shift+1,w
  8495  1293  1D03               	btfss	3,2
  8496  1294  2A96               	goto	u4411
  8497  1295  2A97               	goto	u4410
  8498  1296                     u4411:
  8499  1296  2A99               	goto	l45
  8500  1297                     u4410:
  8501  1297                     l2893:
  8502                           
  8503                           ;ex7-1.c: 143:             PORTDbits.RD1 = 1;
  8504  1297  1488               	bsf	8,1	;volatile
  8505                           
  8506                           ;ex7-1.c: 145:         } else{
  8507  1298  2A9A               	goto	l2895
  8508  1299                     l45:
  8509                           
  8510                           ;ex7-1.c: 148:             PORTDbits.RD1 = 0;
  8511  1299  1088               	bcf	8,1	;volatile
  8512  129A                     l2895:
  8513                           
  8514                           ;ex7-1.c: 153:         clk_pulse();
  8515  129A  160A  118A  2003  160A  118A  	fcall	_clk_pulse
  8516  129F                     l2897:
  8517                           
  8518                           ;ex7-1.c: 155:     }
  8519  129F  3001               	movlw	1
  8520  12A0  00FB               	movwf	??_bit_shift
  8521  12A1  087B               	movf	??_bit_shift,w
  8522  12A2  1283               	bcf	3,5	;RP0=0, select bank0
  8523  12A3  1303               	bcf	3,6	;RP1=0, select bank0
  8524  12A4  07A4               	addwf	bit_shift@i,f
  8525  12A5                     l2899:
  8526  12A5  3007               	movlw	7
  8527  12A6  0224               	subwf	bit_shift@i,w
  8528  12A7  1C03               	skipc
  8529  12A8  2AAA               	goto	u4421
  8530  12A9  2AAB               	goto	u4420
  8531  12AA                     u4421:
  8532  12AA  2A7B               	goto	l2891
  8533  12AB                     u4420:
  8534  12AB                     l47:
  8535  12AB  0008               	return
  8536  12AC                     __end_of_bit_shift:
  8537                           
  8538                           	psect	text21
  8539  1003                     __ptext21:	
  8540 ;; *************** function _clk_pulse *****************
  8541 ;; Defined at:
  8542 ;;		line 37 in file "ex7-1.c"
  8543 ;; Parameters:    Size  Location     Type
  8544 ;;		None
  8545 ;; Auto vars:     Size  Location     Type
  8546 ;;		None
  8547 ;; Return value:  Size  Location     Type
  8548 ;;                  1    wreg      void 
  8549 ;; Registers used:
  8550 ;;		None
  8551 ;; Tracked objects:
  8552 ;;		On entry : 0/0
  8553 ;;		On exit  : 0/0
  8554 ;;		Unchanged: 0/0
  8555 ;; Data sizes:     COMMON   BANK0   BANK1   BANK3   BANK2
  8556 ;;      Params:         0       0       0       0       0
  8557 ;;      Locals:         0       0       0       0       0
  8558 ;;      Temps:          0       0       0       0       0
  8559 ;;      Totals:         0       0       0       0       0
  8560 ;;Total ram usage:        0 bytes
  8561 ;; Hardware stack levels used: 1
  8562 ;; This function calls:
  8563 ;;		Nothing
  8564 ;; This function is called by:
  8565 ;;		_bit_shift
  8566 ;;		_main
  8567 ;; This function uses a non-reentrant model
  8568 ;;
  8569                           
  8570  1003                     _clk_pulse:	
  8571                           ;psect for function _clk_pulse
  8572                           
  8573  1003                     l2721:	
  8574                           ;incstack = 0
  8575                           ; Regs used in _clk_pulse: []
  8576                           
  8577                           
  8578                           ;ex7-1.c: 40:     PORTDbits.RD0 = 1;
  8579  1003  1283               	bcf	3,5	;RP0=0, select bank0
  8580  1004  1303               	bcf	3,6	;RP1=0, select bank0
  8581  1005  1408               	bsf	8,0	;volatile
  8582                           
  8583                           ;ex7-1.c: 41:     PORTDbits.RD0 = 0;
  8584  1006  1008               	bcf	8,0	;volatile
  8585  1007                     l27:	
  8586                           ;ex7-1.c: 43:     return;
  8587                           
  8588  1007  0008               	return
  8589  1008                     __end_of_clk_pulse:
  8590                           
  8591                           	psect	text22
  8592  107F                     __ptext22:	
  8593 ;; *************** function ___awmod *****************
  8594 ;; Defined at:
  8595 ;;		line 5 in file "C:\Program Files\Microchip\xc8\v2.36\pic\sources\c90\common\awmod.c"
  8596 ;; Parameters:    Size  Location     Type
  8597 ;;  divisor         2    0[COMMON] int 
  8598 ;;  dividend        2    2[COMMON] int 
  8599 ;; Auto vars:     Size  Location     Type
  8600 ;;  sign            1    6[COMMON] unsigned char 
  8601 ;;  counter         1    5[COMMON] unsigned char 
  8602 ;; Return value:  Size  Location     Type
  8603 ;;                  2    0[COMMON] int 
  8604 ;; Registers used:
  8605 ;;		wreg, status,2, status,0
  8606 ;; Tracked objects:
  8607 ;;		On entry : 0/0
  8608 ;;		On exit  : 0/0
  8609 ;;		Unchanged: 0/0
  8610 ;; Data sizes:     COMMON   BANK0   BANK1   BANK3   BANK2
  8611 ;;      Params:         4       0       0       0       0
  8612 ;;      Locals:         2       0       0       0       0
  8613 ;;      Temps:          1       0       0       0       0
  8614 ;;      Totals:         7       0       0       0       0
  8615 ;;Total ram usage:        7 bytes
  8616 ;; Hardware stack levels used: 1
  8617 ;; This function calls:
  8618 ;;		Nothing
  8619 ;; This function is called by:
  8620 ;;		_bit_shift
  8621 ;; This function uses a non-reentrant model
  8622 ;;
  8623                           
  8624  107F                     ___awmod:	
  8625                           ;psect for function ___awmod
  8626                           
  8627  107F                     l2807:	
  8628                           ;incstack = 0
  8629                           ; Regs used in ___awmod: [wreg+status,2+status,0]
  8630                           
  8631  107F  01F6               	clrf	___awmod@sign
  8632  1080                     l2809:
  8633  1080  1FF3               	btfss	___awmod@dividend+1,7
  8634  1081  2883               	goto	u4251
  8635  1082  2884               	goto	u4250
  8636  1083                     u4251:
  8637  1083  288B               	goto	l2815
  8638  1084                     u4250:
  8639  1084                     l2811:
  8640  1084  09F2               	comf	___awmod@dividend,f
  8641  1085  09F3               	comf	___awmod@dividend+1,f
  8642  1086  0AF2               	incf	___awmod@dividend,f
  8643  1087  1903               	skipnz
  8644  1088  0AF3               	incf	___awmod@dividend+1,f
  8645  1089                     l2813:
  8646  1089  01F6               	clrf	___awmod@sign
  8647  108A  0AF6               	incf	___awmod@sign,f
  8648  108B                     l2815:
  8649  108B  1FF1               	btfss	___awmod@divisor+1,7
  8650  108C  288E               	goto	u4261
  8651  108D  288F               	goto	u4260
  8652  108E                     u4261:
  8653  108E  2894               	goto	l2819
  8654  108F                     u4260:
  8655  108F                     l2817:
  8656  108F  09F0               	comf	___awmod@divisor,f
  8657  1090  09F1               	comf	___awmod@divisor+1,f
  8658  1091  0AF0               	incf	___awmod@divisor,f
  8659  1092  1903               	skipnz
  8660  1093  0AF1               	incf	___awmod@divisor+1,f
  8661  1094                     l2819:
  8662  1094  0870               	movf	___awmod@divisor,w
  8663  1095  0471               	iorwf	___awmod@divisor+1,w
  8664  1096  1903               	btfsc	3,2
  8665  1097  2899               	goto	u4271
  8666  1098  289A               	goto	u4270
  8667  1099                     u4271:
  8668  1099  28C9               	goto	l2837
  8669  109A                     u4270:
  8670  109A                     l2821:
  8671  109A  01F5               	clrf	___awmod@counter
  8672  109B  0AF5               	incf	___awmod@counter,f
  8673  109C  28A8               	goto	l2827
  8674  109D                     l2823:
  8675  109D  3001               	movlw	1
  8676  109E                     u4285:
  8677  109E  1003               	clrc
  8678  109F  0DF0               	rlf	___awmod@divisor,f
  8679  10A0  0DF1               	rlf	___awmod@divisor+1,f
  8680  10A1  3EFF               	addlw	-1
  8681  10A2  1D03               	skipz
  8682  10A3  289E               	goto	u4285
  8683  10A4                     l2825:
  8684  10A4  3001               	movlw	1
  8685  10A5  00F4               	movwf	??___awmod
  8686  10A6  0874               	movf	??___awmod,w
  8687  10A7  07F5               	addwf	___awmod@counter,f
  8688  10A8                     l2827:
  8689  10A8  1FF1               	btfss	___awmod@divisor+1,7
  8690  10A9  28AB               	goto	u4291
  8691  10AA  28AC               	goto	u4290
  8692  10AB                     u4291:
  8693  10AB  289D               	goto	l2823
  8694  10AC                     u4290:
  8695  10AC                     l2829:
  8696  10AC  0871               	movf	___awmod@divisor+1,w
  8697  10AD  0273               	subwf	___awmod@dividend+1,w
  8698  10AE  1D03               	skipz
  8699  10AF  28B2               	goto	u4305
  8700  10B0  0870               	movf	___awmod@divisor,w
  8701  10B1  0272               	subwf	___awmod@dividend,w
  8702  10B2                     u4305:
  8703  10B2  1C03               	skipc
  8704  10B3  28B5               	goto	u4301
  8705  10B4  28B6               	goto	u4300
  8706  10B5                     u4301:
  8707  10B5  28BC               	goto	l2833
  8708  10B6                     u4300:
  8709  10B6                     l2831:
  8710  10B6  0870               	movf	___awmod@divisor,w
  8711  10B7  02F2               	subwf	___awmod@dividend,f
  8712  10B8  0871               	movf	___awmod@divisor+1,w
  8713  10B9  1C03               	skipc
  8714  10BA  03F3               	decf	___awmod@dividend+1,f
  8715  10BB  02F3               	subwf	___awmod@dividend+1,f
  8716  10BC                     l2833:
  8717  10BC  3001               	movlw	1
  8718  10BD                     u4315:
  8719  10BD  1003               	clrc
  8720  10BE  0CF1               	rrf	___awmod@divisor+1,f
  8721  10BF  0CF0               	rrf	___awmod@divisor,f
  8722  10C0  3EFF               	addlw	-1
  8723  10C1  1D03               	skipz
  8724  10C2  28BD               	goto	u4315
  8725  10C3                     l2835:
  8726  10C3  3001               	movlw	1
  8727  10C4  02F5               	subwf	___awmod@counter,f
  8728  10C5  1D03               	btfss	3,2
  8729  10C6  28C8               	goto	u4321
  8730  10C7  28C9               	goto	u4320
  8731  10C8                     u4321:
  8732  10C8  28AC               	goto	l2829
  8733  10C9                     u4320:
  8734  10C9                     l2837:
  8735  10C9  0876               	movf	___awmod@sign,w
  8736  10CA  1903               	btfsc	3,2
  8737  10CB  28CD               	goto	u4331
  8738  10CC  28CE               	goto	u4330
  8739  10CD                     u4331:
  8740  10CD  28D3               	goto	l2841
  8741  10CE                     u4330:
  8742  10CE                     l2839:
  8743  10CE  09F2               	comf	___awmod@dividend,f
  8744  10CF  09F3               	comf	___awmod@dividend+1,f
  8745  10D0  0AF2               	incf	___awmod@dividend,f
  8746  10D1  1903               	skipnz
  8747  10D2  0AF3               	incf	___awmod@dividend+1,f
  8748  10D3                     l2841:
  8749  10D3  0873               	movf	___awmod@dividend+1,w
  8750  10D4  00F1               	movwf	?___awmod+1
  8751  10D5  0872               	movf	___awmod@dividend,w
  8752  10D6  00F0               	movwf	?___awmod
  8753  10D7                     l334:
  8754  10D7  0008               	return
  8755  10D8                     __end_of___awmod:
  8756                           
  8757                           	psect	text23
  8758  1134                     __ptext23:	
  8759 ;; *************** function ___awdiv *****************
  8760 ;; Defined at:
  8761 ;;		line 5 in file "C:\Program Files\Microchip\xc8\v2.36\pic\sources\c90\common\awdiv.c"
  8762 ;; Parameters:    Size  Location     Type
  8763 ;;  divisor         2    0[COMMON] int 
  8764 ;;  dividend        2    2[COMMON] int 
  8765 ;; Auto vars:     Size  Location     Type
  8766 ;;  quotient        2    7[COMMON] int 
  8767 ;;  sign            1    6[COMMON] unsigned char 
  8768 ;;  counter         1    5[COMMON] unsigned char 
  8769 ;; Return value:  Size  Location     Type
  8770 ;;                  2    0[COMMON] int 
  8771 ;; Registers used:
  8772 ;;		wreg, status,2, status,0
  8773 ;; Tracked objects:
  8774 ;;		On entry : 0/0
  8775 ;;		On exit  : 0/0
  8776 ;;		Unchanged: 0/0
  8777 ;; Data sizes:     COMMON   BANK0   BANK1   BANK3   BANK2
  8778 ;;      Params:         4       0       0       0       0
  8779 ;;      Locals:         4       0       0       0       0
  8780 ;;      Temps:          1       0       0       0       0
  8781 ;;      Totals:         9       0       0       0       0
  8782 ;;Total ram usage:        9 bytes
  8783 ;; Hardware stack levels used: 1
  8784 ;; This function calls:
  8785 ;;		Nothing
  8786 ;; This function is called by:
  8787 ;;		_bit_shift
  8788 ;; This function uses a non-reentrant model
  8789 ;;
  8790                           
  8791  1134                     ___awdiv:	
  8792                           ;psect for function ___awdiv
  8793                           
  8794  1134                     l2763:	
  8795                           ;incstack = 0
  8796                           ; Regs used in ___awdiv: [wreg+status,2+status,0]
  8797                           
  8798  1134  01F6               	clrf	___awdiv@sign
  8799  1135                     l2765:
  8800  1135  1FF1               	btfss	___awdiv@divisor+1,7
  8801  1136  2938               	goto	u4151
  8802  1137  2939               	goto	u4150
  8803  1138                     u4151:
  8804  1138  2940               	goto	l2771
  8805  1139                     u4150:
  8806  1139                     l2767:
  8807  1139  09F0               	comf	___awdiv@divisor,f
  8808  113A  09F1               	comf	___awdiv@divisor+1,f
  8809  113B  0AF0               	incf	___awdiv@divisor,f
  8810  113C  1903               	skipnz
  8811  113D  0AF1               	incf	___awdiv@divisor+1,f
  8812  113E                     l2769:
  8813  113E  01F6               	clrf	___awdiv@sign
  8814  113F  0AF6               	incf	___awdiv@sign,f
  8815  1140                     l2771:
  8816  1140  1FF3               	btfss	___awdiv@dividend+1,7
  8817  1141  2943               	goto	u4161
  8818  1142  2944               	goto	u4160
  8819  1143                     u4161:
  8820  1143  294D               	goto	l2777
  8821  1144                     u4160:
  8822  1144                     l2773:
  8823  1144  09F2               	comf	___awdiv@dividend,f
  8824  1145  09F3               	comf	___awdiv@dividend+1,f
  8825  1146  0AF2               	incf	___awdiv@dividend,f
  8826  1147  1903               	skipnz
  8827  1148  0AF3               	incf	___awdiv@dividend+1,f
  8828  1149                     l2775:
  8829  1149  3001               	movlw	1
  8830  114A  00F4               	movwf	??___awdiv
  8831  114B  0874               	movf	??___awdiv,w
  8832  114C  06F6               	xorwf	___awdiv@sign,f
  8833  114D                     l2777:
  8834  114D  01F7               	clrf	___awdiv@quotient
  8835  114E  01F8               	clrf	___awdiv@quotient+1
  8836  114F                     l2779:
  8837  114F  0870               	movf	___awdiv@divisor,w
  8838  1150  0471               	iorwf	___awdiv@divisor+1,w
  8839  1151  1903               	btfsc	3,2
  8840  1152  2954               	goto	u4171
  8841  1153  2955               	goto	u4170
  8842  1154                     u4171:
  8843  1154  298C               	goto	l2799
  8844  1155                     u4170:
  8845  1155                     l2781:
  8846  1155  01F5               	clrf	___awdiv@counter
  8847  1156  0AF5               	incf	___awdiv@counter,f
  8848  1157  2963               	goto	l2787
  8849  1158                     l2783:
  8850  1158  3001               	movlw	1
  8851  1159                     u4185:
  8852  1159  1003               	clrc
  8853  115A  0DF0               	rlf	___awdiv@divisor,f
  8854  115B  0DF1               	rlf	___awdiv@divisor+1,f
  8855  115C  3EFF               	addlw	-1
  8856  115D  1D03               	skipz
  8857  115E  2959               	goto	u4185
  8858  115F                     l2785:
  8859  115F  3001               	movlw	1
  8860  1160  00F4               	movwf	??___awdiv
  8861  1161  0874               	movf	??___awdiv,w
  8862  1162  07F5               	addwf	___awdiv@counter,f
  8863  1163                     l2787:
  8864  1163  1FF1               	btfss	___awdiv@divisor+1,7
  8865  1164  2966               	goto	u4191
  8866  1165  2967               	goto	u4190
  8867  1166                     u4191:
  8868  1166  2958               	goto	l2783
  8869  1167                     u4190:
  8870  1167                     l2789:
  8871  1167  3001               	movlw	1
  8872  1168                     u4205:
  8873  1168  1003               	clrc
  8874  1169  0DF7               	rlf	___awdiv@quotient,f
  8875  116A  0DF8               	rlf	___awdiv@quotient+1,f
  8876  116B  3EFF               	addlw	-1
  8877  116C  1D03               	skipz
  8878  116D  2968               	goto	u4205
  8879  116E  0871               	movf	___awdiv@divisor+1,w
  8880  116F  0273               	subwf	___awdiv@dividend+1,w
  8881  1170  1D03               	skipz
  8882  1171  2974               	goto	u4215
  8883  1172  0870               	movf	___awdiv@divisor,w
  8884  1173  0272               	subwf	___awdiv@dividend,w
  8885  1174                     u4215:
  8886  1174  1C03               	skipc
  8887  1175  2977               	goto	u4211
  8888  1176  2978               	goto	u4210
  8889  1177                     u4211:
  8890  1177  297F               	goto	l2795
  8891  1178                     u4210:
  8892  1178                     l2791:
  8893  1178  0870               	movf	___awdiv@divisor,w
  8894  1179  02F2               	subwf	___awdiv@dividend,f
  8895  117A  0871               	movf	___awdiv@divisor+1,w
  8896  117B  1C03               	skipc
  8897  117C  03F3               	decf	___awdiv@dividend+1,f
  8898  117D  02F3               	subwf	___awdiv@dividend+1,f
  8899  117E                     l2793:
  8900  117E  1477               	bsf	___awdiv@quotient,0
  8901  117F                     l2795:
  8902  117F  3001               	movlw	1
  8903  1180                     u4225:
  8904  1180  1003               	clrc
  8905  1181  0CF1               	rrf	___awdiv@divisor+1,f
  8906  1182  0CF0               	rrf	___awdiv@divisor,f
  8907  1183  3EFF               	addlw	-1
  8908  1184  1D03               	skipz
  8909  1185  2980               	goto	u4225
  8910  1186                     l2797:
  8911  1186  3001               	movlw	1
  8912  1187  02F5               	subwf	___awdiv@counter,f
  8913  1188  1D03               	btfss	3,2
  8914  1189  298B               	goto	u4231
  8915  118A  298C               	goto	u4230
  8916  118B                     u4231:
  8917  118B  2967               	goto	l2789
  8918  118C                     u4230:
  8919  118C                     l2799:
  8920  118C  0876               	movf	___awdiv@sign,w
  8921  118D  1903               	btfsc	3,2
  8922  118E  2990               	goto	u4241
  8923  118F  2991               	goto	u4240
  8924  1190                     u4241:
  8925  1190  2996               	goto	l2803
  8926  1191                     u4240:
  8927  1191                     l2801:
  8928  1191  09F7               	comf	___awdiv@quotient,f
  8929  1192  09F8               	comf	___awdiv@quotient+1,f
  8930  1193  0AF7               	incf	___awdiv@quotient,f
  8931  1194  1903               	skipnz
  8932  1195  0AF8               	incf	___awdiv@quotient+1,f
  8933  1196                     l2803:
  8934  1196  0878               	movf	___awdiv@quotient+1,w
  8935  1197  00F1               	movwf	?___awdiv+1
  8936  1198  0877               	movf	___awdiv@quotient,w
  8937  1199  00F0               	movwf	?___awdiv
  8938  119A                     l321:
  8939  119A  0008               	return
  8940  119B                     __end_of___awdiv:
  8941                           
  8942                           	psect	text24
  8943  1FDB                     __ptext24:	
  8944 ;; *************** function ___wmul *****************
  8945 ;; Defined at:
  8946 ;;		line 15 in file "C:\Program Files\Microchip\xc8\v2.36\pic\sources\c90\common\Umul16.c"
  8947 ;; Parameters:    Size  Location     Type
  8948 ;;  multiplier      2    0[COMMON] unsigned int 
  8949 ;;  multiplicand    2    2[COMMON] unsigned int 
  8950 ;; Auto vars:     Size  Location     Type
  8951 ;;  product         2    4[COMMON] unsigned int 
  8952 ;; Return value:  Size  Location     Type
  8953 ;;                  2    0[COMMON] unsigned int 
  8954 ;; Registers used:
  8955 ;;		wreg, status,2, status,0
  8956 ;; Tracked objects:
  8957 ;;		On entry : 0/0
  8958 ;;		On exit  : 0/0
  8959 ;;		Unchanged: 0/0
  8960 ;; Data sizes:     COMMON   BANK0   BANK1   BANK3   BANK2
  8961 ;;      Params:         4       0       0       0       0
  8962 ;;      Locals:         2       0       0       0       0
  8963 ;;      Temps:          0       0       0       0       0
  8964 ;;      Totals:         6       0       0       0       0
  8965 ;;Total ram usage:        6 bytes
  8966 ;; Hardware stack levels used: 1
  8967 ;; This function calls:
  8968 ;;		Nothing
  8969 ;; This function is called by:
  8970 ;;		_main
  8971 ;; This function uses a non-reentrant model
  8972 ;;
  8973                           
  8974  1FDB                     ___wmul:	
  8975                           ;psect for function ___wmul
  8976                           
  8977  1FDB                     l2901:	
  8978                           ;incstack = 0
  8979                           ; Regs used in ___wmul: [wreg+status,2+status,0]
  8980                           
  8981  1FDB  01F4               	clrf	___wmul@product
  8982  1FDC  01F5               	clrf	___wmul@product+1
  8983  1FDD                     l2903:
  8984  1FDD  1C70               	btfss	___wmul@multiplier,0
  8985  1FDE  2FE0               	goto	u4431
  8986  1FDF  2FE1               	goto	u4430
  8987  1FE0                     u4431:
  8988  1FE0  2FE7               	goto	l168
  8989  1FE1                     u4430:
  8990  1FE1                     l2905:
  8991  1FE1  0872               	movf	___wmul@multiplicand,w
  8992  1FE2  07F4               	addwf	___wmul@product,f
  8993  1FE3  1803               	skipnc
  8994  1FE4  0AF5               	incf	___wmul@product+1,f
  8995  1FE5  0873               	movf	___wmul@multiplicand+1,w
  8996  1FE6  07F5               	addwf	___wmul@product+1,f
  8997  1FE7                     l168:
  8998  1FE7  3001               	movlw	1
  8999  1FE8                     u4445:
  9000  1FE8  1003               	clrc
  9001  1FE9  0DF2               	rlf	___wmul@multiplicand,f
  9002  1FEA  0DF3               	rlf	___wmul@multiplicand+1,f
  9003  1FEB  3EFF               	addlw	-1
  9004  1FEC  1D03               	skipz
  9005  1FED  2FE8               	goto	u4445
  9006  1FEE                     l2907:
  9007  1FEE  3001               	movlw	1
  9008  1FEF                     u4455:
  9009  1FEF  1003               	clrc
  9010  1FF0  0CF1               	rrf	___wmul@multiplier+1,f
  9011  1FF1  0CF0               	rrf	___wmul@multiplier,f
  9012  1FF2  3EFF               	addlw	-1
  9013  1FF3  1D03               	skipz
  9014  1FF4  2FEF               	goto	u4455
  9015  1FF5                     l2909:
  9016  1FF5  0870               	movf	___wmul@multiplier,w
  9017  1FF6  0471               	iorwf	___wmul@multiplier+1,w
  9018  1FF7  1D03               	btfss	3,2
  9019  1FF8  2FFA               	goto	u4461
  9020  1FF9  2FFB               	goto	u4460
  9021  1FFA                     u4461:
  9022  1FFA  2FDD               	goto	l2903
  9023  1FFB                     u4460:
  9024  1FFB                     l2911:
  9025  1FFB  0875               	movf	___wmul@product+1,w
  9026  1FFC  00F1               	movwf	?___wmul+1
  9027  1FFD  0874               	movf	___wmul@product,w
  9028  1FFE  00F0               	movwf	?___wmul
  9029  1FFF                     l170:
  9030  1FFF  0008               	return
  9031  2000                     __end_of___wmul:
  9032  007E                     btemp	set	126	;btemp
  9033  007E                     wtemp0	set	126
  9034                           
  9035                           	psect	idloc
  9036                           
  9037                           ;Config register IDLOC0 @ 0x2000
  9038                           ;	unspecified, using default values
  9039  2000                     	org	8192
  9040  2000  3FFF               	dw	16383
  9041                           
  9042                           ;Config register IDLOC1 @ 0x2001
  9043                           ;	unspecified, using default values
  9044  2001                     	org	8193
  9045  2001  3FFF               	dw	16383
  9046                           
  9047                           ;Config register IDLOC2 @ 0x2002
  9048                           ;	unspecified, using default values
  9049  2002                     	org	8194
  9050  2002  3FFF               	dw	16383
  9051                           
  9052                           ;Config register IDLOC3 @ 0x2003
  9053                           ;	unspecified, using default values
  9054  2003                     	org	8195
  9055  2003  3FFF               	dw	16383
  9056                           
  9057                           	psect	config
  9058                           
  9059                           ;Config register CONFIG1 @ 0x2007
  9060                           ;	Oscillator Selection bits
  9061                           ;	FOSC = INTRC_NOCLKOUT, INTOSCIO oscillator: I/O function on RA6/OSC2/CLKOUT pin, I/O f
      +                          unction on RA7/OSC1/CLKIN
  9062                           ;	Watchdog Timer Enable bit
  9063                           ;	WDTE = OFF, WDT disabled and can be enabled by SWDTEN bit of the WDTCON register
  9064                           ;	Power-up Timer Enable bit
  9065                           ;	PWRTE = OFF, PWRT disabled
  9066                           ;	RE3/MCLR pin function select bit
  9067                           ;	MCLRE = OFF, RE3/MCLR pin function is digital input, MCLR internally tied to VDD
  9068                           ;	Code Protection bit
  9069                           ;	CP = OFF, Program memory code protection is disabled
  9070                           ;	Data Code Protection bit
  9071                           ;	CPD = OFF, Data memory code protection is disabled
  9072                           ;	Brown Out Reset Selection bits
  9073                           ;	BOREN = OFF, BOR disabled
  9074                           ;	Internal External Switchover bit
  9075                           ;	IESO = OFF, Internal/External Switchover mode is disabled
  9076                           ;	Fail-Safe Clock Monitor Enabled bit
  9077                           ;	FCMEN = OFF, Fail-Safe Clock Monitor is disabled
  9078                           ;	Low Voltage Programming Enable bit
  9079                           ;	LVP = OFF, RB3 pin has digital I/O, HV on MCLR must be used for programming
  9080                           ;	In-Circuit Debugger Mode bit
  9081                           ;	DEBUG = 0x1, unprogrammed default
  9082  2007                     	org	8199
  9083  2007  20D4               	dw	8404
  9084                           
  9085                           ;Config register CONFIG2 @ 0x2008
  9086                           ;	Brown-out Reset Selection bit
  9087                           ;	BOR4V = BOR40V, Brown-out Reset set to 4.0V
  9088                           ;	Flash Program Memory Self Write Enable bits
  9089                           ;	WRT = OFF, Write protection off
  9090  2008                     	org	8200
  9091  2008  3FFF               	dw	16383

Data Sizes:
    Strings     0
    Constant    76
    Data        10
    BSS         2
    Persistent  0
    Stack       0

Auto Spaces:
    Space          Size  Autos    Used
    COMMON           14     14      14
    BANK0            80     80      80
    BANK1            80     77      77
    BANK3            96      0      12
    BANK2            96      0       0

Pointer List with Targets:

    frexp@eptr	PTR int  size(1) Largest target is 2
		 -> log@exponent(BANK0[2]), floor@expon(BANK1[2]), 

    eval_poly@d	PTR const  size(1) Largest target is 40
		 -> log@coeff(CODE[36]), exp@coeff(CODE[40]), 


Critical Paths under _main in COMMON

    _pot_value->___xxtofl
    _pow->___xxtofl
    _log->___xxtofl
    _exp->___xxtofl
    _floor->___xxtofl
    ___fleq->___xxtofl
    ___fltol->___xxtofl
    ___flmul->___xxtofl
    ___flsub->___xxtofl
    ___fladd->___xxtofl
    _bit_shift->___awdiv

Critical Paths under _main in BANK0

    _pow->_log
    _log->_eval_poly
    _exp->_floor
    _exp->_log
    _ldexp->_eval_poly
    _floor->___fltol
    _frexp->___fleq
    ___fltol->___fladd
    _eval_poly->___fladd
    ___flmul->_frexp
    ___flsub->___fladd
    ___fladd->___flmul

Critical Paths under _main in BANK1

    _main->_pot_value
    _pot_value->_pow
    _pow->_exp
    _log->_eval_poly
    _exp->_ldexp
    _ldexp->_eval_poly

Critical Paths under _main in BANK3

    None.

Critical Paths under _main in BANK2

    None.

Call Graph Tables:

 ---------------------------------------------------------------------------------
 (Depth) Function   	        Calls       Base Space   Used Autos Params    Refs
 ---------------------------------------------------------------------------------
 (0) _main                                                17    17      0   88499
                                             60 BANK1     17    17      0
                             ___wmul
                          _bit_shift
                          _clk_pulse
                          _lat_pulse
                          _pot_value
 ---------------------------------------------------------------------------------
 (1) _pot_value                                           18    16      2   84461
                                             44 BANK1     16    14      2
                            ___fladd
                            ___flmul
                            ___fltol
                           ___xxtofl
                                _pow
 ---------------------------------------------------------------------------------
 (2) _pow                                                 22    14      8   74346
                                             22 BANK1     22    14      8
                             ___fleq
                             ___flge
                            ___flmul
                            ___flneg
                            ___fltol
                           ___xxtofl
                                _exp
                                _log
 ---------------------------------------------------------------------------------
 (3) _log                                                  7     3      4   24758
                                             77 BANK0      3     3      0
                                              4 BANK1      4     0      4
                            ___fladd
                             ___fleq
                             ___flge
                            ___flmul
                           ___xxtofl
                          _eval_poly
                              _frexp
 ---------------------------------------------------------------------------------
 (3) _exp                                                 12     8      4   39220
                                             10 BANK1     12     8      4
                            ___fldiv
                             ___fleq
                             ___flge
                            ___flmul
                            ___flneg
                            ___flsub
                            ___fltol
                           ___xxtofl
                          _eval_poly
                              _floor
                              _ldexp
                                _log (ARG)
 ---------------------------------------------------------------------------------
 (4) _ldexp                                                8     2      6    3995
                                             77 BANK0      2     2      0
                                              4 BANK1      6     0      6
                             ___fleq
                             ___flge
                          _eval_poly (ARG)
 ---------------------------------------------------------------------------------
 (4) _floor                                               11     7      4   10167
                                             76 BANK0      4     0      4
                                              0 BANK1      7     7      0
                            ___fladd
                             ___flge
                            ___fltol
                           ___xxtofl
                              _frexp
 ---------------------------------------------------------------------------------
 (4) _frexp                                                7     2      5    2252
                                             12 BANK0      7     2      5
                             ___fleq
 ---------------------------------------------------------------------------------
 (5) ___fleq                                              12     4      8    1570
                                              0 BANK0     12     4      8
                           ___xxtofl (ARG)
 ---------------------------------------------------------------------------------
 (4) ___xxtofl                                            14    10      4    1016
                                              0 COMMON    14    10      4
 ---------------------------------------------------------------------------------
 (5) ___fltol                                             11     7      4     533
                                             65 BANK0     11     7      4
                            ___fladd (ARG)
                            ___flmul (ARG)
                           ___xxtofl (ARG)
 ---------------------------------------------------------------------------------
 (4) ___flge                                              12     4      8    1886
                                              0 COMMON    12     4      8
 ---------------------------------------------------------------------------------
 (4) _eval_poly                                           16     9      7    9209
                                             65 BANK0     12     5      7
                                              0 BANK1      4     4      0
                            ___fladd
                            ___flmul
 ---------------------------------------------------------------------------------
 (5) ___flmul                                             26    18      8    4393
                                             19 BANK0     26    18      8
                          __Umul8_16
                           ___xxtofl (ARG)
                              _frexp (ARG)
 ---------------------------------------------------------------------------------
 (6) __Umul8_16                                            9     7      2     980
                                              0 COMMON     9     7      2
 ---------------------------------------------------------------------------------
 (4) ___flsub                                              8     0      8    4267
                                             65 BANK0      8     0      8
                            ___fladd
                           ___xxtofl (ARG)
 ---------------------------------------------------------------------------------
 (5) ___fladd                                             20    12      8    4022
                                             45 BANK0     20    12      8
                            ___flmul (ARG)
                           ___xxtofl (ARG)
                              _frexp (ARG)
 ---------------------------------------------------------------------------------
 (4) ___flneg                                              4     0      4     273
                                              0 COMMON     4     0      4
 ---------------------------------------------------------------------------------
 (4) ___fldiv                                             26    18      8    1273
                                              0 COMMON    13     5      8
                                              0 BANK0     13    13      0
 ---------------------------------------------------------------------------------
 (1) _lat_pulse                                            0     0      0       0
 ---------------------------------------------------------------------------------
 (1) _bit_shift                                            9     7      2    2238
                                              9 COMMON     4     2      2
                                              0 BANK0      5     5      0
                            ___awdiv
                            ___awmod
                          _clk_pulse
 ---------------------------------------------------------------------------------
 (1) _clk_pulse                                            0     0      0       0
 ---------------------------------------------------------------------------------
 (2) ___awmod                                              7     3      4     448
                                              0 COMMON     7     3      4
 ---------------------------------------------------------------------------------
 (2) ___awdiv                                              9     5      4     452
                                              0 COMMON     9     5      4
 ---------------------------------------------------------------------------------
 (1) ___wmul                                               6     2      4     396
                                              0 COMMON     6     2      4
 ---------------------------------------------------------------------------------
 Estimated maximum stack depth 6
 ---------------------------------------------------------------------------------

 Call Graph Graphs:

 _main (ROOT)
   ___wmul
   _bit_shift
     ___awdiv
     ___awmod
     _clk_pulse
   _clk_pulse
   _lat_pulse
   _pot_value
     ___fladd
       ___flmul (ARG)
         __Umul8_16
         ___xxtofl (ARG)
         _frexp (ARG)
           ___fleq
             ___xxtofl (ARG)
       ___xxtofl (ARG)
       _frexp (ARG)
     ___flmul
     ___fltol
       ___fladd (ARG)
       ___flmul (ARG)
       ___xxtofl (ARG)
     ___xxtofl
     _pow
       ___fleq
       ___flge
       ___flmul
       ___flneg
       ___fltol
       ___xxtofl
       _exp
         ___fldiv
         ___fleq
         ___flge
         ___flmul
         ___flneg
         ___flsub
           ___fladd
           ___xxtofl (ARG)
         ___fltol
         ___xxtofl
         _eval_poly
           ___fladd
           ___flmul
         _floor
           ___fladd
           ___flge
           ___fltol
           ___xxtofl
           _frexp
         _ldexp
           ___fleq
           ___flge
           _eval_poly (ARG)
         _log (ARG)
           ___fladd
           ___fleq
           ___flge
           ___flmul
           ___xxtofl
           _eval_poly
           _frexp
       _log

 Address spaces:
Name               Size   Autos  Total    Cost      Usage
BANK3               60      0       C       9       12.5%
BITBANK3            60      0       0       8        0.0%
SFR3                 0      0       0       4        0.0%
BITSFR3              0      0       0       4        0.0%
BANK2               60      0       0      11        0.0%
BITBANK2            60      0       0      10        0.0%
SFR2                 0      0       0       5        0.0%
BITSFR2              0      0       0       5        0.0%
BANK1               50     4D      4D       7       96.2%
BITBANK1            50      0       0       6        0.0%
SFR1                 0      0       0       2        0.0%
BITSFR1              0      0       0       2        0.0%
BANK0               50     50      50       5      100.0%
BITBANK0            50      0       0       4        0.0%
SFR0                 0      0       0       1        0.0%
BITSFR0              0      0       0       1        0.0%
COMMON               E      E       E       1      100.0%
BITCOMMON            E      0       0       0        0.0%
CODE                 0      0       0       0        0.0%
DATA                 0      0      B7      12        0.0%
ABS                  0      0      B7       3        0.0%
NULL                 0      0       0       0        0.0%
STACK                0      0       0       2        0.0%
EEDATA             100      0       0       0        0.0%


Microchip Technology PIC Macro Assembler V2.36 build 20220127204148 
Symbol Table                                                                                   Tue Apr 19 10:09:09 2022

           ___fldiv@aexp 002C             ___fldiv@bexp 002B                        pc 0002  
           ___fldiv@sign 0024                       l30 0856                       l41 1261  
                     l33 1415                       l27 1007                       l36 14C7  
                     l45 1299                       l47 12AB             ___awdiv@sign 0076  
                     fsr 0004      ___wmul@multiplicand 0072      __Umul8_16@word_mpld 0076  
                    l321 119A                      l170 1FFF                      l334 10D7  
                    l350 1FB6                      l342 12C8                      l503 0FF3  
                    l168 1FE7                      l504 0FFF                      l345 1334  
                    l361 1201                      l601 1370                      l337 104D  
                    l346 134D                      l354 1216                      l338 1069  
                    l507 1FDA                      l603 1407                      l339 107E  
                    l364 1216                      l541 01F0                      l533 016E  
                    l517 0076                      l461 0DDB                      l614 13D1  
                    l519 01FC                      l615 13DD                      l607 13B5  
                    l631 0B1A                      l465 0E82                      l482 0F4D  
                    l474 0FFF                      l626 098B                      l539 01E0  
                    l467 0E59                      l563 0755                      l651 0D77  
                    l627 0B1A                      l492 0F93                      l557 07E9  
                    l486 0F71                      l495 0FD1                      l647 0D77  
                    l576 101C                      l569 07DD                      l673 1133  
                    l665 093F                      l578 102E                      l658 15A3  
                    l677 1687                      l695 17FF                      _exp 0B1B  
                    _log 1688                      _pow 0940                      fsr0 0004  
                    indf 0000             ___awmod@sign 0076             ___flmul@aexp 0041  
           ___flmul@bexp 0046             ___flmul@sign 0040             ___flmul@temp 004B  
           ___flmul@prod 0047             ___fltol@exp1 006B                     l2001 11D1  
                   l2003 11D5                     l2011 11EF                     l2021 120B  
                   l2017 11F6                     l2009 11DD                     l2019 1206  
                   l3101 100B                     l3103 1012                     l3201 0E11  
                   l3105 1016                     l3121 12E8                     l3113 12AC  
                   l3203 0E15                     l3211 0E25                     l3107 1025  
                   l3123 130C                     l3115 12C0                     l2501 00D6  
                   l2421 1FAC                     l3301 0F9D                     l3221 0E68  
                   l3213 0E26                     l3205 0E19                     l3141 0D8A  
                   l3133 0D78                     l3109 102A                     l3125 1310  
                   l3117 12DC                     l2511 0108                     l2503 00E8  
                   l2423 1FB4                     l3311 0FDB                     l3303 0FAB  
                   l3231 0E86                     l3223 0E6C                     l3215 0E3D  
                   l3207 0E1D                     l3143 0D8F                     l3151 0D9F  
                   l3135 0D7F                     l3127 134A                     l3119 12E4  
                   l2521 012F                     l2513 0109                     l2505 00EC  
                   l2441 002B                     l2425 1FB6                     l3321 0FEF  
                   l3313 0FE3                     l3305 0FAF                     l3241 0EAF  
                   l3233 0E8B                     l3225 0E6D                     l3217 0E5D  
                   l3209 0E21                     l3161 0DB9                     l3153 0DA7  
                   l3145 0D94                     l3137 0D85                     l3401 0676  
                   l3129 134C                     l2531 0148                     l2523 0131  
                   l2515 011D                     l2507 00ED                     l2451 003F  
                   l2443 002C                     l2435 001A                     l3323 0FFA  
                   l3315 0FE8                     l3307 0FCD                     l3251 0EC3  
                   l3243 0EB3                     l3227 0E76                     l3219 0E66  
                   l3171 0DD0                     l3163 0DBD                     l3155 0DAC  
                   l3147 0D9C                     l3139 0D89                     l3411 070A  
                   l3403 0686                     l3331 0496                     l3091 1061  
                   l2541 016B                     l2525 013A                     l2533 014E  
                   l2509 00F6                     l2517 0121                     l2461 0058  
                   l2445 0031                     l2453 0041                     l2437 0021  
                   l3325 0FFE                     l3317 0FE9                     l3309 0FD6  
                   l3261 0F2B                     l3253 0ECC                     l3245 0EBC  
                   l3237 0E94                     l3229 0E7A                     l3181 0DE9  
                   l3173 0DD1                     l3165 0DBE                     l3157 0DB2  
                   l3149 0D9D                     l3421 072F                     l3413 0718  
                   l3405 06B3                     l3341 04AD                     l3333 049A  
                   l3501 13F5                     l3093 107B                     l2551 018A  
                   l2535 0152                     l2527 013E                     l2519 0127  
                   l2471 006C                     l2463 0059                     l2455 0049  
                   l2447 0036                     l2439 0027                     l3319 0FED  
                   l3263 0F30                     l3247 0EBE                     l3239 0EAB  
                   l3255 0ED1                     l3191 0DFD                     l3183 0DED  
                   l3167 0DC3                     l3175 0DD3                     l3159 0DB3  
                   l3431 0752                     l3415 0721                     l3423 0735  
                   l3407 06D9                     l3351 04C6                     l3343 04AF  
                   l3335 049B                     l3327 0489                     l3503 13FA  
                   l3095 107D                     l3087 102F                     l3511 10D8  
                   l2801 1191                     l2721 1003                     l2561 01D3  
                   l2553 01A3                     l2545 0173                     l2537 0153  
                   l2529 013F                     l2465 005E                     l2473 006E  
                   l2457 004E                     l2449 003E                     l3281 0F78  
                   l3273 0F63                     l3257 0EE7                     l3265 0F3F  
                   l3249 0EC2                     l3193 0E01                     l3185 0DF1  
                   l3177 0DE1                     l3169 0DC8                     l3441 0771  
                   l3425 0739                     l3417 0725                     l3409 0701  
                   l3361 04DB                     l3353 04C7                     l3345 04B7  
                   l3337 04A0                     l3329 0490                     l3505 13FE  
                   l3089 1045                     l3521 1121                     l3513 10F3  
                   l2803 1196                     l2811 1084                     l2571 01EC  
                   l2563 01D7                     l2547 0178                     l2555 01A9  
                   l2539 0157                     l2491 00B7                     l2475 007E  
                   l2483 0097                     l2467 0063                     l2459 0054  
                   l3291 0F86                     l3283 0F7A                     l3275 0F6C  
                   l3267 0F55                     l3259 0F25                     l3195 0E05  
                   l3187 0DF5                     l3179 0DE5                     l3531 1FB7  
                   l3099 1009                     l3451 07B7                     l3443 078A  
                   l3435 075A                     l3427 073A                     l3419 0726  
                   l3371 04F6                     l3363 04E3                     l3355 04CC  
                   l3347 04BC                     l3339 04A5                     l3507 13FF  
                   l3523 112E                     l3515 10FB                     l3603 1650  
                   l2901 1FDB                     l2821 109A                     l2813 1089  
                   l2565 01DF                     l2557 01B6                     l2549 0186  
                   l2493 00BF                     l2485 009C                     l2477 008A  
                   l2469 006B                     l3293 0F8A                     l3285 0F7F  
                   l3277 0F70                     l3269 0F5A                     l3197 0E09  
                   l3189 0DF9                     l3533 1FBB                     l3461 07D6  
                   l3453 07C1                     l3437 075F                     l3445 0790  
                   l3429 073E                     l3381 0578                     l3373 0506  
                   l3365 04E8                     l3357 04D1                     l3349 04C2  
                   l3525 1132                     l3541 0874                     l3621 16DD  
                   l3613 1688                     l3701 0A53                     l2911 1FFB  
                   l2903 1FDD                     l2831 10B6                     l2823 109D  
                   l2815 108B                     l2807 107F                     l2567 01E6  
                   l2559 01C4                     l2495 00C7                     l2479 008E  
                   l3295 0F90                     l3279 0F75                     l3287 0F81  
                   l3199 0E0D                     l3463 07E1                     l3455 07C3  
                   l3447 079D                     l3439 076D                     l3391 05E6  
                   l3383 0594                     l3375 0513                     l3367 04ED  
                   l3359 04D9                     l3471 1358                     l3527 1133  
                   l3519 1104                     l3543 088F                     l3551 08A5  
                   l3607 165B                     l3631 179C                     l3615 16A3  
                   l3711 0A9B                     l2905 1FE1                     l2841 10D3  
                   l2833 10BC                     l2825 10A4                     l2817 108F  
                   l2809 1080                     l2569 01EA                     l2497 00CF  
                   l2489 00A5                     l3289 0F85                     l3457 07D1  
                   l3449 07A8                     l3393 05F6                     l3385 05B0  
                   l3377 0530                     l3481 1386                     l3473 1368  
                   l3561 0927                     l3553 08AE                     l3537 0857  
                   l3609 1687                     l3641 0B4F                     l3625 16EE  
                   l3713 0AE6                     l3705 0A64                     l3721 1408  
                   l3801 02E4                     l2907 1FEE                     l2771 1140  
                   l2763 1134                     l2835 10C3                     l2827 10A8  
                   l2819 1094                     l2499 00D1                     l3299 0F98  
                   l3459 07D5                     l3395 0613                     l3387 05B9  
                   l3379 054C                     l3571 158B                     l3491 13BC  
                   l3483 1393                     l3475 1378                     l3467 134F  
                   l3555 08AF                     l3547 089A                     l3539 086E  
                   l3643 0B6A                     l3635 0B1B                     l3627 1757  
                   l3619 16B4                     l3715 0AFD                     l3707 0A6B  
                   l3731 14C3                     l3723 1412                     l3811 031E  
                   l3803 02EC                     l2909 1FF5                     l2781 1155  
                   l2773 1144                     l2765 1135                     l2829 10AC  
                   l2837 10C9                     l2861 1217                     l2845 0852  
                   l3397 062C                     l3389 05C9                     l3565 14C8  
                   l3493 13C7                     l3485 139A                     l3469 1354  
                   l3557 08F5                     l3581 15D8                     l3661 0C24  
                   l3653 0BA7                     l3637 0B44                     l3629 175F  
                   l3717 0B02                     l3709 0A82                     l3725 1419  
                   l3821 034E                     l3813 0327                     l3805 02F0  
                   l3741 0211                     l2791 1178                     l2783 1158  
                   l2775 1149                     l2767 1139                     l2839 10CE  
                   l2871 1243                     l2863 121C                     l3399 0649  
                   l3567 1505                     l3495 13CB                     l3487 139E  
                   l3479 1381                     l3591 1617                     l3583 1602  
                   l3575 15A4                     l3671 0D23                     l3663 0C57  
                   l3655 0BC9                     l3647 0B7B                     l3727 1429  
                   l3831 0389                     l3823 0352                     l3815 0337  
                   l3807 02FC                     l3751 0233                     l3743 0227  
                   l3735 01FD                     l2793 117E                     l2785 115F  
                   l2777 114D                     l2769 113E                     l2881 1273  
                   l2873 125F                     l2865 122F                     l3569 1583  
                   l1993 11B1                     l3497 13D5                     l3489 13AC  
                   l3593 1624                     l3585 1606                     l3577 15CD  
                   l3673 0D4A                     l3665 0C7E                     l3657 0BCE  
                   l3649 0B96                     l3681 0940                     l3729 1448  
                   l3841 03B4                     l3833 0399                     l3825 035E  
                   l3809 0300                     l3817 033C                     l3761 0256  
                   l3753 0238                     l3745 022A                     l3737 020C  
                   l2795 117F                     l2787 1163                     l2779 114F  
                   l2891 127B                     l2883 1278                     l2875 1262  
                   l1995 11C6                     l1987 119B                     l3499 13DF  
                   l3595 162A                     l3667 0CCC                     l3659 0BE5  
                   l3691 0996                     l3683 0943                     l3851 03D0  
                   l3843 03B7                     l3827 0362                     l3835 039E  
                   l3819 0348                     l3771 0277                     l3763 025D  
                   l3755 0245                     l3747 022A                     l3739 020E  
                   l2797 1186                     l2789 1167                     l2893 1297  
                   l2885 1278                     l2877 1267                     l1997 11C7  
                   l1989 11A8                     l3597 1645                     l3677 0D55  
                   l3669 0D1E                     l3693 09BF                     l3685 096A  
                   l3861 03F4                     l3853 03D8                     l3845 03BB  
                   l3829 0380                     l3837 03AA                     l3781 0299  
                   l3773 027D                     l3765 0263                     l3757 024C  
                   l3749 022B                     l2799 118C                     l2895 129A  
                   l2879 126D                     l1999 11CF                     l3687 0985  
                   l3871 0426                     l3863 03F9                     l3855 03DE  
                   l3847 03C3                     l3839 03B0                     l3791 02B9  
                   l3783 029F                     l3775 0285                     l3767 0269  
                   l3759 0252                     l2897 129F                     l3697 09CA  
                   l3881 043A                     l3865 0409                     l3857 03E8  
                   l3873 042F                     l3849 03CB                     l3793 02C0  
                   l3785 02A5                     l3777 028B                     l3769 0271  
                   l2899 12A5                     l3699 09E5                     l3891 046B  
                   l3883 043F                     l3867 0414                     l3859 03EB  
                   l3795 02C4                     l3787 02AD                     l3779 0291  
                   ?_exp 00AA                     l3893 0471                     l3885 044F  
                   l3869 041C                     l3797 02CF                     l3789 02B3  
                   ?_log 00A4                     l3887 045A                     l3879 0431  
                   l3895 0471                     l3799 02D4                     l3897 047D  
                   l3889 0462                     ?_pow 00B6                     u2500 11BF  
                   u2510 11D5                     u2511 11D4                     u5000 0E86  
                   u2520 11DC                     u5001 0E85                     u2521 11DB  
                   u2505 11BA                     u4210 1178                     u5010 0E8B  
                   u4211 1177                     u5011 0E8A                     u4300 10B6  
                   u5100 0F30                     u2540 11EE                     u4205 1168  
                   u4301 10B5                     u5101 0F2F                     u5021 0E9D  
                   u2541 11ED                     u4230 118C                     u4150 1139  
                   u5110 0F55                     u5030 0EAF                     u5022 0EA4  
                   u2550 11F5                     u4231 118B                     u4215 1174  
                   u4151 1138                     u5111 0F54                     u5031 0EAE  
                   u5023 0EAB                     u2551 11F4                     u2535 11DE  
                   u4240 1191                     u4160 1144                     u4320 10C9  
                   u3600 0036                     u5200 0F97                     u5120 0F5A  
                   u5040 0EB3                     u6000 0BCE                     u4241 1190  
                   u4225 1180                     u4161 1143                     u4321 10C8  
                   u4305 10B2                     u3601 0035                     u5201 0F96  
                   u5121 0F59                     u5041 0EB2                     u6001 0BCD  
                   u4170 1155                     u4330 10CE                     u4250 1084  
                   u4410 1297                     u3610 0058                     u5210 0F9D  
                   u5050 0EC2                     u2570 1206                     u2490 11A8  
                   u6010 0D23                     u4171 1154                     u4331 10CD  
                   u4315 10BD                     u4251 1083                     u4411 1296  
                   u3611 0057                     u5211 0F9C                     u5051 0EC1  
                   u2571 1205                     u2491 11A7                     u6011 0D22  
                   u4260 108F                     u4420 12AB                     u4404 128F  
                   u3620 005E                     u5220 0FAF                     u5140 0F70  
                   u5300 049A                     u2580 120B                     u6020 0D4A  
                   u6100 024C                     u4261 108E                     u4421 12AA  
                   u4405 128D                     u3621 005D                     u5221 0FAE  
                   u5141 0F6F                     u5301 0499                     u2581 120A  
                   u2565 11F8                     u6021 0D49                     u6101 024B  
                   u4430 1FE1                     u4190 1167                     u4270 109A  
                   u3710 0108                     u3630 0063                     u5230 0FBE  
                   u5150 0F75                     u5070 0EE7                     u5310 04A0  
                   u6030 096A                     u6110 0252                     u4431 1FE0  
                   u4191 1166                     u4271 1099                     u3711 0107  
                   u3631 0062                     u5151 0F74                     u5135 0F65  
                   u5071 0EE6                     u5311 049F                     u6031 0969  
                   u6111 0251                     u3800 016B                     u3720 011D  
                   u3640 007E                     u5240 0FCD                     u5160 0F7F  
                   u5320 04A5                     u6040 0985                     u6200 02AD  
                   u6120 025D                     u4185 1159                     u3801 016A  
                   u3705 00EF                     u3641 007D                     u5241 0FCC  
                   u5161 0F7E                     u5081 0EFE                     u5073 0EE3  
                   u5065 0EC5                     u5401 0586                     u5321 04A4  
                   u6041 0984                     u6201 02AC                     u6121 025C  
                   u4290 10AC                     u4370 125F                     u4354 124C  
                   u3810 0172                     u3730 0127                     u3650 009C  
                   u3570 1FB4                     u5250 0FD6                     u5170 0F85  
                   u5090 0F12                     u5082 0EFF                     u5402 058D  
                   u5330 04C6                     u6050 09BF                     u6210 02B3  
                   u6130 0263                     u4291 10AB                     u4371 125E  
                   u4355 124A                     u3811 0171                     u3731 0126  
                   u3715 0104                     u3651 009B                     u3571 1FB3  
                   u5251 0FD5                     u5235 0FB9                     u5171 0F84  
                   u5091 0F13                     u5083 0F04                     u5411 05A2  
                   u5403 0594                     u5331 04C5                     u6051 09BE  
                   u6211 02B2                     u6131 0262                     u4460 1FFB  
                   u4380 1273                     u4364 1257                     u3820 0178  
                   u3740 012F                     u3660 00D6                     u3580 002B  
                   u5260 0FDB                     u5180 0F8A                     u5092 0F18  
                   u5084 0F05                     u5412 05A9                     u5340 04CC  
                   u6060 09E5                     u6300 03E8                     u6220 02C0  
                   u6140 0271                     u4461 1FFA                     u4445 1FE8  
                   u4285 109E                     u4381 1272                     u4365 1255  
                   u3821 0177                     u3741 012E                     u3725 0110  
                   u3661 00D5                     u3581 002A                     u5261 0FDA  
                   u5181 0F89                     u5093 0F19                     u5085 0F0A  
                   u5501 06CB                     u5413 05B0                     u5341 04CB  
                   u6061 09E4                     u6301 03E7                     u6221 02BF  
                   u6141 0270                     u3830 018A                     u3726 0111  
                   u3590 0031                     u5270 0FE8                     u5190 0F90  
                   u5086 0F0B                     u5510 06E7                     u5502 06D2  
                   u5350 04D1                     u4710 1045                     u6070 0A53  
                   u6310 0426                     u6230 02EC                     u6150 0277  
                   u4455 1FEF                     u3831 0189                     u3727 0116  
                   u3591 0030                     u5271 0FE7                     u5191 0F8F  
                   u5503 06D9                     u5431 05D8                     u5351 04D0  
                   u4711 1044                     u6071 0A52                     u6311 0425  
                   u6231 02EB                     u6151 0276                     u3840 0199  
                   u3760 013E                     u3728 0117                     u5280 0FED  
                   u5600 0759                     u5432 05DF                     u5360 04E8  
                   u4720 1061                     u6080 0B02                     u6320 046B  
                   u6160 0285                     u3761 013D                     u3729 011C  
                   u5281 0FEC                     u5601 0758                     u5521 06F3  
                   u5441 0605                     u5433 05E6                     u5425 05B2  
                   u5361 04E7                     u4801 12F7                     u4721 1060  
                   u6081 0B01                     u6321 046A                     u6305 03E4  
                   u6161 0284                     u4394 1284                     u3850 01B6  
                   u3690 00EC                     u5290 0FFE                     u5610 075F  
                   u5522 06FA                     u5442 060C                     u5370 04ED  
                   u4810 1310                     u4802 12F8                     u4730 107B  
                   u6090 1419                     u6330 047D                     u6250 0348  
                   u6170 028B                     u4395 1282                     u3851 01B5  
                   u3755 0133                     u3691 00EB                     u3675 00D8  
                   u5291 0FFD                     u5611 075E                     u5523 0701  
                   u5515 06E2                     u5443 0613                     u5371 04EC  
                   u4811 130F                     u4803 12FD                     u4731 107A  
                   u6091 1418                     u6331 047C                     u6315 0422  
                   u6251 0347                     u6171 028A                     u3860 01D3  
                   u3780 0152                     u4900 0DC8                     u4740 1016  
                   u5620 0771                     u4804 12FE                     u6260 034E  
                   u6180 0299                     u3861 01D2                     u3845 0194  
                   u3781 0151                     u3685 00E1                     u4901 0DC7  
                   u4741 1015                     u5621 0770                     u5461 063B  
                   u5381 053E                     u4821 131F                     u4805 1303  
                   u6261 034D                     u6245 0314                     u6181 0298  
                   u3870 01EA                     u3790 0157                     u4910 0DE1  
                   u5630 0780                     u5550 0725                     u5462 0642  
                   u5382 0545                     u4830 134A                     u4822 1320  
                   u4806 1304                     u5710 1399                     u6190 029F  
                   u3871 01E9                     u3855 01B2                     u3791 0156  
                   u3775 0141                     u4911 0DE0                     u5551 0724  
                   u5535 0703                     u5471 0668                     u5463 0649  
                   u5455 0615                     u5391 055A                     u5383 054C  
                   u4831 1349                     u4823 1325                     u5711 1398  
                   u4735 1077                     u6335 0479                     u6255 0344  
                   u6191 029E                     u4920 0DE5                     u4840 0D89  
                   u4760 102A                     u5640 079D                     u5472 066F  
                   u5392 0561                     u4824 1326                     u5800 13FE  
                   u6280 03AA                     u3865 01CF                     u4921 0DE4  
                   u4841 0D88                     u4761 1029                     u5641 079C  
                   u5545 071A                     u5481 0695                     u5473 0676  
                   u5393 0568                     u4825 132B                     u5801 13FD  
                   u5705 138B                     u6281 03A9                     u4930 0E3D  
                   u4850 0D8F                     u5650 07B7                     u5570 0739  
                   u5490 06BF                     u5482 069C                     u4826 132C  
                   u4770 12C0                     u5730 13BB                     u5810 10F3  
                   u6290 03B0                     u4931 0E3C                     u4851 0D8E  
                   u4755 101D                     u5651 07B6                     u5635 077B  
                   u5571 0738                     u5483 06A3                     u4835 1346  
                   u4771 12BF                     u5731 13BA                     u5811 10F2  
                   u6291 03AF                     u6275 0376                     u6347 0222  
                   u4940 0E48                     u4860 0D94                     u5660 07D5  
                   u5580 073E                     u4780 12DC                     u5820 0874  
                   u5900 1606                     u4941 0E46                     u4861 0D93  
                   u5661 07D4                     u5645 0799                     u5581 073D  
                   u5565 0728                     u4781 12DB                     u5725 13AD  
                   u5821 0873                     u5901 1605                     u6357 040F  
                   u6285 03A6                     u4950 0E49                     u4870 0DB2  
                   u5590 0752                     u4790 12E8                     u5750 13CB  
                   u5670 1354                     u5830 088F                     u5910 1624  
                   u4935 0E39                     u4871 0DB1                     u5655 07B3  
                   u5591 0751                     u5495 06BA                     u4791 12E7  
                   u5751 13CA                     u5671 1353                     u5831 088E  
                   u5911 1623                     u6367 0455                     u4960 0E5D  
                   u4880 0DBD                     u5760 13D1                     u5680 1358  
                   u5840 08AE                     u5920 1645                     u4961 0E5C  
                   u4881 0DBC                     u5761 13D0                     u5745 13C0  
                   u5681 1357                     u5841 08AD                     u5921 1644  
                   u4970 0E6C                     u4890 0DC3                     u5770 13D5  
                   u5690 1378                     u5850 08F5                     u5930 16A3  
                   u4971 0E6B                     u4891 0DC2                     u5771 13D4  
                   u5691 1377                     u5851 08F4                     u5915 1620  
                   u5931 16A2                     u5780 13EA                     u5940 16DD  
                   u5941 16DC                     u4990 0E82                     u5790 13FA  
                   u5950 0B44                     u4991 0E81                     u5791 13F9  
                   u5951 0B43                     u5880 158B                     u5960 0B6A  
                   u4985 0E6F                     u5881 158A                     u5865 14CD  
                   u5785 13E5                     u5961 0B69                     u5890 15CD  
                   u5970 0B96                     u5875 150E                     u5891 15CC  
                   u5971 0B95                     u5980 0BC3                     u5981 0BC1  
                   u5990 0BC4                     _main 01FD                     btemp 007E  
                   exp@x 00AA                     log@x 00A4                     pow@x 00B6  
                   pow@y 00BA                     start 0000          ___fldiv@new_exp 0025  
                  ??_exp 00AE                    ??_log 006D                    ??_pow 00BE  
          ___fltol@sign1 006A          __end_of___fladd 1000                    ?_main 0070  
        __end_of___fldiv 01FD          __end_of___awdiv 119B          __end_of___flneg 1FB7  
        __end_of___awmod 10D8          __end_of___flmul 07EA          __end_of___flsub 1FDB  
        __end_of___fltol 1217          ___awdiv@divisor 0070          ___awdiv@counter 0075  
                  _PORTD 0008                    _TRISD 0088                    _floor 0857  
                  _ldexp 15A4                    _frexp 10D8                    _errno 019A  
           main@temp_min 00DE             main@temp_sec 00E0                    pclath 000A  
                  pow@yi 00C8         bit_shift@digit_1 0020         bit_shift@digit_2 0022  
                  status 0003                    wtemp0 007E         bit_shift@counter 0079  
            exp@exponent 00B3              ldexp@newexp 00A8          __initialization 07EA  
            log@exponent 006E             __end_of_main 0489                   ??_main 00DC  
                 _ADCON0 001F                   _ADCON1 009F                   ?_floor 006C  
                 ?_ldexp 00A4                   ?_frexp 002C                   _ADRESH 001E  
                 _ADRESL 009E         ___awdiv@dividend 0072         __end_of___xxtofl 1408  
                 _Com_Ca 0190            main@min_limit 00E4            main@sec_limit 00E2  
                 ___flge 12AC                   ___fleq 102F                ??___fladd 0055  
                 ___wmul 1FDB                ??___fldiv 0078                ??___awdiv 0074  
              ??___flneg 0074                ??___awmod 0074                ??___flmul 003B  
              ??___flsub 007E                ??___fltol 0065         ___awdiv@quotient 0077  
        ___awmod@divisor 0070          ___awmod@counter 0075                   floor@i 00A1  
                 floor@x 006C               ___flge@ff1 0070               ___flge@ff2 0074  
           ___xxtofl@arg 007A         __end_ofexp@coeff 082E             ___xxtofl@exp 0079  
           ___xxtofl@val 0070               ___fleq@ff1 0020               ___fleq@ff2 0024  
       __end_oflog@coeff 0852  __end_of__initialization 07FC               ___flneg@f1 0070  
           eval_poly@res 00A0               ___fltol@f1 0061           __pcstackCOMMON 0070  
      pot_value@pot_high 00D0             __pidataBANK3 1FA2            __end_of_floor 0940  
          __end_of_ldexp 1688            __end_of_frexp 1134                  ??_floor 00A0  
                ??_ldexp 006D                  ??_frexp 0031               __pbssBANK3 019A  
      __end_of__Umul8_16 102F               __pmaintext 01FD                  ?___flge 0070  
                ?___fleq 0020                  ?___wmul 0070                ?___xxtofl 0070  
             __stringtab 0800        __end_of_bit_shift 12AC        __end_of_clk_pulse 1008  
                ___fladd 0D78                  ___fldiv 001A                  ___awdiv 1134  
                ___flneg 1FAC                  ___awmod 107F                  ___flmul 0489  
                ___flsub 1FB7                  ___fltol 119B                  _exp$882 00AF  
      __end_of_eval_poly 15A4                  __ptext1 1408                  __ptext2 0940  
                __ptext3 1688                  __ptext4 0B1B                  __ptext5 15A4  
                __ptext6 0857                  __ptext7 10D8                  __ptext8 102F  
                __ptext9 134E        __end_of_lat_pulse 0857                  _pow$880 00BF  
                _pow$881 00C3               ??___xxtofl 0074         ___awmod@dividend 0072  
   end_of_initialization 07FC                  exp@sign 00B5       pot_value@adres_low 00DA  
                pow@sign 00C7        __end_of_pot_value 14C8               bit_shift@i 0024  
              _PORTDbits 0008              ___fladd@grs 0060            ___xxtofl@sign 0078  
              _TRISAbits 0085              ___fldiv@grs 0027              ___fldiv@rem 0020  
            ___flmul@grs 0042       pot_value@pot_level 00D6           __end_of___flge 134E  
         __end_of___fleq 107F           __end_of___wmul 2000               floor@expon 00A5  
    start_initialization 07EA               eval_poly@d 0065               eval_poly@n 0066  
             eval_poly@x 0061               ldexp@value 00A4              __end_of_exp 0D78  
            __end_of_log 1800              __end_of_pow 0B1B               frexp@value 002C  
               ??___flge 0078                 ??___fleq 0028                 ??___wmul 0074  
             init_fetch0 0007                __Umul8_16 1008              __pdataBANK3 0190  
              ___fladd@a 0051                ___fladd@b 004D                ___fldiv@a 0070  
              ___fldiv@b 0074                ___flmul@a 0037                ___flmul@b 0033  
              ___flsub@a 0061                ___flsub@b 0065                ___latbits 0002  
          __pcstackBANK0 0020            __pcstackBANK1 00A0                _bit_shift 1217  
               ?___fladd 004D                 ?___fldiv 0070                 ?___awdiv 0070  
               ?___flneg 0070                 ?___awmod 0070                 ?___flmul 0033  
              _clk_pulse 1003                 ?___flsub 0061                 ?___fltol 0061  
             ?__Umul8_16 0070                __pstrings 0800                _eval_poly 14C8  
              _lat_pulse 0852           ___wmul@product 0074               ?_bit_shift 0079  
             ?_clk_pulse 0070                _pot_value 1408               _ADCON0bits 001F  
            __stringbase 0805        ___wmul@multiplier 0070               ?_eval_poly 0061  
              main@state 00EC               ?_lat_pulse 0070          main@min_counter 00E8  
              frexp@eptr 0030          main@sec_counter 00EA         main@pot_levelval 00E6  
            ??__Umul8_16 0072               ?_pot_value 00CC       __end_of__stringtab 0806  
               ___xxtofl 134E                 __ptext10 119B                 __ptext11 12AC  
               __ptext20 1217                 __ptext12 14C8                 __ptext21 1003  
               __ptext13 0489                 __ptext22 107F                 __ptext14 1008  
               __ptext23 1134                 __ptext15 1FB7                 __ptext24 1FDB  
               __ptext16 0D78                 __ptext17 1FAC                 __ptext18 001A  
               __ptext19 0852              ??_bit_shift 007B              ??_clk_pulse 0070  
               exp@coeff 0806                 log@coeff 082E            _pot_value$879 00D2  
            ??_eval_poly 0068              ??_lat_pulse 0070                 init_ram0 000B  
    pot_value@adres_high 00D8                stringcode 0800              ??_pot_value 00CE  
 __Umul8_16@multiplicand 0070                 stringdir 0800                 stringtab 0800  
          ___fladd@signs 005D             ___fladd@aexp 005E             ___fladd@bexp 005F  
   __Umul8_16@multiplier 0078        __Umul8_16@product 0074  
