

Microchip MPLAB XC8 Assembler V2.36 build 20220127204148 
                                                                                               Sun May 15 23:43:09 2022

Microchip MPLAB XC8 C Compiler v2.36 (Free license) build 20220127204148 Og1 
     1                           	processor	16F1509
     2                           	pagewidth 120
     3                           	opt	flic
     4                           	psect	nvCOMMON,global,class=COMMON,space=1,delta=1,noexec
     5                           	psect	cinit,global,class=CODE,merge=1,delta=2
     6                           	psect	bssCOMMON,global,class=COMMON,space=1,delta=1,noexec
     7                           	psect	bssBANK0,global,class=BANK0,space=1,delta=1,noexec
     8                           	psect	cstackCOMMON,global,class=COMMON,space=1,delta=1,noexec
     9                           	psect	maintext,global,class=CODE,merge=1,split=1,delta=2
    10                           	psect	text1,local,class=CODE,merge=1,delta=2
    11                           	psect	text2,local,class=CODE,merge=1,delta=2
    12                           	psect	text3,local,class=CODE,merge=1,delta=2
    13                           	psect	text4,local,class=CODE,merge=1,delta=2
    14                           	psect	text5,local,class=CODE,merge=1,delta=2
    15                           	psect	text6,local,class=CODE,merge=1,delta=2
    16                           	psect	text7,local,class=CODE,merge=1,delta=2
    17                           	psect	text8,local,class=CODE,merge=1,delta=2
    18                           	psect	text9,local,class=CODE,merge=1,delta=2
    19                           	psect	text10,local,class=CODE,merge=1,delta=2
    20                           	psect	text11,local,class=CODE,merge=1,delta=2
    21                           	psect	text12,local,class=CODE,merge=1,delta=2
    22                           	psect	text13,local,class=CODE,merge=1,delta=2
    23                           	psect	idloc,global,abs,ovrld,class=IDLOC,space=5,delta=2,noexec
    24                           	psect	config,global,abs,ovrld,class=CONFIG,space=4,delta=2,noexec
    25                           	dabs	1,0x7E,2
    26  0000                     
    27                           ; Version 2.40
    28                           ; Generated 17/11/2021 GMT
    29                           ; 
    30                           ; Copyright © 2021, Microchip Technology Inc. and its subsidiaries ("Microchip")
    31                           ; All rights reserved.
    32                           ; 
    33                           ; This software is developed by Microchip Technology Inc. and its subsidiaries ("Microch
      +                          ip").
    34                           ; 
    35                           ; Redistribution and use in source and binary forms, with or without modification, are
    36                           ; permitted provided that the following conditions are met:
    37                           ; 
    38                           ;     1. Redistributions of source code must retain the above copyright notice, this lis
      +                          t of
    39                           ;        conditions and the following disclaimer.
    40                           ; 
    41                           ;     2. Redistributions in binary form must reproduce the above copyright notice, this 
      +                          list
    42                           ;        of conditions and the following disclaimer in the documentation and/or other
    43                           ;        materials provided with the distribution. Publication is not required when
    44                           ;        this file is used in an embedded application.
    45                           ; 
    46                           ;     3. Microchip's name may not be used to endorse or promote products derived from th
      +                          is
    47                           ;        software without specific prior written permission.
    48                           ; 
    49                           ; THIS SOFTWARE IS PROVIDED BY MICROCHIP "AS IS" AND ANY EXPRESS OR IMPLIED WARRANTIES,
    50                           ; INCLUDING, BUT NOT LIMITED TO, THE IMPLIED WARRANTIES OF MERCHANTABILITY AND FITNESS F
      +                          OR
    51                           ; PURPOSE ARE DISCLAIMED.  IN NO EVENT SHALL MICROCHIP BE LIABLE FOR ANY DIRECT, INDIREC
      +                          T,
    52                           ; INCIDENTAL, SPECIAL, EXEMPLARY, OR CONSEQUENTIAL DAMAGES (INCLUDING BUT NOT LIMITED TO
    53                           ; PROCUREMENT OF SUBSTITUTE GOODS OR SERVICES; LOSS OF USE, DATA OR PROFITS; OR BUSINESS
    54                           ; INTERRUPTION) HOWSOEVER CAUSED AND ON ANY THEORY OF LIABILITY, WHETHER IN CONTRACT, ST
      +                          RICT
    55                           ; LIABILITY, OR TORT (INCLUDING NEGLIGENCE OR OTHERWISE) ARISING IN ANY WAY OUT OF THE U
      +                          SE OF
    56                           ; THIS SOFTWARE, EVEN IF ADVISED OF THE POSSIBILITY OF SUCH DAMAGE.
    57                           ; 
    58                           ; 
    59                           ; Code-generator required, PIC16F1509 Definitions
    60                           ; 
    61                           ; SFR Addresses
    62  0000                     	;# 
    63  0001                     	;# 
    64  0002                     	;# 
    65  0003                     	;# 
    66  0004                     	;# 
    67  0005                     	;# 
    68  0006                     	;# 
    69  0007                     	;# 
    70  0008                     	;# 
    71  0009                     	;# 
    72  000A                     	;# 
    73  000B                     	;# 
    74  000C                     	;# 
    75  000D                     	;# 
    76  000E                     	;# 
    77  0011                     	;# 
    78  0012                     	;# 
    79  0013                     	;# 
    80  0015                     	;# 
    81  0016                     	;# 
    82  0016                     	;# 
    83  0017                     	;# 
    84  0018                     	;# 
    85  0019                     	;# 
    86  001A                     	;# 
    87  001B                     	;# 
    88  001C                     	;# 
    89  008C                     	;# 
    90  008D                     	;# 
    91  008E                     	;# 
    92  0091                     	;# 
    93  0092                     	;# 
    94  0093                     	;# 
    95  0095                     	;# 
    96  0096                     	;# 
    97  0097                     	;# 
    98  0099                     	;# 
    99  009A                     	;# 
   100  009B                     	;# 
   101  009B                     	;# 
   102  009C                     	;# 
   103  009D                     	;# 
   104  009E                     	;# 
   105  009F                     	;# 
   106  010C                     	;# 
   107  010D                     	;# 
   108  010E                     	;# 
   109  0111                     	;# 
   110  0112                     	;# 
   111  0113                     	;# 
   112  0114                     	;# 
   113  0115                     	;# 
   114  0116                     	;# 
   115  0117                     	;# 
   116  0118                     	;# 
   117  0119                     	;# 
   118  011D                     	;# 
   119  018C                     	;# 
   120  018D                     	;# 
   121  018E                     	;# 
   122  0191                     	;# 
   123  0191                     	;# 
   124  0192                     	;# 
   125  0193                     	;# 
   126  0193                     	;# 
   127  0194                     	;# 
   128  0195                     	;# 
   129  0196                     	;# 
   130  0197                     	;# 
   131  0199                     	;# 
   132  019A                     	;# 
   133  019B                     	;# 
   134  019B                     	;# 
   135  019C                     	;# 
   136  019D                     	;# 
   137  019E                     	;# 
   138  019F                     	;# 
   139  020C                     	;# 
   140  020D                     	;# 
   141  0211                     	;# 
   142  0211                     	;# 
   143  0212                     	;# 
   144  0212                     	;# 
   145  0213                     	;# 
   146  0213                     	;# 
   147  0214                     	;# 
   148  0214                     	;# 
   149  0215                     	;# 
   150  0215                     	;# 
   151  0215                     	;# 
   152  0216                     	;# 
   153  0216                     	;# 
   154  0217                     	;# 
   155  0217                     	;# 
   156  0391                     	;# 
   157  0392                     	;# 
   158  0393                     	;# 
   159  0394                     	;# 
   160  0395                     	;# 
   161  0396                     	;# 
   162  0498                     	;# 
   163  0498                     	;# 
   164  0499                     	;# 
   165  049A                     	;# 
   166  049B                     	;# 
   167  049B                     	;# 
   168  049C                     	;# 
   169  049D                     	;# 
   170  049E                     	;# 
   171  049F                     	;# 
   172  0611                     	;# 
   173  0612                     	;# 
   174  0613                     	;# 
   175  0613                     	;# 
   176  0614                     	;# 
   177  0615                     	;# 
   178  0616                     	;# 
   179  0616                     	;# 
   180  0617                     	;# 
   181  0618                     	;# 
   182  0619                     	;# 
   183  0619                     	;# 
   184  061A                     	;# 
   185  061B                     	;# 
   186  061C                     	;# 
   187  061C                     	;# 
   188  0691                     	;# 
   189  0692                     	;# 
   190  0693                     	;# 
   191  0694                     	;# 
   192  0695                     	;# 
   193  0F0F                     	;# 
   194  0F10                     	;# 
   195  0F11                     	;# 
   196  0F12                     	;# 
   197  0F13                     	;# 
   198  0F14                     	;# 
   199  0F15                     	;# 
   200  0F16                     	;# 
   201  0F17                     	;# 
   202  0F18                     	;# 
   203  0F19                     	;# 
   204  0F1A                     	;# 
   205  0F1B                     	;# 
   206  0F1C                     	;# 
   207  0F1D                     	;# 
   208  0F1E                     	;# 
   209  0F1F                     	;# 
   210  0F20                     	;# 
   211  0F21                     	;# 
   212  0F22                     	;# 
   213  0F23                     	;# 
   214  0F24                     	;# 
   215  0F25                     	;# 
   216  0F26                     	;# 
   217  0F27                     	;# 
   218  0F28                     	;# 
   219  0F29                     	;# 
   220  0F2A                     	;# 
   221  0F2B                     	;# 
   222  0F2C                     	;# 
   223  0F2D                     	;# 
   224  0F2E                     	;# 
   225  0F2F                     	;# 
   226  0F8C                     	;# 
   227  0F8D                     	;# 
   228  0F91                     	;# 
   229  0F95                     	;# 
   230  0F96                     	;# 
   231  0F97                     	;# 
   232  0F9C                     	;# 
   233  0F9D                     	;# 
   234  0F9E                     	;# 
   235  0FE3                     	;# 
   236  0FE4                     	;# 
   237  0FE5                     	;# 
   238  0FE6                     	;# 
   239  0FE7                     	;# 
   240  0FE8                     	;# 
   241  0FE9                     	;# 
   242  0FEA                     	;# 
   243  0FEB                     	;# 
   244  0FED                     	;# 
   245  0FEE                     	;# 
   246  0FEF                     	;# 
   247  0000                     	;# 
   248  0001                     	;# 
   249  0002                     	;# 
   250  0003                     	;# 
   251  0004                     	;# 
   252  0005                     	;# 
   253  0006                     	;# 
   254  0007                     	;# 
   255  0008                     	;# 
   256  0009                     	;# 
   257  000A                     	;# 
   258  000B                     	;# 
   259  000C                     	;# 
   260  000D                     	;# 
   261  000E                     	;# 
   262  0011                     	;# 
   263  0012                     	;# 
   264  0013                     	;# 
   265  0015                     	;# 
   266  0016                     	;# 
   267  0016                     	;# 
   268  0017                     	;# 
   269  0018                     	;# 
   270  0019                     	;# 
   271  001A                     	;# 
   272  001B                     	;# 
   273  001C                     	;# 
   274  008C                     	;# 
   275  008D                     	;# 
   276  008E                     	;# 
   277  0091                     	;# 
   278  0092                     	;# 
   279  0093                     	;# 
   280  0095                     	;# 
   281  0096                     	;# 
   282  0097                     	;# 
   283  0099                     	;# 
   284  009A                     	;# 
   285  009B                     	;# 
   286  009B                     	;# 
   287  009C                     	;# 
   288  009D                     	;# 
   289  009E                     	;# 
   290  009F                     	;# 
   291  010C                     	;# 
   292  010D                     	;# 
   293  010E                     	;# 
   294  0111                     	;# 
   295  0112                     	;# 
   296  0113                     	;# 
   297  0114                     	;# 
   298  0115                     	;# 
   299  0116                     	;# 
   300  0117                     	;# 
   301  0118                     	;# 
   302  0119                     	;# 
   303  011D                     	;# 
   304  018C                     	;# 
   305  018D                     	;# 
   306  018E                     	;# 
   307  0191                     	;# 
   308  0191                     	;# 
   309  0192                     	;# 
   310  0193                     	;# 
   311  0193                     	;# 
   312  0194                     	;# 
   313  0195                     	;# 
   314  0196                     	;# 
   315  0197                     	;# 
   316  0199                     	;# 
   317  019A                     	;# 
   318  019B                     	;# 
   319  019B                     	;# 
   320  019C                     	;# 
   321  019D                     	;# 
   322  019E                     	;# 
   323  019F                     	;# 
   324  020C                     	;# 
   325  020D                     	;# 
   326  0211                     	;# 
   327  0211                     	;# 
   328  0212                     	;# 
   329  0212                     	;# 
   330  0213                     	;# 
   331  0213                     	;# 
   332  0214                     	;# 
   333  0214                     	;# 
   334  0215                     	;# 
   335  0215                     	;# 
   336  0215                     	;# 
   337  0216                     	;# 
   338  0216                     	;# 
   339  0217                     	;# 
   340  0217                     	;# 
   341  0391                     	;# 
   342  0392                     	;# 
   343  0393                     	;# 
   344  0394                     	;# 
   345  0395                     	;# 
   346  0396                     	;# 
   347  0498                     	;# 
   348  0498                     	;# 
   349  0499                     	;# 
   350  049A                     	;# 
   351  049B                     	;# 
   352  049B                     	;# 
   353  049C                     	;# 
   354  049D                     	;# 
   355  049E                     	;# 
   356  049F                     	;# 
   357  0611                     	;# 
   358  0612                     	;# 
   359  0613                     	;# 
   360  0613                     	;# 
   361  0614                     	;# 
   362  0615                     	;# 
   363  0616                     	;# 
   364  0616                     	;# 
   365  0617                     	;# 
   366  0618                     	;# 
   367  0619                     	;# 
   368  0619                     	;# 
   369  061A                     	;# 
   370  061B                     	;# 
   371  061C                     	;# 
   372  061C                     	;# 
   373  0691                     	;# 
   374  0692                     	;# 
   375  0693                     	;# 
   376  0694                     	;# 
   377  0695                     	;# 
   378  0F0F                     	;# 
   379  0F10                     	;# 
   380  0F11                     	;# 
   381  0F12                     	;# 
   382  0F13                     	;# 
   383  0F14                     	;# 
   384  0F15                     	;# 
   385  0F16                     	;# 
   386  0F17                     	;# 
   387  0F18                     	;# 
   388  0F19                     	;# 
   389  0F1A                     	;# 
   390  0F1B                     	;# 
   391  0F1C                     	;# 
   392  0F1D                     	;# 
   393  0F1E                     	;# 
   394  0F1F                     	;# 
   395  0F20                     	;# 
   396  0F21                     	;# 
   397  0F22                     	;# 
   398  0F23                     	;# 
   399  0F24                     	;# 
   400  0F25                     	;# 
   401  0F26                     	;# 
   402  0F27                     	;# 
   403  0F28                     	;# 
   404  0F29                     	;# 
   405  0F2A                     	;# 
   406  0F2B                     	;# 
   407  0F2C                     	;# 
   408  0F2D                     	;# 
   409  0F2E                     	;# 
   410  0F2F                     	;# 
   411  0F8C                     	;# 
   412  0F8D                     	;# 
   413  0F91                     	;# 
   414  0F95                     	;# 
   415  0F96                     	;# 
   416  0F97                     	;# 
   417  0F9C                     	;# 
   418  0F9D                     	;# 
   419  0F9E                     	;# 
   420  0FE3                     	;# 
   421  0FE4                     	;# 
   422  0FE5                     	;# 
   423  0FE6                     	;# 
   424  0FE7                     	;# 
   425  0FE8                     	;# 
   426  0FE9                     	;# 
   427  0FEA                     	;# 
   428  0FEB                     	;# 
   429  0FED                     	;# 
   430  0FEE                     	;# 
   431  0FEF                     	;# 
   432  0000                     	;# 
   433  0001                     	;# 
   434  0002                     	;# 
   435  0003                     	;# 
   436  0004                     	;# 
   437  0005                     	;# 
   438  0006                     	;# 
   439  0007                     	;# 
   440  0008                     	;# 
   441  0009                     	;# 
   442  000A                     	;# 
   443  000B                     	;# 
   444  000C                     	;# 
   445  000D                     	;# 
   446  000E                     	;# 
   447  0011                     	;# 
   448  0012                     	;# 
   449  0013                     	;# 
   450  0015                     	;# 
   451  0016                     	;# 
   452  0016                     	;# 
   453  0017                     	;# 
   454  0018                     	;# 
   455  0019                     	;# 
   456  001A                     	;# 
   457  001B                     	;# 
   458  001C                     	;# 
   459  008C                     	;# 
   460  008D                     	;# 
   461  008E                     	;# 
   462  0091                     	;# 
   463  0092                     	;# 
   464  0093                     	;# 
   465  0095                     	;# 
   466  0096                     	;# 
   467  0097                     	;# 
   468  0099                     	;# 
   469  009A                     	;# 
   470  009B                     	;# 
   471  009B                     	;# 
   472  009C                     	;# 
   473  009D                     	;# 
   474  009E                     	;# 
   475  009F                     	;# 
   476  010C                     	;# 
   477  010D                     	;# 
   478  010E                     	;# 
   479  0111                     	;# 
   480  0112                     	;# 
   481  0113                     	;# 
   482  0114                     	;# 
   483  0115                     	;# 
   484  0116                     	;# 
   485  0117                     	;# 
   486  0118                     	;# 
   487  0119                     	;# 
   488  011D                     	;# 
   489  018C                     	;# 
   490  018D                     	;# 
   491  018E                     	;# 
   492  0191                     	;# 
   493  0191                     	;# 
   494  0192                     	;# 
   495  0193                     	;# 
   496  0193                     	;# 
   497  0194                     	;# 
   498  0195                     	;# 
   499  0196                     	;# 
   500  0197                     	;# 
   501  0199                     	;# 
   502  019A                     	;# 
   503  019B                     	;# 
   504  019B                     	;# 
   505  019C                     	;# 
   506  019D                     	;# 
   507  019E                     	;# 
   508  019F                     	;# 
   509  020C                     	;# 
   510  020D                     	;# 
   511  0211                     	;# 
   512  0211                     	;# 
   513  0212                     	;# 
   514  0212                     	;# 
   515  0213                     	;# 
   516  0213                     	;# 
   517  0214                     	;# 
   518  0214                     	;# 
   519  0215                     	;# 
   520  0215                     	;# 
   521  0215                     	;# 
   522  0216                     	;# 
   523  0216                     	;# 
   524  0217                     	;# 
   525  0217                     	;# 
   526  0391                     	;# 
   527  0392                     	;# 
   528  0393                     	;# 
   529  0394                     	;# 
   530  0395                     	;# 
   531  0396                     	;# 
   532  0498                     	;# 
   533  0498                     	;# 
   534  0499                     	;# 
   535  049A                     	;# 
   536  049B                     	;# 
   537  049B                     	;# 
   538  049C                     	;# 
   539  049D                     	;# 
   540  049E                     	;# 
   541  049F                     	;# 
   542  0611                     	;# 
   543  0612                     	;# 
   544  0613                     	;# 
   545  0613                     	;# 
   546  0614                     	;# 
   547  0615                     	;# 
   548  0616                     	;# 
   549  0616                     	;# 
   550  0617                     	;# 
   551  0618                     	;# 
   552  0619                     	;# 
   553  0619                     	;# 
   554  061A                     	;# 
   555  061B                     	;# 
   556  061C                     	;# 
   557  061C                     	;# 
   558  0691                     	;# 
   559  0692                     	;# 
   560  0693                     	;# 
   561  0694                     	;# 
   562  0695                     	;# 
   563  0F0F                     	;# 
   564  0F10                     	;# 
   565  0F11                     	;# 
   566  0F12                     	;# 
   567  0F13                     	;# 
   568  0F14                     	;# 
   569  0F15                     	;# 
   570  0F16                     	;# 
   571  0F17                     	;# 
   572  0F18                     	;# 
   573  0F19                     	;# 
   574  0F1A                     	;# 
   575  0F1B                     	;# 
   576  0F1C                     	;# 
   577  0F1D                     	;# 
   578  0F1E                     	;# 
   579  0F1F                     	;# 
   580  0F20                     	;# 
   581  0F21                     	;# 
   582  0F22                     	;# 
   583  0F23                     	;# 
   584  0F24                     	;# 
   585  0F25                     	;# 
   586  0F26                     	;# 
   587  0F27                     	;# 
   588  0F28                     	;# 
   589  0F29                     	;# 
   590  0F2A                     	;# 
   591  0F2B                     	;# 
   592  0F2C                     	;# 
   593  0F2D                     	;# 
   594  0F2E                     	;# 
   595  0F2F                     	;# 
   596  0F8C                     	;# 
   597  0F8D                     	;# 
   598  0F91                     	;# 
   599  0F95                     	;# 
   600  0F96                     	;# 
   601  0F97                     	;# 
   602  0F9C                     	;# 
   603  0F9D                     	;# 
   604  0F9E                     	;# 
   605  0FE3                     	;# 
   606  0FE4                     	;# 
   607  0FE5                     	;# 
   608  0FE6                     	;# 
   609  0FE7                     	;# 
   610  0FE8                     	;# 
   611  0FE9                     	;# 
   612  0FEA                     	;# 
   613  0FEB                     	;# 
   614  0FED                     	;# 
   615  0FEE                     	;# 
   616  0FEF                     	;# 
   617  0000                     	;# 
   618  0001                     	;# 
   619  0002                     	;# 
   620  0003                     	;# 
   621  0004                     	;# 
   622  0005                     	;# 
   623  0006                     	;# 
   624  0007                     	;# 
   625  0008                     	;# 
   626  0009                     	;# 
   627  000A                     	;# 
   628  000B                     	;# 
   629  000C                     	;# 
   630  000D                     	;# 
   631  000E                     	;# 
   632  0011                     	;# 
   633  0012                     	;# 
   634  0013                     	;# 
   635  0015                     	;# 
   636  0016                     	;# 
   637  0016                     	;# 
   638  0017                     	;# 
   639  0018                     	;# 
   640  0019                     	;# 
   641  001A                     	;# 
   642  001B                     	;# 
   643  001C                     	;# 
   644  008C                     	;# 
   645  008D                     	;# 
   646  008E                     	;# 
   647  0091                     	;# 
   648  0092                     	;# 
   649  0093                     	;# 
   650  0095                     	;# 
   651  0096                     	;# 
   652  0097                     	;# 
   653  0099                     	;# 
   654  009A                     	;# 
   655  009B                     	;# 
   656  009B                     	;# 
   657  009C                     	;# 
   658  009D                     	;# 
   659  009E                     	;# 
   660  009F                     	;# 
   661  010C                     	;# 
   662  010D                     	;# 
   663  010E                     	;# 
   664  0111                     	;# 
   665  0112                     	;# 
   666  0113                     	;# 
   667  0114                     	;# 
   668  0115                     	;# 
   669  0116                     	;# 
   670  0117                     	;# 
   671  0118                     	;# 
   672  0119                     	;# 
   673  011D                     	;# 
   674  018C                     	;# 
   675  018D                     	;# 
   676  018E                     	;# 
   677  0191                     	;# 
   678  0191                     	;# 
   679  0192                     	;# 
   680  0193                     	;# 
   681  0193                     	;# 
   682  0194                     	;# 
   683  0195                     	;# 
   684  0196                     	;# 
   685  0197                     	;# 
   686  0199                     	;# 
   687  019A                     	;# 
   688  019B                     	;# 
   689  019B                     	;# 
   690  019C                     	;# 
   691  019D                     	;# 
   692  019E                     	;# 
   693  019F                     	;# 
   694  020C                     	;# 
   695  020D                     	;# 
   696  0211                     	;# 
   697  0211                     	;# 
   698  0212                     	;# 
   699  0212                     	;# 
   700  0213                     	;# 
   701  0213                     	;# 
   702  0214                     	;# 
   703  0214                     	;# 
   704  0215                     	;# 
   705  0215                     	;# 
   706  0215                     	;# 
   707  0216                     	;# 
   708  0216                     	;# 
   709  0217                     	;# 
   710  0217                     	;# 
   711  0391                     	;# 
   712  0392                     	;# 
   713  0393                     	;# 
   714  0394                     	;# 
   715  0395                     	;# 
   716  0396                     	;# 
   717  0498                     	;# 
   718  0498                     	;# 
   719  0499                     	;# 
   720  049A                     	;# 
   721  049B                     	;# 
   722  049B                     	;# 
   723  049C                     	;# 
   724  049D                     	;# 
   725  049E                     	;# 
   726  049F                     	;# 
   727  0611                     	;# 
   728  0612                     	;# 
   729  0613                     	;# 
   730  0613                     	;# 
   731  0614                     	;# 
   732  0615                     	;# 
   733  0616                     	;# 
   734  0616                     	;# 
   735  0617                     	;# 
   736  0618                     	;# 
   737  0619                     	;# 
   738  0619                     	;# 
   739  061A                     	;# 
   740  061B                     	;# 
   741  061C                     	;# 
   742  061C                     	;# 
   743  0691                     	;# 
   744  0692                     	;# 
   745  0693                     	;# 
   746  0694                     	;# 
   747  0695                     	;# 
   748  0F0F                     	;# 
   749  0F10                     	;# 
   750  0F11                     	;# 
   751  0F12                     	;# 
   752  0F13                     	;# 
   753  0F14                     	;# 
   754  0F15                     	;# 
   755  0F16                     	;# 
   756  0F17                     	;# 
   757  0F18                     	;# 
   758  0F19                     	;# 
   759  0F1A                     	;# 
   760  0F1B                     	;# 
   761  0F1C                     	;# 
   762  0F1D                     	;# 
   763  0F1E                     	;# 
   764  0F1F                     	;# 
   765  0F20                     	;# 
   766  0F21                     	;# 
   767  0F22                     	;# 
   768  0F23                     	;# 
   769  0F24                     	;# 
   770  0F25                     	;# 
   771  0F26                     	;# 
   772  0F27                     	;# 
   773  0F28                     	;# 
   774  0F29                     	;# 
   775  0F2A                     	;# 
   776  0F2B                     	;# 
   777  0F2C                     	;# 
   778  0F2D                     	;# 
   779  0F2E                     	;# 
   780  0F2F                     	;# 
   781  0F8C                     	;# 
   782  0F8D                     	;# 
   783  0F91                     	;# 
   784  0F95                     	;# 
   785  0F96                     	;# 
   786  0F97                     	;# 
   787  0F9C                     	;# 
   788  0F9D                     	;# 
   789  0F9E                     	;# 
   790  0FE3                     	;# 
   791  0FE4                     	;# 
   792  0FE5                     	;# 
   793  0FE6                     	;# 
   794  0FE7                     	;# 
   795  0FE8                     	;# 
   796  0FE9                     	;# 
   797  0FEA                     	;# 
   798  0FEB                     	;# 
   799  0FED                     	;# 
   800  0FEE                     	;# 
   801  0FEF                     	;# 
   802                           
   803 ;; Function _EUSART_DefaultFramingErrorHandler is unused but had its address taken
   804  0000                     
   805 ;; Function _EUSART_DefaultOverrunErrorHandler is unused but had its address taken
   806  0000                     
   807 ;; Function _EUSART_DefaultErrorHandler is unused but had its address taken
   808  0000                     
   809                           	psect	nvCOMMON
   810  0070                     __pnvCOMMON:
   811  0070                     _EUSART_ErrorHandler:
   812  0070                     	ds	2
   813  0072                     _EUSART_OverrunErrorHandler:
   814  0072                     	ds	2
   815  0074                     _EUSART_FramingErrorHandler:
   816  0074                     	ds	2
   817  0011                     _PIR1bits	set	17
   818  0095                     _OPTION_REGbits	set	149
   819  008E                     _TRISC	set	142
   820  008D                     _TRISB	set	141
   821  008C                     _TRISA	set	140
   822  0097                     _WDTCON	set	151
   823  0099                     _OSCCON	set	153
   824  011D                     _APFCON	set	285
   825  010D                     _LATB	set	269
   826  010C                     _LATA	set	268
   827  0116                     _BORCON	set	278
   828  010E                     _LATC	set	270
   829  010E                     _LATCbits	set	270
   830  018C                     _ANSELA	set	396
   831  018D                     _ANSELB	set	397
   832  018E                     _ANSELC	set	398
   833  019A                     _TXREG	set	410
   834  0199                     _RCREG	set	409
   835  019D                     _RCSTAbits	set	413
   836  019E                     _TXSTAbits	set	414
   837  019C                     _SPBRGH	set	412
   838  019B                     _SPBRGL	set	411
   839  019E                     _TXSTA	set	414
   840  019D                     _RCSTA	set	413
   841  019F                     _BAUDCON	set	415
   842  020C                     _WPUA	set	524
   843  020D                     _WPUB	set	525
   844                           
   845                           	psect	cinit
   846  07F1                     start_initialization:	
   847                           ; #config settings
   848                           
   849  07F1                     __initialization:
   850                           
   851                           ; Clear objects allocated to COMMON
   852  07F1  01FC               	clrf	__pbssCOMMON& (0+127)
   853                           
   854                           ; Clear objects allocated to BANK0
   855  07F2  0020               	movlb	0	; select bank0
   856  07F3  01A0               	clrf	__pbssBANK0& (0+127)
   857  07F4  01A1               	clrf	(__pbssBANK0+1)& (0+127)
   858  07F5  01A2               	clrf	(__pbssBANK0+2)& (0+127)
   859  07F6  01A3               	clrf	(__pbssBANK0+3)& (0+127)
   860  07F7  01A4               	clrf	(__pbssBANK0+4)& (0+127)
   861  07F8  01A5               	clrf	(__pbssBANK0+5)& (0+127)
   862  07F9  01A6               	clrf	(__pbssBANK0+6)& (0+127)
   863  07FA  01A7               	clrf	(__pbssBANK0+7)& (0+127)
   864  07FB  01A8               	clrf	(__pbssBANK0+8)& (0+127)
   865  07FC  01A9               	clrf	(__pbssBANK0+9)& (0+127)
   866  07FD                     end_of_initialization:	
   867                           ;End of C runtime variable initialization code
   868                           
   869  07FD                     __end_of__initialization:
   870  07FD  0020               	movlb	0
   871  07FE  3182  2AEE         	ljmp	_main	;jump to C main() function
   872                           
   873                           	psect	bssCOMMON
   874  007C                     __pbssCOMMON:
   875  007C                     _eusartRxLastError:
   876  007C                     	ds	1
   877                           
   878                           	psect	bssBANK0
   879  0020                     __pbssBANK0:
   880  0020                     _CMD:
   881  0020                     	ds	10
   882                           
   883                           	psect	cstackCOMMON
   884  0076                     __pcstackCOMMON:
   885  0076                     ?_EUSART_SetFramingErrorHandler:
   886  0076                     ?_EUSART_SetOverrunErrorHandler:	
   887                           ; 1 bytes @ 0x0
   888                           
   889  0076                     ?_EUSART_SetErrorHandler:	
   890                           ; 1 bytes @ 0x0
   891                           
   892  0076                     ?_SYSTEM_Initialize:	
   893                           ; 1 bytes @ 0x0
   894                           
   895  0076                     ?_PIN_MANAGER_Initialize:	
   896                           ; 1 bytes @ 0x0
   897                           
   898  0076                     ??_PIN_MANAGER_Initialize:	
   899                           ; 1 bytes @ 0x0
   900                           
   901  0076                     ?_OSCILLATOR_Initialize:	
   902                           ; 1 bytes @ 0x0
   903                           
   904  0076                     ??_OSCILLATOR_Initialize:	
   905                           ; 1 bytes @ 0x0
   906                           
   907  0076                     ?_WDT_Initialize:	
   908                           ; 1 bytes @ 0x0
   909                           
   910  0076                     ??_WDT_Initialize:	
   911                           ; 1 bytes @ 0x0
   912                           
   913  0076                     ?_EUSART_Initialize:	
   914                           ; 1 bytes @ 0x0
   915                           
   916  0076                     ?_EUSART_is_rx_ready:	
   917                           ; 1 bytes @ 0x0
   918                           
   919  0076                     ??_EUSART_is_rx_ready:	
   920                           ; 1 bytes @ 0x0
   921                           
   922  0076                     ?_EUSART_Read:	
   923                           ; 1 bytes @ 0x0
   924                           
   925  0076                     ??_EUSART_Read:	
   926                           ; 1 bytes @ 0x0
   927                           
   928  0076                     ?_LEDs_on:	
   929                           ; 1 bytes @ 0x0
   930                           
   931  0076                     ??_LEDs_on:	
   932                           ; 1 bytes @ 0x0
   933                           
   934  0076                     ?_USART_read:	
   935                           ; 1 bytes @ 0x0
   936                           
   937  0076                     ??_USART_read:	
   938                           ; 1 bytes @ 0x0
   939                           
   940  0076                     ?_LEDs_off:	
   941                           ; 1 bytes @ 0x0
   942                           
   943  0076                     ??_LEDs_off:	
   944                           ; 1 bytes @ 0x0
   945                           
   946  0076                     ?_main:	
   947                           ; 1 bytes @ 0x0
   948                           
   949  0076                     EUSART_SetFramingErrorHandler@interruptHandler:	
   950                           ; 1 bytes @ 0x0
   951                           
   952  0076                     EUSART_SetOverrunErrorHandler@interruptHandler:	
   953                           ; 2 bytes @ 0x0
   954                           
   955  0076                     EUSART_SetErrorHandler@interruptHandler:	
   956                           ; 2 bytes @ 0x0
   957                           
   958                           
   959                           ; 2 bytes @ 0x0
   960  0076                     	ds	1
   961  0077                     USART_read@i:
   962                           
   963                           ; 2 bytes @ 0x1
   964  0077                     	ds	1
   965  0078                     ??_EUSART_SetFramingErrorHandler:
   966  0078                     ??_EUSART_SetOverrunErrorHandler:	
   967                           ; 1 bytes @ 0x2
   968                           
   969  0078                     ??_EUSART_SetErrorHandler:	
   970                           ; 1 bytes @ 0x2
   971                           
   972  0078                     ??_SYSTEM_Initialize:	
   973                           ; 1 bytes @ 0x2
   974                           
   975  0078                     ??_EUSART_Initialize:	
   976                           ; 1 bytes @ 0x2
   977                           
   978                           
   979                           ; 1 bytes @ 0x2
   980  0078                     	ds	1
   981  0079                     ??_main:
   982                           
   983                           ; 1 bytes @ 0x3
   984  0079                     	ds	1
   985  007A                     main@time_counter:
   986                           
   987                           ; 2 bytes @ 0x4
   988  007A                     	ds	2
   989                           
   990                           	psect	maintext
   991  02EE                     __pmaintext:	
   992 ;;
   993 ;;Main: autosize = 0, tempsize = 1, incstack = 0, save=0
   994 ;;
   995 ;; *************** function _main *****************
   996 ;; Defined at:
   997 ;;		line 248 in file "main.c"
   998 ;; Parameters:    Size  Location     Type
   999 ;;		None
  1000 ;; Auto vars:     Size  Location     Type
  1001 ;;  time_counter    2    4[COMMON] int 
  1002 ;;  i               2    0        int 
  1003 ;; Return value:  Size  Location     Type
  1004 ;;                  1    wreg      void 
  1005 ;; Registers used:
  1006 ;;		wreg, fsr1l, fsr1h, status,2, status,0, pclath, cstack
  1007 ;; Tracked objects:
  1008 ;;		On entry : B1F/0
  1009 ;;		On exit  : 0/0
  1010 ;;		Unchanged: 0/0
  1011 ;; Data sizes:     COMMON   BANK0   BANK1   BANK2   BANK3   BANK4   BANK5   BANK6
  1012 ;;      Params:         0       0       0       0       0       0       0       0
  1013 ;;      Locals:         2       0       0       0       0       0       0       0
  1014 ;;      Temps:          1       0       0       0       0       0       0       0
  1015 ;;      Totals:         3       0       0       0       0       0       0       0
  1016 ;;Total ram usage:        3 bytes
  1017 ;; Hardware stack levels required when called: 3
  1018 ;; This function calls:
  1019 ;;		_EUSART_is_rx_ready
  1020 ;;		_LEDs_off
  1021 ;;		_LEDs_on
  1022 ;;		_SYSTEM_Initialize
  1023 ;;		_USART_read
  1024 ;; This function is called by:
  1025 ;;		Startup code after reset
  1026 ;; This function uses a non-reentrant model
  1027 ;;
  1028                           
  1029  02EE                     _main:	
  1030                           ;psect for function _main
  1031                           
  1032  02EE                     l1952:	
  1033                           ;incstack = 0
  1034                           ; Regs used in _main: [wreg+fsr1l+fsr1h+status,2+status,0+pclath+cstack]
  1035                           
  1036                           
  1037                           ;main.c: 251:     SYSTEM_Initialize();
  1038  02EE  3180  201B  3182   	fcall	_SYSTEM_Initialize
  1039  02F1                     l1954:
  1040                           
  1041                           ;main.c: 254:     LATC = 0x00;
  1042  02F1  0022               	movlb	2	; select bank2
  1043  02F2  018E               	clrf	14	;volatile
  1044  02F3                     l1956:
  1045  02F3                     l1958:
  1046  02F3                     l1960:
  1047                           
  1048                           ;main.c: 280:         if(EUSART_is_rx_ready()!=0){
  1049  02F3  318F  2781  3182   	fcall	_EUSART_is_rx_ready
  1050  02F6  3A00               	xorlw	0
  1051  02F7  1903               	skipnz
  1052  02F8  2AFA               	goto	u3481
  1053  02F9  2AFB               	goto	u3480
  1054  02FA                     u3481:
  1055  02FA  2AFE               	goto	l1964
  1056  02FB                     u3480:
  1057  02FB                     l1962:
  1058                           
  1059                           ;main.c: 282:             USART_read();
  1060  02FB  318F  2786  3182   	fcall	_USART_read
  1061  02FE                     l1964:
  1062                           
  1063                           ;main.c: 286:         LEDs_on();
  1064  02FE  3180  206F  3182   	fcall	_LEDs_on
  1065  0301                     l1966:
  1066                           
  1067                           ;main.c: 288:         LEDs_off();
  1068  0301  3181  2194  3182   	fcall	_LEDs_off
  1069  0304                     l1968:
  1070                           
  1071                           ;main.c: 297:         if((CMD[0]=='B')&&(CMD[1]=='L')&&(CMD[2]=='I')&&(CMD[3]=='N')&&(CM
      +                          D[4]=='K')&&(CMD[5]=='0')&&(CMD[6]=='1')&&(CMD[7]=='#')){
  1072  0304  3042               	movlw	66
  1073  0305  0020               	movlb	0	; select bank0
  1074  0306  0620               	xorwf	_CMD,w
  1075  0307  1D03               	btfss	3,2
  1076  0308  2B0A               	goto	u3491
  1077  0309  2B0B               	goto	u3490
  1078  030A                     u3491:
  1079  030A  2B90               	goto	l2016
  1080  030B                     u3490:
  1081  030B                     l1970:
  1082  030B  304C               	movlw	76
  1083  030C  0621               	xorwf	_CMD+1,w
  1084  030D  1D03               	btfss	3,2
  1085  030E  2B10               	goto	u3501
  1086  030F  2B11               	goto	u3500
  1087  0310                     u3501:
  1088  0310  2B90               	goto	l2016
  1089  0311                     u3500:
  1090  0311                     l1972:
  1091  0311  3049               	movlw	73
  1092  0312  0622               	xorwf	_CMD+2,w
  1093  0313  1D03               	btfss	3,2
  1094  0314  2B16               	goto	u3511
  1095  0315  2B17               	goto	u3510
  1096  0316                     u3511:
  1097  0316  2B90               	goto	l2016
  1098  0317                     u3510:
  1099  0317                     l1974:
  1100  0317  304E               	movlw	78
  1101  0318  0623               	xorwf	_CMD+3,w
  1102  0319  1D03               	btfss	3,2
  1103  031A  2B1C               	goto	u3521
  1104  031B  2B1D               	goto	u3520
  1105  031C                     u3521:
  1106  031C  2B90               	goto	l2016
  1107  031D                     u3520:
  1108  031D                     l1976:
  1109  031D  304B               	movlw	75
  1110  031E  0624               	xorwf	_CMD+4,w
  1111  031F  1D03               	btfss	3,2
  1112  0320  2B22               	goto	u3531
  1113  0321  2B23               	goto	u3530
  1114  0322                     u3531:
  1115  0322  2B90               	goto	l2016
  1116  0323                     u3530:
  1117  0323                     l1978:
  1118  0323  3030               	movlw	48
  1119  0324  0625               	xorwf	_CMD+5,w
  1120  0325  1D03               	btfss	3,2
  1121  0326  2B28               	goto	u3541
  1122  0327  2B29               	goto	u3540
  1123  0328                     u3541:
  1124  0328  2B90               	goto	l2016
  1125  0329                     u3540:
  1126  0329                     l1980:
  1127  0329  3031               	movlw	49
  1128  032A  0626               	xorwf	_CMD+6,w
  1129  032B  1D03               	btfss	3,2
  1130  032C  2B2E               	goto	u3551
  1131  032D  2B2F               	goto	u3550
  1132  032E                     u3551:
  1133  032E  2B90               	goto	l2016
  1134  032F                     u3550:
  1135  032F                     l1982:
  1136  032F  3023               	movlw	35
  1137  0330  0627               	xorwf	_CMD+7,w
  1138  0331  1D03               	btfss	3,2
  1139  0332  2B34               	goto	u3561
  1140  0333  2B35               	goto	u3560
  1141  0334                     u3561:
  1142  0334  2B90               	goto	l2016
  1143  0335                     u3560:
  1144  0335                     l1984:
  1145                           
  1146                           ;main.c: 299:             time_counter = 0;
  1147  0335  01FA               	clrf	main@time_counter
  1148  0336  01FB               	clrf	main@time_counter+1
  1149                           
  1150                           ;main.c: 301:             for(time_counter=0; time_counter<1000; time_counter++){
  1151  0337  01FA               	clrf	main@time_counter
  1152  0338  01FB               	clrf	main@time_counter+1
  1153  0339                     l147:
  1154                           
  1155                           ;main.c: 305:                 if((time_counter>=0)&&(time_counter<500)){
  1156  0339  1BFB               	btfsc	main@time_counter+1,7
  1157  033A  2B3C               	goto	u3571
  1158  033B  2B3D               	goto	u3570
  1159  033C                     u3571:
  1160  033C  2B51               	goto	l1996
  1161  033D                     u3570:
  1162  033D                     l1990:
  1163  033D  087B               	movf	main@time_counter+1,w
  1164  033E  3A80               	xorlw	128
  1165  033F  00F9               	movwf	??_main
  1166  0340  3081               	movlw	129
  1167  0341  0279               	subwf	??_main,w
  1168  0342  1D03               	skipz
  1169  0343  2B46               	goto	u3585
  1170  0344  30F4               	movlw	244
  1171  0345  027A               	subwf	main@time_counter,w
  1172  0346                     u3585:
  1173  0346  1803               	skipnc
  1174  0347  2B49               	goto	u3581
  1175  0348  2B4A               	goto	u3580
  1176  0349                     u3581:
  1177  0349  2B51               	goto	l1996
  1178  034A                     u3580:
  1179  034A                     l1992:
  1180                           
  1181                           ;main.c: 308:                     LATCbits.LATC0 = 1;
  1182  034A  0022               	movlb	2	; select bank2
  1183  034B  140E               	bsf	14,0	;volatile
  1184  034C                     l1994:
  1185                           
  1186                           ;main.c: 309:                     _delay((unsigned long)((1)*(1000000/4000.0)));
  1187  034C  3053               	movlw	83
  1188  034D                     u4747:
  1189  034D  0B89               	decfsz	9,f
  1190  034E  2B4D               	goto	u4747
  1191  034F  0000               	nop
  1192                           
  1193                           ;main.c: 312:                 } else if((time_counter>=500)&&(time_counter<1000)){
  1194  0350  2B6E               	goto	l2004
  1195  0351                     l1996:
  1196  0351  087B               	movf	main@time_counter+1,w
  1197  0352  3A80               	xorlw	128
  1198  0353  00F9               	movwf	??_main
  1199  0354  3081               	movlw	129
  1200  0355  0279               	subwf	??_main,w
  1201  0356  1D03               	skipz
  1202  0357  2B5A               	goto	u3595
  1203  0358  30F4               	movlw	244
  1204  0359  027A               	subwf	main@time_counter,w
  1205  035A                     u3595:
  1206  035A  1C03               	skipc
  1207  035B  2B5D               	goto	u3591
  1208  035C  2B5E               	goto	u3590
  1209  035D                     u3591:
  1210  035D  2B6E               	goto	l2004
  1211  035E                     u3590:
  1212  035E                     l1998:
  1213  035E  087B               	movf	main@time_counter+1,w
  1214  035F  3A80               	xorlw	128
  1215  0360  00F9               	movwf	??_main
  1216  0361  3083               	movlw	131
  1217  0362  0279               	subwf	??_main,w
  1218  0363  1D03               	skipz
  1219  0364  2B67               	goto	u3605
  1220  0365  30E8               	movlw	232
  1221  0366  027A               	subwf	main@time_counter,w
  1222  0367                     u3605:
  1223  0367  1803               	skipnc
  1224  0368  2B6A               	goto	u3601
  1225  0369  2B6B               	goto	u3600
  1226  036A                     u3601:
  1227  036A  2B6E               	goto	l2004
  1228  036B                     u3600:
  1229  036B                     l2000:
  1230                           
  1231                           ;main.c: 315:                     LATCbits.LATC0 = 0;
  1232  036B  0022               	movlb	2	; select bank2
  1233  036C  100E               	bcf	14,0	;volatile
  1234  036D  2B4C               	goto	l1994
  1235  036E                     l2004:
  1236                           
  1237                           ;main.c: 320:                 if(EUSART_is_rx_ready()!=0){
  1238  036E  318F  2781  3182   	fcall	_EUSART_is_rx_ready
  1239  0371  3A00               	xorlw	0
  1240  0372  1903               	skipnz
  1241  0373  2B75               	goto	u3611
  1242  0374  2B76               	goto	u3610
  1243  0375                     u3611:
  1244  0375  2B7F               	goto	l2012
  1245  0376                     u3610:
  1246  0376                     l2006:
  1247                           
  1248                           ;main.c: 322:                     USART_read();
  1249  0376  318F  2786  3182   	fcall	_USART_read
  1250  0379                     l2008:
  1251                           
  1252                           ;main.c: 324:                     LEDs_on();
  1253  0379  3180  206F  3182   	fcall	_LEDs_on
  1254  037C                     l2010:
  1255                           
  1256                           ;main.c: 326:                     LEDs_off();
  1257  037C  3181  2194  3182   	fcall	_LEDs_off
  1258  037F                     l2012:
  1259                           
  1260                           ;main.c: 329:             }
  1261  037F  3001               	movlw	1
  1262  0380  07FA               	addwf	main@time_counter,f
  1263  0381  3000               	movlw	0
  1264  0382  3DFB               	addwfc	main@time_counter+1,f
  1265  0383                     l2014:
  1266  0383  087B               	movf	main@time_counter+1,w
  1267  0384  3A80               	xorlw	128
  1268  0385  00F9               	movwf	??_main
  1269  0386  3083               	movlw	131
  1270  0387  0279               	subwf	??_main,w
  1271  0388  1D03               	skipz
  1272  0389  2B8C               	goto	u3625
  1273  038A  30E8               	movlw	232
  1274  038B  027A               	subwf	main@time_counter,w
  1275  038C                     u3625:
  1276  038C  1C03               	skipc
  1277  038D  2B8F               	goto	u3621
  1278  038E  2B90               	goto	u3620
  1279  038F                     u3621:
  1280  038F  2B39               	goto	l147
  1281  0390                     u3620:
  1282  0390                     l2016:
  1283                           
  1284                           ;main.c: 333:         if((CMD[0]=='B')&&(CMD[1]=='L')&&(CMD[2]=='I')&&(CMD[3]=='N')&&(CM
      +                          D[4]=='K')&&(CMD[5]=='0')&&(CMD[6]=='2')&&(CMD[7]=='#')){
  1285  0390  3042               	movlw	66
  1286  0391  0020               	movlb	0	; select bank0
  1287  0392  0620               	xorwf	_CMD,w
  1288  0393  1D03               	btfss	3,2
  1289  0394  2B96               	goto	u3631
  1290  0395  2B97               	goto	u3630
  1291  0396                     u3631:
  1292  0396  2C1C               	goto	l2064
  1293  0397                     u3630:
  1294  0397                     l2018:
  1295  0397  304C               	movlw	76
  1296  0398  0621               	xorwf	_CMD+1,w
  1297  0399  1D03               	btfss	3,2
  1298  039A  2B9C               	goto	u3641
  1299  039B  2B9D               	goto	u3640
  1300  039C                     u3641:
  1301  039C  2C1C               	goto	l2064
  1302  039D                     u3640:
  1303  039D                     l2020:
  1304  039D  3049               	movlw	73
  1305  039E  0622               	xorwf	_CMD+2,w
  1306  039F  1D03               	btfss	3,2
  1307  03A0  2BA2               	goto	u3651
  1308  03A1  2BA3               	goto	u3650
  1309  03A2                     u3651:
  1310  03A2  2C1C               	goto	l2064
  1311  03A3                     u3650:
  1312  03A3                     l2022:
  1313  03A3  304E               	movlw	78
  1314  03A4  0623               	xorwf	_CMD+3,w
  1315  03A5  1D03               	btfss	3,2
  1316  03A6  2BA8               	goto	u3661
  1317  03A7  2BA9               	goto	u3660
  1318  03A8                     u3661:
  1319  03A8  2C1C               	goto	l2064
  1320  03A9                     u3660:
  1321  03A9                     l2024:
  1322  03A9  304B               	movlw	75
  1323  03AA  0624               	xorwf	_CMD+4,w
  1324  03AB  1D03               	btfss	3,2
  1325  03AC  2BAE               	goto	u3671
  1326  03AD  2BAF               	goto	u3670
  1327  03AE                     u3671:
  1328  03AE  2C1C               	goto	l2064
  1329  03AF                     u3670:
  1330  03AF                     l2026:
  1331  03AF  3030               	movlw	48
  1332  03B0  0625               	xorwf	_CMD+5,w
  1333  03B1  1D03               	btfss	3,2
  1334  03B2  2BB4               	goto	u3681
  1335  03B3  2BB5               	goto	u3680
  1336  03B4                     u3681:
  1337  03B4  2C1C               	goto	l2064
  1338  03B5                     u3680:
  1339  03B5                     l2028:
  1340  03B5  3032               	movlw	50
  1341  03B6  0626               	xorwf	_CMD+6,w
  1342  03B7  1D03               	btfss	3,2
  1343  03B8  2BBA               	goto	u3691
  1344  03B9  2BBB               	goto	u3690
  1345  03BA                     u3691:
  1346  03BA  2C1C               	goto	l2064
  1347  03BB                     u3690:
  1348  03BB                     l2030:
  1349  03BB  3023               	movlw	35
  1350  03BC  0627               	xorwf	_CMD+7,w
  1351  03BD  1D03               	btfss	3,2
  1352  03BE  2BC0               	goto	u3701
  1353  03BF  2BC1               	goto	u3700
  1354  03C0                     u3701:
  1355  03C0  2C1C               	goto	l2064
  1356  03C1                     u3700:
  1357  03C1                     l2032:
  1358                           
  1359                           ;main.c: 335:             time_counter = 0;
  1360  03C1  01FA               	clrf	main@time_counter
  1361  03C2  01FB               	clrf	main@time_counter+1
  1362                           
  1363                           ;main.c: 337:             for(time_counter=0; time_counter<1000; time_counter++){
  1364  03C3  01FA               	clrf	main@time_counter
  1365  03C4  01FB               	clrf	main@time_counter+1
  1366  03C5                     l154:
  1367                           
  1368                           ;main.c: 341:                 if((time_counter>=0)&&(time_counter<500)){
  1369  03C5  1BFB               	btfsc	main@time_counter+1,7
  1370  03C6  2BC8               	goto	u3711
  1371  03C7  2BC9               	goto	u3710
  1372  03C8                     u3711:
  1373  03C8  2BDD               	goto	l2044
  1374  03C9                     u3710:
  1375  03C9                     l2038:
  1376  03C9  087B               	movf	main@time_counter+1,w
  1377  03CA  3A80               	xorlw	128
  1378  03CB  00F9               	movwf	??_main
  1379  03CC  3081               	movlw	129
  1380  03CD  0279               	subwf	??_main,w
  1381  03CE  1D03               	skipz
  1382  03CF  2BD2               	goto	u3725
  1383  03D0  30F4               	movlw	244
  1384  03D1  027A               	subwf	main@time_counter,w
  1385  03D2                     u3725:
  1386  03D2  1803               	skipnc
  1387  03D3  2BD5               	goto	u3721
  1388  03D4  2BD6               	goto	u3720
  1389  03D5                     u3721:
  1390  03D5  2BDD               	goto	l2044
  1391  03D6                     u3720:
  1392  03D6                     l2040:
  1393                           
  1394                           ;main.c: 344:                     LATCbits.LATC1 = 1;
  1395  03D6  0022               	movlb	2	; select bank2
  1396  03D7  148E               	bsf	14,1	;volatile
  1397  03D8                     l2042:
  1398                           
  1399                           ;main.c: 345:                     _delay((unsigned long)((1)*(1000000/4000.0)));
  1400  03D8  3053               	movlw	83
  1401  03D9                     u4757:
  1402  03D9  0B89               	decfsz	9,f
  1403  03DA  2BD9               	goto	u4757
  1404  03DB  0000               	nop
  1405                           
  1406                           ;main.c: 348:                 } else if((time_counter>=500)&&(time_counter<1000)){
  1407  03DC  2BFA               	goto	l2052
  1408  03DD                     l2044:
  1409  03DD  087B               	movf	main@time_counter+1,w
  1410  03DE  3A80               	xorlw	128
  1411  03DF  00F9               	movwf	??_main
  1412  03E0  3081               	movlw	129
  1413  03E1  0279               	subwf	??_main,w
  1414  03E2  1D03               	skipz
  1415  03E3  2BE6               	goto	u3735
  1416  03E4  30F4               	movlw	244
  1417  03E5  027A               	subwf	main@time_counter,w
  1418  03E6                     u3735:
  1419  03E6  1C03               	skipc
  1420  03E7  2BE9               	goto	u3731
  1421  03E8  2BEA               	goto	u3730
  1422  03E9                     u3731:
  1423  03E9  2BFA               	goto	l2052
  1424  03EA                     u3730:
  1425  03EA                     l2046:
  1426  03EA  087B               	movf	main@time_counter+1,w
  1427  03EB  3A80               	xorlw	128
  1428  03EC  00F9               	movwf	??_main
  1429  03ED  3083               	movlw	131
  1430  03EE  0279               	subwf	??_main,w
  1431  03EF  1D03               	skipz
  1432  03F0  2BF3               	goto	u3745
  1433  03F1  30E8               	movlw	232
  1434  03F2  027A               	subwf	main@time_counter,w
  1435  03F3                     u3745:
  1436  03F3  1803               	skipnc
  1437  03F4  2BF6               	goto	u3741
  1438  03F5  2BF7               	goto	u3740
  1439  03F6                     u3741:
  1440  03F6  2BFA               	goto	l2052
  1441  03F7                     u3740:
  1442  03F7                     l2048:
  1443                           
  1444                           ;main.c: 351:                     LATCbits.LATC1 = 0;
  1445  03F7  0022               	movlb	2	; select bank2
  1446  03F8  108E               	bcf	14,1	;volatile
  1447  03F9  2BD8               	goto	l2042
  1448  03FA                     l2052:
  1449                           
  1450                           ;main.c: 356:                 if(EUSART_is_rx_ready()!=0){
  1451  03FA  318F  2781  3182   	fcall	_EUSART_is_rx_ready
  1452  03FD  3A00               	xorlw	0
  1453  03FE  1903               	skipnz
  1454  03FF  2C01               	goto	u3751
  1455  0400  2C02               	goto	u3750
  1456  0401                     u3751:
  1457  0401  2C0B               	goto	l2060
  1458  0402                     u3750:
  1459  0402                     l2054:
  1460                           
  1461                           ;main.c: 358:                     USART_read();
  1462  0402  318F  2786  3182   	fcall	_USART_read
  1463  0405                     l2056:
  1464                           
  1465                           ;main.c: 360:                     LEDs_on();
  1466  0405  3180  206F  3182   	fcall	_LEDs_on
  1467  0408                     l2058:
  1468                           
  1469                           ;main.c: 362:                     LEDs_off();
  1470  0408  3181  2194  3182   	fcall	_LEDs_off
  1471  040B                     l2060:
  1472                           
  1473                           ;main.c: 365:             }
  1474  040B  3001               	movlw	1
  1475  040C  07FA               	addwf	main@time_counter,f
  1476  040D  3000               	movlw	0
  1477  040E  3DFB               	addwfc	main@time_counter+1,f
  1478  040F                     l2062:
  1479  040F  087B               	movf	main@time_counter+1,w
  1480  0410  3A80               	xorlw	128
  1481  0411  00F9               	movwf	??_main
  1482  0412  3083               	movlw	131
  1483  0413  0279               	subwf	??_main,w
  1484  0414  1D03               	skipz
  1485  0415  2C18               	goto	u3765
  1486  0416  30E8               	movlw	232
  1487  0417  027A               	subwf	main@time_counter,w
  1488  0418                     u3765:
  1489  0418  1C03               	skipc
  1490  0419  2C1B               	goto	u3761
  1491  041A  2C1C               	goto	u3760
  1492  041B                     u3761:
  1493  041B  2BC5               	goto	l154
  1494  041C                     u3760:
  1495  041C                     l2064:
  1496                           
  1497                           ;main.c: 369:         if((CMD[0]=='B')&&(CMD[1]=='L')&&(CMD[2]=='I')&&(CMD[3]=='N')&&(CM
      +                          D[4]=='K')&&(CMD[5]=='0')&&(CMD[6]=='3')&&(CMD[7]=='#')){
  1498  041C  3042               	movlw	66
  1499  041D  0020               	movlb	0	; select bank0
  1500  041E  0620               	xorwf	_CMD,w
  1501  041F  1D03               	btfss	3,2
  1502  0420  2C22               	goto	u3771
  1503  0421  2C23               	goto	u3770
  1504  0422                     u3771:
  1505  0422  2CA8               	goto	l2112
  1506  0423                     u3770:
  1507  0423                     l2066:
  1508  0423  304C               	movlw	76
  1509  0424  0621               	xorwf	_CMD+1,w
  1510  0425  1D03               	btfss	3,2
  1511  0426  2C28               	goto	u3781
  1512  0427  2C29               	goto	u3780
  1513  0428                     u3781:
  1514  0428  2CA8               	goto	l2112
  1515  0429                     u3780:
  1516  0429                     l2068:
  1517  0429  3049               	movlw	73
  1518  042A  0622               	xorwf	_CMD+2,w
  1519  042B  1D03               	btfss	3,2
  1520  042C  2C2E               	goto	u3791
  1521  042D  2C2F               	goto	u3790
  1522  042E                     u3791:
  1523  042E  2CA8               	goto	l2112
  1524  042F                     u3790:
  1525  042F                     l2070:
  1526  042F  304E               	movlw	78
  1527  0430  0623               	xorwf	_CMD+3,w
  1528  0431  1D03               	btfss	3,2
  1529  0432  2C34               	goto	u3801
  1530  0433  2C35               	goto	u3800
  1531  0434                     u3801:
  1532  0434  2CA8               	goto	l2112
  1533  0435                     u3800:
  1534  0435                     l2072:
  1535  0435  304B               	movlw	75
  1536  0436  0624               	xorwf	_CMD+4,w
  1537  0437  1D03               	btfss	3,2
  1538  0438  2C3A               	goto	u3811
  1539  0439  2C3B               	goto	u3810
  1540  043A                     u3811:
  1541  043A  2CA8               	goto	l2112
  1542  043B                     u3810:
  1543  043B                     l2074:
  1544  043B  3030               	movlw	48
  1545  043C  0625               	xorwf	_CMD+5,w
  1546  043D  1D03               	btfss	3,2
  1547  043E  2C40               	goto	u3821
  1548  043F  2C41               	goto	u3820
  1549  0440                     u3821:
  1550  0440  2CA8               	goto	l2112
  1551  0441                     u3820:
  1552  0441                     l2076:
  1553  0441  3033               	movlw	51
  1554  0442  0626               	xorwf	_CMD+6,w
  1555  0443  1D03               	btfss	3,2
  1556  0444  2C46               	goto	u3831
  1557  0445  2C47               	goto	u3830
  1558  0446                     u3831:
  1559  0446  2CA8               	goto	l2112
  1560  0447                     u3830:
  1561  0447                     l2078:
  1562  0447  3023               	movlw	35
  1563  0448  0627               	xorwf	_CMD+7,w
  1564  0449  1D03               	btfss	3,2
  1565  044A  2C4C               	goto	u3841
  1566  044B  2C4D               	goto	u3840
  1567  044C                     u3841:
  1568  044C  2CA8               	goto	l2112
  1569  044D                     u3840:
  1570  044D                     l2080:
  1571                           
  1572                           ;main.c: 371:             time_counter = 0;
  1573  044D  01FA               	clrf	main@time_counter
  1574  044E  01FB               	clrf	main@time_counter+1
  1575                           
  1576                           ;main.c: 373:             for(time_counter=0; time_counter<1000; time_counter++){
  1577  044F  01FA               	clrf	main@time_counter
  1578  0450  01FB               	clrf	main@time_counter+1
  1579  0451                     l161:
  1580                           
  1581                           ;main.c: 377:                 if((time_counter>=0)&&(time_counter<500)){
  1582  0451  1BFB               	btfsc	main@time_counter+1,7
  1583  0452  2C54               	goto	u3851
  1584  0453  2C55               	goto	u3850
  1585  0454                     u3851:
  1586  0454  2C69               	goto	l2092
  1587  0455                     u3850:
  1588  0455                     l2086:
  1589  0455  087B               	movf	main@time_counter+1,w
  1590  0456  3A80               	xorlw	128
  1591  0457  00F9               	movwf	??_main
  1592  0458  3081               	movlw	129
  1593  0459  0279               	subwf	??_main,w
  1594  045A  1D03               	skipz
  1595  045B  2C5E               	goto	u3865
  1596  045C  30F4               	movlw	244
  1597  045D  027A               	subwf	main@time_counter,w
  1598  045E                     u3865:
  1599  045E  1803               	skipnc
  1600  045F  2C61               	goto	u3861
  1601  0460  2C62               	goto	u3860
  1602  0461                     u3861:
  1603  0461  2C69               	goto	l2092
  1604  0462                     u3860:
  1605  0462                     l2088:
  1606                           
  1607                           ;main.c: 380:                     LATCbits.LATC2 = 1;
  1608  0462  0022               	movlb	2	; select bank2
  1609  0463  150E               	bsf	14,2	;volatile
  1610  0464                     l2090:
  1611                           
  1612                           ;main.c: 381:                     _delay((unsigned long)((1)*(1000000/4000.0)));
  1613  0464  3053               	movlw	83
  1614  0465                     u4767:
  1615  0465  0B89               	decfsz	9,f
  1616  0466  2C65               	goto	u4767
  1617  0467  0000               	nop
  1618                           
  1619                           ;main.c: 384:                 } else if((time_counter>=500)&&(time_counter<1000)){
  1620  0468  2C86               	goto	l2100
  1621  0469                     l2092:
  1622  0469  087B               	movf	main@time_counter+1,w
  1623  046A  3A80               	xorlw	128
  1624  046B  00F9               	movwf	??_main
  1625  046C  3081               	movlw	129
  1626  046D  0279               	subwf	??_main,w
  1627  046E  1D03               	skipz
  1628  046F  2C72               	goto	u3875
  1629  0470  30F4               	movlw	244
  1630  0471  027A               	subwf	main@time_counter,w
  1631  0472                     u3875:
  1632  0472  1C03               	skipc
  1633  0473  2C75               	goto	u3871
  1634  0474  2C76               	goto	u3870
  1635  0475                     u3871:
  1636  0475  2C86               	goto	l2100
  1637  0476                     u3870:
  1638  0476                     l2094:
  1639  0476  087B               	movf	main@time_counter+1,w
  1640  0477  3A80               	xorlw	128
  1641  0478  00F9               	movwf	??_main
  1642  0479  3083               	movlw	131
  1643  047A  0279               	subwf	??_main,w
  1644  047B  1D03               	skipz
  1645  047C  2C7F               	goto	u3885
  1646  047D  30E8               	movlw	232
  1647  047E  027A               	subwf	main@time_counter,w
  1648  047F                     u3885:
  1649  047F  1803               	skipnc
  1650  0480  2C82               	goto	u3881
  1651  0481  2C83               	goto	u3880
  1652  0482                     u3881:
  1653  0482  2C86               	goto	l2100
  1654  0483                     u3880:
  1655  0483                     l2096:
  1656                           
  1657                           ;main.c: 387:                     LATCbits.LATC2 = 0;
  1658  0483  0022               	movlb	2	; select bank2
  1659  0484  110E               	bcf	14,2	;volatile
  1660  0485  2C64               	goto	l2090
  1661  0486                     l2100:
  1662                           
  1663                           ;main.c: 392:                 if(EUSART_is_rx_ready()!=0){
  1664  0486  318F  2781  3182   	fcall	_EUSART_is_rx_ready
  1665  0489  3A00               	xorlw	0
  1666  048A  1903               	skipnz
  1667  048B  2C8D               	goto	u3891
  1668  048C  2C8E               	goto	u3890
  1669  048D                     u3891:
  1670  048D  2C97               	goto	l2108
  1671  048E                     u3890:
  1672  048E                     l2102:
  1673                           
  1674                           ;main.c: 394:                     USART_read();
  1675  048E  318F  2786  3182   	fcall	_USART_read
  1676  0491                     l2104:
  1677                           
  1678                           ;main.c: 396:                     LEDs_on();
  1679  0491  3180  206F  3182   	fcall	_LEDs_on
  1680  0494                     l2106:
  1681                           
  1682                           ;main.c: 398:                     LEDs_off();
  1683  0494  3181  2194  3182   	fcall	_LEDs_off
  1684  0497                     l2108:
  1685                           
  1686                           ;main.c: 401:             }
  1687  0497  3001               	movlw	1
  1688  0498  07FA               	addwf	main@time_counter,f
  1689  0499  3000               	movlw	0
  1690  049A  3DFB               	addwfc	main@time_counter+1,f
  1691  049B                     l2110:
  1692  049B  087B               	movf	main@time_counter+1,w
  1693  049C  3A80               	xorlw	128
  1694  049D  00F9               	movwf	??_main
  1695  049E  3083               	movlw	131
  1696  049F  0279               	subwf	??_main,w
  1697  04A0  1D03               	skipz
  1698  04A1  2CA4               	goto	u3905
  1699  04A2  30E8               	movlw	232
  1700  04A3  027A               	subwf	main@time_counter,w
  1701  04A4                     u3905:
  1702  04A4  1C03               	skipc
  1703  04A5  2CA7               	goto	u3901
  1704  04A6  2CA8               	goto	u3900
  1705  04A7                     u3901:
  1706  04A7  2C51               	goto	l161
  1707  04A8                     u3900:
  1708  04A8                     l2112:
  1709                           
  1710                           ;main.c: 406:         if((CMD[0]=='B')&&(CMD[1]=='L')&&(CMD[2]=='I')&&(CMD[3]=='N')&&(CM
      +                          D[4]=='K')&&(CMD[5]=='0')&&(CMD[6]=='4')&&(CMD[7]=='#')){
  1711  04A8  3042               	movlw	66
  1712  04A9  0020               	movlb	0	; select bank0
  1713  04AA  0620               	xorwf	_CMD,w
  1714  04AB  1D03               	btfss	3,2
  1715  04AC  2CAE               	goto	u3911
  1716  04AD  2CAF               	goto	u3910
  1717  04AE                     u3911:
  1718  04AE  2D34               	goto	l2160
  1719  04AF                     u3910:
  1720  04AF                     l2114:
  1721  04AF  304C               	movlw	76
  1722  04B0  0621               	xorwf	_CMD+1,w
  1723  04B1  1D03               	btfss	3,2
  1724  04B2  2CB4               	goto	u3921
  1725  04B3  2CB5               	goto	u3920
  1726  04B4                     u3921:
  1727  04B4  2D34               	goto	l2160
  1728  04B5                     u3920:
  1729  04B5                     l2116:
  1730  04B5  3049               	movlw	73
  1731  04B6  0622               	xorwf	_CMD+2,w
  1732  04B7  1D03               	btfss	3,2
  1733  04B8  2CBA               	goto	u3931
  1734  04B9  2CBB               	goto	u3930
  1735  04BA                     u3931:
  1736  04BA  2D34               	goto	l2160
  1737  04BB                     u3930:
  1738  04BB                     l2118:
  1739  04BB  304E               	movlw	78
  1740  04BC  0623               	xorwf	_CMD+3,w
  1741  04BD  1D03               	btfss	3,2
  1742  04BE  2CC0               	goto	u3941
  1743  04BF  2CC1               	goto	u3940
  1744  04C0                     u3941:
  1745  04C0  2D34               	goto	l2160
  1746  04C1                     u3940:
  1747  04C1                     l2120:
  1748  04C1  304B               	movlw	75
  1749  04C2  0624               	xorwf	_CMD+4,w
  1750  04C3  1D03               	btfss	3,2
  1751  04C4  2CC6               	goto	u3951
  1752  04C5  2CC7               	goto	u3950
  1753  04C6                     u3951:
  1754  04C6  2D34               	goto	l2160
  1755  04C7                     u3950:
  1756  04C7                     l2122:
  1757  04C7  3030               	movlw	48
  1758  04C8  0625               	xorwf	_CMD+5,w
  1759  04C9  1D03               	btfss	3,2
  1760  04CA  2CCC               	goto	u3961
  1761  04CB  2CCD               	goto	u3960
  1762  04CC                     u3961:
  1763  04CC  2D34               	goto	l2160
  1764  04CD                     u3960:
  1765  04CD                     l2124:
  1766  04CD  3034               	movlw	52
  1767  04CE  0626               	xorwf	_CMD+6,w
  1768  04CF  1D03               	btfss	3,2
  1769  04D0  2CD2               	goto	u3971
  1770  04D1  2CD3               	goto	u3970
  1771  04D2                     u3971:
  1772  04D2  2D34               	goto	l2160
  1773  04D3                     u3970:
  1774  04D3                     l2126:
  1775  04D3  3023               	movlw	35
  1776  04D4  0627               	xorwf	_CMD+7,w
  1777  04D5  1D03               	btfss	3,2
  1778  04D6  2CD8               	goto	u3981
  1779  04D7  2CD9               	goto	u3980
  1780  04D8                     u3981:
  1781  04D8  2D34               	goto	l2160
  1782  04D9                     u3980:
  1783  04D9                     l2128:
  1784                           
  1785                           ;main.c: 408:             time_counter = 0;
  1786  04D9  01FA               	clrf	main@time_counter
  1787  04DA  01FB               	clrf	main@time_counter+1
  1788                           
  1789                           ;main.c: 410:             for(time_counter=0; time_counter<1000; time_counter++){
  1790  04DB  01FA               	clrf	main@time_counter
  1791  04DC  01FB               	clrf	main@time_counter+1
  1792  04DD                     l168:
  1793                           
  1794                           ;main.c: 414:                 if((time_counter>=0)&&(time_counter<500)){
  1795  04DD  1BFB               	btfsc	main@time_counter+1,7
  1796  04DE  2CE0               	goto	u3991
  1797  04DF  2CE1               	goto	u3990
  1798  04E0                     u3991:
  1799  04E0  2CF5               	goto	l2140
  1800  04E1                     u3990:
  1801  04E1                     l2134:
  1802  04E1  087B               	movf	main@time_counter+1,w
  1803  04E2  3A80               	xorlw	128
  1804  04E3  00F9               	movwf	??_main
  1805  04E4  3081               	movlw	129
  1806  04E5  0279               	subwf	??_main,w
  1807  04E6  1D03               	skipz
  1808  04E7  2CEA               	goto	u4005
  1809  04E8  30F4               	movlw	244
  1810  04E9  027A               	subwf	main@time_counter,w
  1811  04EA                     u4005:
  1812  04EA  1803               	skipnc
  1813  04EB  2CED               	goto	u4001
  1814  04EC  2CEE               	goto	u4000
  1815  04ED                     u4001:
  1816  04ED  2CF5               	goto	l2140
  1817  04EE                     u4000:
  1818  04EE                     l2136:
  1819                           
  1820                           ;main.c: 417:                     LATCbits.LATC3 = 1;
  1821  04EE  0022               	movlb	2	; select bank2
  1822  04EF  158E               	bsf	14,3	;volatile
  1823  04F0                     l2138:
  1824                           
  1825                           ;main.c: 418:                     _delay((unsigned long)((1)*(1000000/4000.0)));
  1826  04F0  3053               	movlw	83
  1827  04F1                     u4777:
  1828  04F1  0B89               	decfsz	9,f
  1829  04F2  2CF1               	goto	u4777
  1830  04F3  0000               	nop
  1831                           
  1832                           ;main.c: 421:                 } else if((time_counter>=500)&&(time_counter<1000)){
  1833  04F4  2D12               	goto	l2148
  1834  04F5                     l2140:
  1835  04F5  087B               	movf	main@time_counter+1,w
  1836  04F6  3A80               	xorlw	128
  1837  04F7  00F9               	movwf	??_main
  1838  04F8  3081               	movlw	129
  1839  04F9  0279               	subwf	??_main,w
  1840  04FA  1D03               	skipz
  1841  04FB  2CFE               	goto	u4015
  1842  04FC  30F4               	movlw	244
  1843  04FD  027A               	subwf	main@time_counter,w
  1844  04FE                     u4015:
  1845  04FE  1C03               	skipc
  1846  04FF  2D01               	goto	u4011
  1847  0500  2D02               	goto	u4010
  1848  0501                     u4011:
  1849  0501  2D12               	goto	l2148
  1850  0502                     u4010:
  1851  0502                     l2142:
  1852  0502  087B               	movf	main@time_counter+1,w
  1853  0503  3A80               	xorlw	128
  1854  0504  00F9               	movwf	??_main
  1855  0505  3083               	movlw	131
  1856  0506  0279               	subwf	??_main,w
  1857  0507  1D03               	skipz
  1858  0508  2D0B               	goto	u4025
  1859  0509  30E8               	movlw	232
  1860  050A  027A               	subwf	main@time_counter,w
  1861  050B                     u4025:
  1862  050B  1803               	skipnc
  1863  050C  2D0E               	goto	u4021
  1864  050D  2D0F               	goto	u4020
  1865  050E                     u4021:
  1866  050E  2D12               	goto	l2148
  1867  050F                     u4020:
  1868  050F                     l2144:
  1869                           
  1870                           ;main.c: 424:                     LATCbits.LATC3 = 0;
  1871  050F  0022               	movlb	2	; select bank2
  1872  0510  118E               	bcf	14,3	;volatile
  1873  0511  2CF0               	goto	l2138
  1874  0512                     l2148:
  1875                           
  1876                           ;main.c: 429:                 if(EUSART_is_rx_ready()!=0){
  1877  0512  318F  2781  3182   	fcall	_EUSART_is_rx_ready
  1878  0515  3A00               	xorlw	0
  1879  0516  1903               	skipnz
  1880  0517  2D19               	goto	u4031
  1881  0518  2D1A               	goto	u4030
  1882  0519                     u4031:
  1883  0519  2D23               	goto	l2156
  1884  051A                     u4030:
  1885  051A                     l2150:
  1886                           
  1887                           ;main.c: 431:                     USART_read();
  1888  051A  318F  2786  3182   	fcall	_USART_read
  1889  051D                     l2152:
  1890                           
  1891                           ;main.c: 433:                     LEDs_on();
  1892  051D  3180  206F  3182   	fcall	_LEDs_on
  1893  0520                     l2154:
  1894                           
  1895                           ;main.c: 435:                     LEDs_off();
  1896  0520  3181  2194  3182   	fcall	_LEDs_off
  1897  0523                     l2156:
  1898                           
  1899                           ;main.c: 438:             }
  1900  0523  3001               	movlw	1
  1901  0524  07FA               	addwf	main@time_counter,f
  1902  0525  3000               	movlw	0
  1903  0526  3DFB               	addwfc	main@time_counter+1,f
  1904  0527                     l2158:
  1905  0527  087B               	movf	main@time_counter+1,w
  1906  0528  3A80               	xorlw	128
  1907  0529  00F9               	movwf	??_main
  1908  052A  3083               	movlw	131
  1909  052B  0279               	subwf	??_main,w
  1910  052C  1D03               	skipz
  1911  052D  2D30               	goto	u4045
  1912  052E  30E8               	movlw	232
  1913  052F  027A               	subwf	main@time_counter,w
  1914  0530                     u4045:
  1915  0530  1C03               	skipc
  1916  0531  2D33               	goto	u4041
  1917  0532  2D34               	goto	u4040
  1918  0533                     u4041:
  1919  0533  2CDD               	goto	l168
  1920  0534                     u4040:
  1921  0534                     l2160:
  1922                           
  1923                           ;main.c: 442:         if((CMD[0]=='B')&&(CMD[1]=='L')&&(CMD[2]=='I')&&(CMD[3]=='N')&&(CM
      +                          D[4]=='K')&&(CMD[5]=='0')&&(CMD[6]=='5')&&(CMD[7]=='#')){
  1924  0534  3042               	movlw	66
  1925  0535  0020               	movlb	0	; select bank0
  1926  0536  0620               	xorwf	_CMD,w
  1927  0537  1D03               	btfss	3,2
  1928  0538  2D3A               	goto	u4051
  1929  0539  2D3B               	goto	u4050
  1930  053A                     u4051:
  1931  053A  2DC0               	goto	l2208
  1932  053B                     u4050:
  1933  053B                     l2162:
  1934  053B  304C               	movlw	76
  1935  053C  0621               	xorwf	_CMD+1,w
  1936  053D  1D03               	btfss	3,2
  1937  053E  2D40               	goto	u4061
  1938  053F  2D41               	goto	u4060
  1939  0540                     u4061:
  1940  0540  2DC0               	goto	l2208
  1941  0541                     u4060:
  1942  0541                     l2164:
  1943  0541  3049               	movlw	73
  1944  0542  0622               	xorwf	_CMD+2,w
  1945  0543  1D03               	btfss	3,2
  1946  0544  2D46               	goto	u4071
  1947  0545  2D47               	goto	u4070
  1948  0546                     u4071:
  1949  0546  2DC0               	goto	l2208
  1950  0547                     u4070:
  1951  0547                     l2166:
  1952  0547  304E               	movlw	78
  1953  0548  0623               	xorwf	_CMD+3,w
  1954  0549  1D03               	btfss	3,2
  1955  054A  2D4C               	goto	u4081
  1956  054B  2D4D               	goto	u4080
  1957  054C                     u4081:
  1958  054C  2DC0               	goto	l2208
  1959  054D                     u4080:
  1960  054D                     l2168:
  1961  054D  304B               	movlw	75
  1962  054E  0624               	xorwf	_CMD+4,w
  1963  054F  1D03               	btfss	3,2
  1964  0550  2D52               	goto	u4091
  1965  0551  2D53               	goto	u4090
  1966  0552                     u4091:
  1967  0552  2DC0               	goto	l2208
  1968  0553                     u4090:
  1969  0553                     l2170:
  1970  0553  3030               	movlw	48
  1971  0554  0625               	xorwf	_CMD+5,w
  1972  0555  1D03               	btfss	3,2
  1973  0556  2D58               	goto	u4101
  1974  0557  2D59               	goto	u4100
  1975  0558                     u4101:
  1976  0558  2DC0               	goto	l2208
  1977  0559                     u4100:
  1978  0559                     l2172:
  1979  0559  3035               	movlw	53
  1980  055A  0626               	xorwf	_CMD+6,w
  1981  055B  1D03               	btfss	3,2
  1982  055C  2D5E               	goto	u4111
  1983  055D  2D5F               	goto	u4110
  1984  055E                     u4111:
  1985  055E  2DC0               	goto	l2208
  1986  055F                     u4110:
  1987  055F                     l2174:
  1988  055F  3023               	movlw	35
  1989  0560  0627               	xorwf	_CMD+7,w
  1990  0561  1D03               	btfss	3,2
  1991  0562  2D64               	goto	u4121
  1992  0563  2D65               	goto	u4120
  1993  0564                     u4121:
  1994  0564  2DC0               	goto	l2208
  1995  0565                     u4120:
  1996  0565                     l2176:
  1997                           
  1998                           ;main.c: 444:             time_counter = 0;
  1999  0565  01FA               	clrf	main@time_counter
  2000  0566  01FB               	clrf	main@time_counter+1
  2001                           
  2002                           ;main.c: 446:             for(time_counter=0; time_counter<1000; time_counter++){
  2003  0567  01FA               	clrf	main@time_counter
  2004  0568  01FB               	clrf	main@time_counter+1
  2005  0569                     l175:
  2006                           
  2007                           ;main.c: 450:                 if((time_counter>=0)&&(time_counter<500)){
  2008  0569  1BFB               	btfsc	main@time_counter+1,7
  2009  056A  2D6C               	goto	u4131
  2010  056B  2D6D               	goto	u4130
  2011  056C                     u4131:
  2012  056C  2D81               	goto	l2188
  2013  056D                     u4130:
  2014  056D                     l2182:
  2015  056D  087B               	movf	main@time_counter+1,w
  2016  056E  3A80               	xorlw	128
  2017  056F  00F9               	movwf	??_main
  2018  0570  3081               	movlw	129
  2019  0571  0279               	subwf	??_main,w
  2020  0572  1D03               	skipz
  2021  0573  2D76               	goto	u4145
  2022  0574  30F4               	movlw	244
  2023  0575  027A               	subwf	main@time_counter,w
  2024  0576                     u4145:
  2025  0576  1803               	skipnc
  2026  0577  2D79               	goto	u4141
  2027  0578  2D7A               	goto	u4140
  2028  0579                     u4141:
  2029  0579  2D81               	goto	l2188
  2030  057A                     u4140:
  2031  057A                     l2184:
  2032                           
  2033                           ;main.c: 453:                     LATCbits.LATC4 = 1;
  2034  057A  0022               	movlb	2	; select bank2
  2035  057B  160E               	bsf	14,4	;volatile
  2036  057C                     l2186:
  2037                           
  2038                           ;main.c: 454:                     _delay((unsigned long)((1)*(1000000/4000.0)));
  2039  057C  3053               	movlw	83
  2040  057D                     u4787:
  2041  057D  0B89               	decfsz	9,f
  2042  057E  2D7D               	goto	u4787
  2043  057F  0000               	nop
  2044                           
  2045                           ;main.c: 457:                 } else if((time_counter>=500)&&(time_counter<1000)){
  2046  0580  2D9E               	goto	l2196
  2047  0581                     l2188:
  2048  0581  087B               	movf	main@time_counter+1,w
  2049  0582  3A80               	xorlw	128
  2050  0583  00F9               	movwf	??_main
  2051  0584  3081               	movlw	129
  2052  0585  0279               	subwf	??_main,w
  2053  0586  1D03               	skipz
  2054  0587  2D8A               	goto	u4155
  2055  0588  30F4               	movlw	244
  2056  0589  027A               	subwf	main@time_counter,w
  2057  058A                     u4155:
  2058  058A  1C03               	skipc
  2059  058B  2D8D               	goto	u4151
  2060  058C  2D8E               	goto	u4150
  2061  058D                     u4151:
  2062  058D  2D9E               	goto	l2196
  2063  058E                     u4150:
  2064  058E                     l2190:
  2065  058E  087B               	movf	main@time_counter+1,w
  2066  058F  3A80               	xorlw	128
  2067  0590  00F9               	movwf	??_main
  2068  0591  3083               	movlw	131
  2069  0592  0279               	subwf	??_main,w
  2070  0593  1D03               	skipz
  2071  0594  2D97               	goto	u4165
  2072  0595  30E8               	movlw	232
  2073  0596  027A               	subwf	main@time_counter,w
  2074  0597                     u4165:
  2075  0597  1803               	skipnc
  2076  0598  2D9A               	goto	u4161
  2077  0599  2D9B               	goto	u4160
  2078  059A                     u4161:
  2079  059A  2D9E               	goto	l2196
  2080  059B                     u4160:
  2081  059B                     l2192:
  2082                           
  2083                           ;main.c: 460:                     LATCbits.LATC4 = 0;
  2084  059B  0022               	movlb	2	; select bank2
  2085  059C  120E               	bcf	14,4	;volatile
  2086  059D  2D7C               	goto	l2186
  2087  059E                     l2196:
  2088                           
  2089                           ;main.c: 465:                 if(EUSART_is_rx_ready()!=0){
  2090  059E  318F  2781  3182   	fcall	_EUSART_is_rx_ready
  2091  05A1  3A00               	xorlw	0
  2092  05A2  1903               	skipnz
  2093  05A3  2DA5               	goto	u4171
  2094  05A4  2DA6               	goto	u4170
  2095  05A5                     u4171:
  2096  05A5  2DAF               	goto	l2204
  2097  05A6                     u4170:
  2098  05A6                     l2198:
  2099                           
  2100                           ;main.c: 467:                     USART_read();
  2101  05A6  318F  2786  3182   	fcall	_USART_read
  2102  05A9                     l2200:
  2103                           
  2104                           ;main.c: 469:                     LEDs_on();
  2105  05A9  3180  206F  3182   	fcall	_LEDs_on
  2106  05AC                     l2202:
  2107                           
  2108                           ;main.c: 471:                     LEDs_off();
  2109  05AC  3181  2194  3182   	fcall	_LEDs_off
  2110  05AF                     l2204:
  2111                           
  2112                           ;main.c: 474:             }
  2113  05AF  3001               	movlw	1
  2114  05B0  07FA               	addwf	main@time_counter,f
  2115  05B1  3000               	movlw	0
  2116  05B2  3DFB               	addwfc	main@time_counter+1,f
  2117  05B3                     l2206:
  2118  05B3  087B               	movf	main@time_counter+1,w
  2119  05B4  3A80               	xorlw	128
  2120  05B5  00F9               	movwf	??_main
  2121  05B6  3083               	movlw	131
  2122  05B7  0279               	subwf	??_main,w
  2123  05B8  1D03               	skipz
  2124  05B9  2DBC               	goto	u4185
  2125  05BA  30E8               	movlw	232
  2126  05BB  027A               	subwf	main@time_counter,w
  2127  05BC                     u4185:
  2128  05BC  1C03               	skipc
  2129  05BD  2DBF               	goto	u4181
  2130  05BE  2DC0               	goto	u4180
  2131  05BF                     u4181:
  2132  05BF  2D69               	goto	l175
  2133  05C0                     u4180:
  2134  05C0                     l2208:
  2135                           
  2136                           ;main.c: 478:         if((CMD[0]=='B')&&(CMD[1]=='L')&&(CMD[2]=='I')&&(CMD[3]=='N')&&(CM
      +                          D[4]=='K')&&(CMD[5]=='0')&&(CMD[6]=='6')&&(CMD[7]=='#')){
  2137  05C0  3042               	movlw	66
  2138  05C1  0020               	movlb	0	; select bank0
  2139  05C2  0620               	xorwf	_CMD,w
  2140  05C3  1D03               	btfss	3,2
  2141  05C4  2DC6               	goto	u4191
  2142  05C5  2DC7               	goto	u4190
  2143  05C6                     u4191:
  2144  05C6  2E4C               	goto	l2256
  2145  05C7                     u4190:
  2146  05C7                     l2210:
  2147  05C7  304C               	movlw	76
  2148  05C8  0621               	xorwf	_CMD+1,w
  2149  05C9  1D03               	btfss	3,2
  2150  05CA  2DCC               	goto	u4201
  2151  05CB  2DCD               	goto	u4200
  2152  05CC                     u4201:
  2153  05CC  2E4C               	goto	l2256
  2154  05CD                     u4200:
  2155  05CD                     l2212:
  2156  05CD  3049               	movlw	73
  2157  05CE  0622               	xorwf	_CMD+2,w
  2158  05CF  1D03               	btfss	3,2
  2159  05D0  2DD2               	goto	u4211
  2160  05D1  2DD3               	goto	u4210
  2161  05D2                     u4211:
  2162  05D2  2E4C               	goto	l2256
  2163  05D3                     u4210:
  2164  05D3                     l2214:
  2165  05D3  304E               	movlw	78
  2166  05D4  0623               	xorwf	_CMD+3,w
  2167  05D5  1D03               	btfss	3,2
  2168  05D6  2DD8               	goto	u4221
  2169  05D7  2DD9               	goto	u4220
  2170  05D8                     u4221:
  2171  05D8  2E4C               	goto	l2256
  2172  05D9                     u4220:
  2173  05D9                     l2216:
  2174  05D9  304B               	movlw	75
  2175  05DA  0624               	xorwf	_CMD+4,w
  2176  05DB  1D03               	btfss	3,2
  2177  05DC  2DDE               	goto	u4231
  2178  05DD  2DDF               	goto	u4230
  2179  05DE                     u4231:
  2180  05DE  2E4C               	goto	l2256
  2181  05DF                     u4230:
  2182  05DF                     l2218:
  2183  05DF  3030               	movlw	48
  2184  05E0  0625               	xorwf	_CMD+5,w
  2185  05E1  1D03               	btfss	3,2
  2186  05E2  2DE4               	goto	u4241
  2187  05E3  2DE5               	goto	u4240
  2188  05E4                     u4241:
  2189  05E4  2E4C               	goto	l2256
  2190  05E5                     u4240:
  2191  05E5                     l2220:
  2192  05E5  3036               	movlw	54
  2193  05E6  0626               	xorwf	_CMD+6,w
  2194  05E7  1D03               	btfss	3,2
  2195  05E8  2DEA               	goto	u4251
  2196  05E9  2DEB               	goto	u4250
  2197  05EA                     u4251:
  2198  05EA  2E4C               	goto	l2256
  2199  05EB                     u4250:
  2200  05EB                     l2222:
  2201  05EB  3023               	movlw	35
  2202  05EC  0627               	xorwf	_CMD+7,w
  2203  05ED  1D03               	btfss	3,2
  2204  05EE  2DF0               	goto	u4261
  2205  05EF  2DF1               	goto	u4260
  2206  05F0                     u4261:
  2207  05F0  2E4C               	goto	l2256
  2208  05F1                     u4260:
  2209  05F1                     l2224:
  2210                           
  2211                           ;main.c: 480:             time_counter = 0;
  2212  05F1  01FA               	clrf	main@time_counter
  2213  05F2  01FB               	clrf	main@time_counter+1
  2214                           
  2215                           ;main.c: 482:             for(time_counter=0; time_counter<1000; time_counter++){
  2216  05F3  01FA               	clrf	main@time_counter
  2217  05F4  01FB               	clrf	main@time_counter+1
  2218  05F5                     l182:
  2219                           
  2220                           ;main.c: 486:                 if((time_counter>=0)&&(time_counter<500)){
  2221  05F5  1BFB               	btfsc	main@time_counter+1,7
  2222  05F6  2DF8               	goto	u4271
  2223  05F7  2DF9               	goto	u4270
  2224  05F8                     u4271:
  2225  05F8  2E0D               	goto	l2236
  2226  05F9                     u4270:
  2227  05F9                     l2230:
  2228  05F9  087B               	movf	main@time_counter+1,w
  2229  05FA  3A80               	xorlw	128
  2230  05FB  00F9               	movwf	??_main
  2231  05FC  3081               	movlw	129
  2232  05FD  0279               	subwf	??_main,w
  2233  05FE  1D03               	skipz
  2234  05FF  2E02               	goto	u4285
  2235  0600  30F4               	movlw	244
  2236  0601  027A               	subwf	main@time_counter,w
  2237  0602                     u4285:
  2238  0602  1803               	skipnc
  2239  0603  2E05               	goto	u4281
  2240  0604  2E06               	goto	u4280
  2241  0605                     u4281:
  2242  0605  2E0D               	goto	l2236
  2243  0606                     u4280:
  2244  0606                     l2232:
  2245                           
  2246                           ;main.c: 489:                     LATCbits.LATC5 = 1;
  2247  0606  0022               	movlb	2	; select bank2
  2248  0607  168E               	bsf	14,5	;volatile
  2249  0608                     l2234:
  2250                           
  2251                           ;main.c: 490:                     _delay((unsigned long)((1)*(1000000/4000.0)));
  2252  0608  3053               	movlw	83
  2253  0609                     u4797:
  2254  0609  0B89               	decfsz	9,f
  2255  060A  2E09               	goto	u4797
  2256  060B  0000               	nop
  2257                           
  2258                           ;main.c: 493:                 } else if((time_counter>=500)&&(time_counter<1000)){
  2259  060C  2E2A               	goto	l2244
  2260  060D                     l2236:
  2261  060D  087B               	movf	main@time_counter+1,w
  2262  060E  3A80               	xorlw	128
  2263  060F  00F9               	movwf	??_main
  2264  0610  3081               	movlw	129
  2265  0611  0279               	subwf	??_main,w
  2266  0612  1D03               	skipz
  2267  0613  2E16               	goto	u4295
  2268  0614  30F4               	movlw	244
  2269  0615  027A               	subwf	main@time_counter,w
  2270  0616                     u4295:
  2271  0616  1C03               	skipc
  2272  0617  2E19               	goto	u4291
  2273  0618  2E1A               	goto	u4290
  2274  0619                     u4291:
  2275  0619  2E2A               	goto	l2244
  2276  061A                     u4290:
  2277  061A                     l2238:
  2278  061A  087B               	movf	main@time_counter+1,w
  2279  061B  3A80               	xorlw	128
  2280  061C  00F9               	movwf	??_main
  2281  061D  3083               	movlw	131
  2282  061E  0279               	subwf	??_main,w
  2283  061F  1D03               	skipz
  2284  0620  2E23               	goto	u4305
  2285  0621  30E8               	movlw	232
  2286  0622  027A               	subwf	main@time_counter,w
  2287  0623                     u4305:
  2288  0623  1803               	skipnc
  2289  0624  2E26               	goto	u4301
  2290  0625  2E27               	goto	u4300
  2291  0626                     u4301:
  2292  0626  2E2A               	goto	l2244
  2293  0627                     u4300:
  2294  0627                     l2240:
  2295                           
  2296                           ;main.c: 496:                     LATCbits.LATC5 = 0;
  2297  0627  0022               	movlb	2	; select bank2
  2298  0628  128E               	bcf	14,5	;volatile
  2299  0629  2E08               	goto	l2234
  2300  062A                     l2244:
  2301                           
  2302                           ;main.c: 501:                 if(EUSART_is_rx_ready()!=0){
  2303  062A  318F  2781  3182   	fcall	_EUSART_is_rx_ready
  2304  062D  3A00               	xorlw	0
  2305  062E  1903               	skipnz
  2306  062F  2E31               	goto	u4311
  2307  0630  2E32               	goto	u4310
  2308  0631                     u4311:
  2309  0631  2E3B               	goto	l2252
  2310  0632                     u4310:
  2311  0632                     l2246:
  2312                           
  2313                           ;main.c: 503:                     USART_read();
  2314  0632  318F  2786  3182   	fcall	_USART_read
  2315  0635                     l2248:
  2316                           
  2317                           ;main.c: 505:                     LEDs_on();
  2318  0635  3180  206F  3182   	fcall	_LEDs_on
  2319  0638                     l2250:
  2320                           
  2321                           ;main.c: 507:                     LEDs_off();
  2322  0638  3181  2194  3182   	fcall	_LEDs_off
  2323  063B                     l2252:
  2324                           
  2325                           ;main.c: 510:             }
  2326  063B  3001               	movlw	1
  2327  063C  07FA               	addwf	main@time_counter,f
  2328  063D  3000               	movlw	0
  2329  063E  3DFB               	addwfc	main@time_counter+1,f
  2330  063F                     l2254:
  2331  063F  087B               	movf	main@time_counter+1,w
  2332  0640  3A80               	xorlw	128
  2333  0641  00F9               	movwf	??_main
  2334  0642  3083               	movlw	131
  2335  0643  0279               	subwf	??_main,w
  2336  0644  1D03               	skipz
  2337  0645  2E48               	goto	u4325
  2338  0646  30E8               	movlw	232
  2339  0647  027A               	subwf	main@time_counter,w
  2340  0648                     u4325:
  2341  0648  1C03               	skipc
  2342  0649  2E4B               	goto	u4321
  2343  064A  2E4C               	goto	u4320
  2344  064B                     u4321:
  2345  064B  2DF5               	goto	l182
  2346  064C                     u4320:
  2347  064C                     l2256:
  2348                           
  2349                           ;main.c: 514:         if((CMD[0]=='B')&&(CMD[1]=='L')&&(CMD[2]=='I')&&(CMD[3]=='N')&&(CM
      +                          D[4]=='K')&&(CMD[5]=='0')&&(CMD[6]=='7')&&(CMD[7]=='#')){
  2350  064C  3042               	movlw	66
  2351  064D  0020               	movlb	0	; select bank0
  2352  064E  0620               	xorwf	_CMD,w
  2353  064F  1D03               	btfss	3,2
  2354  0650  2E52               	goto	u4331
  2355  0651  2E53               	goto	u4330
  2356  0652                     u4331:
  2357  0652  2ED8               	goto	l2304
  2358  0653                     u4330:
  2359  0653                     l2258:
  2360  0653  304C               	movlw	76
  2361  0654  0621               	xorwf	_CMD+1,w
  2362  0655  1D03               	btfss	3,2
  2363  0656  2E58               	goto	u4341
  2364  0657  2E59               	goto	u4340
  2365  0658                     u4341:
  2366  0658  2ED8               	goto	l2304
  2367  0659                     u4340:
  2368  0659                     l2260:
  2369  0659  3049               	movlw	73
  2370  065A  0622               	xorwf	_CMD+2,w
  2371  065B  1D03               	btfss	3,2
  2372  065C  2E5E               	goto	u4351
  2373  065D  2E5F               	goto	u4350
  2374  065E                     u4351:
  2375  065E  2ED8               	goto	l2304
  2376  065F                     u4350:
  2377  065F                     l2262:
  2378  065F  304E               	movlw	78
  2379  0660  0623               	xorwf	_CMD+3,w
  2380  0661  1D03               	btfss	3,2
  2381  0662  2E64               	goto	u4361
  2382  0663  2E65               	goto	u4360
  2383  0664                     u4361:
  2384  0664  2ED8               	goto	l2304
  2385  0665                     u4360:
  2386  0665                     l2264:
  2387  0665  304B               	movlw	75
  2388  0666  0624               	xorwf	_CMD+4,w
  2389  0667  1D03               	btfss	3,2
  2390  0668  2E6A               	goto	u4371
  2391  0669  2E6B               	goto	u4370
  2392  066A                     u4371:
  2393  066A  2ED8               	goto	l2304
  2394  066B                     u4370:
  2395  066B                     l2266:
  2396  066B  3030               	movlw	48
  2397  066C  0625               	xorwf	_CMD+5,w
  2398  066D  1D03               	btfss	3,2
  2399  066E  2E70               	goto	u4381
  2400  066F  2E71               	goto	u4380
  2401  0670                     u4381:
  2402  0670  2ED8               	goto	l2304
  2403  0671                     u4380:
  2404  0671                     l2268:
  2405  0671  3037               	movlw	55
  2406  0672  0626               	xorwf	_CMD+6,w
  2407  0673  1D03               	btfss	3,2
  2408  0674  2E76               	goto	u4391
  2409  0675  2E77               	goto	u4390
  2410  0676                     u4391:
  2411  0676  2ED8               	goto	l2304
  2412  0677                     u4390:
  2413  0677                     l2270:
  2414  0677  3023               	movlw	35
  2415  0678  0627               	xorwf	_CMD+7,w
  2416  0679  1D03               	btfss	3,2
  2417  067A  2E7C               	goto	u4401
  2418  067B  2E7D               	goto	u4400
  2419  067C                     u4401:
  2420  067C  2ED8               	goto	l2304
  2421  067D                     u4400:
  2422  067D                     l2272:
  2423                           
  2424                           ;main.c: 516:             time_counter = 0;
  2425  067D  01FA               	clrf	main@time_counter
  2426  067E  01FB               	clrf	main@time_counter+1
  2427                           
  2428                           ;main.c: 518:             for(time_counter=0; time_counter<1000; time_counter++){
  2429  067F  01FA               	clrf	main@time_counter
  2430  0680  01FB               	clrf	main@time_counter+1
  2431  0681                     l189:
  2432                           
  2433                           ;main.c: 522:                 if((time_counter>=0)&&(time_counter<500)){
  2434  0681  1BFB               	btfsc	main@time_counter+1,7
  2435  0682  2E84               	goto	u4411
  2436  0683  2E85               	goto	u4410
  2437  0684                     u4411:
  2438  0684  2E99               	goto	l2284
  2439  0685                     u4410:
  2440  0685                     l2278:
  2441  0685  087B               	movf	main@time_counter+1,w
  2442  0686  3A80               	xorlw	128
  2443  0687  00F9               	movwf	??_main
  2444  0688  3081               	movlw	129
  2445  0689  0279               	subwf	??_main,w
  2446  068A  1D03               	skipz
  2447  068B  2E8E               	goto	u4425
  2448  068C  30F4               	movlw	244
  2449  068D  027A               	subwf	main@time_counter,w
  2450  068E                     u4425:
  2451  068E  1803               	skipnc
  2452  068F  2E91               	goto	u4421
  2453  0690  2E92               	goto	u4420
  2454  0691                     u4421:
  2455  0691  2E99               	goto	l2284
  2456  0692                     u4420:
  2457  0692                     l2280:
  2458                           
  2459                           ;main.c: 525:                     LATCbits.LATC6 = 1;
  2460  0692  0022               	movlb	2	; select bank2
  2461  0693  170E               	bsf	14,6	;volatile
  2462  0694                     l2282:
  2463                           
  2464                           ;main.c: 526:                     _delay((unsigned long)((1)*(1000000/4000.0)));
  2465  0694  3053               	movlw	83
  2466  0695                     u4807:
  2467  0695  0B89               	decfsz	9,f
  2468  0696  2E95               	goto	u4807
  2469  0697  0000               	nop
  2470                           
  2471                           ;main.c: 529:                 } else if((time_counter>=500)&&(time_counter<1000)){
  2472  0698  2EB6               	goto	l2292
  2473  0699                     l2284:
  2474  0699  087B               	movf	main@time_counter+1,w
  2475  069A  3A80               	xorlw	128
  2476  069B  00F9               	movwf	??_main
  2477  069C  3081               	movlw	129
  2478  069D  0279               	subwf	??_main,w
  2479  069E  1D03               	skipz
  2480  069F  2EA2               	goto	u4435
  2481  06A0  30F4               	movlw	244
  2482  06A1  027A               	subwf	main@time_counter,w
  2483  06A2                     u4435:
  2484  06A2  1C03               	skipc
  2485  06A3  2EA5               	goto	u4431
  2486  06A4  2EA6               	goto	u4430
  2487  06A5                     u4431:
  2488  06A5  2EB6               	goto	l2292
  2489  06A6                     u4430:
  2490  06A6                     l2286:
  2491  06A6  087B               	movf	main@time_counter+1,w
  2492  06A7  3A80               	xorlw	128
  2493  06A8  00F9               	movwf	??_main
  2494  06A9  3083               	movlw	131
  2495  06AA  0279               	subwf	??_main,w
  2496  06AB  1D03               	skipz
  2497  06AC  2EAF               	goto	u4445
  2498  06AD  30E8               	movlw	232
  2499  06AE  027A               	subwf	main@time_counter,w
  2500  06AF                     u4445:
  2501  06AF  1803               	skipnc
  2502  06B0  2EB2               	goto	u4441
  2503  06B1  2EB3               	goto	u4440
  2504  06B2                     u4441:
  2505  06B2  2EB6               	goto	l2292
  2506  06B3                     u4440:
  2507  06B3                     l2288:
  2508                           
  2509                           ;main.c: 532:                     LATCbits.LATC6 = 0;
  2510  06B3  0022               	movlb	2	; select bank2
  2511  06B4  130E               	bcf	14,6	;volatile
  2512  06B5  2E94               	goto	l2282
  2513  06B6                     l2292:
  2514                           
  2515                           ;main.c: 537:                 if(EUSART_is_rx_ready()!=0){
  2516  06B6  318F  2781  3182   	fcall	_EUSART_is_rx_ready
  2517  06B9  3A00               	xorlw	0
  2518  06BA  1903               	skipnz
  2519  06BB  2EBD               	goto	u4451
  2520  06BC  2EBE               	goto	u4450
  2521  06BD                     u4451:
  2522  06BD  2EC7               	goto	l2300
  2523  06BE                     u4450:
  2524  06BE                     l2294:
  2525                           
  2526                           ;main.c: 539:                     USART_read();
  2527  06BE  318F  2786  3182   	fcall	_USART_read
  2528  06C1                     l2296:
  2529                           
  2530                           ;main.c: 541:                     LEDs_on();
  2531  06C1  3180  206F  3182   	fcall	_LEDs_on
  2532  06C4                     l2298:
  2533                           
  2534                           ;main.c: 543:                     LEDs_off();
  2535  06C4  3181  2194  3182   	fcall	_LEDs_off
  2536  06C7                     l2300:
  2537                           
  2538                           ;main.c: 546:             }
  2539  06C7  3001               	movlw	1
  2540  06C8  07FA               	addwf	main@time_counter,f
  2541  06C9  3000               	movlw	0
  2542  06CA  3DFB               	addwfc	main@time_counter+1,f
  2543  06CB                     l2302:
  2544  06CB  087B               	movf	main@time_counter+1,w
  2545  06CC  3A80               	xorlw	128
  2546  06CD  00F9               	movwf	??_main
  2547  06CE  3083               	movlw	131
  2548  06CF  0279               	subwf	??_main,w
  2549  06D0  1D03               	skipz
  2550  06D1  2ED4               	goto	u4465
  2551  06D2  30E8               	movlw	232
  2552  06D3  027A               	subwf	main@time_counter,w
  2553  06D4                     u4465:
  2554  06D4  1C03               	skipc
  2555  06D5  2ED7               	goto	u4461
  2556  06D6  2ED8               	goto	u4460
  2557  06D7                     u4461:
  2558  06D7  2E81               	goto	l189
  2559  06D8                     u4460:
  2560  06D8                     l2304:
  2561                           
  2562                           ;main.c: 550:         if((CMD[0]=='B')&&(CMD[1]=='L')&&(CMD[2]=='I')&&(CMD[3]=='N')&&(CM
      +                          D[4]=='K')&&(CMD[5]=='0')&&(CMD[6]=='8')&&(CMD[7]=='#')){
  2563  06D8  3042               	movlw	66
  2564  06D9  0020               	movlb	0	; select bank0
  2565  06DA  0620               	xorwf	_CMD,w
  2566  06DB  1D03               	btfss	3,2
  2567  06DC  2EDE               	goto	u4471
  2568  06DD  2EDF               	goto	u4470
  2569  06DE                     u4471:
  2570  06DE  2F64               	goto	l2352
  2571  06DF                     u4470:
  2572  06DF                     l2306:
  2573  06DF  304C               	movlw	76
  2574  06E0  0621               	xorwf	_CMD+1,w
  2575  06E1  1D03               	btfss	3,2
  2576  06E2  2EE4               	goto	u4481
  2577  06E3  2EE5               	goto	u4480
  2578  06E4                     u4481:
  2579  06E4  2F64               	goto	l2352
  2580  06E5                     u4480:
  2581  06E5                     l2308:
  2582  06E5  3049               	movlw	73
  2583  06E6  0622               	xorwf	_CMD+2,w
  2584  06E7  1D03               	btfss	3,2
  2585  06E8  2EEA               	goto	u4491
  2586  06E9  2EEB               	goto	u4490
  2587  06EA                     u4491:
  2588  06EA  2F64               	goto	l2352
  2589  06EB                     u4490:
  2590  06EB                     l2310:
  2591  06EB  304E               	movlw	78
  2592  06EC  0623               	xorwf	_CMD+3,w
  2593  06ED  1D03               	btfss	3,2
  2594  06EE  2EF0               	goto	u4501
  2595  06EF  2EF1               	goto	u4500
  2596  06F0                     u4501:
  2597  06F0  2F64               	goto	l2352
  2598  06F1                     u4500:
  2599  06F1                     l2312:
  2600  06F1  304B               	movlw	75
  2601  06F2  0624               	xorwf	_CMD+4,w
  2602  06F3  1D03               	btfss	3,2
  2603  06F4  2EF6               	goto	u4511
  2604  06F5  2EF7               	goto	u4510
  2605  06F6                     u4511:
  2606  06F6  2F64               	goto	l2352
  2607  06F7                     u4510:
  2608  06F7                     l2314:
  2609  06F7  3030               	movlw	48
  2610  06F8  0625               	xorwf	_CMD+5,w
  2611  06F9  1D03               	btfss	3,2
  2612  06FA  2EFC               	goto	u4521
  2613  06FB  2EFD               	goto	u4520
  2614  06FC                     u4521:
  2615  06FC  2F64               	goto	l2352
  2616  06FD                     u4520:
  2617  06FD                     l2316:
  2618  06FD  3038               	movlw	56
  2619  06FE  0626               	xorwf	_CMD+6,w
  2620  06FF  1D03               	btfss	3,2
  2621  0700  2F02               	goto	u4531
  2622  0701  2F03               	goto	u4530
  2623  0702                     u4531:
  2624  0702  2F64               	goto	l2352
  2625  0703                     u4530:
  2626  0703                     l2318:
  2627  0703  3023               	movlw	35
  2628  0704  0627               	xorwf	_CMD+7,w
  2629  0705  1D03               	btfss	3,2
  2630  0706  2F08               	goto	u4541
  2631  0707  2F09               	goto	u4540
  2632  0708                     u4541:
  2633  0708  2F64               	goto	l2352
  2634  0709                     u4540:
  2635  0709                     l2320:
  2636                           
  2637                           ;main.c: 552:             time_counter = 0;
  2638  0709  01FA               	clrf	main@time_counter
  2639  070A  01FB               	clrf	main@time_counter+1
  2640                           
  2641                           ;main.c: 554:             for(time_counter=0; time_counter<1000; time_counter++){
  2642  070B  01FA               	clrf	main@time_counter
  2643  070C  01FB               	clrf	main@time_counter+1
  2644  070D                     l196:
  2645                           
  2646                           ;main.c: 558:                 if((time_counter>=0)&&(time_counter<500)){
  2647  070D  1BFB               	btfsc	main@time_counter+1,7
  2648  070E  2F10               	goto	u4551
  2649  070F  2F11               	goto	u4550
  2650  0710                     u4551:
  2651  0710  2F25               	goto	l2332
  2652  0711                     u4550:
  2653  0711                     l2326:
  2654  0711  087B               	movf	main@time_counter+1,w
  2655  0712  3A80               	xorlw	128
  2656  0713  00F9               	movwf	??_main
  2657  0714  3081               	movlw	129
  2658  0715  0279               	subwf	??_main,w
  2659  0716  1D03               	skipz
  2660  0717  2F1A               	goto	u4565
  2661  0718  30F4               	movlw	244
  2662  0719  027A               	subwf	main@time_counter,w
  2663  071A                     u4565:
  2664  071A  1803               	skipnc
  2665  071B  2F1D               	goto	u4561
  2666  071C  2F1E               	goto	u4560
  2667  071D                     u4561:
  2668  071D  2F25               	goto	l2332
  2669  071E                     u4560:
  2670  071E                     l2328:
  2671                           
  2672                           ;main.c: 561:                     LATCbits.LATC7 = 1;
  2673  071E  0022               	movlb	2	; select bank2
  2674  071F  178E               	bsf	14,7	;volatile
  2675  0720                     l2330:
  2676                           
  2677                           ;main.c: 562:                     _delay((unsigned long)((1)*(1000000/4000.0)));
  2678  0720  3053               	movlw	83
  2679  0721                     u4817:
  2680  0721  0B89               	decfsz	9,f
  2681  0722  2F21               	goto	u4817
  2682  0723  0000               	nop
  2683                           
  2684                           ;main.c: 565:                 } else if((time_counter>=500)&&(time_counter<1000)){
  2685  0724  2F42               	goto	l2340
  2686  0725                     l2332:
  2687  0725  087B               	movf	main@time_counter+1,w
  2688  0726  3A80               	xorlw	128
  2689  0727  00F9               	movwf	??_main
  2690  0728  3081               	movlw	129
  2691  0729  0279               	subwf	??_main,w
  2692  072A  1D03               	skipz
  2693  072B  2F2E               	goto	u4575
  2694  072C  30F4               	movlw	244
  2695  072D  027A               	subwf	main@time_counter,w
  2696  072E                     u4575:
  2697  072E  1C03               	skipc
  2698  072F  2F31               	goto	u4571
  2699  0730  2F32               	goto	u4570
  2700  0731                     u4571:
  2701  0731  2F42               	goto	l2340
  2702  0732                     u4570:
  2703  0732                     l2334:
  2704  0732  087B               	movf	main@time_counter+1,w
  2705  0733  3A80               	xorlw	128
  2706  0734  00F9               	movwf	??_main
  2707  0735  3083               	movlw	131
  2708  0736  0279               	subwf	??_main,w
  2709  0737  1D03               	skipz
  2710  0738  2F3B               	goto	u4585
  2711  0739  30E8               	movlw	232
  2712  073A  027A               	subwf	main@time_counter,w
  2713  073B                     u4585:
  2714  073B  1803               	skipnc
  2715  073C  2F3E               	goto	u4581
  2716  073D  2F3F               	goto	u4580
  2717  073E                     u4581:
  2718  073E  2F42               	goto	l2340
  2719  073F                     u4580:
  2720  073F                     l2336:
  2721                           
  2722                           ;main.c: 568:                     LATCbits.LATC7 = 0;
  2723  073F  0022               	movlb	2	; select bank2
  2724  0740  138E               	bcf	14,7	;volatile
  2725  0741  2F20               	goto	l2330
  2726  0742                     l2340:
  2727                           
  2728                           ;main.c: 573:                 if(EUSART_is_rx_ready()!=0){
  2729  0742  318F  2781  3182   	fcall	_EUSART_is_rx_ready
  2730  0745  3A00               	xorlw	0
  2731  0746  1903               	skipnz
  2732  0747  2F49               	goto	u4591
  2733  0748  2F4A               	goto	u4590
  2734  0749                     u4591:
  2735  0749  2F53               	goto	l2348
  2736  074A                     u4590:
  2737  074A                     l2342:
  2738                           
  2739                           ;main.c: 575:                     USART_read();
  2740  074A  318F  2786  3182   	fcall	_USART_read
  2741  074D                     l2344:
  2742                           
  2743                           ;main.c: 577:                     LEDs_on();
  2744  074D  3180  206F  3182   	fcall	_LEDs_on
  2745  0750                     l2346:
  2746                           
  2747                           ;main.c: 579:                     LEDs_off();
  2748  0750  3181  2194  3182   	fcall	_LEDs_off
  2749  0753                     l2348:
  2750                           
  2751                           ;main.c: 582:             }
  2752  0753  3001               	movlw	1
  2753  0754  07FA               	addwf	main@time_counter,f
  2754  0755  3000               	movlw	0
  2755  0756  3DFB               	addwfc	main@time_counter+1,f
  2756  0757                     l2350:
  2757  0757  087B               	movf	main@time_counter+1,w
  2758  0758  3A80               	xorlw	128
  2759  0759  00F9               	movwf	??_main
  2760  075A  3083               	movlw	131
  2761  075B  0279               	subwf	??_main,w
  2762  075C  1D03               	skipz
  2763  075D  2F60               	goto	u4605
  2764  075E  30E8               	movlw	232
  2765  075F  027A               	subwf	main@time_counter,w
  2766  0760                     u4605:
  2767  0760  1C03               	skipc
  2768  0761  2F63               	goto	u4601
  2769  0762  2F64               	goto	u4600
  2770  0763                     u4601:
  2771  0763  2F0D               	goto	l196
  2772  0764                     u4600:
  2773  0764                     l2352:
  2774                           
  2775                           ;main.c: 587:         if((CMD[0]=='B')&&(CMD[1]=='L')&&(CMD[2]=='I')&&(CMD[3]=='N')&&(CM
      +                          D[4]=='K')&&(CMD[5]=='*')&&(CMD[6]=='#')){
  2776  0764  3042               	movlw	66
  2777  0765  0020               	movlb	0	; select bank0
  2778  0766  0620               	xorwf	_CMD,w
  2779  0767  1D03               	btfss	3,2
  2780  0768  2F6A               	goto	u4611
  2781  0769  2F6B               	goto	u4610
  2782  076A                     u4611:
  2783  076A  2AF3               	goto	l1960
  2784  076B                     u4610:
  2785  076B                     l2354:
  2786  076B  304C               	movlw	76
  2787  076C  0621               	xorwf	_CMD+1,w
  2788  076D  1D03               	btfss	3,2
  2789  076E  2F70               	goto	u4621
  2790  076F  2F71               	goto	u4620
  2791  0770                     u4621:
  2792  0770  2AF3               	goto	l1960
  2793  0771                     u4620:
  2794  0771                     l2356:
  2795  0771  3049               	movlw	73
  2796  0772  0622               	xorwf	_CMD+2,w
  2797  0773  1D03               	btfss	3,2
  2798  0774  2F76               	goto	u4631
  2799  0775  2F77               	goto	u4630
  2800  0776                     u4631:
  2801  0776  2AF3               	goto	l1960
  2802  0777                     u4630:
  2803  0777                     l2358:
  2804  0777  304E               	movlw	78
  2805  0778  0623               	xorwf	_CMD+3,w
  2806  0779  1D03               	btfss	3,2
  2807  077A  2F7C               	goto	u4641
  2808  077B  2F7D               	goto	u4640
  2809  077C                     u4641:
  2810  077C  2AF3               	goto	l1960
  2811  077D                     u4640:
  2812  077D                     l2360:
  2813  077D  304B               	movlw	75
  2814  077E  0624               	xorwf	_CMD+4,w
  2815  077F  1D03               	btfss	3,2
  2816  0780  2F82               	goto	u4651
  2817  0781  2F83               	goto	u4650
  2818  0782                     u4651:
  2819  0782  2AF3               	goto	l1960
  2820  0783                     u4650:
  2821  0783                     l2362:
  2822  0783  302A               	movlw	42
  2823  0784  0625               	xorwf	_CMD+5,w
  2824  0785  1D03               	btfss	3,2
  2825  0786  2F88               	goto	u4661
  2826  0787  2F89               	goto	u4660
  2827  0788                     u4661:
  2828  0788  2AF3               	goto	l1960
  2829  0789                     u4660:
  2830  0789                     l2364:
  2831  0789  3023               	movlw	35
  2832  078A  0626               	xorwf	_CMD+6,w
  2833  078B  1D03               	btfss	3,2
  2834  078C  2F8E               	goto	u4671
  2835  078D  2F8F               	goto	u4670
  2836  078E                     u4671:
  2837  078E  2AF3               	goto	l1960
  2838  078F                     u4670:
  2839  078F                     l2366:
  2840                           
  2841                           ;main.c: 589:             time_counter = 0;
  2842  078F  01FA               	clrf	main@time_counter
  2843  0790  01FB               	clrf	main@time_counter+1
  2844                           
  2845                           ;main.c: 591:             for(time_counter=0; time_counter<1000; time_counter++){
  2846  0791  01FA               	clrf	main@time_counter
  2847  0792  01FB               	clrf	main@time_counter+1
  2848  0793                     l203:
  2849                           
  2850                           ;main.c: 595:                 if((time_counter>=0)&&(time_counter<500)){
  2851  0793  1BFB               	btfsc	main@time_counter+1,7
  2852  0794  2F96               	goto	u4681
  2853  0795  2F97               	goto	u4680
  2854  0796                     u4681:
  2855  0796  2FAC               	goto	l2376
  2856  0797                     u4680:
  2857  0797                     l2372:
  2858  0797  087B               	movf	main@time_counter+1,w
  2859  0798  3A80               	xorlw	128
  2860  0799  00F9               	movwf	??_main
  2861  079A  3081               	movlw	129
  2862  079B  0279               	subwf	??_main,w
  2863  079C  1D03               	skipz
  2864  079D  2FA0               	goto	u4695
  2865  079E  30F4               	movlw	244
  2866  079F  027A               	subwf	main@time_counter,w
  2867  07A0                     u4695:
  2868  07A0  1803               	skipnc
  2869  07A1  2FA3               	goto	u4691
  2870  07A2  2FA4               	goto	u4690
  2871  07A3                     u4691:
  2872  07A3  2FAC               	goto	l2376
  2873  07A4                     u4690:
  2874  07A4                     l2374:
  2875                           
  2876                           ;main.c: 598:                     LATC = 0xFF;
  2877  07A4  30FF               	movlw	255
  2878  07A5  0022               	movlb	2	; select bank2
  2879  07A6  008E               	movwf	14	;volatile
  2880                           
  2881                           ;main.c: 599:                     _delay((unsigned long)((1)*(1000000/4000.0)));
  2882  07A7  3053               	movlw	83
  2883  07A8                     u4827:
  2884  07A8  0B89               	decfsz	9,f
  2885  07A9  2FA8               	goto	u4827
  2886  07AA  0000               	nop
  2887                           
  2888                           ;main.c: 602:                 } else if((time_counter>=500)&&(time_counter<1000)){
  2889  07AB  2FCC               	goto	l2384
  2890  07AC                     l2376:
  2891  07AC  087B               	movf	main@time_counter+1,w
  2892  07AD  3A80               	xorlw	128
  2893  07AE  00F9               	movwf	??_main
  2894  07AF  3081               	movlw	129
  2895  07B0  0279               	subwf	??_main,w
  2896  07B1  1D03               	skipz
  2897  07B2  2FB5               	goto	u4705
  2898  07B3  30F4               	movlw	244
  2899  07B4  027A               	subwf	main@time_counter,w
  2900  07B5                     u4705:
  2901  07B5  1C03               	skipc
  2902  07B6  2FB8               	goto	u4701
  2903  07B7  2FB9               	goto	u4700
  2904  07B8                     u4701:
  2905  07B8  2FCC               	goto	l2384
  2906  07B9                     u4700:
  2907  07B9                     l2378:
  2908  07B9  087B               	movf	main@time_counter+1,w
  2909  07BA  3A80               	xorlw	128
  2910  07BB  00F9               	movwf	??_main
  2911  07BC  3083               	movlw	131
  2912  07BD  0279               	subwf	??_main,w
  2913  07BE  1D03               	skipz
  2914  07BF  2FC2               	goto	u4715
  2915  07C0  30E8               	movlw	232
  2916  07C1  027A               	subwf	main@time_counter,w
  2917  07C2                     u4715:
  2918  07C2  1803               	skipnc
  2919  07C3  2FC5               	goto	u4711
  2920  07C4  2FC6               	goto	u4710
  2921  07C5                     u4711:
  2922  07C5  2FCC               	goto	l2384
  2923  07C6                     u4710:
  2924  07C6                     l2380:
  2925                           
  2926                           ;main.c: 605:                     LATC = 0x00;
  2927  07C6  0022               	movlb	2	; select bank2
  2928  07C7  018E               	clrf	14	;volatile
  2929  07C8                     l2382:
  2930                           
  2931                           ;main.c: 606:                     _delay((unsigned long)((1)*(1000000/4000.0)));
  2932  07C8  3053               	movlw	83
  2933  07C9                     u4837:
  2934  07C9  0B89               	decfsz	9,f
  2935  07CA  2FC9               	goto	u4837
  2936  07CB  0000               	nop
  2937  07CC                     l2384:
  2938                           
  2939                           ;main.c: 610:                 if(EUSART_is_rx_ready()!=0){
  2940  07CC  318F  2781  3182   	fcall	_EUSART_is_rx_ready
  2941  07CF  3A00               	xorlw	0
  2942  07D0  1903               	skipnz
  2943  07D1  2FD3               	goto	u4721
  2944  07D2  2FD4               	goto	u4720
  2945  07D3                     u4721:
  2946  07D3  2FDD               	goto	l2392
  2947  07D4                     u4720:
  2948  07D4                     l2386:
  2949                           
  2950                           ;main.c: 612:                     USART_read();
  2951  07D4  318F  2786  3182   	fcall	_USART_read
  2952  07D7                     l2388:
  2953                           
  2954                           ;main.c: 614:                     LEDs_on();
  2955  07D7  3180  206F  3182   	fcall	_LEDs_on
  2956  07DA                     l2390:
  2957                           
  2958                           ;main.c: 616:                     LEDs_off();
  2959  07DA  3181  2194  3182   	fcall	_LEDs_off
  2960  07DD                     l2392:
  2961                           
  2962                           ;main.c: 619:             }
  2963  07DD  3001               	movlw	1
  2964  07DE  07FA               	addwf	main@time_counter,f
  2965  07DF  3000               	movlw	0
  2966  07E0  3DFB               	addwfc	main@time_counter+1,f
  2967  07E1                     l2394:
  2968  07E1  087B               	movf	main@time_counter+1,w
  2969  07E2  3A80               	xorlw	128
  2970  07E3  00F9               	movwf	??_main
  2971  07E4  3083               	movlw	131
  2972  07E5  0279               	subwf	??_main,w
  2973  07E6  1D03               	skipz
  2974  07E7  2FEA               	goto	u4735
  2975  07E8  30E8               	movlw	232
  2976  07E9  027A               	subwf	main@time_counter,w
  2977  07EA                     u4735:
  2978  07EA  1C03               	skipc
  2979  07EB  2FED               	goto	u4731
  2980  07EC  2FEE               	goto	u4730
  2981  07ED                     u4731:
  2982  07ED  2F93               	goto	l203
  2983  07EE                     u4730:
  2984  07EE  2AF3               	goto	l1960
  2985  07EF  3180  2802         	ljmp	start
  2986  07F1                     __end_of_main:
  2987                           
  2988                           	psect	text1
  2989  0F86                     __ptext1:	
  2990 ;; *************** function _USART_read *****************
  2991 ;; Defined at:
  2992 ;;		line 121 in file "main.c"
  2993 ;; Parameters:    Size  Location     Type
  2994 ;;		None
  2995 ;; Auto vars:     Size  Location     Type
  2996 ;;  i               2    1[COMMON] int 
  2997 ;; Return value:  Size  Location     Type
  2998 ;;                  1    wreg      void 
  2999 ;; Registers used:
  3000 ;;		wreg, fsr1l, fsr1h, status,2, status,0, pclath, cstack
  3001 ;; Tracked objects:
  3002 ;;		On entry : 0/0
  3003 ;;		On exit  : 0/0
  3004 ;;		Unchanged: 0/0
  3005 ;; Data sizes:     COMMON   BANK0   BANK1   BANK2   BANK3   BANK4   BANK5   BANK6
  3006 ;;      Params:         0       0       0       0       0       0       0       0
  3007 ;;      Locals:         2       0       0       0       0       0       0       0
  3008 ;;      Temps:          1       0       0       0       0       0       0       0
  3009 ;;      Totals:         3       0       0       0       0       0       0       0
  3010 ;;Total ram usage:        3 bytes
  3011 ;; Hardware stack levels used: 1
  3012 ;; Hardware stack levels required when called: 1
  3013 ;; This function calls:
  3014 ;;		_EUSART_Read
  3015 ;; This function is called by:
  3016 ;;		_main
  3017 ;; This function uses a non-reentrant model
  3018 ;;
  3019                           
  3020  0F86                     _USART_read:	
  3021                           ;psect for function _USART_read
  3022                           
  3023  0F86                     l1766:	
  3024                           ;incstack = 0
  3025                           ; Regs used in _USART_read: [wreg+fsr1l+fsr1h+status,2+status,0+pclath+cstack]
  3026                           
  3027                           
  3028                           ;main.c: 123:        int i = 0;
  3029  0F86  01F7               	clrf	USART_read@i
  3030  0F87  01F8               	clrf	USART_read@i+1
  3031                           
  3032                           ;main.c: 125:        for(i=0; i<9; i++){
  3033  0F88  01F7               	clrf	USART_read@i
  3034  0F89  01F8               	clrf	USART_read@i+1
  3035  0F8A                     l1772:
  3036                           
  3037                           ;main.c: 127:            CMD[i] = 0;
  3038  0F8A  0877               	movf	USART_read@i,w
  3039  0F8B  3E20               	addlw	(low (_CMD| 0))& (0+255)
  3040  0F8C  0086               	movwf	6
  3041  0F8D  0187               	clrf	7
  3042  0F8E  0181               	clrf	1
  3043  0F8F                     l1774:
  3044                           
  3045                           ;main.c: 129:        }
  3046  0F8F  3001               	movlw	1
  3047  0F90  07F7               	addwf	USART_read@i,f
  3048  0F91  3000               	movlw	0
  3049  0F92  3DF8               	addwfc	USART_read@i+1,f
  3050  0F93                     l1776:
  3051  0F93  0878               	movf	USART_read@i+1,w
  3052  0F94  3A80               	xorlw	128
  3053  0F95  00F6               	movwf	??_USART_read
  3054  0F96  3080               	movlw	128
  3055  0F97  0276               	subwf	??_USART_read,w
  3056  0F98  1D03               	skipz
  3057  0F99  2F9C               	goto	u2855
  3058  0F9A  3009               	movlw	9
  3059  0F9B  0277               	subwf	USART_read@i,w
  3060  0F9C                     u2855:
  3061  0F9C  1C03               	skipc
  3062  0F9D  2F9F               	goto	u2851
  3063  0F9E  2FA0               	goto	u2850
  3064  0F9F                     u2851:
  3065  0F9F  2F8A               	goto	l1772
  3066  0FA0                     u2850:
  3067  0FA0                     l1778:
  3068                           
  3069                           ;main.c: 131:        i = 0;
  3070  0FA0  01F7               	clrf	USART_read@i
  3071  0FA1  01F8               	clrf	USART_read@i+1
  3072                           
  3073                           ;main.c: 133:        for(i=0; i<8; i++){
  3074  0FA2  01F7               	clrf	USART_read@i
  3075  0FA3  01F8               	clrf	USART_read@i+1
  3076  0FA4                     l1784:
  3077                           
  3078                           ;main.c: 136:             CMD[i] = EUSART_Read();
  3079  0FA4  3180  2028  318F   	fcall	_EUSART_Read
  3080  0FA7  00F6               	movwf	??_USART_read
  3081  0FA8  0877               	movf	USART_read@i,w
  3082  0FA9  3E20               	addlw	(low (_CMD| 0))& (0+255)
  3083  0FAA  0086               	movwf	6
  3084  0FAB  0187               	clrf	7
  3085  0FAC  0876               	movf	??_USART_read,w
  3086  0FAD  0081               	movwf	1
  3087  0FAE                     l1786:
  3088                           
  3089                           ;main.c: 139:             if(CMD[4] == '#'){
  3090  0FAE  3023               	movlw	35
  3091  0FAF  0020               	movlb	0	; select bank0
  3092  0FB0  0624               	xorwf	_CMD+4,w
  3093  0FB1  1D03               	btfss	3,2
  3094  0FB2  2FB4               	goto	u2861
  3095  0FB3  2FB5               	goto	u2860
  3096  0FB4                     u2861:
  3097  0FB4  2FB9               	goto	l1792
  3098  0FB5                     u2860:
  3099  0FB5                     l1788:
  3100                           
  3101                           ;main.c: 142:                 CMD[5] = 0;
  3102  0FB5  01A5               	clrf	_CMD+5
  3103                           
  3104                           ;main.c: 143:                 CMD[6] = 0;
  3105  0FB6  01A6               	clrf	_CMD+6
  3106                           
  3107                           ;main.c: 144:                 CMD[7] = 0;
  3108  0FB7  01A7               	clrf	_CMD+7
  3109  0FB8  2FFF               	goto	l122
  3110  0FB9                     l1792:
  3111                           
  3112                           ;main.c: 150:             if((CMD[2] == '*')&&(CMD[3] == '#')){
  3113  0FB9  302A               	movlw	42
  3114  0FBA  0622               	xorwf	_CMD+2,w
  3115  0FBB  1D03               	btfss	3,2
  3116  0FBC  2FBE               	goto	u2871
  3117  0FBD  2FBF               	goto	u2870
  3118  0FBE                     u2871:
  3119  0FBE  2FCA               	goto	l1800
  3120  0FBF                     u2870:
  3121  0FBF                     l1794:
  3122  0FBF  3023               	movlw	35
  3123  0FC0  0623               	xorwf	_CMD+3,w
  3124  0FC1  1D03               	btfss	3,2
  3125  0FC2  2FC4               	goto	u2881
  3126  0FC3  2FC5               	goto	u2880
  3127  0FC4                     u2881:
  3128  0FC4  2FCA               	goto	l1800
  3129  0FC5                     u2880:
  3130  0FC5                     l1796:
  3131                           
  3132                           ;main.c: 153:                 CMD[4] = 0;
  3133  0FC5  01A4               	clrf	_CMD+4
  3134                           
  3135                           ;main.c: 154:                 CMD[5] = 0;
  3136  0FC6  01A5               	clrf	_CMD+5
  3137                           
  3138                           ;main.c: 155:                 CMD[6] = 0;
  3139  0FC7  01A6               	clrf	_CMD+6
  3140                           
  3141                           ;main.c: 156:                 CMD[7] = 0;
  3142  0FC8  01A7               	clrf	_CMD+7
  3143  0FC9  2FFF               	goto	l122
  3144  0FCA                     l1800:
  3145                           
  3146                           ;main.c: 162:             if(CMD[5] == '#'){
  3147  0FCA  3023               	movlw	35
  3148  0FCB  0625               	xorwf	_CMD+5,w
  3149  0FCC  1D03               	btfss	3,2
  3150  0FCD  2FCF               	goto	u2891
  3151  0FCE  2FD0               	goto	u2890
  3152  0FCF                     u2891:
  3153  0FCF  2FD3               	goto	l1806
  3154  0FD0                     u2890:
  3155  0FD0                     l1802:
  3156                           
  3157                           ;main.c: 165:                 CMD[6] = 0;
  3158  0FD0  01A6               	clrf	_CMD+6
  3159                           
  3160                           ;main.c: 166:                 CMD[7] = 0;
  3161  0FD1  01A7               	clrf	_CMD+7
  3162  0FD2  2FFF               	goto	l122
  3163  0FD3                     l1806:
  3164                           
  3165                           ;main.c: 172:             if((CMD[3] == '*')&&(CMD[4] == '#')){
  3166  0FD3  302A               	movlw	42
  3167  0FD4  0623               	xorwf	_CMD+3,w
  3168  0FD5  1D03               	btfss	3,2
  3169  0FD6  2FD8               	goto	u2901
  3170  0FD7  2FD9               	goto	u2900
  3171  0FD8                     u2901:
  3172  0FD8  2FE0               	goto	l1816
  3173  0FD9                     u2900:
  3174  0FD9                     l1808:
  3175  0FD9  3023               	movlw	35
  3176  0FDA  0624               	xorwf	_CMD+4,w
  3177  0FDB  1D03               	btfss	3,2
  3178  0FDC  2FDE               	goto	u2911
  3179  0FDD  2FDF               	goto	u2910
  3180  0FDE                     u2911:
  3181  0FDE  2FE0               	goto	l1816
  3182  0FDF                     u2910:
  3183  0FDF  2FB5               	goto	l1788
  3184  0FE0                     l1816:
  3185  0FE0  302A               	movlw	42
  3186  0FE1  0625               	xorwf	_CMD+5,w
  3187  0FE2  1D03               	btfss	3,2
  3188  0FE3  2FE5               	goto	u2921
  3189  0FE4  2FE6               	goto	u2920
  3190  0FE5                     u2921:
  3191  0FE5  2FEE               	goto	l1824
  3192  0FE6                     u2920:
  3193  0FE6                     l1818:
  3194  0FE6  3023               	movlw	35
  3195  0FE7  0626               	xorwf	_CMD+6,w
  3196  0FE8  1D03               	btfss	3,2
  3197  0FE9  2FEB               	goto	u2931
  3198  0FEA  2FEC               	goto	u2930
  3199  0FEB                     u2931:
  3200  0FEB  2FEE               	goto	l1824
  3201  0FEC                     u2930:
  3202  0FEC                     l1820:
  3203                           
  3204                           ;main.c: 185:                 CMD[7] = 0;
  3205  0FEC  01A7               	clrf	_CMD+7
  3206  0FED  2FFF               	goto	l122
  3207  0FEE                     l1824:
  3208                           
  3209                           ;main.c: 189:         }
  3210  0FEE  3001               	movlw	1
  3211  0FEF  07F7               	addwf	USART_read@i,f
  3212  0FF0  3000               	movlw	0
  3213  0FF1  3DF8               	addwfc	USART_read@i+1,f
  3214  0FF2  0878               	movf	USART_read@i+1,w
  3215  0FF3  3A80               	xorlw	128
  3216  0FF4  00F6               	movwf	??_USART_read
  3217  0FF5  3080               	movlw	128
  3218  0FF6  0276               	subwf	??_USART_read,w
  3219  0FF7  1D03               	skipz
  3220  0FF8  2FFB               	goto	u2945
  3221  0FF9  3008               	movlw	8
  3222  0FFA  0277               	subwf	USART_read@i,w
  3223  0FFB                     u2945:
  3224  0FFB  1C03               	skipc
  3225  0FFC  2FFE               	goto	u2941
  3226  0FFD  2FFF               	goto	u2940
  3227  0FFE                     u2941:
  3228  0FFE  2FA4               	goto	l1784
  3229  0FFF                     u2940:
  3230  0FFF                     l122:
  3231  0FFF  0008               	return
  3232  1000                     __end_of_USART_read:
  3233                           
  3234                           	psect	text2
  3235  0028                     __ptext2:	
  3236 ;; *************** function _EUSART_Read *****************
  3237 ;; Defined at:
  3238 ;;		line 113 in file "mcc_generated_files/eusart.c"
  3239 ;; Parameters:    Size  Location     Type
  3240 ;;		None
  3241 ;; Auto vars:     Size  Location     Type
  3242 ;;		None
  3243 ;; Return value:  Size  Location     Type
  3244 ;;                  1    wreg      unsigned char 
  3245 ;; Registers used:
  3246 ;;		wreg, status,2
  3247 ;; Tracked objects:
  3248 ;;		On entry : 0/0
  3249 ;;		On exit  : 0/0
  3250 ;;		Unchanged: 0/0
  3251 ;; Data sizes:     COMMON   BANK0   BANK1   BANK2   BANK3   BANK4   BANK5   BANK6
  3252 ;;      Params:         0       0       0       0       0       0       0       0
  3253 ;;      Locals:         0       0       0       0       0       0       0       0
  3254 ;;      Temps:          0       0       0       0       0       0       0       0
  3255 ;;      Totals:         0       0       0       0       0       0       0       0
  3256 ;;Total ram usage:        0 bytes
  3257 ;; Hardware stack levels used: 1
  3258 ;; This function calls:
  3259 ;;		Nothing
  3260 ;; This function is called by:
  3261 ;;		_USART_read
  3262 ;; This function uses a non-reentrant model
  3263 ;;
  3264                           
  3265  0028                     _EUSART_Read:	
  3266                           ;psect for function _EUSART_Read
  3267                           
  3268  0028                     l1622:	
  3269                           ;incstack = 0
  3270                           ; Regs used in _EUSART_Read: [wreg+status,2]
  3271                           
  3272  0028                     l60:	
  3273                           ;mcc_generated_files/eusart.c: 116:     {;mcc_generated_files/eusart.c: 117:     }
  3274                           
  3275                           
  3276                           ;mcc_generated_files/eusart.c: 115:     while(!PIR1bits.RCIF)
  3277  0028  0020               	movlb	0	; select bank0
  3278  0029  1E91               	btfss	17,5	;volatile
  3279  002A  282C               	goto	u2391
  3280  002B  282D               	goto	u2390
  3281  002C                     u2391:
  3282  002C  2828               	goto	l60
  3283  002D                     u2390:
  3284  002D                     l1624:
  3285                           
  3286                           ;mcc_generated_files/eusart.c: 119:     eusartRxLastError.status = 0;
  3287  002D  01FC               	clrf	_eusartRxLastError	;volatile
  3288  002E                     l1626:
  3289                           
  3290                           ;mcc_generated_files/eusart.c: 121:     if(1 == RCSTAbits.OERR)
  3291  002E  0023               	movlb	3	; select bank3
  3292  002F  1C9D               	btfss	29,1	;volatile
  3293  0030  2832               	goto	u2401
  3294  0031  2833               	goto	u2400
  3295  0032                     u2401:
  3296  0032  2835               	goto	l1630
  3297  0033                     u2400:
  3298  0033                     l1628:
  3299                           
  3300                           ;mcc_generated_files/eusart.c: 122:     {;mcc_generated_files/eusart.c: 125:         RCS
      +                          TAbits.CREN = 0;
  3301  0033  121D               	bcf	29,4	;volatile
  3302                           
  3303                           ;mcc_generated_files/eusart.c: 126:         RCSTAbits.CREN = 1;
  3304  0034  161D               	bsf	29,4	;volatile
  3305  0035                     l1630:
  3306                           
  3307                           ;mcc_generated_files/eusart.c: 129:     return RCREG;
  3308  0035  0819               	movf	25,w	;volatile
  3309  0036                     l64:
  3310  0036  0008               	return
  3311  0037                     __end_of_EUSART_Read:
  3312                           
  3313                           	psect	text3
  3314  001B                     __ptext3:	
  3315 ;; *************** function _SYSTEM_Initialize *****************
  3316 ;; Defined at:
  3317 ;;		line 50 in file "mcc_generated_files/mcc.c"
  3318 ;; Parameters:    Size  Location     Type
  3319 ;;		None
  3320 ;; Auto vars:     Size  Location     Type
  3321 ;;		None
  3322 ;; Return value:  Size  Location     Type
  3323 ;;                  1    wreg      void 
  3324 ;; Registers used:
  3325 ;;		wreg, status,2, status,0, pclath, cstack
  3326 ;; Tracked objects:
  3327 ;;		On entry : 0/0
  3328 ;;		On exit  : 0/0
  3329 ;;		Unchanged: 0/0
  3330 ;; Data sizes:     COMMON   BANK0   BANK1   BANK2   BANK3   BANK4   BANK5   BANK6
  3331 ;;      Params:         0       0       0       0       0       0       0       0
  3332 ;;      Locals:         0       0       0       0       0       0       0       0
  3333 ;;      Temps:          0       0       0       0       0       0       0       0
  3334 ;;      Totals:         0       0       0       0       0       0       0       0
  3335 ;;Total ram usage:        0 bytes
  3336 ;; Hardware stack levels used: 1
  3337 ;; Hardware stack levels required when called: 2
  3338 ;; This function calls:
  3339 ;;		_EUSART_Initialize
  3340 ;;		_OSCILLATOR_Initialize
  3341 ;;		_PIN_MANAGER_Initialize
  3342 ;;		_WDT_Initialize
  3343 ;; This function is called by:
  3344 ;;		_main
  3345 ;; This function uses a non-reentrant model
  3346 ;;
  3347                           
  3348  001B                     _SYSTEM_Initialize:	
  3349                           ;psect for function _SYSTEM_Initialize
  3350                           
  3351  001B                     l1950:	
  3352                           ;incstack = 0
  3353                           ; Regs used in _SYSTEM_Initialize: [wreg+status,2+status,0+pclath+cstack]
  3354                           
  3355                           
  3356                           ;mcc_generated_files/mcc.c: 53:     PIN_MANAGER_Initialize();
  3357  001B  3180  2037  3180   	fcall	_PIN_MANAGER_Initialize
  3358                           
  3359                           ;mcc_generated_files/mcc.c: 54:     OSCILLATOR_Initialize();
  3360  001E  3180  2015  3180   	fcall	_OSCILLATOR_Initialize
  3361                           
  3362                           ;mcc_generated_files/mcc.c: 55:     WDT_Initialize();
  3363  0021  318F  277D  3180   	fcall	_WDT_Initialize
  3364                           
  3365                           ;mcc_generated_files/mcc.c: 56:     EUSART_Initialize();
  3366  0024  3180  204E  3180   	fcall	_EUSART_Initialize
  3367  0027                     l228:
  3368  0027  0008               	return
  3369  0028                     __end_of_SYSTEM_Initialize:
  3370                           
  3371                           	psect	text4
  3372  0F7D                     __ptext4:	
  3373 ;; *************** function _WDT_Initialize *****************
  3374 ;; Defined at:
  3375 ;;		line 67 in file "mcc_generated_files/mcc.c"
  3376 ;; Parameters:    Size  Location     Type
  3377 ;;		None
  3378 ;; Auto vars:     Size  Location     Type
  3379 ;;		None
  3380 ;; Return value:  Size  Location     Type
  3381 ;;                  1    wreg      void 
  3382 ;; Registers used:
  3383 ;;		wreg
  3384 ;; Tracked objects:
  3385 ;;		On entry : 0/0
  3386 ;;		On exit  : 0/0
  3387 ;;		Unchanged: 0/0
  3388 ;; Data sizes:     COMMON   BANK0   BANK1   BANK2   BANK3   BANK4   BANK5   BANK6
  3389 ;;      Params:         0       0       0       0       0       0       0       0
  3390 ;;      Locals:         0       0       0       0       0       0       0       0
  3391 ;;      Temps:          0       0       0       0       0       0       0       0
  3392 ;;      Totals:         0       0       0       0       0       0       0       0
  3393 ;;Total ram usage:        0 bytes
  3394 ;; Hardware stack levels used: 1
  3395 ;; This function calls:
  3396 ;;		Nothing
  3397 ;; This function is called by:
  3398 ;;		_SYSTEM_Initialize
  3399 ;; This function uses a non-reentrant model
  3400 ;;
  3401                           
  3402  0F7D                     _WDT_Initialize:	
  3403                           ;psect for function _WDT_Initialize
  3404                           
  3405  0F7D                     l1654:	
  3406                           ;incstack = 0
  3407                           ; Regs used in _WDT_Initialize: [wreg]
  3408                           
  3409                           
  3410                           ;mcc_generated_files/mcc.c: 70:     WDTCON = 0x16;
  3411  0F7D  3016               	movlw	22
  3412  0F7E  0021               	movlb	1	; select bank1
  3413  0F7F  0097               	movwf	23	;volatile
  3414  0F80                     l234:
  3415  0F80  0008               	return
  3416  0F81                     __end_of_WDT_Initialize:
  3417                           
  3418                           	psect	text5
  3419  0037                     __ptext5:	
  3420 ;; *************** function _PIN_MANAGER_Initialize *****************
  3421 ;; Defined at:
  3422 ;;		line 55 in file "mcc_generated_files/pin_manager.c"
  3423 ;; Parameters:    Size  Location     Type
  3424 ;;		None
  3425 ;; Auto vars:     Size  Location     Type
  3426 ;;		None
  3427 ;; Return value:  Size  Location     Type
  3428 ;;                  1    wreg      void 
  3429 ;; Registers used:
  3430 ;;		wreg, status,2
  3431 ;; Tracked objects:
  3432 ;;		On entry : 0/0
  3433 ;;		On exit  : 0/0
  3434 ;;		Unchanged: 0/0
  3435 ;; Data sizes:     COMMON   BANK0   BANK1   BANK2   BANK3   BANK4   BANK5   BANK6
  3436 ;;      Params:         0       0       0       0       0       0       0       0
  3437 ;;      Locals:         0       0       0       0       0       0       0       0
  3438 ;;      Temps:          0       0       0       0       0       0       0       0
  3439 ;;      Totals:         0       0       0       0       0       0       0       0
  3440 ;;Total ram usage:        0 bytes
  3441 ;; Hardware stack levels used: 1
  3442 ;; This function calls:
  3443 ;;		Nothing
  3444 ;; This function is called by:
  3445 ;;		_SYSTEM_Initialize
  3446 ;; This function uses a non-reentrant model
  3447 ;;
  3448                           
  3449  0037                     _PIN_MANAGER_Initialize:	
  3450                           ;psect for function _PIN_MANAGER_Initialize
  3451                           
  3452  0037                     l1634:	
  3453                           ;incstack = 0
  3454                           ; Regs used in _PIN_MANAGER_Initialize: [wreg+status,2]
  3455                           
  3456                           
  3457                           ;mcc_generated_files/pin_manager.c: 60:     LATA = 0x00;
  3458  0037  0022               	movlb	2	; select bank2
  3459  0038  018C               	clrf	12	;volatile
  3460                           
  3461                           ;mcc_generated_files/pin_manager.c: 61:     LATB = 0x00;
  3462  0039  018D               	clrf	13	;volatile
  3463                           
  3464                           ;mcc_generated_files/pin_manager.c: 62:     LATC = 0x00;
  3465  003A  018E               	clrf	14	;volatile
  3466  003B                     l1636:
  3467                           
  3468                           ;mcc_generated_files/pin_manager.c: 67:     TRISA = 0x3F;
  3469  003B  303F               	movlw	63
  3470  003C  0021               	movlb	1	; select bank1
  3471  003D  008C               	movwf	12	;volatile
  3472  003E                     l1638:
  3473                           
  3474                           ;mcc_generated_files/pin_manager.c: 68:     TRISB = 0x70;
  3475  003E  3070               	movlw	112
  3476  003F  008D               	movwf	13	;volatile
  3477                           
  3478                           ;mcc_generated_files/pin_manager.c: 69:     TRISC = 0x00;
  3479  0040  018E               	clrf	14	;volatile
  3480                           
  3481                           ;mcc_generated_files/pin_manager.c: 74:     ANSELC = 0x00;
  3482  0041  0023               	movlb	3	; select bank3
  3483  0042  018E               	clrf	14	;volatile
  3484                           
  3485                           ;mcc_generated_files/pin_manager.c: 75:     ANSELB = 0x00;
  3486  0043  018D               	clrf	13	;volatile
  3487  0044                     l1640:
  3488                           
  3489                           ;mcc_generated_files/pin_manager.c: 76:     ANSELA = 0x17;
  3490  0044  3017               	movlw	23
  3491  0045  008C               	movwf	12	;volatile
  3492  0046                     l1642:
  3493                           
  3494                           ;mcc_generated_files/pin_manager.c: 81:     WPUB = 0x00;
  3495  0046  0024               	movlb	4	; select bank4
  3496  0047  018D               	clrf	13	;volatile
  3497  0048                     l1644:
  3498                           
  3499                           ;mcc_generated_files/pin_manager.c: 82:     WPUA = 0x00;
  3500  0048  018C               	clrf	12	;volatile
  3501  0049                     l1646:
  3502                           
  3503                           ;mcc_generated_files/pin_manager.c: 83:     OPTION_REGbits.nWPUEN = 1;
  3504  0049  0021               	movlb	1	; select bank1
  3505  004A  1795               	bsf	21,7	;volatile
  3506  004B                     l1648:
  3507                           
  3508                           ;mcc_generated_files/pin_manager.c: 89:     APFCON = 0x00;
  3509  004B  0022               	movlb	2	; select bank2
  3510  004C  019D               	clrf	29	;volatile
  3511  004D                     l263:
  3512  004D  0008               	return
  3513  004E                     __end_of_PIN_MANAGER_Initialize:
  3514                           
  3515                           	psect	text6
  3516  0015                     __ptext6:	
  3517 ;; *************** function _OSCILLATOR_Initialize *****************
  3518 ;; Defined at:
  3519 ;;		line 59 in file "mcc_generated_files/mcc.c"
  3520 ;; Parameters:    Size  Location     Type
  3521 ;;		None
  3522 ;; Auto vars:     Size  Location     Type
  3523 ;;		None
  3524 ;; Return value:  Size  Location     Type
  3525 ;;                  1    wreg      void 
  3526 ;; Registers used:
  3527 ;;		wreg, status,2
  3528 ;; Tracked objects:
  3529 ;;		On entry : 0/0
  3530 ;;		On exit  : 0/0
  3531 ;;		Unchanged: 0/0
  3532 ;; Data sizes:     COMMON   BANK0   BANK1   BANK2   BANK3   BANK4   BANK5   BANK6
  3533 ;;      Params:         0       0       0       0       0       0       0       0
  3534 ;;      Locals:         0       0       0       0       0       0       0       0
  3535 ;;      Temps:          0       0       0       0       0       0       0       0
  3536 ;;      Totals:         0       0       0       0       0       0       0       0
  3537 ;;Total ram usage:        0 bytes
  3538 ;; Hardware stack levels used: 1
  3539 ;; This function calls:
  3540 ;;		Nothing
  3541 ;; This function is called by:
  3542 ;;		_SYSTEM_Initialize
  3543 ;; This function uses a non-reentrant model
  3544 ;;
  3545                           
  3546  0015                     _OSCILLATOR_Initialize:	
  3547                           ;psect for function _OSCILLATOR_Initialize
  3548                           
  3549  0015                     l1650:	
  3550                           ;incstack = 0
  3551                           ; Regs used in _OSCILLATOR_Initialize: [wreg+status,2]
  3552                           
  3553                           
  3554                           ;mcc_generated_files/mcc.c: 62:     OSCCON = 0x58;
  3555  0015  3058               	movlw	88
  3556  0016  0021               	movlb	1	; select bank1
  3557  0017  0099               	movwf	25	;volatile
  3558  0018                     l1652:
  3559                           
  3560                           ;mcc_generated_files/mcc.c: 64:     BORCON = 0x00;
  3561  0018  0022               	movlb	2	; select bank2
  3562  0019  0196               	clrf	22	;volatile
  3563  001A                     l231:
  3564  001A  0008               	return
  3565  001B                     __end_of_OSCILLATOR_Initialize:
  3566                           
  3567                           	psect	text7
  3568  004E                     __ptext7:	
  3569 ;; *************** function _EUSART_Initialize *****************
  3570 ;; Defined at:
  3571 ;;		line 66 in file "mcc_generated_files/eusart.c"
  3572 ;; Parameters:    Size  Location     Type
  3573 ;;		None
  3574 ;; Auto vars:     Size  Location     Type
  3575 ;;		None
  3576 ;; Return value:  Size  Location     Type
  3577 ;;                  1    wreg      void 
  3578 ;; Registers used:
  3579 ;;		wreg, status,2, status,0, pclath, cstack
  3580 ;; Tracked objects:
  3581 ;;		On entry : 0/0
  3582 ;;		On exit  : 0/0
  3583 ;;		Unchanged: 0/0
  3584 ;; Data sizes:     COMMON   BANK0   BANK1   BANK2   BANK3   BANK4   BANK5   BANK6
  3585 ;;      Params:         0       0       0       0       0       0       0       0
  3586 ;;      Locals:         0       0       0       0       0       0       0       0
  3587 ;;      Temps:          0       0       0       0       0       0       0       0
  3588 ;;      Totals:         0       0       0       0       0       0       0       0
  3589 ;;Total ram usage:        0 bytes
  3590 ;; Hardware stack levels used: 1
  3591 ;; Hardware stack levels required when called: 1
  3592 ;; This function calls:
  3593 ;;		_EUSART_SetErrorHandler
  3594 ;;		_EUSART_SetFramingErrorHandler
  3595 ;;		_EUSART_SetOverrunErrorHandler
  3596 ;; This function is called by:
  3597 ;;		_SYSTEM_Initialize
  3598 ;; This function uses a non-reentrant model
  3599 ;;
  3600                           
  3601  004E                     _EUSART_Initialize:	
  3602                           ;psect for function _EUSART_Initialize
  3603                           
  3604  004E                     l1610:	
  3605                           ;incstack = 0
  3606                           ; Regs used in _EUSART_Initialize: [wreg+status,2+status,0+pclath+cstack]
  3607                           
  3608                           
  3609                           ;mcc_generated_files/eusart.c: 71:     BAUDCON = 0x08;
  3610  004E  3008               	movlw	8
  3611  004F  0023               	movlb	3	; select bank3
  3612  0050  009F               	movwf	31	;volatile
  3613                           
  3614                           ;mcc_generated_files/eusart.c: 74:     RCSTA = 0x90;
  3615  0051  3090               	movlw	144
  3616  0052  009D               	movwf	29	;volatile
  3617                           
  3618                           ;mcc_generated_files/eusart.c: 77:     TXSTA = 0x24;
  3619  0053  3024               	movlw	36
  3620  0054  009E               	movwf	30	;volatile
  3621                           
  3622                           ;mcc_generated_files/eusart.c: 80:     SPBRGL = 0x19;
  3623  0055  3019               	movlw	25
  3624  0056  009B               	movwf	27	;volatile
  3625  0057                     l1612:
  3626                           
  3627                           ;mcc_generated_files/eusart.c: 83:     SPBRGH = 0x00;
  3628  0057  019C               	clrf	28	;volatile
  3629  0058                     l1614:
  3630                           
  3631                           ;mcc_generated_files/eusart.c: 86:     EUSART_SetFramingErrorHandler(EUSART_DefaultFrami
      +                          ngErrorHandler);
  3632  0058  3000               	movlw	0
  3633  0059  00F6               	movwf	EUSART_SetFramingErrorHandler@interruptHandler
  3634  005A  3000               	movlw	0
  3635  005B  00F7               	movwf	EUSART_SetFramingErrorHandler@interruptHandler+1
  3636  005C  3180  200B  3180   	fcall	_EUSART_SetFramingErrorHandler
  3637  005F                     l1616:
  3638                           
  3639                           ;mcc_generated_files/eusart.c: 87:     EUSART_SetOverrunErrorHandler(EUSART_DefaultOverr
      +                          unErrorHandler);
  3640  005F  3000               	movlw	0
  3641  0060  00F6               	movwf	EUSART_SetOverrunErrorHandler@interruptHandler
  3642  0061  3000               	movlw	0
  3643  0062  00F7               	movwf	EUSART_SetOverrunErrorHandler@interruptHandler+1
  3644  0063  3180  2010  3180   	fcall	_EUSART_SetOverrunErrorHandler
  3645  0066                     l1618:
  3646                           
  3647                           ;mcc_generated_files/eusart.c: 88:     EUSART_SetErrorHandler(EUSART_DefaultErrorHandler
      +                          );
  3648  0066  3000               	movlw	0
  3649  0067  00F6               	movwf	EUSART_SetErrorHandler@interruptHandler
  3650  0068  3000               	movlw	0
  3651  0069  00F7               	movwf	EUSART_SetErrorHandler@interruptHandler+1
  3652  006A  3180  2006  3180   	fcall	_EUSART_SetErrorHandler
  3653  006D                     l1620:
  3654                           
  3655                           ;mcc_generated_files/eusart.c: 90:     eusartRxLastError.status = 0;
  3656  006D  01FC               	clrf	_eusartRxLastError	;volatile
  3657  006E                     l43:
  3658  006E  0008               	return
  3659  006F                     __end_of_EUSART_Initialize:
  3660                           
  3661                           	psect	text8
  3662  0010                     __ptext8:	
  3663 ;; *************** function _EUSART_SetOverrunErrorHandler *****************
  3664 ;; Defined at:
  3665 ;;		line 161 in file "mcc_generated_files/eusart.c"
  3666 ;; Parameters:    Size  Location     Type
  3667 ;;  interruptHan    2    0[COMMON] PTR FTN()void 
  3668 ;;		 -> EUSART_DefaultOverrunErrorHandler(1), 
  3669 ;; Auto vars:     Size  Location     Type
  3670 ;;		None
  3671 ;; Return value:  Size  Location     Type
  3672 ;;                  1    wreg      void 
  3673 ;; Registers used:
  3674 ;;		wreg
  3675 ;; Tracked objects:
  3676 ;;		On entry : 0/0
  3677 ;;		On exit  : 0/0
  3678 ;;		Unchanged: 0/0
  3679 ;; Data sizes:     COMMON   BANK0   BANK1   BANK2   BANK3   BANK4   BANK5   BANK6
  3680 ;;      Params:         2       0       0       0       0       0       0       0
  3681 ;;      Locals:         0       0       0       0       0       0       0       0
  3682 ;;      Temps:          0       0       0       0       0       0       0       0
  3683 ;;      Totals:         2       0       0       0       0       0       0       0
  3684 ;;Total ram usage:        2 bytes
  3685 ;; Hardware stack levels used: 1
  3686 ;; This function calls:
  3687 ;;		Nothing
  3688 ;; This function is called by:
  3689 ;;		_EUSART_Initialize
  3690 ;; This function uses a non-reentrant model
  3691 ;;
  3692                           
  3693  0010                     _EUSART_SetOverrunErrorHandler:	
  3694                           ;psect for function _EUSART_SetOverrunErrorHandler
  3695                           
  3696  0010                     l1606:	
  3697                           ;incstack = 0
  3698                           ; Regs used in _EUSART_SetOverrunErrorHandler: [wreg]
  3699                           
  3700                           
  3701                           ;mcc_generated_files/eusart.c: 162:     EUSART_OverrunErrorHandler = interruptHandler;
  3702  0010  0877               	movf	EUSART_SetOverrunErrorHandler@interruptHandler+1,w
  3703  0011  00F3               	movwf	_EUSART_OverrunErrorHandler+1
  3704  0012  0876               	movf	EUSART_SetOverrunErrorHandler@interruptHandler,w
  3705  0013  00F2               	movwf	_EUSART_OverrunErrorHandler
  3706  0014                     l85:
  3707  0014  0008               	return
  3708  0015                     __end_of_EUSART_SetOverrunErrorHandler:
  3709                           
  3710                           	psect	text9
  3711  000B                     __ptext9:	
  3712 ;; *************** function _EUSART_SetFramingErrorHandler *****************
  3713 ;; Defined at:
  3714 ;;		line 157 in file "mcc_generated_files/eusart.c"
  3715 ;; Parameters:    Size  Location     Type
  3716 ;;  interruptHan    2    0[COMMON] PTR FTN()void 
  3717 ;;		 -> EUSART_DefaultFramingErrorHandler(1), 
  3718 ;; Auto vars:     Size  Location     Type
  3719 ;;		None
  3720 ;; Return value:  Size  Location     Type
  3721 ;;                  1    wreg      void 
  3722 ;; Registers used:
  3723 ;;		wreg
  3724 ;; Tracked objects:
  3725 ;;		On entry : 0/0
  3726 ;;		On exit  : 0/0
  3727 ;;		Unchanged: 0/0
  3728 ;; Data sizes:     COMMON   BANK0   BANK1   BANK2   BANK3   BANK4   BANK5   BANK6
  3729 ;;      Params:         2       0       0       0       0       0       0       0
  3730 ;;      Locals:         0       0       0       0       0       0       0       0
  3731 ;;      Temps:          0       0       0       0       0       0       0       0
  3732 ;;      Totals:         2       0       0       0       0       0       0       0
  3733 ;;Total ram usage:        2 bytes
  3734 ;; Hardware stack levels used: 1
  3735 ;; This function calls:
  3736 ;;		Nothing
  3737 ;; This function is called by:
  3738 ;;		_EUSART_Initialize
  3739 ;; This function uses a non-reentrant model
  3740 ;;
  3741                           
  3742  000B                     _EUSART_SetFramingErrorHandler:	
  3743                           ;psect for function _EUSART_SetFramingErrorHandler
  3744                           
  3745  000B                     l1604:	
  3746                           ;incstack = 0
  3747                           ; Regs used in _EUSART_SetFramingErrorHandler: [wreg]
  3748                           
  3749                           
  3750                           ;mcc_generated_files/eusart.c: 158:     EUSART_FramingErrorHandler = interruptHandler;
  3751  000B  0877               	movf	EUSART_SetFramingErrorHandler@interruptHandler+1,w
  3752  000C  00F5               	movwf	_EUSART_FramingErrorHandler+1
  3753  000D  0876               	movf	EUSART_SetFramingErrorHandler@interruptHandler,w
  3754  000E  00F4               	movwf	_EUSART_FramingErrorHandler
  3755  000F                     l82:
  3756  000F  0008               	return
  3757  0010                     __end_of_EUSART_SetFramingErrorHandler:
  3758                           
  3759                           	psect	text10
  3760  0006                     __ptext10:	
  3761 ;; *************** function _EUSART_SetErrorHandler *****************
  3762 ;; Defined at:
  3763 ;;		line 165 in file "mcc_generated_files/eusart.c"
  3764 ;; Parameters:    Size  Location     Type
  3765 ;;  interruptHan    2    0[COMMON] PTR FTN()void 
  3766 ;;		 -> EUSART_DefaultErrorHandler(1), 
  3767 ;; Auto vars:     Size  Location     Type
  3768 ;;		None
  3769 ;; Return value:  Size  Location     Type
  3770 ;;                  1    wreg      void 
  3771 ;; Registers used:
  3772 ;;		wreg
  3773 ;; Tracked objects:
  3774 ;;		On entry : 0/0
  3775 ;;		On exit  : 0/0
  3776 ;;		Unchanged: 0/0
  3777 ;; Data sizes:     COMMON   BANK0   BANK1   BANK2   BANK3   BANK4   BANK5   BANK6
  3778 ;;      Params:         2       0       0       0       0       0       0       0
  3779 ;;      Locals:         0       0       0       0       0       0       0       0
  3780 ;;      Temps:          0       0       0       0       0       0       0       0
  3781 ;;      Totals:         2       0       0       0       0       0       0       0
  3782 ;;Total ram usage:        2 bytes
  3783 ;; Hardware stack levels used: 1
  3784 ;; This function calls:
  3785 ;;		Nothing
  3786 ;; This function is called by:
  3787 ;;		_EUSART_Initialize
  3788 ;; This function uses a non-reentrant model
  3789 ;;
  3790                           
  3791  0006                     _EUSART_SetErrorHandler:	
  3792                           ;psect for function _EUSART_SetErrorHandler
  3793                           
  3794  0006                     l1608:	
  3795                           ;incstack = 0
  3796                           ; Regs used in _EUSART_SetErrorHandler: [wreg]
  3797                           
  3798                           
  3799                           ;mcc_generated_files/eusart.c: 166:     EUSART_ErrorHandler = interruptHandler;
  3800  0006  0877               	movf	EUSART_SetErrorHandler@interruptHandler+1,w
  3801  0007  00F1               	movwf	_EUSART_ErrorHandler+1
  3802  0008  0876               	movf	EUSART_SetErrorHandler@interruptHandler,w
  3803  0009  00F0               	movwf	_EUSART_ErrorHandler
  3804  000A                     l88:
  3805  000A  0008               	return
  3806  000B                     __end_of_EUSART_SetErrorHandler:
  3807                           
  3808                           	psect	text11
  3809  006F                     __ptext11:	
  3810 ;; *************** function _LEDs_on *****************
  3811 ;; Defined at:
  3812 ;;		line 65 in file "main.c"
  3813 ;; Parameters:    Size  Location     Type
  3814 ;;		None
  3815 ;; Auto vars:     Size  Location     Type
  3816 ;;		None
  3817 ;; Return value:  Size  Location     Type
  3818 ;;                  1    wreg      void 
  3819 ;; Registers used:
  3820 ;;		wreg, status,2, status,0
  3821 ;; Tracked objects:
  3822 ;;		On entry : 0/0
  3823 ;;		On exit  : 0/0
  3824 ;;		Unchanged: 0/0
  3825 ;; Data sizes:     COMMON   BANK0   BANK1   BANK2   BANK3   BANK4   BANK5   BANK6
  3826 ;;      Params:         0       0       0       0       0       0       0       0
  3827 ;;      Locals:         0       0       0       0       0       0       0       0
  3828 ;;      Temps:          0       0       0       0       0       0       0       0
  3829 ;;      Totals:         0       0       0       0       0       0       0       0
  3830 ;;Total ram usage:        0 bytes
  3831 ;; Hardware stack levels used: 1
  3832 ;; This function calls:
  3833 ;;		Nothing
  3834 ;; This function is called by:
  3835 ;;		_main
  3836 ;; This function uses a non-reentrant model
  3837 ;;
  3838                           
  3839  006F                     _LEDs_on:	
  3840                           ;psect for function _LEDs_on
  3841                           
  3842  006F                     l1660:	
  3843                           ;incstack = 0
  3844                           ; Regs used in _LEDs_on: [wreg+status,2+status,0]
  3845                           
  3846                           
  3847                           ;main.c: 74:         if((CMD[0]=='O')&&(CMD[1]=='N')&&(CMD[2]=='0')&&(CMD[3]=='1')&&(CMD
      +                          [4]=='#')){
  3848  006F  304F               	movlw	79
  3849  0070  0020               	movlb	0	; select bank0
  3850  0071  0620               	xorwf	_CMD,w
  3851  0072  1D03               	btfss	3,2
  3852  0073  2875               	goto	u2411
  3853  0074  2876               	goto	u2410
  3854  0075                     u2411:
  3855  0075  2890               	goto	l1672
  3856  0076                     u2410:
  3857  0076                     l1662:
  3858  0076  304E               	movlw	78
  3859  0077  0621               	xorwf	_CMD+1,w
  3860  0078  1D03               	btfss	3,2
  3861  0079  287B               	goto	u2421
  3862  007A  287C               	goto	u2420
  3863  007B                     u2421:
  3864  007B  2890               	goto	l1672
  3865  007C                     u2420:
  3866  007C                     l1664:
  3867  007C  3030               	movlw	48
  3868  007D  0622               	xorwf	_CMD+2,w
  3869  007E  1D03               	btfss	3,2
  3870  007F  2881               	goto	u2431
  3871  0080  2882               	goto	u2430
  3872  0081                     u2431:
  3873  0081  2890               	goto	l1672
  3874  0082                     u2430:
  3875  0082                     l1666:
  3876  0082  3031               	movlw	49
  3877  0083  0623               	xorwf	_CMD+3,w
  3878  0084  1D03               	btfss	3,2
  3879  0085  2887               	goto	u2441
  3880  0086  2888               	goto	u2440
  3881  0087                     u2441:
  3882  0087  2890               	goto	l1672
  3883  0088                     u2440:
  3884  0088                     l1668:
  3885  0088  3023               	movlw	35
  3886  0089  0624               	xorwf	_CMD+4,w
  3887  008A  1D03               	btfss	3,2
  3888  008B  288D               	goto	u2451
  3889  008C  288E               	goto	u2450
  3890  008D                     u2451:
  3891  008D  2890               	goto	l1672
  3892  008E                     u2450:
  3893  008E                     l1670:
  3894                           
  3895                           ;main.c: 75:             LATCbits.LATC0 = 1;
  3896  008E  0022               	movlb	2	; select bank2
  3897  008F  140E               	bsf	14,0	;volatile
  3898  0090                     l1672:
  3899                           
  3900                           ;main.c: 79:         if((CMD[0]=='O')&&(CMD[1]=='N')&&(CMD[2]=='0')&&(CMD[3]=='2')&&(CMD
      +                          [4]=='#')){
  3901  0090  304F               	movlw	79
  3902  0091  0020               	movlb	0	; select bank0
  3903  0092  0620               	xorwf	_CMD,w
  3904  0093  1D03               	btfss	3,2
  3905  0094  2896               	goto	u2461
  3906  0095  2897               	goto	u2460
  3907  0096                     u2461:
  3908  0096  28B1               	goto	l1684
  3909  0097                     u2460:
  3910  0097                     l1674:
  3911  0097  304E               	movlw	78
  3912  0098  0621               	xorwf	_CMD+1,w
  3913  0099  1D03               	btfss	3,2
  3914  009A  289C               	goto	u2471
  3915  009B  289D               	goto	u2470
  3916  009C                     u2471:
  3917  009C  28B1               	goto	l1684
  3918  009D                     u2470:
  3919  009D                     l1676:
  3920  009D  3030               	movlw	48
  3921  009E  0622               	xorwf	_CMD+2,w
  3922  009F  1D03               	btfss	3,2
  3923  00A0  28A2               	goto	u2481
  3924  00A1  28A3               	goto	u2480
  3925  00A2                     u2481:
  3926  00A2  28B1               	goto	l1684
  3927  00A3                     u2480:
  3928  00A3                     l1678:
  3929  00A3  3032               	movlw	50
  3930  00A4  0623               	xorwf	_CMD+3,w
  3931  00A5  1D03               	btfss	3,2
  3932  00A6  28A8               	goto	u2491
  3933  00A7  28A9               	goto	u2490
  3934  00A8                     u2491:
  3935  00A8  28B1               	goto	l1684
  3936  00A9                     u2490:
  3937  00A9                     l1680:
  3938  00A9  3023               	movlw	35
  3939  00AA  0624               	xorwf	_CMD+4,w
  3940  00AB  1D03               	btfss	3,2
  3941  00AC  28AE               	goto	u2501
  3942  00AD  28AF               	goto	u2500
  3943  00AE                     u2501:
  3944  00AE  28B1               	goto	l1684
  3945  00AF                     u2500:
  3946  00AF                     l1682:
  3947                           
  3948                           ;main.c: 80:             LATCbits.LATC1 = 1;
  3949  00AF  0022               	movlb	2	; select bank2
  3950  00B0  148E               	bsf	14,1	;volatile
  3951  00B1                     l1684:
  3952                           
  3953                           ;main.c: 84:         if((CMD[0]=='O')&&(CMD[1]=='N')&&(CMD[2]=='0')&&(CMD[3]=='3')&&(CMD
      +                          [4]=='#')){
  3954  00B1  304F               	movlw	79
  3955  00B2  0020               	movlb	0	; select bank0
  3956  00B3  0620               	xorwf	_CMD,w
  3957  00B4  1D03               	btfss	3,2
  3958  00B5  28B7               	goto	u2511
  3959  00B6  28B8               	goto	u2510
  3960  00B7                     u2511:
  3961  00B7  28D2               	goto	l1696
  3962  00B8                     u2510:
  3963  00B8                     l1686:
  3964  00B8  304E               	movlw	78
  3965  00B9  0621               	xorwf	_CMD+1,w
  3966  00BA  1D03               	btfss	3,2
  3967  00BB  28BD               	goto	u2521
  3968  00BC  28BE               	goto	u2520
  3969  00BD                     u2521:
  3970  00BD  28D2               	goto	l1696
  3971  00BE                     u2520:
  3972  00BE                     l1688:
  3973  00BE  3030               	movlw	48
  3974  00BF  0622               	xorwf	_CMD+2,w
  3975  00C0  1D03               	btfss	3,2
  3976  00C1  28C3               	goto	u2531
  3977  00C2  28C4               	goto	u2530
  3978  00C3                     u2531:
  3979  00C3  28D2               	goto	l1696
  3980  00C4                     u2530:
  3981  00C4                     l1690:
  3982  00C4  3033               	movlw	51
  3983  00C5  0623               	xorwf	_CMD+3,w
  3984  00C6  1D03               	btfss	3,2
  3985  00C7  28C9               	goto	u2541
  3986  00C8  28CA               	goto	u2540
  3987  00C9                     u2541:
  3988  00C9  28D2               	goto	l1696
  3989  00CA                     u2540:
  3990  00CA                     l1692:
  3991  00CA  3023               	movlw	35
  3992  00CB  0624               	xorwf	_CMD+4,w
  3993  00CC  1D03               	btfss	3,2
  3994  00CD  28CF               	goto	u2551
  3995  00CE  28D0               	goto	u2550
  3996  00CF                     u2551:
  3997  00CF  28D2               	goto	l1696
  3998  00D0                     u2550:
  3999  00D0                     l1694:
  4000                           
  4001                           ;main.c: 85:             LATCbits.LATC2 = 1;
  4002  00D0  0022               	movlb	2	; select bank2
  4003  00D1  150E               	bsf	14,2	;volatile
  4004  00D2                     l1696:
  4005                           
  4006                           ;main.c: 89:         if((CMD[0]=='O')&&(CMD[1]=='N')&&(CMD[2]=='0')&&(CMD[3]=='4')&&(CMD
      +                          [4]=='#')){
  4007  00D2  304F               	movlw	79
  4008  00D3  0020               	movlb	0	; select bank0
  4009  00D4  0620               	xorwf	_CMD,w
  4010  00D5  1D03               	btfss	3,2
  4011  00D6  28D8               	goto	u2561
  4012  00D7  28D9               	goto	u2560
  4013  00D8                     u2561:
  4014  00D8  28F3               	goto	l1708
  4015  00D9                     u2560:
  4016  00D9                     l1698:
  4017  00D9  304E               	movlw	78
  4018  00DA  0621               	xorwf	_CMD+1,w
  4019  00DB  1D03               	btfss	3,2
  4020  00DC  28DE               	goto	u2571
  4021  00DD  28DF               	goto	u2570
  4022  00DE                     u2571:
  4023  00DE  28F3               	goto	l1708
  4024  00DF                     u2570:
  4025  00DF                     l1700:
  4026  00DF  3030               	movlw	48
  4027  00E0  0622               	xorwf	_CMD+2,w
  4028  00E1  1D03               	btfss	3,2
  4029  00E2  28E4               	goto	u2581
  4030  00E3  28E5               	goto	u2580
  4031  00E4                     u2581:
  4032  00E4  28F3               	goto	l1708
  4033  00E5                     u2580:
  4034  00E5                     l1702:
  4035  00E5  3034               	movlw	52
  4036  00E6  0623               	xorwf	_CMD+3,w
  4037  00E7  1D03               	btfss	3,2
  4038  00E8  28EA               	goto	u2591
  4039  00E9  28EB               	goto	u2590
  4040  00EA                     u2591:
  4041  00EA  28F3               	goto	l1708
  4042  00EB                     u2590:
  4043  00EB                     l1704:
  4044  00EB  3023               	movlw	35
  4045  00EC  0624               	xorwf	_CMD+4,w
  4046  00ED  1D03               	btfss	3,2
  4047  00EE  28F0               	goto	u2601
  4048  00EF  28F1               	goto	u2600
  4049  00F0                     u2601:
  4050  00F0  28F3               	goto	l1708
  4051  00F1                     u2600:
  4052  00F1                     l1706:
  4053                           
  4054                           ;main.c: 90:             LATCbits.LATC3 = 1;
  4055  00F1  0022               	movlb	2	; select bank2
  4056  00F2  158E               	bsf	14,3	;volatile
  4057  00F3                     l1708:
  4058                           
  4059                           ;main.c: 94:         if((CMD[0]=='O')&&(CMD[1]=='N')&&(CMD[2]=='0')&&(CMD[3]=='5')&&(CMD
      +                          [4]=='#')){
  4060  00F3  304F               	movlw	79
  4061  00F4  0020               	movlb	0	; select bank0
  4062  00F5  0620               	xorwf	_CMD,w
  4063  00F6  1D03               	btfss	3,2
  4064  00F7  28F9               	goto	u2611
  4065  00F8  28FA               	goto	u2610
  4066  00F9                     u2611:
  4067  00F9  2914               	goto	l1720
  4068  00FA                     u2610:
  4069  00FA                     l1710:
  4070  00FA  304E               	movlw	78
  4071  00FB  0621               	xorwf	_CMD+1,w
  4072  00FC  1D03               	btfss	3,2
  4073  00FD  28FF               	goto	u2621
  4074  00FE  2900               	goto	u2620
  4075  00FF                     u2621:
  4076  00FF  2914               	goto	l1720
  4077  0100                     u2620:
  4078  0100                     l1712:
  4079  0100  3030               	movlw	48
  4080  0101  0622               	xorwf	_CMD+2,w
  4081  0102  1D03               	btfss	3,2
  4082  0103  2905               	goto	u2631
  4083  0104  2906               	goto	u2630
  4084  0105                     u2631:
  4085  0105  2914               	goto	l1720
  4086  0106                     u2630:
  4087  0106                     l1714:
  4088  0106  3035               	movlw	53
  4089  0107  0623               	xorwf	_CMD+3,w
  4090  0108  1D03               	btfss	3,2
  4091  0109  290B               	goto	u2641
  4092  010A  290C               	goto	u2640
  4093  010B                     u2641:
  4094  010B  2914               	goto	l1720
  4095  010C                     u2640:
  4096  010C                     l1716:
  4097  010C  3023               	movlw	35
  4098  010D  0624               	xorwf	_CMD+4,w
  4099  010E  1D03               	btfss	3,2
  4100  010F  2911               	goto	u2651
  4101  0110  2912               	goto	u2650
  4102  0111                     u2651:
  4103  0111  2914               	goto	l1720
  4104  0112                     u2650:
  4105  0112                     l1718:
  4106                           
  4107                           ;main.c: 95:             LATCbits.LATC4 = 1;
  4108  0112  0022               	movlb	2	; select bank2
  4109  0113  160E               	bsf	14,4	;volatile
  4110  0114                     l1720:
  4111                           
  4112                           ;main.c: 99:         if((CMD[0]=='O')&&(CMD[1]=='N')&&(CMD[2]=='0')&&(CMD[3]=='6')&&(CMD
      +                          [4]=='#')){
  4113  0114  304F               	movlw	79
  4114  0115  0020               	movlb	0	; select bank0
  4115  0116  0620               	xorwf	_CMD,w
  4116  0117  1D03               	btfss	3,2
  4117  0118  291A               	goto	u2661
  4118  0119  291B               	goto	u2660
  4119  011A                     u2661:
  4120  011A  2935               	goto	l1732
  4121  011B                     u2660:
  4122  011B                     l1722:
  4123  011B  304E               	movlw	78
  4124  011C  0621               	xorwf	_CMD+1,w
  4125  011D  1D03               	btfss	3,2
  4126  011E  2920               	goto	u2671
  4127  011F  2921               	goto	u2670
  4128  0120                     u2671:
  4129  0120  2935               	goto	l1732
  4130  0121                     u2670:
  4131  0121                     l1724:
  4132  0121  3030               	movlw	48
  4133  0122  0622               	xorwf	_CMD+2,w
  4134  0123  1D03               	btfss	3,2
  4135  0124  2926               	goto	u2681
  4136  0125  2927               	goto	u2680
  4137  0126                     u2681:
  4138  0126  2935               	goto	l1732
  4139  0127                     u2680:
  4140  0127                     l1726:
  4141  0127  3036               	movlw	54
  4142  0128  0623               	xorwf	_CMD+3,w
  4143  0129  1D03               	btfss	3,2
  4144  012A  292C               	goto	u2691
  4145  012B  292D               	goto	u2690
  4146  012C                     u2691:
  4147  012C  2935               	goto	l1732
  4148  012D                     u2690:
  4149  012D                     l1728:
  4150  012D  3023               	movlw	35
  4151  012E  0624               	xorwf	_CMD+4,w
  4152  012F  1D03               	btfss	3,2
  4153  0130  2932               	goto	u2701
  4154  0131  2933               	goto	u2700
  4155  0132                     u2701:
  4156  0132  2935               	goto	l1732
  4157  0133                     u2700:
  4158  0133                     l1730:
  4159                           
  4160                           ;main.c: 100:             LATCbits.LATC5 = 1;
  4161  0133  0022               	movlb	2	; select bank2
  4162  0134  168E               	bsf	14,5	;volatile
  4163  0135                     l1732:
  4164                           
  4165                           ;main.c: 104:         if((CMD[0]=='O')&&(CMD[1]=='N')&&(CMD[2]=='0')&&(CMD[3]=='7')&&(CM
      +                          D[4]=='#')){
  4166  0135  304F               	movlw	79
  4167  0136  0020               	movlb	0	; select bank0
  4168  0137  0620               	xorwf	_CMD,w
  4169  0138  1D03               	btfss	3,2
  4170  0139  293B               	goto	u2711
  4171  013A  293C               	goto	u2710
  4172  013B                     u2711:
  4173  013B  2956               	goto	l1744
  4174  013C                     u2710:
  4175  013C                     l1734:
  4176  013C  304E               	movlw	78
  4177  013D  0621               	xorwf	_CMD+1,w
  4178  013E  1D03               	btfss	3,2
  4179  013F  2941               	goto	u2721
  4180  0140  2942               	goto	u2720
  4181  0141                     u2721:
  4182  0141  2956               	goto	l1744
  4183  0142                     u2720:
  4184  0142                     l1736:
  4185  0142  3030               	movlw	48
  4186  0143  0622               	xorwf	_CMD+2,w
  4187  0144  1D03               	btfss	3,2
  4188  0145  2947               	goto	u2731
  4189  0146  2948               	goto	u2730
  4190  0147                     u2731:
  4191  0147  2956               	goto	l1744
  4192  0148                     u2730:
  4193  0148                     l1738:
  4194  0148  3037               	movlw	55
  4195  0149  0623               	xorwf	_CMD+3,w
  4196  014A  1D03               	btfss	3,2
  4197  014B  294D               	goto	u2741
  4198  014C  294E               	goto	u2740
  4199  014D                     u2741:
  4200  014D  2956               	goto	l1744
  4201  014E                     u2740:
  4202  014E                     l1740:
  4203  014E  3023               	movlw	35
  4204  014F  0624               	xorwf	_CMD+4,w
  4205  0150  1D03               	btfss	3,2
  4206  0151  2953               	goto	u2751
  4207  0152  2954               	goto	u2750
  4208  0153                     u2751:
  4209  0153  2956               	goto	l1744
  4210  0154                     u2750:
  4211  0154                     l1742:
  4212                           
  4213                           ;main.c: 105:             LATCbits.LATC6 = 1;
  4214  0154  0022               	movlb	2	; select bank2
  4215  0155  170E               	bsf	14,6	;volatile
  4216  0156                     l1744:
  4217                           
  4218                           ;main.c: 109:         if((CMD[0]=='O')&&(CMD[1]=='N')&&(CMD[2]=='0')&&(CMD[3]=='8')&&(CM
      +                          D[4]=='#')){
  4219  0156  304F               	movlw	79
  4220  0157  0020               	movlb	0	; select bank0
  4221  0158  0620               	xorwf	_CMD,w
  4222  0159  1D03               	btfss	3,2
  4223  015A  295C               	goto	u2761
  4224  015B  295D               	goto	u2760
  4225  015C                     u2761:
  4226  015C  2977               	goto	l1756
  4227  015D                     u2760:
  4228  015D                     l1746:
  4229  015D  304E               	movlw	78
  4230  015E  0621               	xorwf	_CMD+1,w
  4231  015F  1D03               	btfss	3,2
  4232  0160  2962               	goto	u2771
  4233  0161  2963               	goto	u2770
  4234  0162                     u2771:
  4235  0162  2977               	goto	l1756
  4236  0163                     u2770:
  4237  0163                     l1748:
  4238  0163  3030               	movlw	48
  4239  0164  0622               	xorwf	_CMD+2,w
  4240  0165  1D03               	btfss	3,2
  4241  0166  2968               	goto	u2781
  4242  0167  2969               	goto	u2780
  4243  0168                     u2781:
  4244  0168  2977               	goto	l1756
  4245  0169                     u2780:
  4246  0169                     l1750:
  4247  0169  3038               	movlw	56
  4248  016A  0623               	xorwf	_CMD+3,w
  4249  016B  1D03               	btfss	3,2
  4250  016C  296E               	goto	u2791
  4251  016D  296F               	goto	u2790
  4252  016E                     u2791:
  4253  016E  2977               	goto	l1756
  4254  016F                     u2790:
  4255  016F                     l1752:
  4256  016F  3023               	movlw	35
  4257  0170  0624               	xorwf	_CMD+4,w
  4258  0171  1D03               	btfss	3,2
  4259  0172  2974               	goto	u2801
  4260  0173  2975               	goto	u2800
  4261  0174                     u2801:
  4262  0174  2977               	goto	l1756
  4263  0175                     u2800:
  4264  0175                     l1754:
  4265                           
  4266                           ;main.c: 110:             LATCbits.LATC7 = 1;
  4267  0175  0022               	movlb	2	; select bank2
  4268  0176  178E               	bsf	14,7	;volatile
  4269  0177                     l1756:
  4270                           
  4271                           ;main.c: 115:         if((CMD[0]=='O')&&(CMD[1]=='N')&&(CMD[2]=='*')&&(CMD[3]=='#')){
  4272  0177  304F               	movlw	79
  4273  0178  0020               	movlb	0	; select bank0
  4274  0179  0620               	xorwf	_CMD,w
  4275  017A  1D03               	btfss	3,2
  4276  017B  297D               	goto	u2811
  4277  017C  297E               	goto	u2810
  4278  017D                     u2811:
  4279  017D  2993               	goto	l114
  4280  017E                     u2810:
  4281  017E                     l1758:
  4282  017E  304E               	movlw	78
  4283  017F  0621               	xorwf	_CMD+1,w
  4284  0180  1D03               	btfss	3,2
  4285  0181  2983               	goto	u2821
  4286  0182  2984               	goto	u2820
  4287  0183                     u2821:
  4288  0183  2993               	goto	l114
  4289  0184                     u2820:
  4290  0184                     l1760:
  4291  0184  302A               	movlw	42
  4292  0185  0622               	xorwf	_CMD+2,w
  4293  0186  1D03               	btfss	3,2
  4294  0187  2989               	goto	u2831
  4295  0188  298A               	goto	u2830
  4296  0189                     u2831:
  4297  0189  2993               	goto	l114
  4298  018A                     u2830:
  4299  018A                     l1762:
  4300  018A  3023               	movlw	35
  4301  018B  0623               	xorwf	_CMD+3,w
  4302  018C  1D03               	btfss	3,2
  4303  018D  298F               	goto	u2841
  4304  018E  2990               	goto	u2840
  4305  018F                     u2841:
  4306  018F  2993               	goto	l114
  4307  0190                     u2840:
  4308  0190                     l1764:
  4309                           
  4310                           ;main.c: 116:             LATC = 0xFF;
  4311  0190  30FF               	movlw	255
  4312  0191  0022               	movlb	2	; select bank2
  4313  0192  008E               	movwf	14	;volatile
  4314  0193                     l114:
  4315  0193  0008               	return
  4316  0194                     __end_of_LEDs_on:
  4317                           
  4318                           	psect	text12
  4319  0194                     __ptext12:	
  4320 ;; *************** function _LEDs_off *****************
  4321 ;; Defined at:
  4322 ;;		line 192 in file "main.c"
  4323 ;; Parameters:    Size  Location     Type
  4324 ;;		None
  4325 ;; Auto vars:     Size  Location     Type
  4326 ;;		None
  4327 ;; Return value:  Size  Location     Type
  4328 ;;                  1    wreg      void 
  4329 ;; Registers used:
  4330 ;;		wreg, status,2, status,0
  4331 ;; Tracked objects:
  4332 ;;		On entry : 0/0
  4333 ;;		On exit  : 0/0
  4334 ;;		Unchanged: 0/0
  4335 ;; Data sizes:     COMMON   BANK0   BANK1   BANK2   BANK3   BANK4   BANK5   BANK6
  4336 ;;      Params:         0       0       0       0       0       0       0       0
  4337 ;;      Locals:         0       0       0       0       0       0       0       0
  4338 ;;      Temps:          0       0       0       0       0       0       0       0
  4339 ;;      Totals:         0       0       0       0       0       0       0       0
  4340 ;;Total ram usage:        0 bytes
  4341 ;; Hardware stack levels used: 1
  4342 ;; This function calls:
  4343 ;;		Nothing
  4344 ;; This function is called by:
  4345 ;;		_main
  4346 ;; This function uses a non-reentrant model
  4347 ;;
  4348                           
  4349  0194                     _LEDs_off:	
  4350                           ;psect for function _LEDs_off
  4351                           
  4352  0194                     l1826:	
  4353                           ;incstack = 0
  4354                           ; Regs used in _LEDs_off: [wreg+status,2+status,0]
  4355                           
  4356                           
  4357                           ;main.c: 201:         if((CMD[0]=='O')&&(CMD[1]=='F')&&(CMD[2]=='F')&&(CMD[3]=='0')&&(CM
      +                          D[4]=='1')&&(CMD[5]=='#')){
  4358  0194  304F               	movlw	79
  4359  0195  0020               	movlb	0	; select bank0
  4360  0196  0620               	xorwf	_CMD,w
  4361  0197  1D03               	btfss	3,2
  4362  0198  299A               	goto	u2951
  4363  0199  299B               	goto	u2950
  4364  019A                     u2951:
  4365  019A  29BB               	goto	l1840
  4366  019B                     u2950:
  4367  019B                     l1828:
  4368  019B  3046               	movlw	70
  4369  019C  0621               	xorwf	_CMD+1,w
  4370  019D  1D03               	btfss	3,2
  4371  019E  29A0               	goto	u2961
  4372  019F  29A1               	goto	u2960
  4373  01A0                     u2961:
  4374  01A0  29BB               	goto	l1840
  4375  01A1                     u2960:
  4376  01A1                     l1830:
  4377  01A1  3046               	movlw	70
  4378  01A2  0622               	xorwf	_CMD+2,w
  4379  01A3  1D03               	btfss	3,2
  4380  01A4  29A6               	goto	u2971
  4381  01A5  29A7               	goto	u2970
  4382  01A6                     u2971:
  4383  01A6  29BB               	goto	l1840
  4384  01A7                     u2970:
  4385  01A7                     l1832:
  4386  01A7  3030               	movlw	48
  4387  01A8  0623               	xorwf	_CMD+3,w
  4388  01A9  1D03               	btfss	3,2
  4389  01AA  29AC               	goto	u2981
  4390  01AB  29AD               	goto	u2980
  4391  01AC                     u2981:
  4392  01AC  29BB               	goto	l1840
  4393  01AD                     u2980:
  4394  01AD                     l1834:
  4395  01AD  3031               	movlw	49
  4396  01AE  0624               	xorwf	_CMD+4,w
  4397  01AF  1D03               	btfss	3,2
  4398  01B0  29B2               	goto	u2991
  4399  01B1  29B3               	goto	u2990
  4400  01B2                     u2991:
  4401  01B2  29BB               	goto	l1840
  4402  01B3                     u2990:
  4403  01B3                     l1836:
  4404  01B3  3023               	movlw	35
  4405  01B4  0625               	xorwf	_CMD+5,w
  4406  01B5  1D03               	btfss	3,2
  4407  01B6  29B8               	goto	u3001
  4408  01B7  29B9               	goto	u3000
  4409  01B8                     u3001:
  4410  01B8  29BB               	goto	l1840
  4411  01B9                     u3000:
  4412  01B9                     l1838:
  4413                           
  4414                           ;main.c: 202:             LATCbits.LATC0 = 0;
  4415  01B9  0022               	movlb	2	; select bank2
  4416  01BA  100E               	bcf	14,0	;volatile
  4417  01BB                     l1840:
  4418                           
  4419                           ;main.c: 206:         if((CMD[0]=='O')&&(CMD[1]=='F')&&(CMD[2]=='F')&&(CMD[3]=='0')&&(CM
      +                          D[4]=='2')&&(CMD[5]=='#')){
  4420  01BB  304F               	movlw	79
  4421  01BC  0020               	movlb	0	; select bank0
  4422  01BD  0620               	xorwf	_CMD,w
  4423  01BE  1D03               	btfss	3,2
  4424  01BF  29C1               	goto	u3011
  4425  01C0  29C2               	goto	u3010
  4426  01C1                     u3011:
  4427  01C1  29E2               	goto	l1854
  4428  01C2                     u3010:
  4429  01C2                     l1842:
  4430  01C2  3046               	movlw	70
  4431  01C3  0621               	xorwf	_CMD+1,w
  4432  01C4  1D03               	btfss	3,2
  4433  01C5  29C7               	goto	u3021
  4434  01C6  29C8               	goto	u3020
  4435  01C7                     u3021:
  4436  01C7  29E2               	goto	l1854
  4437  01C8                     u3020:
  4438  01C8                     l1844:
  4439  01C8  3046               	movlw	70
  4440  01C9  0622               	xorwf	_CMD+2,w
  4441  01CA  1D03               	btfss	3,2
  4442  01CB  29CD               	goto	u3031
  4443  01CC  29CE               	goto	u3030
  4444  01CD                     u3031:
  4445  01CD  29E2               	goto	l1854
  4446  01CE                     u3030:
  4447  01CE                     l1846:
  4448  01CE  3030               	movlw	48
  4449  01CF  0623               	xorwf	_CMD+3,w
  4450  01D0  1D03               	btfss	3,2
  4451  01D1  29D3               	goto	u3041
  4452  01D2  29D4               	goto	u3040
  4453  01D3                     u3041:
  4454  01D3  29E2               	goto	l1854
  4455  01D4                     u3040:
  4456  01D4                     l1848:
  4457  01D4  3032               	movlw	50
  4458  01D5  0624               	xorwf	_CMD+4,w
  4459  01D6  1D03               	btfss	3,2
  4460  01D7  29D9               	goto	u3051
  4461  01D8  29DA               	goto	u3050
  4462  01D9                     u3051:
  4463  01D9  29E2               	goto	l1854
  4464  01DA                     u3050:
  4465  01DA                     l1850:
  4466  01DA  3023               	movlw	35
  4467  01DB  0625               	xorwf	_CMD+5,w
  4468  01DC  1D03               	btfss	3,2
  4469  01DD  29DF               	goto	u3061
  4470  01DE  29E0               	goto	u3060
  4471  01DF                     u3061:
  4472  01DF  29E2               	goto	l1854
  4473  01E0                     u3060:
  4474  01E0                     l1852:
  4475                           
  4476                           ;main.c: 207:             LATCbits.LATC1 = 0;
  4477  01E0  0022               	movlb	2	; select bank2
  4478  01E1  108E               	bcf	14,1	;volatile
  4479  01E2                     l1854:
  4480                           
  4481                           ;main.c: 211:         if((CMD[0]=='O')&&(CMD[1]=='F')&&(CMD[2]=='F')&&(CMD[3]=='0')&&(CM
      +                          D[4]=='3')&&(CMD[5]=='#')){
  4482  01E2  304F               	movlw	79
  4483  01E3  0020               	movlb	0	; select bank0
  4484  01E4  0620               	xorwf	_CMD,w
  4485  01E5  1D03               	btfss	3,2
  4486  01E6  29E8               	goto	u3071
  4487  01E7  29E9               	goto	u3070
  4488  01E8                     u3071:
  4489  01E8  2A09               	goto	l1868
  4490  01E9                     u3070:
  4491  01E9                     l1856:
  4492  01E9  3046               	movlw	70
  4493  01EA  0621               	xorwf	_CMD+1,w
  4494  01EB  1D03               	btfss	3,2
  4495  01EC  29EE               	goto	u3081
  4496  01ED  29EF               	goto	u3080
  4497  01EE                     u3081:
  4498  01EE  2A09               	goto	l1868
  4499  01EF                     u3080:
  4500  01EF                     l1858:
  4501  01EF  3046               	movlw	70
  4502  01F0  0622               	xorwf	_CMD+2,w
  4503  01F1  1D03               	btfss	3,2
  4504  01F2  29F4               	goto	u3091
  4505  01F3  29F5               	goto	u3090
  4506  01F4                     u3091:
  4507  01F4  2A09               	goto	l1868
  4508  01F5                     u3090:
  4509  01F5                     l1860:
  4510  01F5  3030               	movlw	48
  4511  01F6  0623               	xorwf	_CMD+3,w
  4512  01F7  1D03               	btfss	3,2
  4513  01F8  29FA               	goto	u3101
  4514  01F9  29FB               	goto	u3100
  4515  01FA                     u3101:
  4516  01FA  2A09               	goto	l1868
  4517  01FB                     u3100:
  4518  01FB                     l1862:
  4519  01FB  3033               	movlw	51
  4520  01FC  0624               	xorwf	_CMD+4,w
  4521  01FD  1D03               	btfss	3,2
  4522  01FE  2A00               	goto	u3111
  4523  01FF  2A01               	goto	u3110
  4524  0200                     u3111:
  4525  0200  2A09               	goto	l1868
  4526  0201                     u3110:
  4527  0201                     l1864:
  4528  0201  3023               	movlw	35
  4529  0202  0625               	xorwf	_CMD+5,w
  4530  0203  1D03               	btfss	3,2
  4531  0204  2A06               	goto	u3121
  4532  0205  2A07               	goto	u3120
  4533  0206                     u3121:
  4534  0206  2A09               	goto	l1868
  4535  0207                     u3120:
  4536  0207                     l1866:
  4537                           
  4538                           ;main.c: 212:             LATCbits.LATC2 = 0;
  4539  0207  0022               	movlb	2	; select bank2
  4540  0208  110E               	bcf	14,2	;volatile
  4541  0209                     l1868:
  4542                           
  4543                           ;main.c: 216:         if((CMD[0]=='O')&&(CMD[1]=='F')&&(CMD[2]=='F')&&(CMD[3]=='0')&&(CM
      +                          D[4]=='4')&&(CMD[5]=='#')){
  4544  0209  304F               	movlw	79
  4545  020A  0020               	movlb	0	; select bank0
  4546  020B  0620               	xorwf	_CMD,w
  4547  020C  1D03               	btfss	3,2
  4548  020D  2A0F               	goto	u3131
  4549  020E  2A10               	goto	u3130
  4550  020F                     u3131:
  4551  020F  2A30               	goto	l1882
  4552  0210                     u3130:
  4553  0210                     l1870:
  4554  0210  3046               	movlw	70
  4555  0211  0621               	xorwf	_CMD+1,w
  4556  0212  1D03               	btfss	3,2
  4557  0213  2A15               	goto	u3141
  4558  0214  2A16               	goto	u3140
  4559  0215                     u3141:
  4560  0215  2A30               	goto	l1882
  4561  0216                     u3140:
  4562  0216                     l1872:
  4563  0216  3046               	movlw	70
  4564  0217  0622               	xorwf	_CMD+2,w
  4565  0218  1D03               	btfss	3,2
  4566  0219  2A1B               	goto	u3151
  4567  021A  2A1C               	goto	u3150
  4568  021B                     u3151:
  4569  021B  2A30               	goto	l1882
  4570  021C                     u3150:
  4571  021C                     l1874:
  4572  021C  3030               	movlw	48
  4573  021D  0623               	xorwf	_CMD+3,w
  4574  021E  1D03               	btfss	3,2
  4575  021F  2A21               	goto	u3161
  4576  0220  2A22               	goto	u3160
  4577  0221                     u3161:
  4578  0221  2A30               	goto	l1882
  4579  0222                     u3160:
  4580  0222                     l1876:
  4581  0222  3034               	movlw	52
  4582  0223  0624               	xorwf	_CMD+4,w
  4583  0224  1D03               	btfss	3,2
  4584  0225  2A27               	goto	u3171
  4585  0226  2A28               	goto	u3170
  4586  0227                     u3171:
  4587  0227  2A30               	goto	l1882
  4588  0228                     u3170:
  4589  0228                     l1878:
  4590  0228  3023               	movlw	35
  4591  0229  0625               	xorwf	_CMD+5,w
  4592  022A  1D03               	btfss	3,2
  4593  022B  2A2D               	goto	u3181
  4594  022C  2A2E               	goto	u3180
  4595  022D                     u3181:
  4596  022D  2A30               	goto	l1882
  4597  022E                     u3180:
  4598  022E                     l1880:
  4599                           
  4600                           ;main.c: 217:             LATCbits.LATC3 = 0;
  4601  022E  0022               	movlb	2	; select bank2
  4602  022F  118E               	bcf	14,3	;volatile
  4603  0230                     l1882:
  4604                           
  4605                           ;main.c: 221:         if((CMD[0]=='O')&&(CMD[1]=='F')&&(CMD[2]=='F')&&(CMD[3]=='0')&&(CM
      +                          D[4]=='5')&&(CMD[5]=='#')){
  4606  0230  304F               	movlw	79
  4607  0231  0020               	movlb	0	; select bank0
  4608  0232  0620               	xorwf	_CMD,w
  4609  0233  1D03               	btfss	3,2
  4610  0234  2A36               	goto	u3191
  4611  0235  2A37               	goto	u3190
  4612  0236                     u3191:
  4613  0236  2A57               	goto	l1896
  4614  0237                     u3190:
  4615  0237                     l1884:
  4616  0237  3046               	movlw	70
  4617  0238  0621               	xorwf	_CMD+1,w
  4618  0239  1D03               	btfss	3,2
  4619  023A  2A3C               	goto	u3201
  4620  023B  2A3D               	goto	u3200
  4621  023C                     u3201:
  4622  023C  2A57               	goto	l1896
  4623  023D                     u3200:
  4624  023D                     l1886:
  4625  023D  3046               	movlw	70
  4626  023E  0622               	xorwf	_CMD+2,w
  4627  023F  1D03               	btfss	3,2
  4628  0240  2A42               	goto	u3211
  4629  0241  2A43               	goto	u3210
  4630  0242                     u3211:
  4631  0242  2A57               	goto	l1896
  4632  0243                     u3210:
  4633  0243                     l1888:
  4634  0243  3030               	movlw	48
  4635  0244  0623               	xorwf	_CMD+3,w
  4636  0245  1D03               	btfss	3,2
  4637  0246  2A48               	goto	u3221
  4638  0247  2A49               	goto	u3220
  4639  0248                     u3221:
  4640  0248  2A57               	goto	l1896
  4641  0249                     u3220:
  4642  0249                     l1890:
  4643  0249  3035               	movlw	53
  4644  024A  0624               	xorwf	_CMD+4,w
  4645  024B  1D03               	btfss	3,2
  4646  024C  2A4E               	goto	u3231
  4647  024D  2A4F               	goto	u3230
  4648  024E                     u3231:
  4649  024E  2A57               	goto	l1896
  4650  024F                     u3230:
  4651  024F                     l1892:
  4652  024F  3023               	movlw	35
  4653  0250  0625               	xorwf	_CMD+5,w
  4654  0251  1D03               	btfss	3,2
  4655  0252  2A54               	goto	u3241
  4656  0253  2A55               	goto	u3240
  4657  0254                     u3241:
  4658  0254  2A57               	goto	l1896
  4659  0255                     u3240:
  4660  0255                     l1894:
  4661                           
  4662                           ;main.c: 222:             LATCbits.LATC4 = 0;
  4663  0255  0022               	movlb	2	; select bank2
  4664  0256  120E               	bcf	14,4	;volatile
  4665  0257                     l1896:
  4666                           
  4667                           ;main.c: 226:         if((CMD[0]=='O')&&(CMD[1]=='F')&&(CMD[2]=='F')&&(CMD[3]=='0')&&(CM
      +                          D[4]=='6')&&(CMD[5]=='#')){
  4668  0257  304F               	movlw	79
  4669  0258  0020               	movlb	0	; select bank0
  4670  0259  0620               	xorwf	_CMD,w
  4671  025A  1D03               	btfss	3,2
  4672  025B  2A5D               	goto	u3251
  4673  025C  2A5E               	goto	u3250
  4674  025D                     u3251:
  4675  025D  2A7E               	goto	l1910
  4676  025E                     u3250:
  4677  025E                     l1898:
  4678  025E  3046               	movlw	70
  4679  025F  0621               	xorwf	_CMD+1,w
  4680  0260  1D03               	btfss	3,2
  4681  0261  2A63               	goto	u3261
  4682  0262  2A64               	goto	u3260
  4683  0263                     u3261:
  4684  0263  2A7E               	goto	l1910
  4685  0264                     u3260:
  4686  0264                     l1900:
  4687  0264  3046               	movlw	70
  4688  0265  0622               	xorwf	_CMD+2,w
  4689  0266  1D03               	btfss	3,2
  4690  0267  2A69               	goto	u3271
  4691  0268  2A6A               	goto	u3270
  4692  0269                     u3271:
  4693  0269  2A7E               	goto	l1910
  4694  026A                     u3270:
  4695  026A                     l1902:
  4696  026A  3030               	movlw	48
  4697  026B  0623               	xorwf	_CMD+3,w
  4698  026C  1D03               	btfss	3,2
  4699  026D  2A6F               	goto	u3281
  4700  026E  2A70               	goto	u3280
  4701  026F                     u3281:
  4702  026F  2A7E               	goto	l1910
  4703  0270                     u3280:
  4704  0270                     l1904:
  4705  0270  3036               	movlw	54
  4706  0271  0624               	xorwf	_CMD+4,w
  4707  0272  1D03               	btfss	3,2
  4708  0273  2A75               	goto	u3291
  4709  0274  2A76               	goto	u3290
  4710  0275                     u3291:
  4711  0275  2A7E               	goto	l1910
  4712  0276                     u3290:
  4713  0276                     l1906:
  4714  0276  3023               	movlw	35
  4715  0277  0625               	xorwf	_CMD+5,w
  4716  0278  1D03               	btfss	3,2
  4717  0279  2A7B               	goto	u3301
  4718  027A  2A7C               	goto	u3300
  4719  027B                     u3301:
  4720  027B  2A7E               	goto	l1910
  4721  027C                     u3300:
  4722  027C                     l1908:
  4723                           
  4724                           ;main.c: 227:             LATCbits.LATC5 = 0;
  4725  027C  0022               	movlb	2	; select bank2
  4726  027D  128E               	bcf	14,5	;volatile
  4727  027E                     l1910:
  4728                           
  4729                           ;main.c: 231:         if((CMD[0]=='O')&&(CMD[1]=='F')&&(CMD[2]=='F')&&(CMD[3]=='0')&&(CM
      +                          D[4]=='7')&&(CMD[5]=='#')){
  4730  027E  304F               	movlw	79
  4731  027F  0020               	movlb	0	; select bank0
  4732  0280  0620               	xorwf	_CMD,w
  4733  0281  1D03               	btfss	3,2
  4734  0282  2A84               	goto	u3311
  4735  0283  2A85               	goto	u3310
  4736  0284                     u3311:
  4737  0284  2AA5               	goto	l1924
  4738  0285                     u3310:
  4739  0285                     l1912:
  4740  0285  3046               	movlw	70
  4741  0286  0621               	xorwf	_CMD+1,w
  4742  0287  1D03               	btfss	3,2
  4743  0288  2A8A               	goto	u3321
  4744  0289  2A8B               	goto	u3320
  4745  028A                     u3321:
  4746  028A  2AA5               	goto	l1924
  4747  028B                     u3320:
  4748  028B                     l1914:
  4749  028B  3046               	movlw	70
  4750  028C  0622               	xorwf	_CMD+2,w
  4751  028D  1D03               	btfss	3,2
  4752  028E  2A90               	goto	u3331
  4753  028F  2A91               	goto	u3330
  4754  0290                     u3331:
  4755  0290  2AA5               	goto	l1924
  4756  0291                     u3330:
  4757  0291                     l1916:
  4758  0291  3030               	movlw	48
  4759  0292  0623               	xorwf	_CMD+3,w
  4760  0293  1D03               	btfss	3,2
  4761  0294  2A96               	goto	u3341
  4762  0295  2A97               	goto	u3340
  4763  0296                     u3341:
  4764  0296  2AA5               	goto	l1924
  4765  0297                     u3340:
  4766  0297                     l1918:
  4767  0297  3037               	movlw	55
  4768  0298  0624               	xorwf	_CMD+4,w
  4769  0299  1D03               	btfss	3,2
  4770  029A  2A9C               	goto	u3351
  4771  029B  2A9D               	goto	u3350
  4772  029C                     u3351:
  4773  029C  2AA5               	goto	l1924
  4774  029D                     u3350:
  4775  029D                     l1920:
  4776  029D  3023               	movlw	35
  4777  029E  0625               	xorwf	_CMD+5,w
  4778  029F  1D03               	btfss	3,2
  4779  02A0  2AA2               	goto	u3361
  4780  02A1  2AA3               	goto	u3360
  4781  02A2                     u3361:
  4782  02A2  2AA5               	goto	l1924
  4783  02A3                     u3360:
  4784  02A3                     l1922:
  4785                           
  4786                           ;main.c: 232:             LATCbits.LATC6 = 0;
  4787  02A3  0022               	movlb	2	; select bank2
  4788  02A4  130E               	bcf	14,6	;volatile
  4789  02A5                     l1924:
  4790                           
  4791                           ;main.c: 236:         if((CMD[0]=='O')&&(CMD[1]=='F')&&(CMD[2]=='F')&&(CMD[3]=='0')&&(CM
      +                          D[4]=='8')&&(CMD[5]=='#')){
  4792  02A5  304F               	movlw	79
  4793  02A6  0020               	movlb	0	; select bank0
  4794  02A7  0620               	xorwf	_CMD,w
  4795  02A8  1D03               	btfss	3,2
  4796  02A9  2AAB               	goto	u3371
  4797  02AA  2AAC               	goto	u3370
  4798  02AB                     u3371:
  4799  02AB  2ACC               	goto	l1938
  4800  02AC                     u3370:
  4801  02AC                     l1926:
  4802  02AC  3046               	movlw	70
  4803  02AD  0621               	xorwf	_CMD+1,w
  4804  02AE  1D03               	btfss	3,2
  4805  02AF  2AB1               	goto	u3381
  4806  02B0  2AB2               	goto	u3380
  4807  02B1                     u3381:
  4808  02B1  2ACC               	goto	l1938
  4809  02B2                     u3380:
  4810  02B2                     l1928:
  4811  02B2  3046               	movlw	70
  4812  02B3  0622               	xorwf	_CMD+2,w
  4813  02B4  1D03               	btfss	3,2
  4814  02B5  2AB7               	goto	u3391
  4815  02B6  2AB8               	goto	u3390
  4816  02B7                     u3391:
  4817  02B7  2ACC               	goto	l1938
  4818  02B8                     u3390:
  4819  02B8                     l1930:
  4820  02B8  3030               	movlw	48
  4821  02B9  0623               	xorwf	_CMD+3,w
  4822  02BA  1D03               	btfss	3,2
  4823  02BB  2ABD               	goto	u3401
  4824  02BC  2ABE               	goto	u3400
  4825  02BD                     u3401:
  4826  02BD  2ACC               	goto	l1938
  4827  02BE                     u3400:
  4828  02BE                     l1932:
  4829  02BE  3038               	movlw	56
  4830  02BF  0624               	xorwf	_CMD+4,w
  4831  02C0  1D03               	btfss	3,2
  4832  02C1  2AC3               	goto	u3411
  4833  02C2  2AC4               	goto	u3410
  4834  02C3                     u3411:
  4835  02C3  2ACC               	goto	l1938
  4836  02C4                     u3410:
  4837  02C4                     l1934:
  4838  02C4  3023               	movlw	35
  4839  02C5  0625               	xorwf	_CMD+5,w
  4840  02C6  1D03               	btfss	3,2
  4841  02C7  2AC9               	goto	u3421
  4842  02C8  2ACA               	goto	u3420
  4843  02C9                     u3421:
  4844  02C9  2ACC               	goto	l1938
  4845  02CA                     u3420:
  4846  02CA                     l1936:
  4847                           
  4848                           ;main.c: 237:             LATCbits.LATC7 = 0;
  4849  02CA  0022               	movlb	2	; select bank2
  4850  02CB  138E               	bcf	14,7	;volatile
  4851  02CC                     l1938:
  4852                           
  4853                           ;main.c: 242:         if((CMD[0]=='O')&&(CMD[1]=='F')&&(CMD[2]=='F')&&(CMD[3]=='*')&&(CM
      +                          D[4]=='#')){
  4854  02CC  304F               	movlw	79
  4855  02CD  0020               	movlb	0	; select bank0
  4856  02CE  0620               	xorwf	_CMD,w
  4857  02CF  1D03               	btfss	3,2
  4858  02D0  2AD2               	goto	u3431
  4859  02D1  2AD3               	goto	u3430
  4860  02D2                     u3431:
  4861  02D2  2AED               	goto	l139
  4862  02D3                     u3430:
  4863  02D3                     l1940:
  4864  02D3  3046               	movlw	70
  4865  02D4  0621               	xorwf	_CMD+1,w
  4866  02D5  1D03               	btfss	3,2
  4867  02D6  2AD8               	goto	u3441
  4868  02D7  2AD9               	goto	u3440
  4869  02D8                     u3441:
  4870  02D8  2AED               	goto	l139
  4871  02D9                     u3440:
  4872  02D9                     l1942:
  4873  02D9  3046               	movlw	70
  4874  02DA  0622               	xorwf	_CMD+2,w
  4875  02DB  1D03               	btfss	3,2
  4876  02DC  2ADE               	goto	u3451
  4877  02DD  2ADF               	goto	u3450
  4878  02DE                     u3451:
  4879  02DE  2AED               	goto	l139
  4880  02DF                     u3450:
  4881  02DF                     l1944:
  4882  02DF  302A               	movlw	42
  4883  02E0  0623               	xorwf	_CMD+3,w
  4884  02E1  1D03               	btfss	3,2
  4885  02E2  2AE4               	goto	u3461
  4886  02E3  2AE5               	goto	u3460
  4887  02E4                     u3461:
  4888  02E4  2AED               	goto	l139
  4889  02E5                     u3460:
  4890  02E5                     l1946:
  4891  02E5  3023               	movlw	35
  4892  02E6  0624               	xorwf	_CMD+4,w
  4893  02E7  1D03               	btfss	3,2
  4894  02E8  2AEA               	goto	u3471
  4895  02E9  2AEB               	goto	u3470
  4896  02EA                     u3471:
  4897  02EA  2AED               	goto	l139
  4898  02EB                     u3470:
  4899  02EB                     l1948:
  4900                           
  4901                           ;main.c: 243:             LATC = 0x00;
  4902  02EB  0022               	movlb	2	; select bank2
  4903  02EC  018E               	clrf	14	;volatile
  4904  02ED                     l139:
  4905  02ED  0008               	return
  4906  02EE                     __end_of_LEDs_off:
  4907                           
  4908                           	psect	text13
  4909  0F81                     __ptext13:	
  4910 ;; *************** function _EUSART_is_rx_ready *****************
  4911 ;; Defined at:
  4912 ;;		line 99 in file "mcc_generated_files/eusart.c"
  4913 ;; Parameters:    Size  Location     Type
  4914 ;;		None
  4915 ;; Auto vars:     Size  Location     Type
  4916 ;;		None
  4917 ;; Return value:  Size  Location     Type
  4918 ;;                  1    wreg      _Bool 
  4919 ;; Registers used:
  4920 ;;		wreg, status,2, status,0
  4921 ;; Tracked objects:
  4922 ;;		On entry : 0/0
  4923 ;;		On exit  : 0/0
  4924 ;;		Unchanged: 0/0
  4925 ;; Data sizes:     COMMON   BANK0   BANK1   BANK2   BANK3   BANK4   BANK5   BANK6
  4926 ;;      Params:         0       0       0       0       0       0       0       0
  4927 ;;      Locals:         0       0       0       0       0       0       0       0
  4928 ;;      Temps:          0       0       0       0       0       0       0       0
  4929 ;;      Totals:         0       0       0       0       0       0       0       0
  4930 ;;Total ram usage:        0 bytes
  4931 ;; Hardware stack levels used: 1
  4932 ;; This function calls:
  4933 ;;		Nothing
  4934 ;; This function is called by:
  4935 ;;		_main
  4936 ;; This function uses a non-reentrant model
  4937 ;;
  4938                           
  4939  0F81                     _EUSART_is_rx_ready:	
  4940                           ;psect for function _EUSART_is_rx_ready
  4941                           
  4942  0F81                     l1656:	
  4943                           ;incstack = 0
  4944                           ; Regs used in _EUSART_is_rx_ready: [wreg+status,2+status,0]
  4945                           
  4946                           
  4947                           ;mcc_generated_files/eusart.c: 101:     return (_Bool)(PIR1bits.RCIF);
  4948  0F81  0020               	movlb	0	; select bank0
  4949  0F82  0E11               	swapf	17,w	;volatile
  4950  0F83  0C89               	rrf	9,f
  4951  0F84  3901               	andlw	1
  4952  0F85                     l51:
  4953  0F85  0008               	return
  4954  0F86                     __end_of_EUSART_is_rx_ready:
  4955  007E                     btemp	set	126	;btemp
  4956  007E                     wtemp0	set	126
  4957                           
  4958                           	psect	idloc
  4959                           
  4960                           ;Config register IDLOC0 @ 0x8000
  4961                           ;	unspecified, using default values
  4962  8000                     	org	32768
  4963  8000  3FFF               	dw	16383
  4964                           
  4965                           ;Config register IDLOC1 @ 0x8001
  4966                           ;	unspecified, using default values
  4967  8001                     	org	32769
  4968  8001  3FFF               	dw	16383
  4969                           
  4970                           ;Config register IDLOC2 @ 0x8002
  4971                           ;	unspecified, using default values
  4972  8002                     	org	32770
  4973  8002  3FFF               	dw	16383
  4974                           
  4975                           ;Config register IDLOC3 @ 0x8003
  4976                           ;	unspecified, using default values
  4977  8003                     	org	32771
  4978  8003  3FFF               	dw	16383
  4979                           
  4980                           	psect	config
  4981                           
  4982                           ;Config register CONFIG1 @ 0x8007
  4983                           ;	Oscillator Selection Bits
  4984                           ;	FOSC = INTOSC, INTOSC oscillator: I/O function on CLKIN pin
  4985                           ;	Watchdog Timer Enable
  4986                           ;	WDTE = OFF, WDT disabled
  4987                           ;	Power-up Timer Enable
  4988                           ;	PWRTE = OFF, PWRT disabled
  4989                           ;	MCLR Pin Function Select
  4990                           ;	MCLRE = ON, MCLR/VPP pin function is MCLR
  4991                           ;	Flash Program Memory Code Protection
  4992                           ;	CP = OFF, Program memory code protection is disabled
  4993                           ;	Brown-out Reset Enable
  4994                           ;	BOREN = ON, Brown-out Reset enabled
  4995                           ;	Clock Out Enable
  4996                           ;	CLKOUTEN = OFF, CLKOUT function is disabled. I/O or oscillator function on the CLKOUT 
      +                          pin
  4997                           ;	Internal/External Switchover Mode
  4998                           ;	IESO = ON, Internal/External Switchover Mode is enabled
  4999                           ;	Fail-Safe Clock Monitor Enable
  5000                           ;	FCMEN = ON, Fail-Safe Clock Monitor is enabled
  5001  8007                     	org	32775
  5002  8007  3FE4               	dw	16356
  5003                           
  5004                           ;Config register CONFIG2 @ 0x8008
  5005                           ;	Flash Memory Self-Write Protection
  5006                           ;	WRT = OFF, Write protection off
  5007                           ;	Stack Overflow/Underflow Reset Enable
  5008                           ;	STVREN = ON, Stack Overflow or Underflow will cause a Reset
  5009                           ;	Brown-out Reset Voltage Selection
  5010                           ;	BORV = LO, Brown-out Reset Voltage (Vbor), low trip point selected.
  5011                           ;	Low-Power Brown Out Reset
  5012                           ;	LPBOR = OFF, Low-Power BOR is disabled
  5013                           ;	Low-Voltage Programming Enable
  5014                           ;	LVP = ON, Low-voltage programming enabled
  5015  8008                     	org	32776
  5016  8008  3FFF               	dw	16383

Data Sizes:
    Strings     0
    Constant    0
    Data        0
    BSS         11
    Persistent  38
    Stack       0

Auto Spaces:
    Space          Size  Autos    Used
    COMMON           14      6      13
    BANK0            80      0      10
    BANK1            80      0       0
    BANK2            80      0       0
    BANK3            80      0       0
    BANK4            80      0       0
    BANK5            80      0       0
    BANK6            16      0       0

Pointer List with Targets:

    EUSART_SetErrorHandler@interruptHandler	PTR FTN()void  size(2) Largest target is 1
		 -> EUSART_DefaultErrorHandler(), 

    EUSART_ErrorHandler	PTR FTN()void  size(2) Largest target is 1
		 -> Absolute function(), EUSART_DefaultErrorHandler(), 

    EUSART_SetOverrunErrorHandler@interruptHandler	PTR FTN()void  size(2) Largest target is 1
		 -> EUSART_DefaultOverrunErrorHandler(), 

    EUSART_OverrunErrorHandler	PTR FTN()void  size(2) Largest target is 1
		 -> Absolute function(), EUSART_DefaultOverrunErrorHandler(), 

    EUSART_SetFramingErrorHandler@interruptHandler	PTR FTN()void  size(2) Largest target is 1
		 -> EUSART_DefaultFramingErrorHandler(), 

    EUSART_FramingErrorHandler	PTR FTN()void  size(2) Largest target is 1
		 -> Absolute function(), EUSART_DefaultFramingErrorHandler(), 


Critical Paths under _main in COMMON

    _main->_USART_read
    _EUSART_Initialize->_EUSART_SetErrorHandler
    _EUSART_Initialize->_EUSART_SetFramingErrorHandler
    _EUSART_Initialize->_EUSART_SetOverrunErrorHandler

Critical Paths under _main in BANK0

    None.

Critical Paths under _main in BANK1

    None.

Critical Paths under _main in BANK2

    None.

Critical Paths under _main in BANK3

    None.

Critical Paths under _main in BANK4

    None.

Critical Paths under _main in BANK5

    None.

Critical Paths under _main in BANK6

    None.

Call Graph Tables:

 ---------------------------------------------------------------------------------
 (Depth) Function   	        Calls       Base Space   Used Autos Params    Refs
 ---------------------------------------------------------------------------------
 (0) _main                                                 5     5      0    1649
                                              3 COMMON     3     3      0
                 _EUSART_is_rx_ready
                           _LEDs_off
                            _LEDs_on
                  _SYSTEM_Initialize
                         _USART_read
 ---------------------------------------------------------------------------------
 (1) _USART_read                                           3     3      0     138
                                              0 COMMON     3     3      0
                        _EUSART_Read
 ---------------------------------------------------------------------------------
 (2) _EUSART_Read                                          0     0      0       0
 ---------------------------------------------------------------------------------
 (1) _SYSTEM_Initialize                                    0     0      0     294
                  _EUSART_Initialize
              _OSCILLATOR_Initialize
             _PIN_MANAGER_Initialize
                     _WDT_Initialize
 ---------------------------------------------------------------------------------
 (2) _WDT_Initialize                                       0     0      0       0
 ---------------------------------------------------------------------------------
 (2) _PIN_MANAGER_Initialize                               0     0      0       0
 ---------------------------------------------------------------------------------
 (2) _OSCILLATOR_Initialize                                0     0      0       0
 ---------------------------------------------------------------------------------
 (2) _EUSART_Initialize                                    0     0      0     294
             _EUSART_SetErrorHandler
      _EUSART_SetFramingErrorHandler
      _EUSART_SetOverrunErrorHandler
 ---------------------------------------------------------------------------------
 (3) _EUSART_SetOverrunErrorHandler                        2     0      2      98
                                              0 COMMON     2     0      2
 ---------------------------------------------------------------------------------
 (3) _EUSART_SetFramingErrorHandler                        2     0      2      98
                                              0 COMMON     2     0      2
 ---------------------------------------------------------------------------------
 (3) _EUSART_SetErrorHandler                               2     0      2      98
                                              0 COMMON     2     0      2
 ---------------------------------------------------------------------------------
 (1) _LEDs_on                                              0     0      0       0
 ---------------------------------------------------------------------------------
 (1) _LEDs_off                                             0     0      0       0
 ---------------------------------------------------------------------------------
 (1) _EUSART_is_rx_ready                                   0     0      0       0
 ---------------------------------------------------------------------------------
 Estimated maximum stack depth 3
 ---------------------------------------------------------------------------------

 Call Graph Graphs:

 _main (ROOT)
   _EUSART_is_rx_ready
   _LEDs_off
   _LEDs_on
   _SYSTEM_Initialize
     _EUSART_Initialize
       _EUSART_SetErrorHandler
       _EUSART_SetFramingErrorHandler
       _EUSART_SetOverrunErrorHandler
     _OSCILLATOR_Initialize
     _PIN_MANAGER_Initialize
     _WDT_Initialize
   _USART_read
     _EUSART_Read

 Address spaces:
Name               Size   Autos  Total    Cost      Usage
BIGRAM             1F0      0       0       0        0.0%
NULL                 0      0       0       0        0.0%
CODE                 0      0       0       0        0.0%
BITCOMMON            E      0       0       1        0.0%
BITSFR0              0      0       0       1        0.0%
SFR0                 0      0       0       1        0.0%
COMMON               E      6       D       2       92.9%
BITSFR1              0      0       0       2        0.0%
SFR1                 0      0       0       2        0.0%
BITSFR2              0      0       0       3        0.0%
SFR2                 0      0       0       3        0.0%
STACK                0      0       0       3        0.0%
BITSFR3              0      0       0       4        0.0%
SFR3                 0      0       0       4        0.0%
ABS                  0      0      17       4        0.0%
BITBANK0            50      0       0       5        0.0%
BITSFR4              0      0       0       5        0.0%
SFR4                 0      0       0       5        0.0%
BANK0               50      0       A       6       12.5%
BITSFR5              0      0       0       6        0.0%
SFR5                 0      0       0       6        0.0%
BITBANK1            50      0       0       7        0.0%
BITSFR6              0      0       0       7        0.0%
SFR6                 0      0       0       7        0.0%
BANK1               50      0       0       8        0.0%
BITSFR7              0      0       0       8        0.0%
SFR7                 0      0       0       8        0.0%
BITBANK2            50      0       0       9        0.0%
BITSFR8              0      0       0       9        0.0%
SFR8                 0      0       0       9        0.0%
BANK2               50      0       0      10        0.0%
BITSFR9              0      0       0      10        0.0%
SFR9                 0      0       0      10        0.0%
BITBANK3            50      0       0      11        0.0%
BITSFR10             0      0       0      11        0.0%
SFR10                0      0       0      11        0.0%
BANK3               50      0       0      12        0.0%
BITSFR11             0      0       0      12        0.0%
SFR11                0      0       0      12        0.0%
BITBANK4            50      0       0      13        0.0%
BITSFR12             0      0       0      13        0.0%
SFR12                0      0       0      13        0.0%
BANK4               50      0       0      14        0.0%
BITSFR13             0      0       0      14        0.0%
SFR13                0      0       0      14        0.0%
BITBANK5            50      0       0      15        0.0%
BITSFR14             0      0       0      15        0.0%
SFR14                0      0       0      15        0.0%
BANK5               50      0       0      16        0.0%
BITSFR15             0      0       0      16        0.0%
SFR15                0      0       0      16        0.0%
BITBANK6            10      0       0      17        0.0%
BITSFR16             0      0       0      17        0.0%
SFR16                0      0       0      17        0.0%
BANK6               10      0       0      18        0.0%
BITSFR17             0      0       0      18        0.0%
SFR17                0      0       0      18        0.0%
BITSFR18             0      0       0      19        0.0%
SFR18                0      0       0      19        0.0%
DATA                 0      0      17      19        0.0%
BITSFR19             0      0       0      20        0.0%
SFR19                0      0       0      20        0.0%
BITSFR20             0      0       0      21        0.0%
SFR20                0      0       0      21        0.0%
BITSFR21             0      0       0      22        0.0%
SFR21                0      0       0      22        0.0%
BITSFR22             0      0       0      23        0.0%
SFR22                0      0       0      23        0.0%
BITSFR23             0      0       0      24        0.0%
SFR23                0      0       0      24        0.0%
BITSFR24             0      0       0      25        0.0%
SFR24                0      0       0      25        0.0%
BITSFR25             0      0       0      26        0.0%
SFR25                0      0       0      26        0.0%
BITSFR26             0      0       0      27        0.0%
SFR26                0      0       0      27        0.0%
BITSFR27             0      0       0      28        0.0%
SFR27                0      0       0      28        0.0%
BITSFR28             0      0       0      29        0.0%
SFR28                0      0       0      29        0.0%
BITSFR29             0      0       0      30        0.0%
SFR29                0      0       0      30        0.0%
BITSFR30             0      0       0      31        0.0%
SFR30                0      0       0      31        0.0%
BITSFR31             0      0       0      32        0.0%
SFR31                0      0       0      32        0.0%


Microchip Technology PIC Macro Assembler V2.36 build 20220127204148 
Symbol Table                                                                                   Sun May 15 23:43:09 2022

                                           l51 0F85                                             l43 006E  
                                           l60 0028                                             l64 0036  
                                           l82 000F                                             l85 0014  
                                           l88 000A                                            l114 0193  
                                          l122 0FFF                                            l203 0793  
                                          l231 001A                                            l161 0451  
                                          l234 0F80                                            l154 03C5  
                                          l139 02ED                                            l147 0339  
                                          l228 0027                                            l182 05F5  
                                          l263 004D                                            l175 0569  
                                          l168 04DD                                            l196 070D  
                                          l189 0681                                            _CMD 0020  
               ?_EUSART_SetFramingErrorHandler 0076                                            wreg 0009  
                                 ?_EUSART_Read 0076                                           l2000 036B  
                                         l2010 037C                                           l2100 0486  
                                         l2020 039D                                           l2012 037F  
                                         l2004 036E                                           l2110 049B  
                                         l2102 048E                                           l2030 03BB  
                                         l2022 03A3                                           l2014 0383  
                                         l2006 0376                                           l2200 05A9  
                                         l2120 04C1                                           l2104 0491  
                                         l2112 04A8                                           l2040 03D6  
                                         l2032 03C1                                           l2024 03A9  
                                         l2008 0379                                           l2016 0390  
                                         l2210 05C7                                           l2202 05AC  
                                         l2122 04C7                                           l2114 04AF  
                                         l2106 0494                                           l2042 03D8  
                                         l2026 03AF                                           l2018 0397  
                                         l2300 06C7                                           l2220 05E5  
                                         l2212 05CD                                           l2204 05AF  
                                         l2140 04F5                                           l2124 04CD  
                                         l2116 04B5                                           l2108 0497  
                                         l2060 040B                                           l2052 03FA  
                                         l2044 03DD                                           l2028 03B5  
                                         l2310 06EB                                           l2302 06CB  
                                         l2230 05F9                                           l2222 05EB  
                                         l2214 05D3                                           l2206 05B3  
                                         l2150 051A                                           l2142 0502  
                                         l2134 04E1                                           l2126 04D3  
                                         l2118 04BB                                           l2070 042F  
                                         l2062 040F                                           l2054 0402  
                                         l2046 03EA                                           l2038 03C9  
                                         l2320 0709                                           l2312 06F1  
                                         l2304 06D8                                           l2240 0627  
                                         l2232 0606                                           l2224 05F1  
                                         l2216 05D9                                           l2208 05C0  
                                         l2152 051D                                           l2144 050F  
                                         l2136 04EE                                           l2128 04D9  
                                         l2160 0534                                           l2080 044D  
                                         l2072 0435                                           l2056 0405  
                                         l2048 03F7                                           l2064 041C  
                                         l1610 004E                                           l2330 0720  
                                         l2314 06F7                                           l2306 06DF  
                                         l2250 0638                                           l2234 0608  
                                         l2218 05DF                                           l2170 0553  
                                         l2162 053B                                           l2154 0520  
                                         l2138 04F0                                           l2090 0464  
                                         l2074 043B                                           l2066 0423  
                                         l2058 0408                                           l1700 00DF  
                                         l1604 000B                                           l1620 006D  
                                         l1612 0057                                           l2340 0742  
                                         l2332 0725                                           l2316 06FD  
                                         l2308 06E5                                           l2260 0659  
                                         l2252 063B                                           l2244 062A  
                                         l2236 060D                                           l2172 0559  
                                         l2164 0541                                           l2156 0523  
                                         l2148 0512                                           l2092 0469  
                                         l2076 0441                                           l2068 0429  
                                         l1710 00FA                                           l1702 00E5  
                                         l1606 0010                                           l1614 0058  
                                         l1630 0035                                           l1622 0028  
                                         l2350 0757                                           l2342 074A  
                                         l2334 0732                                           l2326 0711  
                                         l2318 0703                                           l2270 0677  
                                         l2262 065F                                           l2254 063F  
                                         l2246 0632                                           l2238 061A  
                                         l2190 058E                                           l2182 056D  
                                         l2174 055F                                           l2166 0547  
                                         l2158 0527                                           l2094 0476  
                                         l2086 0455                                           l2078 0447  
                                         l1712 0100                                           l1720 0114  
                                         l1704 00EB                                           l1608 0006  
                                         l1616 005F                                           l1640 0044  
                                         l1624 002D                                           l1800 0FCA  
                                         l2360 077D                                           l2344 074D  
                                         l2336 073F                                           l2328 071E  
                                         l2352 0764                                           l2280 0692  
                                         l2272 067D                                           l2264 0665  
                                         l2248 0635                                           l2256 064C  
                                         l2192 059B                                           l2184 057A  
                                         l2176 0565                                           l2168 054D  
                                         l2096 0483                                           l2088 0462  
                                         l1730 0133                                           l1722 011B  
                                         l1714 0106                                           l1706 00F1  
                                         l1618 0066                                           l1650 0015  
                                         l1642 0046                                           l1634 0037  
                                         l1626 002E                                           l1802 0FD0  
                                         l2362 0783                                           l2354 076B  
                                         l2346 0750                                           l2282 0694  
                                         l2266 066B                                           l2258 0653  
                                         l2186 057C                                           l1900 0264  
                                         l1740 014E                                           l1724 0121  
                                         l1732 0135                                           l1716 010C  
                                         l1708 00F3                                           l1660 006F  
                                         l1652 0018                                           l1644 0048  
                                         l1636 003B                                           l1628 0033  
                                         l1820 0FEC                                           l2380 07C6  
                                         l2372 0797                                           l2364 0789  
                                         l2356 0771                                           l2348 0753  
                                         l2292 06B6                                           l2284 0699  
                                         l2268 0671                                           l2196 059E  
                                         l2188 0581                                           l1902 026A  
                                         l1910 027E                                           l1830 01A1  
                                         l1750 0169                                           l1742 0154  
                                         l1734 013C                                           l1726 0127  
                                         l1718 0112                                           l1670 008E  
                                         l1662 0076                                           l1646 0049  
                                         l1638 003E                                           l1654 0F7D  
                                         l1806 0FD3                                           l2390 07DA  
                                         l2382 07C8                                           l2374 07A4  
                                         l2366 078F                                           l2358 0777  
                                         l2294 06BE                                           l2286 06A6  
                                         l2278 0685                                           l2198 05A6  
                                         l1656 0F81                                           l1920 029D  
                                         l1912 0285                                           l1904 0270  
                                         l1832 01A7                                           l1840 01BB  
                                         l1760 0184                                           l1752 016F  
                                         l1736 0142                                           l1744 0156  
                                         l1728 012D                                           l1680 00A9  
                                         l1664 007C                                           l1672 0090  
                                         l1648 004B                                           l1824 0FEE  
                                         l1808 0FD9                                           l1816 0FE0  
                                         l2392 07DD                                           l2384 07CC  
                                         l2376 07AC                                           l2296 06C1  
                                         l2288 06B3                                           l1930 02B8  
                                         l1922 02A3                                           l1914 028B  
                                         l1906 0276                                           l1850 01DA  
                                         l1842 01C2                                           l1834 01AD  
                                         l1826 0194                                           l1762 018A  
                                         l1754 0175                                           l1746 015D  
                                         l1738 0148                                           l1690 00C4  
                                         l1682 00AF                                           l1674 0097  
                                         l1666 0082                                           l1818 0FE6  
                                         l2394 07E1                                           l2386 07D4  
                                         l2378 07B9                                           l2298 06C4  
                                         l1940 02D3                                           l1932 02BE  
                                         l1916 0291                                           l1924 02A5  
                                         l1908 027C                                           l1860 01F5  
                                         l1852 01E0                                           l1844 01C8  
                                         l1836 01B3                                           l1828 019B  
                                         l1764 0190                                           l1748 0163  
                                         l1756 0177                                           l1692 00CA  
                                         l1676 009D                                           l1684 00B1  
                                         l1668 0088                                           l1772 0F8A  
                                         l2388 07D7                                           l1942 02D9  
                                         l1934 02C4                                           l1926 02AC  
                                         l1918 0297                                           l1870 0210  
                                         l1862 01FB                                           l1846 01CE  
                                         l1854 01E2                                           l1838 01B9  
                                         l1758 017E                                           l1694 00D0  
                                         l1686 00B8                                           l1678 00A3  
                                         l1950 001B                                           l1774 0F8F  
                                         l1766 0F86                                           l1944 02DF  
                                         l1936 02CA                                           l1928 02B2  
                                         l1880 022E                                           l1872 0216  
                                         l1864 0201                                           l1856 01E9  
                                         l1848 01D4                                           l1688 00BE  
                                         l1696 00D2                                           l1792 0FB9  
                                         l1784 0FA4                                           l1776 0F93  
                                         l1960 02F3                                           l1952 02EE  
                                         l1946 02E5                                           l1938 02CC  
                                         l1890 0249                                           l1874 021C  
                                         l1882 0230                                           l1866 0207  
                                         l1858 01EF                                           l1698 00D9  
                                         l1794 0FBF                                           l1786 0FAE  
                                         l1778 0FA0                                           l1970 030B  
                                         l1962 02FB                                           l1954 02F1  
                                         l1948 02EB                                           l1892 024F  
                                         l1884 0237                                           l1876 0222  
                                         l1868 0209                                           l1796 0FC5  
                                         l1788 0FB5                                           l1980 0329  
                                         l1972 0311                                           l1964 02FE  
                                         l1956 02F3                                           l1894 0255  
                                         l1886 023D                                           l1878 0228  
                                         l1990 033D                                           l1982 032F  
                                         l1974 0317                                           l1966 0301  
                                         l1958 02F3                                           l1888 0243  
                                         l1896 0257                                           l1992 034A  
                                         l1984 0335                                           l1976 031D  
                                         l1968 0304                                           l1898 025E  
                                         l1994 034C                                           l1978 0323  
                                         l1996 0351                                           l1998 035E  
                              __end_of_LEDs_on 0194                                           u3000 01B9  
                                         u3001 01B8                                           u3010 01C2  
                                         u3011 01C1                                           u3100 01FB  
                                         u3020 01C8                                           u3101 01FA  
                                         u3021 01C7                                           _LATA 010C  
                                         u3110 0201                                           u3030 01CE  
                                         _LATB 010D                                           u3111 0200  
                                         u3031 01CD                                           _LATC 010E  
                                         u3200 023D                                           u3120 0207  
                                         u3040 01D4                                           u2400 0033  
                                         u4000 04EE                                           u3201 023C  
                                         u3121 0206                                           u3041 01D3  
                                         u2401 0032                                           u4001 04ED  
                                         u3210 0243                                           u3130 0210  
                                         u3050 01DA                                           u2410 0076  
                                         u4010 0502                                           u3211 0242  
                                         u3131 020F                                           u3051 01D9  
                                         u2411 0075                                           u4011 0501  
                                         u3300 027C                                           u3220 0249  
                                         u3140 0216                                           u3060 01E0  
                                         u2500 00AF                                           u2420 007C  
                                         u4100 0559                                           u4020 050F  
                                         u3301 027B                                           u3221 0248  
                                         u3141 0215                                           u3061 01DF  
                                         u2501 00AE                                           u2421 007B  
                                         u4101 0558                                           u4021 050E  
                                         u4005 04EA                                           u3310 0285  
                                         u3230 024F                                           u3150 021C  
                                         u3070 01E9                                           u2510 00B8  
                                         u2430 0082                                           u4110 055F  
                                         u4030 051A                                           u3311 0284  
                                         u3231 024E                                           u3151 021B  
                                         u3071 01E8                                           u2511 00B7  
                                         u2431 0081                                           u4111 055E  
                                         u4031 0519                                           u4015 04FE  
                                         u3400 02BE                                           u3320 028B  
                                         u3240 0255                                           u3160 0222  
                                         u3080 01EF                                           u2600 00F1  
                                         u2520 00BE                                           u2440 0088  
                                         u4200 05CD                                           u4120 0565  
                                         u4040 0534                                           u3401 02BD  
                                         u3321 028A                                           u3241 0254  
                                         u3161 0221                                           u3081 01EE  
                                         u2601 00F0                                           u2521 00BD  
                                         u2441 0087                                           u4201 05CC  
                                         u4121 0564                                           u4041 0533  
                                         u4025 050B                                           u3410 02C4  
                                         u3330 0291                                           u3250 025E  
                                         u3170 0228                                           u3090 01F5  
                                         u2610 00FA                                           u2530 00C4  
                                         u2450 008E                                           u4210 05D3  
                                         u4130 056D                                           u4050 053B  
                                         u3411 02C3                                           u3331 0290  
                                         u3251 025D                                           u3171 0227  
                                         u3091 01F4                                           u2611 00F9  
                                         u2531 00C3                                           u2451 008D  
                                         u4211 05D2                                           u4131 056C  
                                         u4051 053A                                           u3420 02CA  
                                         u3340 0297                                           u3260 0264  
                                         u3180 022E                                           u2700 0133  
                                         u2620 0100                                           u2540 00CA  
                                         u2460 0097                                           u4300 0627  
                                         u4220 05D9                                           u4140 057A  
                                         u4060 0541                                           u3500 0311  
                                         u3421 02C9                                           u3341 0296  
                                         u3261 0263                                           u3181 022D  
                                         u2701 0132                                           u2621 00FF  
                                         u2541 00C9                                           u2461 0096  
                                         u4301 0626                                           u4221 05D8  
                                         u4141 0579                                           u4061 0540  
                                         u4045 0530                                           u3501 0310  
                                         u3430 02D3                                           u3350 029D  
                                         u3270 026A                                           u3190 0237  
                                         u2710 013C                                           u2630 0106  
                                         u2550 00D0                                           u2470 009D  
                                         u2390 002D                                           u4310 0632  
                                         u4230 05DF                                           u4150 058E  
                                         u4070 0547                                           u3510 0317  
                                         u3431 02D2                                           u3351 029C  
                                         u3271 0269                                           u3191 0236  
                                         u2711 013B                                           u2631 0105  
                                         u2551 00CF                                           u2471 009C  
                                         u2391 002C                                           u4311 0631  
                                         u4231 05DE                                           u4151 058D  
                                         u4071 0546                                           u3511 0316  
                                         u3440 02D9                                           u3360 02A3  
                                         u3280 0270                                           u2800 0175  
                                         u2720 0142                                           u2640 010C  
                                         u2560 00D9                                           u2480 00A3  
                                         u4400 067D                                           u4320 064C  
                                         u4240 05E5                                           u4160 059B  
                                         u4080 054D                                           u3600 036B  
                                         u3520 031D                                           u3441 02D8  
                                         u3361 02A2                                           u3281 026F  
                                         u2801 0174                                           u2721 0141  
                                         u2641 010B                                           u2561 00D8  
                                         u2481 00A2                                           u4401 067C  
                                         u4321 064B                                           u4305 0623  
                                         u4241 05E4                                           u4161 059A  
                                         u4145 0576                                           u4081 054C  
                                         u3601 036A                                           u3521 031C  
                                         u3450 02DF                                           u3370 02AC  
                                         u3290 0276                                           u2810 017E  
                                         u2730 0148                                           u2650 0112  
                                         u2570 00DF                                           u2490 00A9  
                                         u4410 0685                                           u4330 0653  
                                         u4250 05EB                                           u4170 05A6  
                                         u4090 0553                                           u3610 0376  
                                         u3530 0323                                           u3451 02DE  
                                         u3371 02AB                                           u3291 0275  
                                         u2811 017D                                           u2731 0147  
                                         u2651 0111                                           u2571 00DE  
                                         u2491 00A8                                           u4411 0684  
                                         u4331 0652                                           u4251 05EA  
                                         u4171 05A5                                           u4155 058A  
                                         u4091 0552                                           u3611 0375  
                                         u3531 0322                                           u3460 02E5  
                                         u3380 02B2                                           u2820 0184  
                                         u2740 014E                                           u2660 011B  
                                         u2580 00E5                                           u2900 0FD9  
                                         u4500 06F1                                           u4420 0692  
                                         u4340 0659                                           u4260 05F1  
                                         u4180 05C0                                           u3700 03C1  
                                         u3620 0390                                           u3540 0329  
                                         u3461 02E4                                           u3381 02B1  
                                         u2821 0183                                           u2741 014D  
                                         u2661 011A                                           u2581 00E4  
                                         u2901 0FD8                                           u4501 06F0  
                                         u4421 0691                                           u4341 0658  
                                         u4325 0648                                           u4261 05F0  
                                         u4181 05BF                                           u4165 0597  
                                         u3701 03C0                                           u3621 038F  
                                         u3605 0367                                           u3541 0328  
                                         u3470 02EB                                           u3390 02B8  
                                         u2830 018A                                           u2750 0154  
                                         u2670 0121                                           u2590 00EB  
                                         u2910 0FDF                                           u4510 06F7  
                                         u4430 06A6                                           u4350 065F  
                                         u4270 05F9                                           u4190 05C7  
                                         u3710 03C9                                           u3630 0397  
                                         u3550 032F                                           u3471 02EA  
                                         u3391 02B7                                           u2831 0189  
                                         u2751 0153                                           u2671 0120  
                                         u2591 00EA                                           u2911 0FDE  
                                         u4511 06F6                                           u4431 06A5  
                                         u4351 065E                                           u4271 05F8  
                                         u4191 05C6                                           u3711 03C8  
                                         u3631 0396                                           u3551 032E  
                                         u2840 0190                                           u2760 015D  
                                         u2680 0127                                           u2920 0FE6  
                                         u4600 0764                                           u4520 06FD  
                                         u4440 06B3                                           u4360 0665  
                                         u4280 0606                                           u3800 0435  
                                         u3720 03D6                                           u3640 039D  
                                         u3560 0335                                           u3480 02FB  
                                         u2841 018F                                           u2761 015C  
                                         u2681 0126                                           u2921 0FE5  
                                         u4601 0763                                           u4521 06FC  
                                         u4441 06B2                                           u4425 068E  
                                         u4361 0664                                           u4281 0605  
                                         u4185 05BC                                           u3801 0434  
                                         u3721 03D5                                           u3641 039C  
                                         u3625 038C                                           u3561 0334  
                                         u3481 02FA                                           u2770 0163  
                                         u2690 012D                                           u2930 0FEC  
                                         u2850 0FA0                                           u4610 076B  
                                         u4530 0703                                           u4450 06BE  
                                         u4370 066B                                           u4290 061A  
                                         u3810 043B                                           u3730 03EA  
                                         u3650 03A3                                           u3570 033D  
                                         u3490 030B                                           u2771 0162  
                                         u2691 012C                                           u2931 0FEB  
                                         u2851 0F9F                                           u4611 076A  
                                         u4531 0702                                           u4451 06BD  
                                         u4435 06A2                                           u4371 066A  
                                         u4291 0619                                           u3811 043A  
                                         u3731 03E9                                           u3651 03A2  
                                         u3571 033C                                           u3491 030A  
                                         u2780 0169                                           u2940 0FFF  
                                         u2860 0FB5                                           u4700 07B9  
                                         u4620 0771                                           u4540 0709  
                                         u4460 06D8                                           u4380 0671  
                                         u3900 04A8                                           u3820 0441  
                                         u3740 03F7                                           u3660 03A9  
                                         u3580 034A                                           u2781 0168  
                                         u2941 0FFE                                           u2861 0FB4  
                                         u4701 07B8                                           u4621 0770  
                                         u4605 0760                                           u4541 0708  
                                         u4461 06D7                                           u4445 06AF  
                                         u4381 0670                                           u4285 0602  
                                         u3901 04A7                                           u3821 0440  
                                         u3741 03F6                                           u3725 03D2  
                                         u3661 03A8                                           u3581 0349  
                                         u2950 019B                                           u2790 016F  
                                         u2870 0FBF                                           u4710 07C6  
                                         u4630 0777                                           u4550 0711  
                                         u4470 06DF                                           u4390 0677  
                                         u3910 04AF                                           u3830 0447  
                                         u3750 0402                                           u3670 03AF  
                                         u3590 035E                                           u2951 019A  
                                         u2791 016E                                           u2871 0FBE  
                                         u2855 0F9C                                           u4711 07C5  
                                         u4631 0776                                           u4551 0710  
                                         u4471 06DE                                           u4391 0676  
                                         u4295 0616                                           u3911 04AE  
                                         u3831 0446                                           u3751 0401  
                                         u3735 03E6                                           u3671 03AE  
                                         u3591 035D                                           u2960 01A1  
                                         u2880 0FC5                                           u4720 07D4  
                                         u4640 077D                                           u4560 071E  
                                         u4480 06E5                                           u3920 04B5  
                                         u3840 044D                                           u3760 041C  
                                         u3680 03B5                                           u2961 01A0  
                                         u2945 0FFB                                           u2881 0FC4  
                                         u4721 07D3                                           u4705 07B5  
                                         u4641 077C                                           u4561 071D  
                                         u4481 06E4                                           u4465 06D4  
                                         u3921 04B4                                           u3905 04A4  
                                         u3841 044C                                           u3761 041B  
                                         u3745 03F3                                           u3681 03B4  
                                         u3585 0346                                           u2970 01A7  
                                         u2890 0FD0                                           u4730 07EE  
                                         u4650 0783                                           u4570 0732  
                                         u4490 06EB                                           u3930 04BB  
                                         u3850 0455                                           u3770 0423  
                                         u3690 03BB                                           u2971 01A6  
                                         u2891 0FCF                                           u4731 07ED  
                                         u4715 07C2                                           u4651 0782  
                                         u4571 0731                                           u4491 06EA  
                                         u3931 04BA                                           u3851 0454  
                                         u3771 0422                                           u3691 03BA  
                                         u3595 035A                                           u2980 01AD  
                                         u4660 0789                                           u4580 073F  
                                         u3940 04C1                                           u3860 0462  
                                         u3780 0429                                           u2981 01AC  
                                         u4661 0788                                           u4581 073E  
                                         u4565 071A                                           u3941 04C0  
                                         u3861 0461                                           u3781 0428  
                                         u3765 0418                                           u2990 01B3  
                                         u4670 078F                                           u4590 074A  
                                         u3950 04C7                                           u3870 0476  
                                         u3790 042F                                           u2991 01B2  
                                         u4735 07EA                                           u4671 078E  
                                         u4591 0749                                           u4575 072E  
                                         u4807 0695                                           u3951 04C6  
                                         u3871 0475                                           u3791 042E  
                                         u4680 0797                                           u3960 04CD  
                                         u3880 0483                                           u4681 0796  
                                         u4585 073B                                           u4817 0721  
                                         u3961 04CC                                           u3881 0482  
                                         u3865 045E                                           u4690 07A4  
                                         u3970 04D3                                           u3890 048E  
                                         u4827 07A8                                           u4691 07A3  
                                         u3971 04D2                                           u3891 048D  
                                         u3875 0472                                           u4747 034D  
                                         u3980 04D9                                           u4837 07C9  
                                         u3981 04D8                                           u3885 047F  
                                         u4757 03D9                                           u3990 04E1  
                                         u4695 07A0                                           u3991 04E0  
                                         u4767 0465                                           u4777 04F1  
                                         u4787 057D                                           u4797 0609  
                                         _WPUA 020C                                           _WPUB 020D  
                                         _main 02EE                                           fsr1h 0007  
                                         indf1 0001                                           fsr1l 0006  
                                         btemp 007E                                           start 0002  
                __end_of_OSCILLATOR_Initialize 001B                                          ?_main 0076  
                             __end_of_LEDs_off 02EE                                          _RCREG 0199  
                                        _RCSTA 019D                                          _TRISA 008C  
                                        _TRISB 008D                                          _TRISC 008E  
                                        _TXREG 019A                                          _TXSTA 019E  
                               _WDT_Initialize 0F7D                                          status 0003  
                                        wtemp0 007E                                    ?_USART_read 0076  
                              __initialization 07F1                                   __end_of_main 07F1  
                                       ??_main 0079                         __end_of_WDT_Initialize 0F81  
                                    ??_LEDs_on 0076              _EUSART_DefaultFramingErrorHandler 0000  
                   _EUSART_OverrunErrorHandler 0072                                         _APFCON 011D  
                                       _ANSELA 018C                                         _ANSELB 018D  
                                       _ANSELC 018E                     __end_of_EUSART_is_rx_ready 0F86  
                                       _BORCON 0116                                         _OSCCON 0099  
                                       _SPBRGH 019C                                         _SPBRGL 019B  
                                       _WDTCON 0097                                ?_WDT_Initialize 0076  
                            _SYSTEM_Initialize 001B                        __end_of__initialization 07FD  
                           ?_SYSTEM_Initialize 0076                                      ?_LEDs_off 0076  
                               __pcstackCOMMON 0076                            ??_SYSTEM_Initialize 0078  
                               _OPTION_REGbits 0095                ??_EUSART_SetOverrunErrorHandler 0078  
                    __end_of_SYSTEM_Initialize 0028                                     __pbssBANK0 0020  
                                   __pnvCOMMON 0070                                     ??_LEDs_off 0076  
                                   __pmaintext 02EE                                        _BAUDCON 019F  
                                      _LEDs_on 006F                       ??_EUSART_SetErrorHandler 0078  
                                 ??_USART_read 0076                                        __ptext1 0F86  
                                      __ptext2 0028                                        __ptext3 001B  
                                      __ptext4 0F7D                                        __ptext5 0037  
                                      __ptext6 0015                                        __ptext7 004E  
                                      __ptext8 0010                                        __ptext9 000B  
                        _OSCILLATOR_Initialize 0015                       ??_PIN_MANAGER_Initialize 0076  
                           __end_of_USART_read 1000                           end_of_initialization 07FD  
        __end_of_EUSART_SetOverrunErrorHandler 0015                  _EUSART_SetOverrunErrorHandler 0010  
                            _EUSART_Initialize 004E                             ?_EUSART_Initialize 0076  
                                    _RCSTAbits 019D                             _EUSART_is_rx_ready 0F81  
                          ??_EUSART_Initialize 0078                               ??_WDT_Initialize 0076  
                          ?_EUSART_is_rx_ready 0076                      __end_of_EUSART_Initialize 006F  
                         ??_EUSART_is_rx_ready 0076                                      _TXSTAbits 019E  
                   _EUSART_DefaultErrorHandler 0000                         ?_OSCILLATOR_Initialize 0076  
                          start_initialization 07F1                                    USART_read@i 0077  
                                ??_EUSART_Read 0076                 ?_EUSART_SetOverrunErrorHandler 0076  
                   _EUSART_FramingErrorHandler 0074                         _EUSART_SetErrorHandler 0006  
                                  __pbssCOMMON 007C                                      ___latbits 0002  
                                     ?_LEDs_on 0076                            __end_of_EUSART_Read 0037  
                       _PIN_MANAGER_Initialize 0037         EUSART_SetErrorHandler@interruptHandler 0076  
                                     _LATCbits 010E                              _eusartRxLastError 007C  
                                     _LEDs_off 0194                                       _PIR1bits 0011  
              ??_EUSART_SetFramingErrorHandler 0078              _EUSART_DefaultOverrunErrorHandler 0000  
                                  _EUSART_Read 0028                               main@time_counter 007A  
                      ??_OSCILLATOR_Initialize 0076                            _EUSART_ErrorHandler 0070  
                                     __ptext10 0006                                       __ptext11 006F  
                                     __ptext12 0194                                       __ptext13 0F81  
                      ?_EUSART_SetErrorHandler 0076  EUSART_SetOverrunErrorHandler@interruptHandler 0076  
        __end_of_EUSART_SetFramingErrorHandler 0010                  _EUSART_SetFramingErrorHandler 000B  
                      ?_PIN_MANAGER_Initialize 0076                 __end_of_EUSART_SetErrorHandler 000B  
EUSART_SetFramingErrorHandler@interruptHandler 0076                 __end_of_PIN_MANAGER_Initialize 004E  
                                   _USART_read 0F86  
